ARM GAS  C:\Users\ep_ygh\AppData\Local\Temp\ccopCd9W.s 			page 1


   1              		.cpu cortex-m4
   2              		.arch armv7e-m
   3              		.fpu fpv4-sp-d16
   4              		.eabi_attribute 27, 1
   5              		.eabi_attribute 28, 1
   6              		.eabi_attribute 20, 1
   7              		.eabi_attribute 21, 1
   8              		.eabi_attribute 23, 3
   9              		.eabi_attribute 24, 1
  10              		.eabi_attribute 25, 1
  11              		.eabi_attribute 26, 1
  12              		.eabi_attribute 30, 2
  13              		.eabi_attribute 34, 1
  14              		.eabi_attribute 18, 4
  15              		.file	"aspep.c"
  16              		.text
  17              	.Ltext0:
  18              		.cfi_sections	.debug_frame
  19              		.section	.text.ASPEP_start,"ax",%progbits
  20              		.align	1
  21              		.p2align 2,,3
  22              		.global	ASPEP_start
  23              		.syntax unified
  24              		.thumb
  25              		.thumb_func
  27              	ASPEP_start:
  28              	.LVL0:
  29              	.LFB1092:
  30              		.file 1 "Src/aspep.c"
   1:Src/aspep.c   **** 
   2:Src/aspep.c   **** /**
   3:Src/aspep.c   ****   ******************************************************************************
   4:Src/aspep.c   ****   * @file   aspep.c
   5:Src/aspep.c   ****   * @author Motor Control SDK Team, ST Microelectronics
   6:Src/aspep.c   ****   * @brief  This file provides firmware functions that implement the aspep protocol
   7:Src/aspep.c   ****   *
   8:Src/aspep.c   ****   *
   9:Src/aspep.c   ****   ******************************************************************************
  10:Src/aspep.c   ****   * @attention
  11:Src/aspep.c   ****   *
  12:Src/aspep.c   ****   * <h2><center>&copy; Copyright (c) 2023 STMicroelectronics.
  13:Src/aspep.c   ****   * All rights reserved.</center></h2>
  14:Src/aspep.c   ****   *
  15:Src/aspep.c   ****   * This software component is licensed by ST under Ultimate Liberty license
  16:Src/aspep.c   ****   * SLA0044, the "License"; You may not use this file except in compliance with
  17:Src/aspep.c   ****   * the License. You may obtain a copy of the License at:
  18:Src/aspep.c   ****   *                             www.st.com/SLA0044
  19:Src/aspep.c   ****   *
  20:Src/aspep.c   ****   ******************************************************************************
  21:Src/aspep.c   ****   */
  22:Src/aspep.c   **** #include <stdint.h>
  23:Src/aspep.c   **** #include "aspep.h"
  24:Src/aspep.c   **** 
  25:Src/aspep.c   **** /* Local definition */
  26:Src/aspep.c   **** #define MIN(a,b) ( ((a) < (b)) ? (a) : (b) )
  27:Src/aspep.c   **** 
  28:Src/aspep.c   **** /* Local functions */
ARM GAS  C:\Users\ep_ygh\AppData\Local\Temp\ccopCd9W.s 			page 2


  29:Src/aspep.c   **** static bool ASPEP_CheckBeacon (ASPEP_Handle_t *pHandle);
  30:Src/aspep.c   **** static uint8_t ASPEP_TXframeProcess(ASPEP_Handle_t *pHandle, uint8_t packetType, void *txBuffer, ui
  31:Src/aspep.c   **** void ASPEP_sendBeacon(ASPEP_Handle_t *pHandle, ASPEP_Capabilities_def *capabilities);
  32:Src/aspep.c   **** void ASPEP_sendPing(ASPEP_Handle_t *pHandle, uint8_t state, uint16_t PacketNumber);
  33:Src/aspep.c   **** 
  34:Src/aspep.c   **** /** @addtogroup MCSDK
  35:Src/aspep.c   ****   * @{
  36:Src/aspep.c   ****   */
  37:Src/aspep.c   **** 
  38:Src/aspep.c   **** /** @addtogroup MCP
  39:Src/aspep.c   ****   * @{
  40:Src/aspep.c   ****   */
  41:Src/aspep.c   **** 
  42:Src/aspep.c   **** #ifndef CRC4_PER_NIBBLE
  43:Src/aspep.c   **** /**
  44:Src/aspep.c   ****   * @brief CRC-4 lookup table with 256 entries
  45:Src/aspep.c   ****   *
  46:Src/aspep.c   ****   * Computes and checks the CRC on the header with the BYTE granularity.
  47:Src/aspep.c   ****   *
  48:Src/aspep.c   ****   * When computing the CRC, the 7th nibble must to be processed with the CRC_Lookup4
  49:Src/aspep.c   ****   * table. Indeed, the header contains 7 nibbles (28 bits) of data on which the CRC is
  50:Src/aspep.c   ****   * to be computed. Hence, the CRC4_Lookup8 table cannot be used for the last nibble.
  51:Src/aspep.c   ****   *
  52:Src/aspep.c   ****   * Using only this lookup table requires that the amount of input data is a multiple of
  53:Src/aspep.c   ****   * 8 bits.
  54:Src/aspep.c   ****   */
  55:Src/aspep.c   **** static uint8_t const CRC4_Lookup8[] =
  56:Src/aspep.c   **** {
  57:Src/aspep.c   ****   /*          0,    1,    2,    3,    4,    5,    6,    7,    8,    9,   A,     B,    C,    D,    E
  58:Src/aspep.c   ****   /* 0 */  0x00, 0x02, 0x04, 0x06, 0x08, 0x0a, 0x0c, 0x0e, 0x07, 0x05, 0x03, 0x01, 0x0f, 0x0d, 0x0b
  59:Src/aspep.c   ****   /* 1 */  0x07, 0x05, 0x03, 0x01, 0x0f, 0x0d, 0x0b, 0x09, 0x00, 0x02, 0x04, 0x06, 0x08, 0x0a, 0x0c
  60:Src/aspep.c   ****   /* 2 */  0x0e, 0x0c, 0x0a, 0x08, 0x06, 0x04, 0x02, 0x00, 0x09, 0x0b, 0x0d, 0x0f, 0x01, 0x03, 0x05
  61:Src/aspep.c   ****   /* 3 */  0x09, 0x0b, 0x0d, 0x0f, 0x01, 0x03, 0x05, 0x07, 0x0e, 0x0c, 0x0a, 0x08, 0x06, 0x04, 0x02
  62:Src/aspep.c   ****   /* 4 */  0x0b, 0x09, 0x0f, 0x0d, 0x03, 0x01, 0x07, 0x05, 0x0c, 0x0e, 0x08, 0x0a, 0x04, 0x06, 0x00
  63:Src/aspep.c   ****   /* 5 */  0x0c, 0x0e, 0x08, 0x0a, 0x04, 0x06, 0x00, 0x02, 0x0b, 0x09, 0x0f, 0x0d, 0x03, 0x01, 0x07
  64:Src/aspep.c   ****   /* 6 */  0x05, 0x07, 0x01, 0x03, 0x0d, 0x0f, 0x09, 0x0b, 0x02, 0x00, 0x06, 0x04, 0x0a, 0x08, 0x0e
  65:Src/aspep.c   ****   /* 7 */  0x02, 0x00, 0x06, 0x04, 0x0a, 0x08, 0x0e, 0x0c, 0x05, 0x07, 0x01, 0x03, 0x0d, 0x0f, 0x09
  66:Src/aspep.c   ****   /* 8 */  0x01, 0x03, 0x05, 0x07, 0x09, 0x0b, 0x0d, 0x0f, 0x06, 0x04, 0x02, 0x00, 0x0e, 0x0c, 0x0a
  67:Src/aspep.c   ****   /* 9 */  0x06, 0x04, 0x02, 0x00, 0x0e, 0x0c, 0x0a, 0x08, 0x01, 0x03, 0x05, 0x07, 0x09, 0x0b, 0x0d
  68:Src/aspep.c   ****   /* A */  0x0f, 0x0d, 0x0b, 0x09, 0x07, 0x05, 0x03, 0x01, 0x08, 0x0a, 0x0c, 0x0e, 0x00, 0x02, 0x04
  69:Src/aspep.c   ****   /* B */  0x08, 0x0a, 0x0c, 0x0e, 0x00, 0x02, 0x04, 0x06, 0x0f, 0x0d, 0x0b, 0x09, 0x07, 0x05, 0x03
  70:Src/aspep.c   ****   /* C */  0x0a, 0x08, 0x0e, 0x0c, 0x02, 0x00, 0x06, 0x04, 0x0d, 0x0f, 0x09, 0x0b, 0x05, 0x07, 0x01
  71:Src/aspep.c   ****   /* D */  0x0d, 0x0f, 0x09, 0x0b, 0x05, 0x07, 0x01, 0x03, 0x0a, 0x08, 0x0e, 0x0c, 0x02, 0x00, 0x06
  72:Src/aspep.c   ****   /* E */  0x04, 0x06, 0x00, 0x02, 0x0c, 0x0e, 0x08, 0x0a, 0x03, 0x01, 0x07, 0x05, 0x0b, 0x09, 0x0f
  73:Src/aspep.c   ****   /* F */  0x03, 0x01, 0x07, 0x05, 0x0b, 0x09, 0x0f, 0x0d, 0x04, 0x06, 0x00, 0x02, 0x0c, 0x0e, 0x08
  74:Src/aspep.c   **** };
  75:Src/aspep.c   **** 
  76:Src/aspep.c   **** /**
  77:Src/aspep.c   ****   * @brief CRC-4 lookup table with 16 entries
  78:Src/aspep.c   ****   *
  79:Src/aspep.c   ****   *  Used to compute and check the CRC on the header with either the BYTE or NIBBLE granularity
  80:Src/aspep.c   ****   * In case the BYTE granularity is used, the table is used only with the 7th nibble of the header
  81:Src/aspep.c   ****   * (bits 24 to 27) when computing the CRC.
  82:Src/aspep.c   ****   */
  83:Src/aspep.c   ****   //cstat !MISRAC2012-Rule-8.9_a
  84:Src/aspep.c   **** static uint8_t const CRC4_Lookup4[] =
  85:Src/aspep.c   **** {
ARM GAS  C:\Users\ep_ygh\AppData\Local\Temp\ccopCd9W.s 			page 3


  86:Src/aspep.c   ****   /*   0,    1,    2,    3,    4,    5,    6,    7,    8,    9,   A,     B,    C,    D,    E,    F 
  87:Src/aspep.c   ****   0x00, 0x07, 0x0e, 0x09, 0x0b, 0x0c, 0x05, 0x02, 0x01, 0x06, 0x0f, 0x08, 0x0a, 0x0d, 0x04, 0x03
  88:Src/aspep.c   **** };
  89:Src/aspep.c   **** #endif /* CRC4_PER_NIBBLE */
  90:Src/aspep.c   **** 
  91:Src/aspep.c   **** /**
  92:Src/aspep.c   ****   * @brief Computes a 4-bit CRC on the 28 LSBs of @p header and returns it in the 4 MSB of the head
  93:Src/aspep.c   ****   *
  94:Src/aspep.c   ****   *  The generator polynomial used for the CRC is x^4+x+1 (ref. CCITT-G704).
  95:Src/aspep.c   ****   *
  96:Src/aspep.c   ****   *  The 28 input bits are split into 7 nibbles that are processed from the least significant to th
  97:Src/aspep.c   ****   * most significant one as follows:
  98:Src/aspep.c   ****   *
  99:Src/aspep.c   ****   *  - the least significant (4-bit) nibble is processed first as if it were the most significant p
 100:Src/aspep.c   ****   *    of the divident;
 101:Src/aspep.c   ****   *  - the order of bits in each nibble is unchanged for processing which would leads to the follow
 102:Src/aspep.c   ****   *    bit processing sequence: 3, 2, 1, 0, 7, 6, 5, 4, 11, 10, 9, 8, 15, 14, 13, 12, 19, 18, 17, 1
 103:Src/aspep.c   ****   *    23, 22, 21, 20, 27, 26, 25, 24.
 104:Src/aspep.c   ****   *
 105:Src/aspep.c   ****   *  Two lookup tables based implementations are proposed: one solely relying on a 16 entries looku
 106:Src/aspep.c   ****   * table and another one that also uses a 256 entries lookup table. This last one is the default. 
 107:Src/aspep.c   ****   * requires 256 more bytes than the first but is also roughly two times faster.
 108:Src/aspep.c   ****   *
 109:Src/aspep.c   ****   *  The 16 entries lookup table based implementation is enabled when the CRC4_PER_NIBBLE preproces
 110:Src/aspep.c   ****   * flag is defined.
 111:Src/aspep.c   ****   *
 112:Src/aspep.c   ****   *  Note that the default, 256 entries lookup table based implementation also uses the 16 entries 
 113:Src/aspep.c   ****   * table because the amount of input data is not a multiple of 8 bits.
 114:Src/aspep.c   ****   *
 115:Src/aspep.c   ****   * The resulting CRC is written in bits 28 to 31 of @p header and the whole header is returned.
 116:Src/aspep.c   ****   */
 117:Src/aspep.c   **** static void ASPEP_ComputeHeaderCRC(uint32_t *headerPtr)
 118:Src/aspep.c   **** {
 119:Src/aspep.c   ****   uint8_t crc = 0;
 120:Src/aspep.c   ****   uint32_t header = *headerPtr;
 121:Src/aspep.c   **** 
 122:Src/aspep.c   **** #ifndef CRC4_PER_NIBBLE
 123:Src/aspep.c   ****   header &= 0x0fffffffU;
 124:Src/aspep.c   **** 
 125:Src/aspep.c   ****   crc = CRC4_Lookup8[crc ^ (uint8_t)(header         & 0xffU)];
 126:Src/aspep.c   ****   crc = CRC4_Lookup8[crc ^ (uint8_t)((header >> 8U) & 0xffU)];
 127:Src/aspep.c   ****   crc = CRC4_Lookup8[crc ^ (uint8_t)((header >> 16U) & 0xffU)];
 128:Src/aspep.c   ****   crc = CRC4_Lookup4[crc ^ (uint8_t)((header >> 24U) & 0x0fU)];
 129:Src/aspep.c   **** #else /* CRC4_PER_NIBBLE */
 130:Src/aspep.c   ****   crc = CRC4_Lookup4[crc ^ (uint8_t)(header         & 0xfU)];
 131:Src/aspep.c   ****   crc = CRC4_Lookup4[crc ^ (uint8_t)((header >>  4U) & 0xfU)];
 132:Src/aspep.c   ****   crc = CRC4_Lookup4[crc ^ (uint8_t)((header >>  8U) & 0xfU)];
 133:Src/aspep.c   ****   crc = CRC4_Lookup4[crc ^ (uint8_t)((header >> 12U) & 0xfU)];
 134:Src/aspep.c   ****   crc = CRC4_Lookup4[crc ^ (uint8_t)((header >> 16U) & 0xfU)];
 135:Src/aspep.c   ****   crc = CRC4_Lookup4[crc ^ (uint8_t)((header >> 20U) & 0xfU)];
 136:Src/aspep.c   ****   crc = CRC4_Lookup4[crc ^ (uint8_t)((header >> 24U) & 0xfU)];
 137:Src/aspep.c   **** #endif /* CRC4_PER_NIBBLE */
 138:Src/aspep.c   **** 
 139:Src/aspep.c   ****   *headerPtr |= (uint32_t)crc << 28;
 140:Src/aspep.c   **** 
 141:Src/aspep.c   **** }
 142:Src/aspep.c   **** 
ARM GAS  C:\Users\ep_ygh\AppData\Local\Temp\ccopCd9W.s 			page 4


 143:Src/aspep.c   **** /**
 144:Src/aspep.c   ****   * @brief Checks if @p header contains a valid 4-bit CRC and return true if this is the case and f
 145:Src/aspep.c   ****   *
 146:Src/aspep.c   ****   *  The CRC is computed over the 32 bits of the @p header. If the result is 0, the CRC is consider
 147:Src/aspep.c   ****   * and true is returned. If the result is not 0, false is returned.
 148:Src/aspep.c   ****   *
 149:Src/aspep.c   ****   * @sa ASPEP_ComputeHeaderCRC
 150:Src/aspep.c   ****   */
 151:Src/aspep.c   **** static bool ASPEP_CheckHeaderCRC(uint32_t header)
 152:Src/aspep.c   **** {
 153:Src/aspep.c   ****   uint8_t crc = 0;
 154:Src/aspep.c   **** 
 155:Src/aspep.c   **** #ifndef CRC4_PER_NIBBLE
 156:Src/aspep.c   ****   crc = CRC4_Lookup8[crc ^ (uint8_t)(header         & 0xffU)];
 157:Src/aspep.c   ****   crc = CRC4_Lookup8[crc ^ (uint8_t)((header >> 8U) & 0xffU)];
 158:Src/aspep.c   ****   crc = CRC4_Lookup8[crc ^ (uint8_t)((header >> 16U) & 0xffU)];
 159:Src/aspep.c   ****   crc = CRC4_Lookup8[crc ^ (uint8_t)((header >> 24U) & 0xffU)];
 160:Src/aspep.c   **** #else /* CRC4_PER_NIBBLE */
 161:Src/aspep.c   ****   crc = CRC4_Lookup4[crc ^ (uint8_t)(header         & 0xfU)];
 162:Src/aspep.c   ****   crc = CRC4_Lookup4[crc ^ (uint8_t)((header >>  4U) & 0xfU)];
 163:Src/aspep.c   ****   crc = CRC4_Lookup4[crc ^ (uint8_t)((header >>  8U) & 0xfU)];
 164:Src/aspep.c   ****   crc = CRC4_Lookup4[crc ^ (uint8_t)((header >> 12U) & 0xfU)];
 165:Src/aspep.c   ****   crc = CRC4_Lookup4[crc ^ (uint8_t)((header >> 16U) & 0xfU)];
 166:Src/aspep.c   ****   crc = CRC4_Lookup4[crc ^ (uint8_t)((header >> 20U) & 0xfU)];
 167:Src/aspep.c   ****   crc = CRC4_Lookup4[crc ^ (uint8_t)((header >> 24U) & 0xfU)];
 168:Src/aspep.c   ****   crc = crc ^ (uint8_t)((header >> 28) & 0xf);
 169:Src/aspep.c   **** #endif /* CRC4_PER_NIBBLE */
 170:Src/aspep.c   **** 
 171:Src/aspep.c   ****   return (crc == 0U);
 172:Src/aspep.c   **** }
 173:Src/aspep.c   **** 
 174:Src/aspep.c   **** /**
 175:Src/aspep.c   ****   * @brief  Starts ASPEP communication by configuring UART.
 176:Src/aspep.c   ****   *
 177:Src/aspep.c   ****   * @param  *pHandle Handler of the current instance of the ASPEP component
 178:Src/aspep.c   ****   */
 179:Src/aspep.c   **** void ASPEP_start(ASPEP_Handle_t *pHandle)
 180:Src/aspep.c   **** {
  31              		.loc 1 180 1 view -0
  32              		.cfi_startproc
  33              		@ args = 0, pretend = 0, frame = 0
  34              		@ frame_needed = 0, uses_anonymous_args = 0
 181:Src/aspep.c   **** #ifdef NULL_PTR_CHECK_ASP
 182:Src/aspep.c   ****   if (MC_NULL == pHandle)
 183:Src/aspep.c   ****   {
 184:Src/aspep.c   ****     /* Nothing to do */
 185:Src/aspep.c   ****   }
 186:Src/aspep.c   ****   else
 187:Src/aspep.c   ****   {
 188:Src/aspep.c   **** #endif
 189:Src/aspep.c   ****     pHandle->fASPEP_HWInit(pHandle->HWIp);
  35              		.loc 1 189 5 view .LVU1
 180:Src/aspep.c   **** #ifdef NULL_PTR_CHECK_ASP
  36              		.loc 1 180 1 is_stmt 0 view .LVU2
  37 0000 70B5     		push	{r4, r5, r6, lr}
  38              	.LCFI0:
  39              		.cfi_def_cfa_offset 16
ARM GAS  C:\Users\ep_ygh\AppData\Local\Temp\ccopCd9W.s 			page 5


  40              		.cfi_offset 4, -16
  41              		.cfi_offset 5, -12
  42              		.cfi_offset 6, -8
  43              		.cfi_offset 14, -4
 180:Src/aspep.c   **** #ifdef NULL_PTR_CHECK_ASP
  44              		.loc 1 180 1 view .LVU3
  45 0002 0446     		mov	r4, r0
  46              		.loc 1 189 5 view .LVU4
  47 0004 4069     		ldr	r0, [r0, #20]
  48              	.LVL1:
  49              		.loc 1 189 5 view .LVU5
  50 0006 E36C     		ldr	r3, [r4, #76]
  51 0008 9847     		blx	r3
  52              	.LVL2:
 190:Src/aspep.c   ****     pHandle->ASPEP_State = ASPEP_IDLE;
  53              		.loc 1 190 5 is_stmt 1 view .LVU6
 191:Src/aspep.c   ****     pHandle->ASPEP_TL_State = WAITING_PACKET;
  54              		.loc 1 191 5 view .LVU7
 190:Src/aspep.c   ****     pHandle->ASPEP_State = ASPEP_IDLE;
  55              		.loc 1 190 26 is_stmt 0 view .LVU8
  56 000a 0023     		movs	r3, #0
 192:Src/aspep.c   ****     pHandle->syncPacketCount = 0; /* Sync packet counter is reset only at startup*/
 193:Src/aspep.c   **** 
 194:Src/aspep.c   ****     /* Configure UART to receive first packet*/
 195:Src/aspep.c   ****     pHandle->fASPEP_receive(pHandle->HWIp, pHandle->rxHeader, ASPEP_HEADER_SIZE);
  57              		.loc 1 195 5 view .LVU9
  58 000c 656D     		ldr	r5, [r4, #84]
 190:Src/aspep.c   ****     pHandle->ASPEP_TL_State = WAITING_PACKET;
  59              		.loc 1 190 26 view .LVU10
  60 000e A4F86430 		strh	r3, [r4, #100]	@ movhi
 192:Src/aspep.c   ****     pHandle->syncPacketCount = 0; /* Sync packet counter is reset only at startup*/
  61              		.loc 1 192 5 is_stmt 1 view .LVU11
 192:Src/aspep.c   ****     pHandle->syncPacketCount = 0; /* Sync packet counter is reset only at startup*/
  62              		.loc 1 192 30 is_stmt 0 view .LVU12
  63 0012 84F86030 		strb	r3, [r4, #96]
  64              		.loc 1 195 5 is_stmt 1 view .LVU13
  65 0016 6069     		ldr	r0, [r4, #20]
  66 0018 04F11C01 		add	r1, r4, #28
  67 001c 2B46     		mov	r3, r5
  68 001e 0422     		movs	r2, #4
 196:Src/aspep.c   **** #ifdef NULL_PTR_CHECK_ASP
 197:Src/aspep.c   ****   }
 198:Src/aspep.c   **** #endif
 199:Src/aspep.c   **** }
  69              		.loc 1 199 1 is_stmt 0 view .LVU14
  70 0020 BDE87040 		pop	{r4, r5, r6, lr}
  71              	.LCFI1:
  72              		.cfi_restore 14
  73              		.cfi_restore 6
  74              		.cfi_restore 5
  75              		.cfi_restore 4
  76              		.cfi_def_cfa_offset 0
  77              	.LVL3:
 195:Src/aspep.c   **** #ifdef NULL_PTR_CHECK_ASP
  78              		.loc 1 195 5 view .LVU15
  79 0024 1847     		bx	r3	@ indirect register sibling call
  80              	.LVL4:
ARM GAS  C:\Users\ep_ygh\AppData\Local\Temp\ccopCd9W.s 			page 6


 195:Src/aspep.c   **** #ifdef NULL_PTR_CHECK_ASP
  81              		.loc 1 195 5 view .LVU16
  82              		.cfi_endproc
  83              	.LFE1092:
  85 0026 00BF     		.section	.text.ASPEP_sendBeacon,"ax",%progbits
  86              		.align	1
  87              		.p2align 2,,3
  88              		.global	ASPEP_sendBeacon
  89              		.syntax unified
  90              		.thumb
  91              		.thumb_func
  93              	ASPEP_sendBeacon:
  94              	.LVL5:
  95              	.LFB1093:
 200:Src/aspep.c   **** 
 201:Src/aspep.c   **** /**
 202:Src/aspep.c   ****   * @brief  Sends BEACON to controller containing matched capabilities between controller and perfo
 203:Src/aspep.c   ****   *
 204:Src/aspep.c   ****   * @param  *pHandle Handler of the current instance of the ASPEP component
 205:Src/aspep.c   ****   * @param  *capabilities Matched capabilities between controller and performer
 206:Src/aspep.c   ****   */
 207:Src/aspep.c   **** void ASPEP_sendBeacon(ASPEP_Handle_t *pHandle, ASPEP_Capabilities_def *capabilities)
 208:Src/aspep.c   **** {
  96              		.loc 1 208 1 is_stmt 1 view -0
  97              		.cfi_startproc
  98              		@ args = 0, pretend = 0, frame = 0
  99              		@ frame_needed = 0, uses_anonymous_args = 0
 100              		@ link register save eliminated.
 209:Src/aspep.c   **** #ifdef NULL_PTR_CHECK_ASP
 210:Src/aspep.c   ****   if ((MC_NULL == pHandle) || (NULL == capabilities))
 211:Src/aspep.c   ****   {
 212:Src/aspep.c   ****     /* Nothing to do */
 213:Src/aspep.c   ****   }
 214:Src/aspep.c   ****   else
 215:Src/aspep.c   ****   {
 216:Src/aspep.c   **** #endif
 217:Src/aspep.c   ****     uint32_t *packet = (uint32_t *)pHandle->ctrlBuffer.buffer; //cstat !MISRAC2012-Rule-11.3
 101              		.loc 1 217 5 view .LVU18
 208:Src/aspep.c   **** #ifdef NULL_PTR_CHECK_ASP
 102              		.loc 1 208 1 is_stmt 0 view .LVU19
 103 0000 10B4     		push	{r4}
 104              	.LCFI2:
 105              		.cfi_def_cfa_offset 4
 106              		.cfi_offset 4, -4
 218:Src/aspep.c   ****     *packet = (BEACON
 219:Src/aspep.c   ****              | (((uint32_t)capabilities->version) << 4U)
 220:Src/aspep.c   ****              | (((uint32_t)capabilities->DATA_CRC) << 7U)
 107              		.loc 1 220 18 view .LVU20
 108 0002 0B78     		ldrb	r3, [r1]	@ zero_extendqisi2
 219:Src/aspep.c   ****              | (((uint32_t)capabilities->DATA_CRC) << 7U)
 109              		.loc 1 219 18 view .LVU21
 110 0004 0A79     		ldrb	r2, [r1, #4]	@ zero_extendqisi2
 221:Src/aspep.c   ****              | (((uint32_t)capabilities->RX_maxSize) << 8U)
 222:Src/aspep.c   ****              | (((uint32_t)capabilities->TXS_maxSize) << 14U)
 111              		.loc 1 222 18 view .LVU22
 112 0006 91F802C0 		ldrb	ip, [r1, #2]	@ zero_extendqisi2
 113              	.LBB40:
ARM GAS  C:\Users\ep_ygh\AppData\Local\Temp\ccopCd9W.s 			page 7


 114              	.LBB41:
 115              	.LBB42:
 116              	.LBB43:
 125:Src/aspep.c   ****   crc = CRC4_Lookup8[crc ^ (uint8_t)((header >> 8U) & 0xffU)];
 117              		.loc 1 125 7 view .LVU23
 118 000a 1E4C     		ldr	r4, .L9
 119              	.LBE43:
 120              	.LBE42:
 121              	.LBE41:
 122              	.LBE40:
 220:Src/aspep.c   ****              | (((uint32_t)capabilities->RX_maxSize) << 8U)
 123              		.loc 1 220 52 view .LVU24
 124 000c DB01     		lsls	r3, r3, #7
 223:Src/aspep.c   ****              | (((uint32_t)capabilities->TXA_maxSize) << 21U));
 125              		.loc 1 223 14 view .LVU25
 126 000e 43EA0213 		orr	r3, r3, r2, lsl #4
 221:Src/aspep.c   ****              | (((uint32_t)capabilities->TXS_maxSize) << 14U)
 127              		.loc 1 221 18 view .LVU26
 128 0012 4A78     		ldrb	r2, [r1, #1]	@ zero_extendqisi2
 129              		.loc 1 223 14 view .LVU27
 130 0014 43EA0223 		orr	r3, r3, r2, lsl #8
 131              		.loc 1 223 18 view .LVU28
 132 0018 CA78     		ldrb	r2, [r1, #3]	@ zero_extendqisi2
 133              		.loc 1 223 14 view .LVU29
 134 001a 43EA8C33 		orr	r3, r3, ip, lsl #14
 135 001e 43EA4253 		orr	r3, r3, r2, lsl #21
 136              	.LBB62:
 137              	.LBB58:
 138              	.LBB46:
 139              	.LBB44:
 125:Src/aspep.c   ****   crc = CRC4_Lookup8[crc ^ (uint8_t)((header >> 8U) & 0xffU)];
 140              		.loc 1 125 26 view .LVU30
 141 0022 DAB2     		uxtb	r2, r3
 142 0024 42F00502 		orr	r2, r2, #5
 123:Src/aspep.c   **** 
 143              		.loc 1 123 10 view .LVU31
 144 0028 23F07041 		bic	r1, r3, #-268435456
 145              	.LVL6:
 126:Src/aspep.c   ****   crc = CRC4_Lookup8[crc ^ (uint8_t)((header >> 16U) & 0xffU)];
 146              		.loc 1 126 26 view .LVU32
 147 002c A25C     		ldrb	r2, [r4, r2]	@ zero_extendqisi2
 148              	.LVL7:
 126:Src/aspep.c   ****   crc = CRC4_Lookup8[crc ^ (uint8_t)((header >> 16U) & 0xffU)];
 149              		.loc 1 126 26 view .LVU33
 150              	.LBE44:
 151              	.LBE46:
 152              	.LBE58:
 153              	.LBE62:
 218:Src/aspep.c   ****              | (((uint32_t)capabilities->version) << 4U)
 154              		.loc 1 218 5 is_stmt 1 view .LVU34
 224:Src/aspep.c   **** 
 225:Src/aspep.c   ****     (void)ASPEP_TXframeProcess(pHandle, ASPEP_CTRL, &pHandle->ctrlBuffer, ASPEP_CTRL_SIZE);
 155              		.loc 1 225 5 view .LVU35
 156              	.LBB63:
 157              	.LBI40:
 226:Src/aspep.c   **** #ifdef NULL_PTR_CHECK_ASP
 227:Src/aspep.c   ****   }
ARM GAS  C:\Users\ep_ygh\AppData\Local\Temp\ccopCd9W.s 			page 8


 228:Src/aspep.c   **** #endif
 229:Src/aspep.c   **** }
 230:Src/aspep.c   **** 
 231:Src/aspep.c   **** /**
 232:Src/aspep.c   ****   * @brief  Sends back to controller a NOT_ACKNOWLEDGED message.
 233:Src/aspep.c   ****   *
 234:Src/aspep.c   ****   * @param  *pHandle Handler of the current instance of the ASPEP component
 235:Src/aspep.c   ****   * @param  errorInfo Information on the encountered error
 236:Src/aspep.c   ****   */
 237:Src/aspep.c   **** static void ASPEP_sendNack(ASPEP_Handle_t *pHandle, uint8_t errorInfo)
 238:Src/aspep.c   **** {
 239:Src/aspep.c   ****   uint32_t *packet = (uint32_t *)pHandle->ctrlBuffer.buffer; //cstat !MISRAC2012-Rule-11.3
 240:Src/aspep.c   ****   *packet = NACK | (uint32_t)(((uint32_t) errorInfo) << 8U) | (uint32_t)(((uint32_t) errorInfo) << 
 241:Src/aspep.c   ****   (void)ASPEP_TXframeProcess(pHandle, ASPEP_CTRL, &pHandle->ctrlBuffer, ASPEP_CTRL_SIZE);
 242:Src/aspep.c   **** }
 243:Src/aspep.c   **** 
 244:Src/aspep.c   **** /**
 245:Src/aspep.c   ****   * @brief  Sends back ping to controller once connection has been established.
 246:Src/aspep.c   ****   *
 247:Src/aspep.c   ****   * @param  *pHandle Handler of the current instance of the ASPEP component
 248:Src/aspep.c   ****   * @param  cBit Set to 1 if Performer has not been reset during communication
 249:Src/aspep.c   ****   * @param  packetNumber Number of requested packet incremented throughout the entire communication
 250:Src/aspep.c   ****   */
 251:Src/aspep.c   **** void ASPEP_sendPing(ASPEP_Handle_t *pHandle, uint8_t cBit, uint16_t packetNumber)
 252:Src/aspep.c   **** {
 253:Src/aspep.c   **** #ifdef NULL_PTR_CHECK_ASP
 254:Src/aspep.c   ****   if (MC_NULL == pHandle)
 255:Src/aspep.c   ****   {
 256:Src/aspep.c   ****     /* Nothing to do */
 257:Src/aspep.c   ****   }
 258:Src/aspep.c   ****   else
 259:Src/aspep.c   ****   {
 260:Src/aspep.c   **** #endif
 261:Src/aspep.c   ****     uint32_t *packet = (uint32_t *)pHandle->ctrlBuffer.buffer; //cstat !MISRAC2012-Rule-11.3
 262:Src/aspep.c   ****     uint8_t Nbit = pHandle->syncPacketCount & 0x1U; /* Keep only LSB */
 263:Src/aspep.c   ****     uint8_t ipID = pHandle->liid & 0xFU;
 264:Src/aspep.c   ****     *packet = PING | (uint32_t)((uint32_t)cBit << 4U)
 265:Src/aspep.c   ****                    | (uint32_t)((uint32_t)cBit << 5U)
 266:Src/aspep.c   ****                    | (uint32_t)((uint32_t)Nbit << 6U)
 267:Src/aspep.c   ****                    | (uint32_t)((uint32_t)Nbit << 7U)
 268:Src/aspep.c   ****                    | (uint32_t)((uint32_t)ipID << 8U)
 269:Src/aspep.c   ****                    | (uint32_t)(((uint32_t) packetNumber) << 12U);
 270:Src/aspep.c   ****     (void)ASPEP_TXframeProcess(pHandle, ASPEP_CTRL, &pHandle->ctrlBuffer, ASPEP_CTRL_SIZE);
 271:Src/aspep.c   **** #ifdef NULL_PTR_CHECK_ASP
 272:Src/aspep.c   ****   }
 273:Src/aspep.c   **** #endif
 274:Src/aspep.c   **** }
 275:Src/aspep.c   **** 
 276:Src/aspep.c   **** /**
 277:Src/aspep.c   ****   * @brief  Assigns new buffer depending on buffer type request and prevents overwriting.
 278:Src/aspep.c   ****   *
 279:Src/aspep.c   ****   * @param  *pSupHandle Handler of the current instance of the MCTL component
 280:Src/aspep.c   ****   * @param  **buffer Pointer to the buffer to be assigned
 281:Src/aspep.c   ****   * @param  syncAsync Type of requested buffer, can be synchronous or asynchronous
 282:Src/aspep.c   ****   *
 283:Src/aspep.c   ****   * @return Returns true if there is a writable buffer. False otherwise.
 284:Src/aspep.c   ****   */
ARM GAS  C:\Users\ep_ygh\AppData\Local\Temp\ccopCd9W.s 			page 9


 285:Src/aspep.c   **** bool ASPEP_getBuffer(MCTL_Handle_t *pSupHandle, void **buffer,  uint8_t syncAsync)
 286:Src/aspep.c   **** {
 287:Src/aspep.c   ****   bool result = true;
 288:Src/aspep.c   **** #ifdef NULL_PTR_CHECK_ASP
 289:Src/aspep.c   ****   if (MC_NULL == buffer)
 290:Src/aspep.c   ****   {
 291:Src/aspep.c   ****     result = false;
 292:Src/aspep.c   ****   }
 293:Src/aspep.c   ****   else
 294:Src/aspep.c   ****   {
 295:Src/aspep.c   **** #endif
 296:Src/aspep.c   ****     ASPEP_Handle_t *pHandle = (ASPEP_Handle_t *)pSupHandle; //cstat !MISRAC2012-Rule-11.3
 297:Src/aspep.c   **** 
 298:Src/aspep.c   ****     if (MCTL_SYNC == syncAsync)
 299:Src/aspep.c   ****     {
 300:Src/aspep.c   ****       if (pHandle->syncBuffer.state <= writeLock) /* Possible values are free or writeLock*/
 301:Src/aspep.c   ****       {
 302:Src/aspep.c   ****         *buffer = &pHandle->syncBuffer.buffer[ASPEP_HEADER_SIZE];
 303:Src/aspep.c   ****         pHandle->syncBuffer.state = writeLock;
 304:Src/aspep.c   ****       }
 305:Src/aspep.c   ****       else
 306:Src/aspep.c   ****       {
 307:Src/aspep.c   ****         result = false;
 308:Src/aspep.c   ****       }
 309:Src/aspep.c   ****     }
 310:Src/aspep.c   ****     else /* Asynchronous buffer request */
 311:Src/aspep.c   ****     {
 312:Src/aspep.c   ****       if ((pHandle->asyncBufferA.state > writeLock) && (pHandle->asyncBufferB.state > writeLock))
 313:Src/aspep.c   ****       {
 314:Src/aspep.c   ****         result = false;
 315:Src/aspep.c   ****       }
 316:Src/aspep.c   ****       else
 317:Src/aspep.c   ****       {
 318:Src/aspep.c   ****         if (pHandle->asyncBufferA.state <= writeLock)
 319:Src/aspep.c   ****         {
 320:Src/aspep.c   ****           pHandle->asyncBufferA.state = writeLock;
 321:Src/aspep.c   ****           pHandle->lastRequestedAsyncBuff = &pHandle->asyncBufferA;
 322:Src/aspep.c   ****           *buffer = &pHandle->asyncBufferA.buffer[ASPEP_HEADER_SIZE];
 323:Src/aspep.c   **** #ifdef MCP_DEBUG_METRICS
 324:Src/aspep.c   ****           pHandle->asyncBufferA.RequestedNumber++;
 325:Src/aspep.c   **** #endif
 326:Src/aspep.c   ****         }
 327:Src/aspep.c   ****         else if (pHandle->asyncBufferB.state <= writeLock)
 328:Src/aspep.c   ****         {
 329:Src/aspep.c   ****           pHandle->asyncBufferB.state = writeLock;
 330:Src/aspep.c   ****           pHandle->lastRequestedAsyncBuff = &pHandle->asyncBufferB;
 331:Src/aspep.c   ****           *buffer = &pHandle->asyncBufferB.buffer[ASPEP_HEADER_SIZE];
 332:Src/aspep.c   **** #ifdef MCP_DEBUG_METRICS
 333:Src/aspep.c   ****           pHandle->asyncBufferB.RequestedNumber++;
 334:Src/aspep.c   **** #endif
 335:Src/aspep.c   ****         }
 336:Src/aspep.c   ****         else
 337:Src/aspep.c   ****         {
 338:Src/aspep.c   ****           /* Nothing to do */
 339:Src/aspep.c   ****         }
 340:Src/aspep.c   ****       }
 341:Src/aspep.c   ****     }
ARM GAS  C:\Users\ep_ygh\AppData\Local\Temp\ccopCd9W.s 			page 10


 342:Src/aspep.c   **** #ifdef NULL_PTR_CHECK_ASP
 343:Src/aspep.c   ****   }
 344:Src/aspep.c   **** #endif
 345:Src/aspep.c   ****   return (result);
 346:Src/aspep.c   **** }
 347:Src/aspep.c   **** 
 348:Src/aspep.c   **** /**
 349:Src/aspep.c   ****   * @brief  Checks controller's capabilities and compare them to performer's capabilities.
 350:Src/aspep.c   ****   *
 351:Src/aspep.c   ****   * @param  *pHandle Handler of the current instance of the ASPEP component
 352:Src/aspep.c   ****   *
 353:Src/aspep.c   ****   * @return Returns true if controller's capabilities match performer's one. False otherwise.
 354:Src/aspep.c   ****   */
 355:Src/aspep.c   **** bool ASPEP_CheckBeacon (ASPEP_Handle_t *pHandle)
 356:Src/aspep.c   **** {
 357:Src/aspep.c   ****   bool result = true;
 358:Src/aspep.c   **** 
 359:Src/aspep.c   ****   uint32_t packetHeader = *((uint32_t *)pHandle->rxHeader); //cstat !MISRAC2012-Rule-11.3
 360:Src/aspep.c   ****   ASPEP_Capabilities_def MasterCapabilities;
 361:Src/aspep.c   ****   MasterCapabilities.version = (uint8_t)((packetHeader &0x70U)>> 4U);           /*Bits 4 to 6*/
 362:Src/aspep.c   ****   MasterCapabilities.DATA_CRC = pHandle->rxHeader[0] >> 7U ;                     /*Bit 7 */
 363:Src/aspep.c   ****   MasterCapabilities.RX_maxSize = pHandle->rxHeader[1] &0x3FU;                  /*Bits 8 to  13*/
 364:Src/aspep.c   ****   MasterCapabilities.TXS_maxSize = (uint8_t)((packetHeader&0x01FC000U)  >> 14); /*Bits 14 to 20 */
 365:Src/aspep.c   ****   MasterCapabilities.TXA_maxSize = (uint8_t)((packetHeader&0xFE00000U) >> 21);  /*Bits 21 to 27  */
 366:Src/aspep.c   **** 
 367:Src/aspep.c   ****   pHandle->Capabilities.DATA_CRC = MIN(pHandle->Capabilities.DATA_CRC ,MasterCapabilities.DATA_CRC)
 368:Src/aspep.c   ****   pHandle->Capabilities.RX_maxSize = MIN(pHandle->Capabilities.RX_maxSize, MasterCapabilities.RX_ma
 369:Src/aspep.c   ****   pHandle->Capabilities.TXS_maxSize = MIN(pHandle->Capabilities.TXS_maxSize, MasterCapabilities.TXS
 370:Src/aspep.c   ****   pHandle->Capabilities.TXA_maxSize = MIN(pHandle->Capabilities.TXA_maxSize, MasterCapabilities.TXA
 371:Src/aspep.c   **** 
 372:Src/aspep.c   ****   if ((MasterCapabilities.DATA_CRC != pHandle->Capabilities.DATA_CRC)
 373:Src/aspep.c   ****    /* Data packet the controller can send is bigger than performer can receive */
 374:Src/aspep.c   ****    || (MasterCapabilities.RX_maxSize > pHandle->Capabilities.RX_maxSize)
 375:Src/aspep.c   ****    /* Sync packet size alignement is required in order for the controller to be able to store it, a
 376:Src/aspep.c   ****     * response bigger than performer capability */
 377:Src/aspep.c   ****    || (pHandle->Capabilities.TXS_maxSize != MasterCapabilities.TXS_maxSize )
 378:Src/aspep.c   ****    /* Async packet the performer can send is bigger than the controller can receive (but controller
 379:Src/aspep.c   ****     * packet than performer can transmit) */
 380:Src/aspep.c   ****    || (pHandle->Capabilities.TXA_maxSize != MasterCapabilities.TXA_maxSize )
 381:Src/aspep.c   ****    /* For the time being, controller version has to match performer version */
 382:Src/aspep.c   ****    || (MasterCapabilities.version != pHandle->Capabilities.version) )
 383:Src/aspep.c   ****   {
 384:Src/aspep.c   ****     result = false;
 385:Src/aspep.c   ****   }
 386:Src/aspep.c   ****   else
 387:Src/aspep.c   ****   {
 388:Src/aspep.c   ****     /* Nothing to do */
 389:Src/aspep.c   ****   }
 390:Src/aspep.c   **** 
 391:Src/aspep.c   ****   return (result);
 392:Src/aspep.c   **** }
 393:Src/aspep.c   **** 
 394:Src/aspep.c   **** /**
 395:Src/aspep.c   ****   * @brief  Checks if any error has occurred and calls the ASPEP_TXframeProcess function.
 396:Src/aspep.c   ****   *
 397:Src/aspep.c   ****   * @param  *pSupHandle Handler of the current instance of the MCTL component
 398:Src/aspep.c   ****   * @param  *txBuffer can be 8, 16 or 32 bits, but must be 32 bits aligned
ARM GAS  C:\Users\ep_ygh\AppData\Local\Temp\ccopCd9W.s 			page 11


 399:Src/aspep.c   ****   * @param  txDataLength Size of useful data in byte
 400:Src/aspep.c   ****   * @param  syncAsync nature of the communication : synchronous or asynchronous
 401:Src/aspep.c   ****   *
 402:Src/aspep.c   ****   * @return Returns an ASPEP response defined in aspep.h
 403:Src/aspep.c   ****   */
 404:Src/aspep.c   **** uint8_t ASPEP_sendPacket(MCTL_Handle_t *pSupHandle, void *txBuffer, uint16_t txDataLength, uint8_t 
 405:Src/aspep.c   **** {
 406:Src/aspep.c   ****   uint8_t result = ASPEP_OK;
 407:Src/aspep.c   **** #ifdef NULL_PTR_CHECK_ASP
 408:Src/aspep.c   ****   if ((MC_NULL == pSupHandle) || (MC_NULL == txBuffer))
 409:Src/aspep.c   ****   {
 410:Src/aspep.c   ****     result = ASPEP_BUFFER_ERROR;
 411:Src/aspep.c   ****   }
 412:Src/aspep.c   ****   else
 413:Src/aspep.c   ****   {
 414:Src/aspep.c   **** #endif
 415:Src/aspep.c   ****     uint32_t *header;
 416:Src/aspep.c   ****     uint32_t tmpHeader;
 417:Src/aspep.c   ****     uint16_t txDataLengthTemp;
 418:Src/aspep.c   ****     uint8_t *packet;
 419:Src/aspep.c   **** 
 420:Src/aspep.c   ****     txDataLengthTemp = txDataLength;
 421:Src/aspep.c   ****     ASPEP_Handle_t *pHandle = (ASPEP_Handle_t *)pSupHandle; //cstat !MISRAC2012-Rule-11.3
 422:Src/aspep.c   **** 
 423:Src/aspep.c   ****     if (ASPEP_CONNECTED == pHandle-> ASPEP_State)
 424:Src/aspep.c   ****     {
 425:Src/aspep.c   ****       /*We must add packet header on  */
 426:Src/aspep.c   ****       /* | [0101|0011] | Length 13b | Reserved |CRCH 4b| */
 427:Src/aspep.c   ****       packet = (uint8_t *)txBuffer; //cstat !MISRAC2012-Rule-11.5
 428:Src/aspep.c   ****       header = (uint32_t *)txBuffer; //cstat !MISRAC2012-Rule-11.5
 429:Src/aspep.c   ****       header--; /* Header ues 4*8 bits on top of txBuffer*/
 430:Src/aspep.c   ****       tmpHeader = ((uint32_t)((uint32_t)txDataLengthTemp << (uint32_t)4) | (uint32_t)syncAsync);
 431:Src/aspep.c   ****       *header = tmpHeader;
 432:Src/aspep.c   ****       if (1U == pHandle->Capabilities.DATA_CRC)
 433:Src/aspep.c   ****       {
 434:Src/aspep.c   ****         /* TODO : Compute real CRC*/
 435:Src/aspep.c   ****         packet[txDataLengthTemp] = (uint8_t)0xCA; /* Dummy CRC */
 436:Src/aspep.c   ****         packet[txDataLengthTemp + 1U] = (uint8_t)0xFE; /* Dummy CRC */
 437:Src/aspep.c   ****         txDataLengthTemp += (uint16_t)ASPEP_DATACRC_SIZE;
 438:Src/aspep.c   ****       }
 439:Src/aspep.c   ****       if (MCTL_SYNC == syncAsync)
 440:Src/aspep.c   ****       {
 441:Src/aspep.c   ****         if (pSupHandle->MCP_PacketAvailable)
 442:Src/aspep.c   ****         {
 443:Src/aspep.c   ****           pSupHandle->MCP_PacketAvailable = false; /* CMD from controller is processed*/
 444:Src/aspep.c   ****         }
 445:Src/aspep.c   ****         else
 446:Src/aspep.c   ****         {
 447:Src/aspep.c   ****           result = MCTL_SYNC_NOT_EXPECTED;
 448:Src/aspep.c   ****         }
 449:Src/aspep.c   ****       }
 450:Src/aspep.c   ****       if (ASPEP_OK == result) /* Send packet only if no error detected so far*/
 451:Src/aspep.c   ****       {
 452:Src/aspep.c   ****         result = ASPEP_TXframeProcess(pHandle, syncAsync, header, txDataLengthTemp + (uint16_t)ASPE
 453:Src/aspep.c   ****       }
 454:Src/aspep.c   ****     }
 455:Src/aspep.c   ****     else
ARM GAS  C:\Users\ep_ygh\AppData\Local\Temp\ccopCd9W.s 			page 12


 456:Src/aspep.c   ****     {
 457:Src/aspep.c   ****       result = ASPEP_NOT_CONNECTED;
 458:Src/aspep.c   ****     }
 459:Src/aspep.c   **** #ifdef NULL_PTR_CHECK_ASP
 460:Src/aspep.c   ****   }
 461:Src/aspep.c   **** #endif
 462:Src/aspep.c   ****   return (result);
 463:Src/aspep.c   **** }
 464:Src/aspep.c   **** 
 465:Src/aspep.c   **** /**
 466:Src/aspep.c   ****   * @brief  Checks if HW resource is busy before sending packet. Otherwise saves packet for next op
 467:Src/aspep.c   ****   *
 468:Src/aspep.c   ****   * This function contains a critical section.
 469:Src/aspep.c   ****   * It can be accessed concurently under High frequency task (by MCPA_datalog)
 470:Src/aspep.c   ****   * and under Medium frequency task (MC_Scheduler -> ASPEP_RxFrameProcess ).
 471:Src/aspep.c   ****   *
 472:Src/aspep.c   ****   * @param  *pHandle Handler of the current instance of the ASPEP component
 473:Src/aspep.c   ****   * @param  dataType Nature of the communication : synchronous, asynchronous or a CTL packet
 474:Src/aspep.c   ****   * @param  *txBuffer CRC Header to be computed in sent packet
 475:Src/aspep.c   ****   * @param  bufferLength Size of the packet to be sent : Header + Data
 476:Src/aspep.c   ****   *
 477:Src/aspep.c   ****   * @return Returns an ASPEP response defined in aspep.h
 478:Src/aspep.c   ****   */
 479:Src/aspep.c   **** uint8_t ASPEP_TXframeProcess(ASPEP_Handle_t *pHandle, uint8_t dataType, void *txBuffer, uint16_t bu
 158              		.loc 1 479 9 view .LVU36
 159              	.LBB59:
 480:Src/aspep.c   **** {
 481:Src/aspep.c   ****   uint8_t result = ASPEP_OK;
 160              		.loc 1 481 3 view .LVU37
 482:Src/aspep.c   **** #ifdef NULL_PTR_CHECK_ASP
 483:Src/aspep.c   ****   if (MC_NULL == txBuffer)
 484:Src/aspep.c   ****   {
 485:Src/aspep.c   ****     result = ASPEP_BUFFER_ERROR;
 486:Src/aspep.c   ****   }
 487:Src/aspep.c   ****   else
 488:Src/aspep.c   ****   {
 489:Src/aspep.c   **** #endif
 490:Src/aspep.c   ****     /* Insert CRC header in the packet to send */
 491:Src/aspep.c   ****     ASPEP_ComputeHeaderCRC((uint32_t *)txBuffer); //cstat !MISRAC2012-Rule-11.5
 161              		.loc 1 491 5 view .LVU38
 162              	.LBB47:
 163              	.LBI42:
 117:Src/aspep.c   **** {
 164              		.loc 1 117 13 view .LVU39
 165              	.LBB45:
 119:Src/aspep.c   ****   uint32_t header = *headerPtr;
 166              		.loc 1 119 3 view .LVU40
 120:Src/aspep.c   **** 
 167              		.loc 1 120 3 view .LVU41
 123:Src/aspep.c   **** 
 168              		.loc 1 123 3 view .LVU42
 125:Src/aspep.c   ****   crc = CRC4_Lookup8[crc ^ (uint8_t)((header >> 8U) & 0xffU)];
 169              		.loc 1 125 3 view .LVU43
 126:Src/aspep.c   ****   crc = CRC4_Lookup8[crc ^ (uint8_t)((header >> 16U) & 0xffU)];
 170              		.loc 1 126 3 view .LVU44
 126:Src/aspep.c   ****   crc = CRC4_Lookup8[crc ^ (uint8_t)((header >> 16U) & 0xffU)];
 171              		.loc 1 126 26 is_stmt 0 view .LVU45
ARM GAS  C:\Users\ep_ygh\AppData\Local\Temp\ccopCd9W.s 			page 13


 172 002e 82EA1122 		eor	r2, r2, r1, lsr #8
 173 0032 D2B2     		uxtb	r2, r2
 174              	.LVL8:
 127:Src/aspep.c   ****   crc = CRC4_Lookup4[crc ^ (uint8_t)((header >> 24U) & 0x0fU)];
 175              		.loc 1 127 3 is_stmt 1 view .LVU46
 127:Src/aspep.c   ****   crc = CRC4_Lookup4[crc ^ (uint8_t)((header >> 24U) & 0x0fU)];
 176              		.loc 1 127 26 is_stmt 0 view .LVU47
 177 0034 A25C     		ldrb	r2, [r4, r2]	@ zero_extendqisi2
 178              	.LVL9:
 127:Src/aspep.c   ****   crc = CRC4_Lookup4[crc ^ (uint8_t)((header >> 24U) & 0x0fU)];
 179              		.loc 1 127 26 view .LVU48
 180 0036 82EA1142 		eor	r2, r2, r1, lsr #16
 181 003a D2B2     		uxtb	r2, r2
 182              	.LVL10:
 128:Src/aspep.c   **** #else /* CRC4_PER_NIBBLE */
 183              		.loc 1 128 3 is_stmt 1 view .LVU49
 128:Src/aspep.c   **** #else /* CRC4_PER_NIBBLE */
 184              		.loc 1 128 26 is_stmt 0 view .LVU50
 185 003c A25C     		ldrb	r2, [r4, r2]	@ zero_extendqisi2
 186              	.LVL11:
 128:Src/aspep.c   **** #else /* CRC4_PER_NIBBLE */
 187              		.loc 1 128 7 view .LVU51
 188 003e 124C     		ldr	r4, .L9+4
 189              	.LVL12:
 128:Src/aspep.c   **** #else /* CRC4_PER_NIBBLE */
 190              		.loc 1 128 26 view .LVU52
 191 0040 82EA1162 		eor	r2, r2, r1, lsr #24
 192              	.LVL13:
 139:Src/aspep.c   **** 
 193              		.loc 1 139 3 is_stmt 1 view .LVU53
 139:Src/aspep.c   **** 
 194              		.loc 1 139 17 is_stmt 0 view .LVU54
 195 0044 A25C     		ldrb	r2, [r4, r2]	@ zero_extendqisi2
 196              	.LVL14:
 139:Src/aspep.c   **** 
 197              		.loc 1 139 14 view .LVU55
 198 0046 43EA0273 		orr	r3, r3, r2, lsl #28
 199              	.LVL15:
 139:Src/aspep.c   **** 
 200              		.loc 1 139 14 view .LVU56
 201 004a 43F00503 		orr	r3, r3, #5
 202 004e 0362     		str	r3, [r0, #32]
 203              	.LVL16:
 139:Src/aspep.c   **** 
 204              		.loc 1 139 14 view .LVU57
 205              	.LBE45:
 206              	.LBE47:
 492:Src/aspep.c   ****     __disable_irq(); /*TODO: Disable High frequency task is enough */
 207              		.loc 1 492 5 is_stmt 1 view .LVU58
 208              	.LBB48:
 209              	.LBI48:
 210              		.file 2 "Drivers/CMSIS/Include/cmsis_gcc.h"
   1:Drivers/CMSIS/Include/cmsis_gcc.h **** /**************************************************************************//**
   2:Drivers/CMSIS/Include/cmsis_gcc.h ****  * @file     cmsis_gcc.h
   3:Drivers/CMSIS/Include/cmsis_gcc.h ****  * @brief    CMSIS compiler GCC header file
   4:Drivers/CMSIS/Include/cmsis_gcc.h ****  * @version  V5.2.0
   5:Drivers/CMSIS/Include/cmsis_gcc.h ****  * @date     08. May 2019
ARM GAS  C:\Users\ep_ygh\AppData\Local\Temp\ccopCd9W.s 			page 14


   6:Drivers/CMSIS/Include/cmsis_gcc.h ****  ******************************************************************************/
   7:Drivers/CMSIS/Include/cmsis_gcc.h **** /*
   8:Drivers/CMSIS/Include/cmsis_gcc.h ****  * Copyright (c) 2009-2019 Arm Limited. All rights reserved.
   9:Drivers/CMSIS/Include/cmsis_gcc.h ****  *
  10:Drivers/CMSIS/Include/cmsis_gcc.h ****  * SPDX-License-Identifier: Apache-2.0
  11:Drivers/CMSIS/Include/cmsis_gcc.h ****  *
  12:Drivers/CMSIS/Include/cmsis_gcc.h ****  * Licensed under the Apache License, Version 2.0 (the License); you may
  13:Drivers/CMSIS/Include/cmsis_gcc.h ****  * not use this file except in compliance with the License.
  14:Drivers/CMSIS/Include/cmsis_gcc.h ****  * You may obtain a copy of the License at
  15:Drivers/CMSIS/Include/cmsis_gcc.h ****  *
  16:Drivers/CMSIS/Include/cmsis_gcc.h ****  * www.apache.org/licenses/LICENSE-2.0
  17:Drivers/CMSIS/Include/cmsis_gcc.h ****  *
  18:Drivers/CMSIS/Include/cmsis_gcc.h ****  * Unless required by applicable law or agreed to in writing, software
  19:Drivers/CMSIS/Include/cmsis_gcc.h ****  * distributed under the License is distributed on an AS IS BASIS, WITHOUT
  20:Drivers/CMSIS/Include/cmsis_gcc.h ****  * WARRANTIES OR CONDITIONS OF ANY KIND, either express or implied.
  21:Drivers/CMSIS/Include/cmsis_gcc.h ****  * See the License for the specific language governing permissions and
  22:Drivers/CMSIS/Include/cmsis_gcc.h ****  * limitations under the License.
  23:Drivers/CMSIS/Include/cmsis_gcc.h ****  */
  24:Drivers/CMSIS/Include/cmsis_gcc.h **** 
  25:Drivers/CMSIS/Include/cmsis_gcc.h **** #ifndef __CMSIS_GCC_H
  26:Drivers/CMSIS/Include/cmsis_gcc.h **** #define __CMSIS_GCC_H
  27:Drivers/CMSIS/Include/cmsis_gcc.h **** 
  28:Drivers/CMSIS/Include/cmsis_gcc.h **** /* ignore some GCC warnings */
  29:Drivers/CMSIS/Include/cmsis_gcc.h **** #pragma GCC diagnostic push
  30:Drivers/CMSIS/Include/cmsis_gcc.h **** #pragma GCC diagnostic ignored "-Wsign-conversion"
  31:Drivers/CMSIS/Include/cmsis_gcc.h **** #pragma GCC diagnostic ignored "-Wconversion"
  32:Drivers/CMSIS/Include/cmsis_gcc.h **** #pragma GCC diagnostic ignored "-Wunused-parameter"
  33:Drivers/CMSIS/Include/cmsis_gcc.h **** 
  34:Drivers/CMSIS/Include/cmsis_gcc.h **** /* Fallback for __has_builtin */
  35:Drivers/CMSIS/Include/cmsis_gcc.h **** #ifndef __has_builtin
  36:Drivers/CMSIS/Include/cmsis_gcc.h ****   #define __has_builtin(x) (0)
  37:Drivers/CMSIS/Include/cmsis_gcc.h **** #endif
  38:Drivers/CMSIS/Include/cmsis_gcc.h **** 
  39:Drivers/CMSIS/Include/cmsis_gcc.h **** /* CMSIS compiler specific defines */
  40:Drivers/CMSIS/Include/cmsis_gcc.h **** #ifndef   __ASM
  41:Drivers/CMSIS/Include/cmsis_gcc.h ****   #define __ASM                                  __asm
  42:Drivers/CMSIS/Include/cmsis_gcc.h **** #endif
  43:Drivers/CMSIS/Include/cmsis_gcc.h **** #ifndef   __INLINE
  44:Drivers/CMSIS/Include/cmsis_gcc.h ****   #define __INLINE                               inline
  45:Drivers/CMSIS/Include/cmsis_gcc.h **** #endif
  46:Drivers/CMSIS/Include/cmsis_gcc.h **** #ifndef   __STATIC_INLINE
  47:Drivers/CMSIS/Include/cmsis_gcc.h ****   #define __STATIC_INLINE                        static inline
  48:Drivers/CMSIS/Include/cmsis_gcc.h **** #endif
  49:Drivers/CMSIS/Include/cmsis_gcc.h **** #ifndef   __STATIC_FORCEINLINE                 
  50:Drivers/CMSIS/Include/cmsis_gcc.h ****   #define __STATIC_FORCEINLINE                   __attribute__((always_inline)) static inline
  51:Drivers/CMSIS/Include/cmsis_gcc.h **** #endif                                           
  52:Drivers/CMSIS/Include/cmsis_gcc.h **** #ifndef   __NO_RETURN
  53:Drivers/CMSIS/Include/cmsis_gcc.h ****   #define __NO_RETURN                            __attribute__((__noreturn__))
  54:Drivers/CMSIS/Include/cmsis_gcc.h **** #endif
  55:Drivers/CMSIS/Include/cmsis_gcc.h **** #ifndef   __USED
  56:Drivers/CMSIS/Include/cmsis_gcc.h ****   #define __USED                                 __attribute__((used))
  57:Drivers/CMSIS/Include/cmsis_gcc.h **** #endif
  58:Drivers/CMSIS/Include/cmsis_gcc.h **** #ifndef   __WEAK
  59:Drivers/CMSIS/Include/cmsis_gcc.h ****   #define __WEAK                                 __attribute__((weak))
  60:Drivers/CMSIS/Include/cmsis_gcc.h **** #endif
  61:Drivers/CMSIS/Include/cmsis_gcc.h **** #ifndef   __PACKED
  62:Drivers/CMSIS/Include/cmsis_gcc.h ****   #define __PACKED                               __attribute__((packed, aligned(1)))
ARM GAS  C:\Users\ep_ygh\AppData\Local\Temp\ccopCd9W.s 			page 15


  63:Drivers/CMSIS/Include/cmsis_gcc.h **** #endif
  64:Drivers/CMSIS/Include/cmsis_gcc.h **** #ifndef   __PACKED_STRUCT
  65:Drivers/CMSIS/Include/cmsis_gcc.h ****   #define __PACKED_STRUCT                        struct __attribute__((packed, aligned(1)))
  66:Drivers/CMSIS/Include/cmsis_gcc.h **** #endif
  67:Drivers/CMSIS/Include/cmsis_gcc.h **** #ifndef   __PACKED_UNION
  68:Drivers/CMSIS/Include/cmsis_gcc.h ****   #define __PACKED_UNION                         union __attribute__((packed, aligned(1)))
  69:Drivers/CMSIS/Include/cmsis_gcc.h **** #endif
  70:Drivers/CMSIS/Include/cmsis_gcc.h **** #ifndef   __UNALIGNED_UINT32        /* deprecated */
  71:Drivers/CMSIS/Include/cmsis_gcc.h ****   #pragma GCC diagnostic push
  72:Drivers/CMSIS/Include/cmsis_gcc.h ****   #pragma GCC diagnostic ignored "-Wpacked"
  73:Drivers/CMSIS/Include/cmsis_gcc.h ****   #pragma GCC diagnostic ignored "-Wattributes"
  74:Drivers/CMSIS/Include/cmsis_gcc.h ****   struct __attribute__((packed)) T_UINT32 { uint32_t v; };
  75:Drivers/CMSIS/Include/cmsis_gcc.h ****   #pragma GCC diagnostic pop
  76:Drivers/CMSIS/Include/cmsis_gcc.h ****   #define __UNALIGNED_UINT32(x)                  (((struct T_UINT32 *)(x))->v)
  77:Drivers/CMSIS/Include/cmsis_gcc.h **** #endif
  78:Drivers/CMSIS/Include/cmsis_gcc.h **** #ifndef   __UNALIGNED_UINT16_WRITE
  79:Drivers/CMSIS/Include/cmsis_gcc.h ****   #pragma GCC diagnostic push
  80:Drivers/CMSIS/Include/cmsis_gcc.h ****   #pragma GCC diagnostic ignored "-Wpacked"
  81:Drivers/CMSIS/Include/cmsis_gcc.h ****   #pragma GCC diagnostic ignored "-Wattributes"
  82:Drivers/CMSIS/Include/cmsis_gcc.h ****   __PACKED_STRUCT T_UINT16_WRITE { uint16_t v; };
  83:Drivers/CMSIS/Include/cmsis_gcc.h ****   #pragma GCC diagnostic pop
  84:Drivers/CMSIS/Include/cmsis_gcc.h ****   #define __UNALIGNED_UINT16_WRITE(addr, val)    (void)((((struct T_UINT16_WRITE *)(void *)(addr))-
  85:Drivers/CMSIS/Include/cmsis_gcc.h **** #endif
  86:Drivers/CMSIS/Include/cmsis_gcc.h **** #ifndef   __UNALIGNED_UINT16_READ
  87:Drivers/CMSIS/Include/cmsis_gcc.h ****   #pragma GCC diagnostic push
  88:Drivers/CMSIS/Include/cmsis_gcc.h ****   #pragma GCC diagnostic ignored "-Wpacked"
  89:Drivers/CMSIS/Include/cmsis_gcc.h ****   #pragma GCC diagnostic ignored "-Wattributes"
  90:Drivers/CMSIS/Include/cmsis_gcc.h ****   __PACKED_STRUCT T_UINT16_READ { uint16_t v; };
  91:Drivers/CMSIS/Include/cmsis_gcc.h ****   #pragma GCC diagnostic pop
  92:Drivers/CMSIS/Include/cmsis_gcc.h ****   #define __UNALIGNED_UINT16_READ(addr)          (((const struct T_UINT16_READ *)(const void *)(add
  93:Drivers/CMSIS/Include/cmsis_gcc.h **** #endif
  94:Drivers/CMSIS/Include/cmsis_gcc.h **** #ifndef   __UNALIGNED_UINT32_WRITE
  95:Drivers/CMSIS/Include/cmsis_gcc.h ****   #pragma GCC diagnostic push
  96:Drivers/CMSIS/Include/cmsis_gcc.h ****   #pragma GCC diagnostic ignored "-Wpacked"
  97:Drivers/CMSIS/Include/cmsis_gcc.h ****   #pragma GCC diagnostic ignored "-Wattributes"
  98:Drivers/CMSIS/Include/cmsis_gcc.h ****   __PACKED_STRUCT T_UINT32_WRITE { uint32_t v; };
  99:Drivers/CMSIS/Include/cmsis_gcc.h ****   #pragma GCC diagnostic pop
 100:Drivers/CMSIS/Include/cmsis_gcc.h ****   #define __UNALIGNED_UINT32_WRITE(addr, val)    (void)((((struct T_UINT32_WRITE *)(void *)(addr))-
 101:Drivers/CMSIS/Include/cmsis_gcc.h **** #endif
 102:Drivers/CMSIS/Include/cmsis_gcc.h **** #ifndef   __UNALIGNED_UINT32_READ
 103:Drivers/CMSIS/Include/cmsis_gcc.h ****   #pragma GCC diagnostic push
 104:Drivers/CMSIS/Include/cmsis_gcc.h ****   #pragma GCC diagnostic ignored "-Wpacked"
 105:Drivers/CMSIS/Include/cmsis_gcc.h ****   #pragma GCC diagnostic ignored "-Wattributes"
 106:Drivers/CMSIS/Include/cmsis_gcc.h ****   __PACKED_STRUCT T_UINT32_READ { uint32_t v; };
 107:Drivers/CMSIS/Include/cmsis_gcc.h ****   #pragma GCC diagnostic pop
 108:Drivers/CMSIS/Include/cmsis_gcc.h ****   #define __UNALIGNED_UINT32_READ(addr)          (((const struct T_UINT32_READ *)(const void *)(add
 109:Drivers/CMSIS/Include/cmsis_gcc.h **** #endif
 110:Drivers/CMSIS/Include/cmsis_gcc.h **** #ifndef   __ALIGNED
 111:Drivers/CMSIS/Include/cmsis_gcc.h ****   #define __ALIGNED(x)                           __attribute__((aligned(x)))
 112:Drivers/CMSIS/Include/cmsis_gcc.h **** #endif
 113:Drivers/CMSIS/Include/cmsis_gcc.h **** #ifndef   __RESTRICT
 114:Drivers/CMSIS/Include/cmsis_gcc.h ****   #define __RESTRICT                             __restrict
 115:Drivers/CMSIS/Include/cmsis_gcc.h **** #endif
 116:Drivers/CMSIS/Include/cmsis_gcc.h **** #ifndef   __COMPILER_BARRIER
 117:Drivers/CMSIS/Include/cmsis_gcc.h ****   #define __COMPILER_BARRIER()                   __ASM volatile("":::"memory")
 118:Drivers/CMSIS/Include/cmsis_gcc.h **** #endif
 119:Drivers/CMSIS/Include/cmsis_gcc.h **** 
ARM GAS  C:\Users\ep_ygh\AppData\Local\Temp\ccopCd9W.s 			page 16


 120:Drivers/CMSIS/Include/cmsis_gcc.h **** /* #########################  Startup and Lowlevel Init  ######################## */
 121:Drivers/CMSIS/Include/cmsis_gcc.h **** 
 122:Drivers/CMSIS/Include/cmsis_gcc.h **** #ifndef __PROGRAM_START
 123:Drivers/CMSIS/Include/cmsis_gcc.h **** 
 124:Drivers/CMSIS/Include/cmsis_gcc.h **** /**
 125:Drivers/CMSIS/Include/cmsis_gcc.h ****   \brief   Initializes data and bss sections
 126:Drivers/CMSIS/Include/cmsis_gcc.h ****   \details This default implementations initialized all data and additional bss
 127:Drivers/CMSIS/Include/cmsis_gcc.h ****            sections relying on .copy.table and .zero.table specified properly
 128:Drivers/CMSIS/Include/cmsis_gcc.h ****            in the used linker script.
 129:Drivers/CMSIS/Include/cmsis_gcc.h ****   
 130:Drivers/CMSIS/Include/cmsis_gcc.h ****  */
 131:Drivers/CMSIS/Include/cmsis_gcc.h **** __STATIC_FORCEINLINE __NO_RETURN void __cmsis_start(void)
 132:Drivers/CMSIS/Include/cmsis_gcc.h **** {
 133:Drivers/CMSIS/Include/cmsis_gcc.h ****   extern void _start(void) __NO_RETURN;
 134:Drivers/CMSIS/Include/cmsis_gcc.h ****   
 135:Drivers/CMSIS/Include/cmsis_gcc.h ****   typedef struct {
 136:Drivers/CMSIS/Include/cmsis_gcc.h ****     uint32_t const* src;
 137:Drivers/CMSIS/Include/cmsis_gcc.h ****     uint32_t* dest;
 138:Drivers/CMSIS/Include/cmsis_gcc.h ****     uint32_t  wlen;
 139:Drivers/CMSIS/Include/cmsis_gcc.h ****   } __copy_table_t;
 140:Drivers/CMSIS/Include/cmsis_gcc.h ****   
 141:Drivers/CMSIS/Include/cmsis_gcc.h ****   typedef struct {
 142:Drivers/CMSIS/Include/cmsis_gcc.h ****     uint32_t* dest;
 143:Drivers/CMSIS/Include/cmsis_gcc.h ****     uint32_t  wlen;
 144:Drivers/CMSIS/Include/cmsis_gcc.h ****   } __zero_table_t;
 145:Drivers/CMSIS/Include/cmsis_gcc.h ****   
 146:Drivers/CMSIS/Include/cmsis_gcc.h ****   extern const __copy_table_t __copy_table_start__;
 147:Drivers/CMSIS/Include/cmsis_gcc.h ****   extern const __copy_table_t __copy_table_end__;
 148:Drivers/CMSIS/Include/cmsis_gcc.h ****   extern const __zero_table_t __zero_table_start__;
 149:Drivers/CMSIS/Include/cmsis_gcc.h ****   extern const __zero_table_t __zero_table_end__;
 150:Drivers/CMSIS/Include/cmsis_gcc.h **** 
 151:Drivers/CMSIS/Include/cmsis_gcc.h ****   for (__copy_table_t const* pTable = &__copy_table_start__; pTable < &__copy_table_end__; ++pTable
 152:Drivers/CMSIS/Include/cmsis_gcc.h ****     for(uint32_t i=0u; i<pTable->wlen; ++i) {
 153:Drivers/CMSIS/Include/cmsis_gcc.h ****       pTable->dest[i] = pTable->src[i];
 154:Drivers/CMSIS/Include/cmsis_gcc.h ****     }
 155:Drivers/CMSIS/Include/cmsis_gcc.h ****   }
 156:Drivers/CMSIS/Include/cmsis_gcc.h ****  
 157:Drivers/CMSIS/Include/cmsis_gcc.h ****   for (__zero_table_t const* pTable = &__zero_table_start__; pTable < &__zero_table_end__; ++pTable
 158:Drivers/CMSIS/Include/cmsis_gcc.h ****     for(uint32_t i=0u; i<pTable->wlen; ++i) {
 159:Drivers/CMSIS/Include/cmsis_gcc.h ****       pTable->dest[i] = 0u;
 160:Drivers/CMSIS/Include/cmsis_gcc.h ****     }
 161:Drivers/CMSIS/Include/cmsis_gcc.h ****   }
 162:Drivers/CMSIS/Include/cmsis_gcc.h ****  
 163:Drivers/CMSIS/Include/cmsis_gcc.h ****   _start();
 164:Drivers/CMSIS/Include/cmsis_gcc.h **** }
 165:Drivers/CMSIS/Include/cmsis_gcc.h ****   
 166:Drivers/CMSIS/Include/cmsis_gcc.h **** #define __PROGRAM_START           __cmsis_start
 167:Drivers/CMSIS/Include/cmsis_gcc.h **** #endif
 168:Drivers/CMSIS/Include/cmsis_gcc.h **** 
 169:Drivers/CMSIS/Include/cmsis_gcc.h **** #ifndef __INITIAL_SP
 170:Drivers/CMSIS/Include/cmsis_gcc.h **** #define __INITIAL_SP              __StackTop
 171:Drivers/CMSIS/Include/cmsis_gcc.h **** #endif
 172:Drivers/CMSIS/Include/cmsis_gcc.h **** 
 173:Drivers/CMSIS/Include/cmsis_gcc.h **** #ifndef __STACK_LIMIT
 174:Drivers/CMSIS/Include/cmsis_gcc.h **** #define __STACK_LIMIT             __StackLimit
 175:Drivers/CMSIS/Include/cmsis_gcc.h **** #endif
 176:Drivers/CMSIS/Include/cmsis_gcc.h **** 
ARM GAS  C:\Users\ep_ygh\AppData\Local\Temp\ccopCd9W.s 			page 17


 177:Drivers/CMSIS/Include/cmsis_gcc.h **** #ifndef __VECTOR_TABLE
 178:Drivers/CMSIS/Include/cmsis_gcc.h **** #define __VECTOR_TABLE            __Vectors
 179:Drivers/CMSIS/Include/cmsis_gcc.h **** #endif
 180:Drivers/CMSIS/Include/cmsis_gcc.h **** 
 181:Drivers/CMSIS/Include/cmsis_gcc.h **** #ifndef __VECTOR_TABLE_ATTRIBUTE
 182:Drivers/CMSIS/Include/cmsis_gcc.h **** #define __VECTOR_TABLE_ATTRIBUTE  __attribute((used, section(".vectors")))
 183:Drivers/CMSIS/Include/cmsis_gcc.h **** #endif
 184:Drivers/CMSIS/Include/cmsis_gcc.h **** 
 185:Drivers/CMSIS/Include/cmsis_gcc.h **** /* ###########################  Core Function Access  ########################### */
 186:Drivers/CMSIS/Include/cmsis_gcc.h **** /** \ingroup  CMSIS_Core_FunctionInterface
 187:Drivers/CMSIS/Include/cmsis_gcc.h ****     \defgroup CMSIS_Core_RegAccFunctions CMSIS Core Register Access Functions
 188:Drivers/CMSIS/Include/cmsis_gcc.h ****   @{
 189:Drivers/CMSIS/Include/cmsis_gcc.h ****  */
 190:Drivers/CMSIS/Include/cmsis_gcc.h **** 
 191:Drivers/CMSIS/Include/cmsis_gcc.h **** /**
 192:Drivers/CMSIS/Include/cmsis_gcc.h ****   \brief   Enable IRQ Interrupts
 193:Drivers/CMSIS/Include/cmsis_gcc.h ****   \details Enables IRQ interrupts by clearing the I-bit in the CPSR.
 194:Drivers/CMSIS/Include/cmsis_gcc.h ****            Can only be executed in Privileged modes.
 195:Drivers/CMSIS/Include/cmsis_gcc.h ****  */
 196:Drivers/CMSIS/Include/cmsis_gcc.h **** __STATIC_FORCEINLINE void __enable_irq(void)
 197:Drivers/CMSIS/Include/cmsis_gcc.h **** {
 198:Drivers/CMSIS/Include/cmsis_gcc.h ****   __ASM volatile ("cpsie i" : : : "memory");
 199:Drivers/CMSIS/Include/cmsis_gcc.h **** }
 200:Drivers/CMSIS/Include/cmsis_gcc.h **** 
 201:Drivers/CMSIS/Include/cmsis_gcc.h **** 
 202:Drivers/CMSIS/Include/cmsis_gcc.h **** /**
 203:Drivers/CMSIS/Include/cmsis_gcc.h ****   \brief   Disable IRQ Interrupts
 204:Drivers/CMSIS/Include/cmsis_gcc.h ****   \details Disables IRQ interrupts by setting the I-bit in the CPSR.
 205:Drivers/CMSIS/Include/cmsis_gcc.h ****            Can only be executed in Privileged modes.
 206:Drivers/CMSIS/Include/cmsis_gcc.h ****  */
 207:Drivers/CMSIS/Include/cmsis_gcc.h **** __STATIC_FORCEINLINE void __disable_irq(void)
 211              		.loc 2 207 27 view .LVU59
 212              	.LBB49:
 208:Drivers/CMSIS/Include/cmsis_gcc.h **** {
 209:Drivers/CMSIS/Include/cmsis_gcc.h ****   __ASM volatile ("cpsid i" : : : "memory");
 213              		.loc 2 209 3 view .LVU60
 214              		.syntax unified
 215              	@ 209 "Drivers/CMSIS/Include/cmsis_gcc.h" 1
 216 0050 72B6     		cpsid i
 217              	@ 0 "" 2
 218              		.thumb
 219              		.syntax unified
 220              	.LBE49:
 221              	.LBE48:
 493:Src/aspep.c   ****     if (NULL == pHandle->lockBuffer) /* Communication Ip free to send data*/
 222              		.loc 1 493 5 view .LVU61
 223              		.loc 1 493 8 is_stmt 0 view .LVU62
 224 0052 836C     		ldr	r3, [r0, #72]
 225 0054 4BB1     		cbz	r3, .L8
 494:Src/aspep.c   ****     {
 495:Src/aspep.c   ****       if (MCTL_ASYNC == dataType)
 496:Src/aspep.c   ****       {
 497:Src/aspep.c   ****         /* In ASYNC, two flipflop buffers are used, the txBuffer points always to lastRequestedAsyn
 498:Src/aspep.c   ****         pHandle->lastRequestedAsyncBuff->state = readLock;
 499:Src/aspep.c   ****         pHandle->lockBuffer = (void *)pHandle->lastRequestedAsyncBuff;
 500:Src/aspep.c   **** #ifdef MCP_DEBUG_METRICS
 501:Src/aspep.c   ****         pHandle->lastRequestedAsyncBuff->SentNumber++;
ARM GAS  C:\Users\ep_ygh\AppData\Local\Temp\ccopCd9W.s 			page 18


 502:Src/aspep.c   **** #endif
 503:Src/aspep.c   ****       }
 504:Src/aspep.c   ****       else if (MCTL_SYNC == dataType)
 505:Src/aspep.c   ****       {
 506:Src/aspep.c   ****         pHandle->syncBuffer.state = readLock;
 507:Src/aspep.c   ****         pHandle->lockBuffer = (void *)&pHandle->syncBuffer;
 508:Src/aspep.c   ****       }
 509:Src/aspep.c   ****       else
 510:Src/aspep.c   ****       {
 511:Src/aspep.c   ****         pHandle->ctrlBuffer.state = readLock;
 512:Src/aspep.c   ****         pHandle->lockBuffer = (void *)&pHandle->ctrlBuffer;
 513:Src/aspep.c   ****       }
 514:Src/aspep.c   ****       /* Enable HF task It */
 515:Src/aspep.c   ****       __enable_irq(); /*TODO: Enable High frequency task is enough */
 516:Src/aspep.c   ****       pHandle->fASPEP_send(pHandle->HWIp, txBuffer, bufferLength);
 517:Src/aspep.c   ****     }
 518:Src/aspep.c   ****     else /* HW resource busy, saving packet to sent it once resource will be freed*/
 519:Src/aspep.c   ****     {
 520:Src/aspep.c   ****       __enable_irq(); /*TODO: Enable High frequency task is enough */
 226              		.loc 1 520 7 is_stmt 1 view .LVU63
 227              	.LBB50:
 228              	.LBI50:
 196:Drivers/CMSIS/Include/cmsis_gcc.h **** {
 229              		.loc 2 196 27 view .LVU64
 230              	.LBB51:
 198:Drivers/CMSIS/Include/cmsis_gcc.h **** }
 231              		.loc 2 198 3 view .LVU65
 232              		.syntax unified
 233              	@ 198 "Drivers/CMSIS/Include/cmsis_gcc.h" 1
 234 0056 62B6     		cpsie i
 235              	@ 0 "" 2
 236              		.thumb
 237              		.syntax unified
 238              	.LBE51:
 239              	.LBE50:
 521:Src/aspep.c   ****       /* Lock buffer can be freed here */
 522:Src/aspep.c   ****       if (MCTL_ASYNC == dataType)
 240              		.loc 1 522 7 view .LVU66
 523:Src/aspep.c   ****       {
 524:Src/aspep.c   ****         /* Check that the buffer received is the one expected - probably useless */
 525:Src/aspep.c   ****         if (txBuffer != (uint8_t *)pHandle->lastRequestedAsyncBuff->buffer)
 526:Src/aspep.c   ****         {
 527:Src/aspep.c   ****           result = ASPEP_BUFFER_ERROR;
 528:Src/aspep.c   ****         }
 529:Src/aspep.c   ****         else
 530:Src/aspep.c   ****         {
 531:Src/aspep.c   ****           /* Nothing to do */
 532:Src/aspep.c   ****         }
 533:Src/aspep.c   ****         if (NULL == pHandle->asyncNextBuffer)
 534:Src/aspep.c   ****         {
 535:Src/aspep.c   ****           /* Required to keep the right sending order */
 536:Src/aspep.c   ****           pHandle->asyncNextBuffer = pHandle->lastRequestedAsyncBuff;
 537:Src/aspep.c   ****         }
 538:Src/aspep.c   ****         else
 539:Src/aspep.c   ****         {
 540:Src/aspep.c   ****           /* Nothing to do */
 541:Src/aspep.c   ****         }
ARM GAS  C:\Users\ep_ygh\AppData\Local\Temp\ccopCd9W.s 			page 19


 542:Src/aspep.c   ****         pHandle->lastRequestedAsyncBuff->state = pending;
 543:Src/aspep.c   ****         pHandle->lastRequestedAsyncBuff->length = bufferLength;
 544:Src/aspep.c   **** #ifdef MCP_DEBUG_METRICS
 545:Src/aspep.c   ****         pHandle->lastRequestedAsyncBuff->PendingNumber++;
 546:Src/aspep.c   **** #endif
 547:Src/aspep.c   ****       }
 548:Src/aspep.c   ****       else if (MCTL_SYNC == dataType)
 241              		.loc 1 548 12 view .LVU67
 549:Src/aspep.c   ****       {
 550:Src/aspep.c   ****         if (pHandle -> syncBuffer.state != writeLock)
 551:Src/aspep.c   ****         {
 552:Src/aspep.c   ****           result = ASPEP_BUFFER_ERROR;
 553:Src/aspep.c   ****         }
 554:Src/aspep.c   ****         else
 555:Src/aspep.c   ****         {
 556:Src/aspep.c   ****           pHandle->syncBuffer.state = pending;
 557:Src/aspep.c   ****           pHandle->syncBuffer.length = bufferLength;
 558:Src/aspep.c   ****         }
 559:Src/aspep.c   ****       }
 560:Src/aspep.c   ****       else if(ASPEP_CTRL == dataType)
 242              		.loc 1 560 12 view .LVU68
 561:Src/aspep.c   ****       {
 562:Src/aspep.c   ****         if (pHandle->ctrlBuffer.state != available)
 243              		.loc 1 562 9 view .LVU69
 244              		.loc 1 562 12 is_stmt 0 view .LVU70
 245 0058 90F82430 		ldrb	r3, [r0, #36]	@ zero_extendqisi2
 246 005c 13B9     		cbnz	r3, .L4
 563:Src/aspep.c   ****         {
 564:Src/aspep.c   ****           result = ASPEP_BUFFER_ERROR;
 565:Src/aspep.c   ****         }
 566:Src/aspep.c   ****         else
 567:Src/aspep.c   ****         {
 568:Src/aspep.c   ****           pHandle->ctrlBuffer.state = pending;
 247              		.loc 1 568 11 is_stmt 1 view .LVU71
 248              		.loc 1 568 37 is_stmt 0 view .LVU72
 249 005e 0223     		movs	r3, #2
 250 0060 80F82430 		strb	r3, [r0, #36]
 251              	.LVL17:
 569:Src/aspep.c   ****         }
 570:Src/aspep.c   ****       }
 571:Src/aspep.c   ****       else
 572:Src/aspep.c   ****       {
 573:Src/aspep.c   ****         /* Nothing to do */
 574:Src/aspep.c   ****       }
 252              		.loc 1 574 7 is_stmt 1 view .LVU73
 575:Src/aspep.c   ****     }
 576:Src/aspep.c   **** #ifdef NULL_PTR_CHECK_ASP
 577:Src/aspep.c   ****   }
 578:Src/aspep.c   **** #endif
 579:Src/aspep.c   ****   return (result);
 253              		.loc 1 579 3 view .LVU74
 254              	.L4:
 255              		.loc 1 579 3 is_stmt 0 view .LVU75
 256              	.LBE59:
 257              	.LBE63:
 229:Src/aspep.c   **** 
 258              		.loc 1 229 1 view .LVU76
ARM GAS  C:\Users\ep_ygh\AppData\Local\Temp\ccopCd9W.s 			page 20


 259 0064 5DF8044B 		ldr	r4, [sp], #4
 260              	.LCFI3:
 261              		.cfi_remember_state
 262              		.cfi_restore 4
 263              		.cfi_def_cfa_offset 0
 264 0068 7047     		bx	lr
 265              	.LVL18:
 266              	.L8:
 267              	.LCFI4:
 268              		.cfi_restore_state
 225:Src/aspep.c   **** #ifdef NULL_PTR_CHECK_ASP
 269              		.loc 1 225 53 view .LVU77
 270 006a 00F12001 		add	r1, r0, #32
 271              	.LVL19:
 272              	.LBB64:
 273              	.LBB60:
 274              	.LBB52:
 275              	.LBI52:
 479:Src/aspep.c   **** {
 276              		.loc 1 479 9 is_stmt 1 view .LVU78
 277              	.LBB53:
 495:Src/aspep.c   ****       {
 278              		.loc 1 495 7 view .LVU79
 504:Src/aspep.c   ****       {
 279              		.loc 1 504 12 view .LVU80
 511:Src/aspep.c   ****         pHandle->lockBuffer = (void *)&pHandle->ctrlBuffer;
 280              		.loc 1 511 9 view .LVU81
 511:Src/aspep.c   ****         pHandle->lockBuffer = (void *)&pHandle->ctrlBuffer;
 281              		.loc 1 511 35 is_stmt 0 view .LVU82
 282 006e 0323     		movs	r3, #3
 283 0070 80F82430 		strb	r3, [r0, #36]
 512:Src/aspep.c   ****       }
 284              		.loc 1 512 9 is_stmt 1 view .LVU83
 512:Src/aspep.c   ****       }
 285              		.loc 1 512 29 is_stmt 0 view .LVU84
 286 0074 8164     		str	r1, [r0, #72]
 515:Src/aspep.c   ****       pHandle->fASPEP_send(pHandle->HWIp, txBuffer, bufferLength);
 287              		.loc 1 515 7 is_stmt 1 view .LVU85
 288              	.LBB54:
 289              	.LBI54:
 196:Drivers/CMSIS/Include/cmsis_gcc.h **** {
 290              		.loc 2 196 27 view .LVU86
 291              	.LBB55:
 198:Drivers/CMSIS/Include/cmsis_gcc.h **** }
 292              		.loc 2 198 3 view .LVU87
 293              		.syntax unified
 294              	@ 198 "Drivers/CMSIS/Include/cmsis_gcc.h" 1
 295 0076 62B6     		cpsie i
 296              	@ 0 "" 2
 297              		.thumb
 298              		.syntax unified
 299              	.LBE55:
 300              	.LBE54:
 516:Src/aspep.c   ****     }
 301              		.loc 1 516 7 view .LVU88
 302 0078 0422     		movs	r2, #4
 303 007a 836D     		ldr	r3, [r0, #88]
ARM GAS  C:\Users\ep_ygh\AppData\Local\Temp\ccopCd9W.s 			page 21


 304              	.LBE53:
 305              	.LBE52:
 306              	.LBE60:
 307              	.LBE64:
 229:Src/aspep.c   **** 
 308              		.loc 1 229 1 is_stmt 0 view .LVU89
 309 007c 5DF8044B 		ldr	r4, [sp], #4
 310              	.LCFI5:
 311              		.cfi_restore 4
 312              		.cfi_def_cfa_offset 0
 313              	.LBB65:
 314              	.LBB61:
 315              	.LBB57:
 316              	.LBB56:
 516:Src/aspep.c   ****     }
 317              		.loc 1 516 7 view .LVU90
 318 0080 4069     		ldr	r0, [r0, #20]
 319              	.LVL20:
 516:Src/aspep.c   ****     }
 320              		.loc 1 516 7 view .LVU91
 321 0082 1847     		bx	r3
 322              	.LVL21:
 323              	.L10:
 516:Src/aspep.c   ****     }
 324              		.loc 1 516 7 view .LVU92
 325              		.align	2
 326              	.L9:
 327 0084 00000000 		.word	.LANCHOR0
 328 0088 00000000 		.word	.LANCHOR1
 329              	.LBE56:
 330              	.LBE57:
 331              	.LBE61:
 332              	.LBE65:
 333              		.cfi_endproc
 334              	.LFE1093:
 336              		.section	.text.ASPEP_sendPing,"ax",%progbits
 337              		.align	1
 338              		.p2align 2,,3
 339              		.global	ASPEP_sendPing
 340              		.syntax unified
 341              		.thumb
 342              		.thumb_func
 344              	ASPEP_sendPing:
 345              	.LVL22:
 346              	.LFB1095:
 252:Src/aspep.c   **** #ifdef NULL_PTR_CHECK_ASP
 347              		.loc 1 252 1 is_stmt 1 view -0
 348              		.cfi_startproc
 349              		@ args = 0, pretend = 0, frame = 0
 350              		@ frame_needed = 0, uses_anonymous_args = 0
 261:Src/aspep.c   ****     uint8_t Nbit = pHandle->syncPacketCount & 0x1U; /* Keep only LSB */
 351              		.loc 1 261 5 view .LVU94
 262:Src/aspep.c   ****     uint8_t ipID = pHandle->liid & 0xFU;
 352              		.loc 1 262 5 view .LVU95
 263:Src/aspep.c   ****     *packet = PING | (uint32_t)((uint32_t)cBit << 4U)
 353              		.loc 1 263 5 view .LVU96
 264:Src/aspep.c   ****                    | (uint32_t)((uint32_t)cBit << 5U)
ARM GAS  C:\Users\ep_ygh\AppData\Local\Temp\ccopCd9W.s 			page 22


 354              		.loc 1 264 5 view .LVU97
 252:Src/aspep.c   **** #ifdef NULL_PTR_CHECK_ASP
 355              		.loc 1 252 1 is_stmt 0 view .LVU98
 356 0000 30B5     		push	{r4, r5, lr}
 357              	.LCFI6:
 358              		.cfi_def_cfa_offset 12
 359              		.cfi_offset 4, -12
 360              		.cfi_offset 5, -8
 361              		.cfi_offset 14, -4
 265:Src/aspep.c   ****                    | (uint32_t)((uint32_t)Nbit << 6U)
 362              		.loc 1 265 22 view .LVU99
 363 0002 4FEA411C 		lsl	ip, r1, #5
 262:Src/aspep.c   ****     uint8_t ipID = pHandle->liid & 0xFU;
 364              		.loc 1 262 13 view .LVU100
 365 0006 90F860E0 		ldrb	lr, [r0, #96]	@ zero_extendqisi2
 263:Src/aspep.c   ****     *packet = PING | (uint32_t)((uint32_t)cBit << 4U)
 366              		.loc 1 263 13 view .LVU101
 367 000a 90F86340 		ldrb	r4, [r0, #99]	@ zero_extendqisi2
 368              	.LBB82:
 369              	.LBB83:
 370              	.LBB84:
 371              	.LBB85:
 128:Src/aspep.c   **** #else /* CRC4_PER_NIBBLE */
 372              		.loc 1 128 7 view .LVU102
 373 000e 1E4D     		ldr	r5, .L16
 374              	.LBE85:
 375              	.LBE84:
 376              	.LBE83:
 377              	.LBE82:
 269:Src/aspep.c   ****     (void)ASPEP_TXframeProcess(pHandle, ASPEP_CTRL, &pHandle->ctrlBuffer, ASPEP_CTRL_SIZE);
 378              		.loc 1 269 20 view .LVU103
 379 0010 4CEA011C 		orr	ip, ip, r1, lsl #4
 266:Src/aspep.c   ****                    | (uint32_t)((uint32_t)Nbit << 7U)
 380              		.loc 1 266 33 view .LVU104
 381 0014 0EF0010E 		and	lr, lr, #1
 269:Src/aspep.c   ****     (void)ASPEP_TXframeProcess(pHandle, ASPEP_CTRL, &pHandle->ctrlBuffer, ASPEP_CTRL_SIZE);
 382              		.loc 1 269 20 view .LVU105
 383 0018 4CEA023C 		orr	ip, ip, r2, lsl #12
 384 001c 4CEA8E13 		orr	r3, ip, lr, lsl #6
 385 0020 43EACE13 		orr	r3, r3, lr, lsl #7
 268:Src/aspep.c   ****                    | (uint32_t)(((uint32_t) packetNumber) << 12U);
 386              		.loc 1 268 33 view .LVU106
 387 0024 04F00F04 		and	r4, r4, #15
 269:Src/aspep.c   ****     (void)ASPEP_TXframeProcess(pHandle, ASPEP_CTRL, &pHandle->ctrlBuffer, ASPEP_CTRL_SIZE);
 388              		.loc 1 269 20 view .LVU107
 389 0028 43EA0423 		orr	r3, r3, r4, lsl #8
 390              	.LBB104:
 391              	.LBB100:
 392              	.LBB88:
 393              	.LBB86:
 125:Src/aspep.c   ****   crc = CRC4_Lookup8[crc ^ (uint8_t)((header >> 8U) & 0xffU)];
 394              		.loc 1 125 26 view .LVU108
 395 002c DAB2     		uxtb	r2, r3
 396              	.LVL23:
 125:Src/aspep.c   ****   crc = CRC4_Lookup8[crc ^ (uint8_t)((header >> 8U) & 0xffU)];
 397              		.loc 1 125 7 view .LVU109
 398 002e 174C     		ldr	r4, .L16+4
ARM GAS  C:\Users\ep_ygh\AppData\Local\Temp\ccopCd9W.s 			page 23


 125:Src/aspep.c   ****   crc = CRC4_Lookup8[crc ^ (uint8_t)((header >> 8U) & 0xffU)];
 399              		.loc 1 125 26 view .LVU110
 400 0030 42F00602 		orr	r2, r2, #6
 401              	.LBE86:
 402              	.LBE88:
 403              	.LBE100:
 404              	.LBE104:
 269:Src/aspep.c   ****     (void)ASPEP_TXframeProcess(pHandle, ASPEP_CTRL, &pHandle->ctrlBuffer, ASPEP_CTRL_SIZE);
 405              		.loc 1 269 20 view .LVU111
 406 0034 43F00601 		orr	r1, r3, #6
 407              	.LVL24:
 270:Src/aspep.c   **** #ifdef NULL_PTR_CHECK_ASP
 408              		.loc 1 270 5 is_stmt 1 view .LVU112
 409              	.LBB105:
 410              	.LBI82:
 479:Src/aspep.c   **** {
 411              		.loc 1 479 9 view .LVU113
 412              	.LBB101:
 481:Src/aspep.c   **** #ifdef NULL_PTR_CHECK_ASP
 413              		.loc 1 481 3 view .LVU114
 491:Src/aspep.c   ****     __disable_irq(); /*TODO: Disable High frequency task is enough */
 414              		.loc 1 491 5 view .LVU115
 415              	.LBB89:
 416              	.LBI84:
 117:Src/aspep.c   **** {
 417              		.loc 1 117 13 view .LVU116
 418              	.LBB87:
 119:Src/aspep.c   ****   uint32_t header = *headerPtr;
 419              		.loc 1 119 3 view .LVU117
 120:Src/aspep.c   **** 
 420              		.loc 1 120 3 view .LVU118
 123:Src/aspep.c   **** 
 421              		.loc 1 123 3 view .LVU119
 125:Src/aspep.c   ****   crc = CRC4_Lookup8[crc ^ (uint8_t)((header >> 8U) & 0xffU)];
 422              		.loc 1 125 3 view .LVU120
 126:Src/aspep.c   ****   crc = CRC4_Lookup8[crc ^ (uint8_t)((header >> 16U) & 0xffU)];
 423              		.loc 1 126 3 view .LVU121
 126:Src/aspep.c   ****   crc = CRC4_Lookup8[crc ^ (uint8_t)((header >> 16U) & 0xffU)];
 424              		.loc 1 126 26 is_stmt 0 view .LVU122
 425 0038 A25C     		ldrb	r2, [r4, r2]	@ zero_extendqisi2
 426 003a 82EA1322 		eor	r2, r2, r3, lsr #8
 427 003e D2B2     		uxtb	r2, r2
 428              	.LVL25:
 127:Src/aspep.c   ****   crc = CRC4_Lookup4[crc ^ (uint8_t)((header >> 24U) & 0x0fU)];
 429              		.loc 1 127 3 is_stmt 1 view .LVU123
 127:Src/aspep.c   ****   crc = CRC4_Lookup4[crc ^ (uint8_t)((header >> 24U) & 0x0fU)];
 430              		.loc 1 127 26 is_stmt 0 view .LVU124
 431 0040 A25C     		ldrb	r2, [r4, r2]	@ zero_extendqisi2
 432              	.LVL26:
 127:Src/aspep.c   ****   crc = CRC4_Lookup4[crc ^ (uint8_t)((header >> 24U) & 0x0fU)];
 433              		.loc 1 127 26 view .LVU125
 434 0042 82EA1342 		eor	r2, r2, r3, lsr #16
 435 0046 D2B2     		uxtb	r2, r2
 436              	.LVL27:
 128:Src/aspep.c   **** #else /* CRC4_PER_NIBBLE */
 437              		.loc 1 128 3 is_stmt 1 view .LVU126
 128:Src/aspep.c   **** #else /* CRC4_PER_NIBBLE */
ARM GAS  C:\Users\ep_ygh\AppData\Local\Temp\ccopCd9W.s 			page 24


 438              		.loc 1 128 26 is_stmt 0 view .LVU127
 439 0048 A25C     		ldrb	r2, [r4, r2]	@ zero_extendqisi2
 440              	.LVL28:
 128:Src/aspep.c   **** #else /* CRC4_PER_NIBBLE */
 441              		.loc 1 128 26 view .LVU128
 442 004a 82EA1363 		eor	r3, r2, r3, lsr #24
 443              	.LVL29:
 139:Src/aspep.c   **** 
 444              		.loc 1 139 3 is_stmt 1 view .LVU129
 139:Src/aspep.c   **** 
 445              		.loc 1 139 17 is_stmt 0 view .LVU130
 446 004e EB5C     		ldrb	r3, [r5, r3]	@ zero_extendqisi2
 447              	.LVL30:
 139:Src/aspep.c   **** 
 448              		.loc 1 139 14 view .LVU131
 449 0050 41EA0373 		orr	r3, r1, r3, lsl #28
 450 0054 0362     		str	r3, [r0, #32]
 451              	.LVL31:
 139:Src/aspep.c   **** 
 452              		.loc 1 139 14 view .LVU132
 453              	.LBE87:
 454              	.LBE89:
 492:Src/aspep.c   ****     if (NULL == pHandle->lockBuffer) /* Communication Ip free to send data*/
 455              		.loc 1 492 5 is_stmt 1 view .LVU133
 456              	.LBB90:
 457              	.LBI90:
 207:Drivers/CMSIS/Include/cmsis_gcc.h **** {
 458              		.loc 2 207 27 view .LVU134
 459              	.LBB91:
 460              		.loc 2 209 3 view .LVU135
 461              		.syntax unified
 462              	@ 209 "Drivers/CMSIS/Include/cmsis_gcc.h" 1
 463 0056 72B6     		cpsid i
 464              	@ 0 "" 2
 465              		.thumb
 466              		.syntax unified
 467              	.LBE91:
 468              	.LBE90:
 493:Src/aspep.c   ****     {
 469              		.loc 1 493 5 view .LVU136
 493:Src/aspep.c   ****     {
 470              		.loc 1 493 8 is_stmt 0 view .LVU137
 471 0058 836C     		ldr	r3, [r0, #72]
 472 005a 3BB1     		cbz	r3, .L15
 520:Src/aspep.c   ****       /* Lock buffer can be freed here */
 473              		.loc 1 520 7 is_stmt 1 view .LVU138
 474              	.LBB92:
 475              	.LBI92:
 196:Drivers/CMSIS/Include/cmsis_gcc.h **** {
 476              		.loc 2 196 27 view .LVU139
 477              	.LBB93:
 198:Drivers/CMSIS/Include/cmsis_gcc.h **** }
 478              		.loc 2 198 3 view .LVU140
 479              		.syntax unified
 480              	@ 198 "Drivers/CMSIS/Include/cmsis_gcc.h" 1
 481 005c 62B6     		cpsie i
 482              	@ 0 "" 2
ARM GAS  C:\Users\ep_ygh\AppData\Local\Temp\ccopCd9W.s 			page 25


 483              		.thumb
 484              		.syntax unified
 485              	.LBE93:
 486              	.LBE92:
 522:Src/aspep.c   ****       {
 487              		.loc 1 522 7 view .LVU141
 548:Src/aspep.c   ****       {
 488              		.loc 1 548 12 view .LVU142
 560:Src/aspep.c   ****       {
 489              		.loc 1 560 12 view .LVU143
 562:Src/aspep.c   ****         {
 490              		.loc 1 562 9 view .LVU144
 562:Src/aspep.c   ****         {
 491              		.loc 1 562 12 is_stmt 0 view .LVU145
 492 005e 90F82430 		ldrb	r3, [r0, #36]	@ zero_extendqisi2
 493 0062 13B9     		cbnz	r3, .L11
 568:Src/aspep.c   ****         }
 494              		.loc 1 568 11 is_stmt 1 view .LVU146
 568:Src/aspep.c   ****         }
 495              		.loc 1 568 37 is_stmt 0 view .LVU147
 496 0064 0223     		movs	r3, #2
 497 0066 80F82430 		strb	r3, [r0, #36]
 498              	.LVL32:
 574:Src/aspep.c   ****     }
 499              		.loc 1 574 7 is_stmt 1 view .LVU148
 500              		.loc 1 579 3 view .LVU149
 501              	.L11:
 502              		.loc 1 579 3 is_stmt 0 view .LVU150
 503              	.LBE101:
 504              	.LBE105:
 274:Src/aspep.c   **** 
 505              		.loc 1 274 1 view .LVU151
 506 006a 30BD     		pop	{r4, r5, pc}
 507              	.LVL33:
 508              	.L15:
 270:Src/aspep.c   **** #ifdef NULL_PTR_CHECK_ASP
 509              		.loc 1 270 53 view .LVU152
 510 006c 00F12001 		add	r1, r0, #32
 511              	.LVL34:
 512              	.LBB106:
 513              	.LBB102:
 514              	.LBB94:
 515              	.LBI94:
 479:Src/aspep.c   **** {
 516              		.loc 1 479 9 is_stmt 1 view .LVU153
 517              	.LBB95:
 495:Src/aspep.c   ****       {
 518              		.loc 1 495 7 view .LVU154
 504:Src/aspep.c   ****       {
 519              		.loc 1 504 12 view .LVU155
 511:Src/aspep.c   ****         pHandle->lockBuffer = (void *)&pHandle->ctrlBuffer;
 520              		.loc 1 511 9 view .LVU156
 511:Src/aspep.c   ****         pHandle->lockBuffer = (void *)&pHandle->ctrlBuffer;
 521              		.loc 1 511 35 is_stmt 0 view .LVU157
 522 0070 0323     		movs	r3, #3
 523 0072 80F82430 		strb	r3, [r0, #36]
 512:Src/aspep.c   ****       }
ARM GAS  C:\Users\ep_ygh\AppData\Local\Temp\ccopCd9W.s 			page 26


 524              		.loc 1 512 9 is_stmt 1 view .LVU158
 512:Src/aspep.c   ****       }
 525              		.loc 1 512 29 is_stmt 0 view .LVU159
 526 0076 8164     		str	r1, [r0, #72]
 515:Src/aspep.c   ****       pHandle->fASPEP_send(pHandle->HWIp, txBuffer, bufferLength);
 527              		.loc 1 515 7 is_stmt 1 view .LVU160
 528              	.LBB96:
 529              	.LBI96:
 196:Drivers/CMSIS/Include/cmsis_gcc.h **** {
 530              		.loc 2 196 27 view .LVU161
 531              	.LBB97:
 198:Drivers/CMSIS/Include/cmsis_gcc.h **** }
 532              		.loc 2 198 3 view .LVU162
 533              		.syntax unified
 534              	@ 198 "Drivers/CMSIS/Include/cmsis_gcc.h" 1
 535 0078 62B6     		cpsie i
 536              	@ 0 "" 2
 537              		.thumb
 538              		.syntax unified
 539              	.LBE97:
 540              	.LBE96:
 516:Src/aspep.c   ****     }
 541              		.loc 1 516 7 view .LVU163
 542 007a 0422     		movs	r2, #4
 543 007c 836D     		ldr	r3, [r0, #88]
 544 007e 4069     		ldr	r0, [r0, #20]
 545              	.LVL35:
 516:Src/aspep.c   ****     }
 546              		.loc 1 516 7 is_stmt 0 view .LVU164
 547              	.LBE95:
 548              	.LBE94:
 549              	.LBE102:
 550              	.LBE106:
 274:Src/aspep.c   **** 
 551              		.loc 1 274 1 view .LVU165
 552 0080 BDE83040 		pop	{r4, r5, lr}
 553              	.LCFI7:
 554              		.cfi_restore 14
 555              		.cfi_restore 5
 556              		.cfi_restore 4
 557              		.cfi_def_cfa_offset 0
 558              	.LBB107:
 559              	.LBB103:
 560              	.LBB99:
 561              	.LBB98:
 516:Src/aspep.c   ****     }
 562              		.loc 1 516 7 view .LVU166
 563 0084 1847     		bx	r3
 564              	.LVL36:
 565              	.L17:
 516:Src/aspep.c   ****     }
 566              		.loc 1 516 7 view .LVU167
 567 0086 00BF     		.align	2
 568              	.L16:
 569 0088 00000000 		.word	.LANCHOR1
 570 008c 00000000 		.word	.LANCHOR0
 571              	.LBE98:
ARM GAS  C:\Users\ep_ygh\AppData\Local\Temp\ccopCd9W.s 			page 27


 572              	.LBE99:
 573              	.LBE103:
 574              	.LBE107:
 575              		.cfi_endproc
 576              	.LFE1095:
 578              		.section	.text.ASPEP_getBuffer,"ax",%progbits
 579              		.align	1
 580              		.p2align 2,,3
 581              		.global	ASPEP_getBuffer
 582              		.syntax unified
 583              		.thumb
 584              		.thumb_func
 586              	ASPEP_getBuffer:
 587              	.LVL37:
 588              	.LFB1096:
 286:Src/aspep.c   ****   bool result = true;
 589              		.loc 1 286 1 is_stmt 1 view -0
 590              		.cfi_startproc
 591              		@ args = 0, pretend = 0, frame = 0
 592              		@ frame_needed = 0, uses_anonymous_args = 0
 593              		@ link register save eliminated.
 287:Src/aspep.c   **** #ifdef NULL_PTR_CHECK_ASP
 594              		.loc 1 287 3 view .LVU169
 296:Src/aspep.c   **** 
 595              		.loc 1 296 5 view .LVU170
 298:Src/aspep.c   ****     {
 596              		.loc 1 298 8 is_stmt 0 view .LVU171
 597 0000 0A2A     		cmp	r2, #10
 286:Src/aspep.c   ****   bool result = true;
 598              		.loc 1 286 1 view .LVU172
 599 0002 10B4     		push	{r4}
 600              	.LCFI8:
 601              		.cfi_def_cfa_offset 4
 602              		.cfi_offset 4, -4
 286:Src/aspep.c   ****   bool result = true;
 603              		.loc 1 286 1 view .LVU173
 604 0004 0346     		mov	r3, r0
 605              	.LVL38:
 298:Src/aspep.c   ****     {
 606              		.loc 1 298 5 is_stmt 1 view .LVU174
 298:Src/aspep.c   ****     {
 607              		.loc 1 298 8 is_stmt 0 view .LVU175
 608 0006 0BD0     		beq	.L27
 312:Src/aspep.c   ****       {
 609              		.loc 1 312 7 is_stmt 1 view .LVU176
 312:Src/aspep.c   ****       {
 610              		.loc 1 312 10 is_stmt 0 view .LVU177
 611 0008 90F83620 		ldrb	r2, [r0, #54]	@ zero_extendqisi2
 612              	.LVL39:
 312:Src/aspep.c   ****       {
 613              		.loc 1 312 10 view .LVU178
 614 000c 012A     		cmp	r2, #1
 615 000e 21D9     		bls	.L21
 312:Src/aspep.c   ****       {
 616              		.loc 1 312 53 discriminator 1 view .LVU179
 617 0010 90F83E20 		ldrb	r2, [r0, #62]	@ zero_extendqisi2
 618 0014 012A     		cmp	r2, #1
ARM GAS  C:\Users\ep_ygh\AppData\Local\Temp\ccopCd9W.s 			page 28


 619 0016 11D9     		bls	.L28
 620              	.L24:
 307:Src/aspep.c   ****       }
 621              		.loc 1 307 16 view .LVU180
 622 0018 0020     		movs	r0, #0
 623              	.LVL40:
 339:Src/aspep.c   ****       }
 624              		.loc 1 339 9 is_stmt 1 view .LVU181
 345:Src/aspep.c   **** }
 625              		.loc 1 345 3 view .LVU182
 346:Src/aspep.c   **** 
 626              		.loc 1 346 1 is_stmt 0 view .LVU183
 627 001a 5DF8044B 		ldr	r4, [sp], #4
 628              	.LCFI9:
 629              		.cfi_remember_state
 630              		.cfi_restore 4
 631              		.cfi_def_cfa_offset 0
 632 001e 7047     		bx	lr
 633              	.LVL41:
 634              	.L27:
 635              	.LCFI10:
 636              		.cfi_restore_state
 300:Src/aspep.c   ****       {
 637              		.loc 1 300 7 is_stmt 1 view .LVU184
 300:Src/aspep.c   ****       {
 638              		.loc 1 300 10 is_stmt 0 view .LVU185
 639 0020 90F82E20 		ldrb	r2, [r0, #46]	@ zero_extendqisi2
 640              	.LVL42:
 300:Src/aspep.c   ****       {
 641              		.loc 1 300 10 view .LVU186
 642 0024 012A     		cmp	r2, #1
 643 0026 F7D8     		bhi	.L24
 302:Src/aspep.c   ****         pHandle->syncBuffer.state = writeLock;
 644              		.loc 1 302 9 is_stmt 1 view .LVU187
 302:Src/aspep.c   ****         pHandle->syncBuffer.state = writeLock;
 645              		.loc 1 302 19 is_stmt 0 view .LVU188
 646 0028 826A     		ldr	r2, [r0, #40]
 303:Src/aspep.c   ****       }
 647              		.loc 1 303 35 view .LVU189
 648 002a 0124     		movs	r4, #1
 302:Src/aspep.c   ****         pHandle->syncBuffer.state = writeLock;
 649              		.loc 1 302 19 view .LVU190
 650 002c 0432     		adds	r2, r2, #4
 302:Src/aspep.c   ****         pHandle->syncBuffer.state = writeLock;
 651              		.loc 1 302 17 view .LVU191
 652 002e 0A60     		str	r2, [r1]
 303:Src/aspep.c   ****       }
 653              		.loc 1 303 9 is_stmt 1 view .LVU192
 303:Src/aspep.c   ****       }
 654              		.loc 1 303 35 is_stmt 0 view .LVU193
 655 0030 83F82E40 		strb	r4, [r3, #46]
 287:Src/aspep.c   **** #ifdef NULL_PTR_CHECK_ASP
 656              		.loc 1 287 8 view .LVU194
 657 0034 2046     		mov	r0, r4
 658              	.LVL43:
 339:Src/aspep.c   ****       }
 659              		.loc 1 339 9 is_stmt 1 view .LVU195
ARM GAS  C:\Users\ep_ygh\AppData\Local\Temp\ccopCd9W.s 			page 29


 345:Src/aspep.c   **** }
 660              		.loc 1 345 3 view .LVU196
 346:Src/aspep.c   **** 
 661              		.loc 1 346 1 is_stmt 0 view .LVU197
 662 0036 5DF8044B 		ldr	r4, [sp], #4
 663              	.LCFI11:
 664              		.cfi_remember_state
 665              		.cfi_restore 4
 666              		.cfi_def_cfa_offset 0
 667 003a 7047     		bx	lr
 668              	.LVL44:
 669              	.L28:
 670              	.LCFI12:
 671              		.cfi_restore_state
 318:Src/aspep.c   ****         {
 672              		.loc 1 318 9 is_stmt 1 view .LVU198
 327:Src/aspep.c   ****         {
 673              		.loc 1 327 14 view .LVU199
 329:Src/aspep.c   ****           pHandle->lastRequestedAsyncBuff = &pHandle->asyncBufferB;
 674              		.loc 1 329 11 view .LVU200
 331:Src/aspep.c   **** #ifdef MCP_DEBUG_METRICS
 675              		.loc 1 331 21 is_stmt 0 view .LVU201
 676 003c 826B     		ldr	r2, [r0, #56]
 329:Src/aspep.c   ****           pHandle->lastRequestedAsyncBuff = &pHandle->asyncBufferB;
 677              		.loc 1 329 39 view .LVU202
 678 003e 0120     		movs	r0, #1
 679              	.LVL45:
 330:Src/aspep.c   ****           *buffer = &pHandle->asyncBufferB.buffer[ASPEP_HEADER_SIZE];
 680              		.loc 1 330 45 view .LVU203
 681 0040 03F13804 		add	r4, r3, #56
 329:Src/aspep.c   ****           pHandle->lastRequestedAsyncBuff = &pHandle->asyncBufferB;
 682              		.loc 1 329 39 view .LVU204
 683 0044 83F83E00 		strb	r0, [r3, #62]
 330:Src/aspep.c   ****           *buffer = &pHandle->asyncBufferB.buffer[ASPEP_HEADER_SIZE];
 684              		.loc 1 330 11 is_stmt 1 view .LVU205
 331:Src/aspep.c   **** #ifdef MCP_DEBUG_METRICS
 685              		.loc 1 331 21 is_stmt 0 view .LVU206
 686 0048 0432     		adds	r2, r2, #4
 330:Src/aspep.c   ****           *buffer = &pHandle->asyncBufferB.buffer[ASPEP_HEADER_SIZE];
 687              		.loc 1 330 43 view .LVU207
 688 004a 1C64     		str	r4, [r3, #64]
 331:Src/aspep.c   **** #ifdef MCP_DEBUG_METRICS
 689              		.loc 1 331 11 is_stmt 1 view .LVU208
 346:Src/aspep.c   **** 
 690              		.loc 1 346 1 is_stmt 0 view .LVU209
 691 004c 5DF8044B 		ldr	r4, [sp], #4
 692              	.LCFI13:
 693              		.cfi_remember_state
 694              		.cfi_restore 4
 695              		.cfi_def_cfa_offset 0
 331:Src/aspep.c   **** #ifdef MCP_DEBUG_METRICS
 696              		.loc 1 331 19 view .LVU210
 697 0050 0A60     		str	r2, [r1]
 698              	.LVL46:
 339:Src/aspep.c   ****       }
 699              		.loc 1 339 9 is_stmt 1 view .LVU211
 345:Src/aspep.c   **** }
ARM GAS  C:\Users\ep_ygh\AppData\Local\Temp\ccopCd9W.s 			page 30


 700              		.loc 1 345 3 view .LVU212
 346:Src/aspep.c   **** 
 701              		.loc 1 346 1 is_stmt 0 view .LVU213
 702 0052 7047     		bx	lr
 703              	.LVL47:
 704              	.L21:
 705              	.LCFI14:
 706              		.cfi_restore_state
 318:Src/aspep.c   ****         {
 707              		.loc 1 318 9 is_stmt 1 view .LVU214
 320:Src/aspep.c   ****           pHandle->lastRequestedAsyncBuff = &pHandle->asyncBufferA;
 708              		.loc 1 320 11 view .LVU215
 322:Src/aspep.c   **** #ifdef MCP_DEBUG_METRICS
 709              		.loc 1 322 21 is_stmt 0 view .LVU216
 710 0054 026B     		ldr	r2, [r0, #48]
 320:Src/aspep.c   ****           pHandle->lastRequestedAsyncBuff = &pHandle->asyncBufferA;
 711              		.loc 1 320 39 view .LVU217
 712 0056 0120     		movs	r0, #1
 713              	.LVL48:
 321:Src/aspep.c   ****           *buffer = &pHandle->asyncBufferA.buffer[ASPEP_HEADER_SIZE];
 714              		.loc 1 321 45 view .LVU218
 715 0058 03F13004 		add	r4, r3, #48
 320:Src/aspep.c   ****           pHandle->lastRequestedAsyncBuff = &pHandle->asyncBufferA;
 716              		.loc 1 320 39 view .LVU219
 717 005c 83F83600 		strb	r0, [r3, #54]
 321:Src/aspep.c   ****           *buffer = &pHandle->asyncBufferA.buffer[ASPEP_HEADER_SIZE];
 718              		.loc 1 321 11 is_stmt 1 view .LVU220
 322:Src/aspep.c   **** #ifdef MCP_DEBUG_METRICS
 719              		.loc 1 322 21 is_stmt 0 view .LVU221
 720 0060 0432     		adds	r2, r2, #4
 321:Src/aspep.c   ****           *buffer = &pHandle->asyncBufferA.buffer[ASPEP_HEADER_SIZE];
 721              		.loc 1 321 43 view .LVU222
 722 0062 1C64     		str	r4, [r3, #64]
 322:Src/aspep.c   **** #ifdef MCP_DEBUG_METRICS
 723              		.loc 1 322 11 is_stmt 1 view .LVU223
 346:Src/aspep.c   **** 
 724              		.loc 1 346 1 is_stmt 0 view .LVU224
 725 0064 5DF8044B 		ldr	r4, [sp], #4
 726              	.LCFI15:
 727              		.cfi_restore 4
 728              		.cfi_def_cfa_offset 0
 322:Src/aspep.c   **** #ifdef MCP_DEBUG_METRICS
 729              		.loc 1 322 19 view .LVU225
 730 0068 0A60     		str	r2, [r1]
 731              	.LVL49:
 339:Src/aspep.c   ****       }
 732              		.loc 1 339 9 is_stmt 1 view .LVU226
 345:Src/aspep.c   **** }
 733              		.loc 1 345 3 view .LVU227
 346:Src/aspep.c   **** 
 734              		.loc 1 346 1 is_stmt 0 view .LVU228
 735 006a 7047     		bx	lr
 736              		.cfi_endproc
 737              	.LFE1096:
 739              		.section	.text.ASPEP_sendPacket,"ax",%progbits
 740              		.align	1
 741              		.p2align 2,,3
ARM GAS  C:\Users\ep_ygh\AppData\Local\Temp\ccopCd9W.s 			page 31


 742              		.global	ASPEP_sendPacket
 743              		.syntax unified
 744              		.thumb
 745              		.thumb_func
 747              	ASPEP_sendPacket:
 748              	.LVL50:
 749              	.LFB1098:
 405:Src/aspep.c   ****   uint8_t result = ASPEP_OK;
 750              		.loc 1 405 1 is_stmt 1 view -0
 751              		.cfi_startproc
 752              		@ args = 0, pretend = 0, frame = 0
 753              		@ frame_needed = 0, uses_anonymous_args = 0
 406:Src/aspep.c   **** #ifdef NULL_PTR_CHECK_ASP
 754              		.loc 1 406 3 view .LVU230
 415:Src/aspep.c   ****     uint32_t tmpHeader;
 755              		.loc 1 415 5 view .LVU231
 416:Src/aspep.c   ****     uint16_t txDataLengthTemp;
 756              		.loc 1 416 5 view .LVU232
 417:Src/aspep.c   ****     uint8_t *packet;
 757              		.loc 1 417 5 view .LVU233
 418:Src/aspep.c   **** 
 758              		.loc 1 418 5 view .LVU234
 420:Src/aspep.c   ****     ASPEP_Handle_t *pHandle = (ASPEP_Handle_t *)pSupHandle; //cstat !MISRAC2012-Rule-11.3
 759              		.loc 1 420 5 view .LVU235
 405:Src/aspep.c   ****   uint8_t result = ASPEP_OK;
 760              		.loc 1 405 1 is_stmt 0 view .LVU236
 761 0000 70B5     		push	{r4, r5, r6, lr}
 762              	.LCFI16:
 763              		.cfi_def_cfa_offset 16
 764              		.cfi_offset 4, -16
 765              		.cfi_offset 5, -12
 766              		.cfi_offset 6, -8
 767              		.cfi_offset 14, -4
 423:Src/aspep.c   ****     {
 768              		.loc 1 423 8 view .LVU237
 769 0002 90F86440 		ldrb	r4, [r0, #100]	@ zero_extendqisi2
 770              	.LVL51:
 421:Src/aspep.c   **** 
 771              		.loc 1 421 5 is_stmt 1 view .LVU238
 423:Src/aspep.c   ****     {
 772              		.loc 1 423 5 view .LVU239
 423:Src/aspep.c   ****     {
 773              		.loc 1 423 8 is_stmt 0 view .LVU240
 774 0006 022C     		cmp	r4, #2
 775 0008 02D0     		beq	.L48
 457:Src/aspep.c   ****     }
 776              		.loc 1 457 14 view .LVU241
 777 000a 0221     		movs	r1, #2
 778              	.LVL52:
 779              	.L30:
 462:Src/aspep.c   **** }
 780              		.loc 1 462 3 is_stmt 1 view .LVU242
 463:Src/aspep.c   **** 
 781              		.loc 1 463 1 is_stmt 0 view .LVU243
 782 000c 0846     		mov	r0, r1
 783 000e 70BD     		pop	{r4, r5, r6, pc}
 784              	.LVL53:
ARM GAS  C:\Users\ep_ygh\AppData\Local\Temp\ccopCd9W.s 			page 32


 785              	.L48:
 427:Src/aspep.c   ****       header = (uint32_t *)txBuffer; //cstat !MISRAC2012-Rule-11.5
 786              		.loc 1 427 7 is_stmt 1 view .LVU244
 428:Src/aspep.c   ****       header--; /* Header ues 4*8 bits on top of txBuffer*/
 787              		.loc 1 428 7 view .LVU245
 429:Src/aspep.c   ****       tmpHeader = ((uint32_t)((uint32_t)txDataLengthTemp << (uint32_t)4) | (uint32_t)syncAsync);
 788              		.loc 1 429 7 view .LVU246
 430:Src/aspep.c   ****       *header = tmpHeader;
 789              		.loc 1 430 7 view .LVU247
 431:Src/aspep.c   ****       if (1U == pHandle->Capabilities.DATA_CRC)
 790              		.loc 1 431 7 view .LVU248
 430:Src/aspep.c   ****       *header = tmpHeader;
 791              		.loc 1 430 17 is_stmt 0 view .LVU249
 792 0010 43EA0214 		orr	r4, r3, r2, lsl #4
 431:Src/aspep.c   ****       if (1U == pHandle->Capabilities.DATA_CRC)
 793              		.loc 1 431 15 view .LVU250
 794 0014 41F8044C 		str	r4, [r1, #-4]
 432:Src/aspep.c   ****       {
 795              		.loc 1 432 7 is_stmt 1 view .LVU251
 432:Src/aspep.c   ****       {
 796              		.loc 1 432 10 is_stmt 0 view .LVU252
 797 0018 90F86C40 		ldrb	r4, [r0, #108]	@ zero_extendqisi2
 798 001c 012C     		cmp	r4, #1
 799 001e 04D1     		bne	.L31
 435:Src/aspep.c   ****         packet[txDataLengthTemp + 1U] = (uint8_t)0xFE; /* Dummy CRC */
 800              		.loc 1 435 9 is_stmt 1 view .LVU253
 436:Src/aspep.c   ****         txDataLengthTemp += (uint16_t)ASPEP_DATACRC_SIZE;
 801              		.loc 1 436 9 view .LVU254
 435:Src/aspep.c   ****         packet[txDataLengthTemp + 1U] = (uint8_t)0xFE; /* Dummy CRC */
 802              		.loc 1 435 34 is_stmt 0 view .LVU255
 803 0020 4FF6CA64 		movw	r4, #65226
 804 0024 8C52     		strh	r4, [r1, r2]	@ unaligned
 437:Src/aspep.c   ****       }
 805              		.loc 1 437 9 is_stmt 1 view .LVU256
 437:Src/aspep.c   ****       }
 806              		.loc 1 437 26 is_stmt 0 view .LVU257
 807 0026 0232     		adds	r2, r2, #2
 808              	.LVL54:
 437:Src/aspep.c   ****       }
 809              		.loc 1 437 26 view .LVU258
 810 0028 92B2     		uxth	r2, r2
 811              	.LVL55:
 812              	.L31:
 439:Src/aspep.c   ****       {
 813              		.loc 1 439 7 is_stmt 1 view .LVU259
 439:Src/aspep.c   ****       {
 814              		.loc 1 439 10 is_stmt 0 view .LVU260
 815 002a 0A2B     		cmp	r3, #10
 816 002c 03D1     		bne	.L32
 441:Src/aspep.c   ****         {
 817              		.loc 1 441 9 is_stmt 1 view .LVU261
 441:Src/aspep.c   ****         {
 818              		.loc 1 441 12 is_stmt 0 view .LVU262
 819 002e 047C     		ldrb	r4, [r0, #16]	@ zero_extendqisi2
 820 0030 94B3     		cbz	r4, .L42
 443:Src/aspep.c   ****         }
 821              		.loc 1 443 11 is_stmt 1 view .LVU263
ARM GAS  C:\Users\ep_ygh\AppData\Local\Temp\ccopCd9W.s 			page 33


 443:Src/aspep.c   ****         }
 822              		.loc 1 443 43 is_stmt 0 view .LVU264
 823 0032 0024     		movs	r4, #0
 824 0034 0474     		strb	r4, [r0, #16]
 450:Src/aspep.c   ****       {
 825              		.loc 1 450 7 is_stmt 1 view .LVU265
 826              	.L32:
 827              	.LBB124:
 828              	.LBB125:
 829              	.LBB126:
 830              	.LBB127:
 120:Src/aspep.c   **** 
 831              		.loc 1 120 12 is_stmt 0 view .LVU266
 832 0036 51F8044C 		ldr	r4, [r1, #-4]
 125:Src/aspep.c   ****   crc = CRC4_Lookup8[crc ^ (uint8_t)((header >> 8U) & 0xffU)];
 833              		.loc 1 125 7 view .LVU267
 834 003a 354D     		ldr	r5, .L55
 125:Src/aspep.c   ****   crc = CRC4_Lookup8[crc ^ (uint8_t)((header >> 8U) & 0xffU)];
 835              		.loc 1 125 26 view .LVU268
 836 003c E6B2     		uxtb	r6, r4
 126:Src/aspep.c   ****   crc = CRC4_Lookup8[crc ^ (uint8_t)((header >> 16U) & 0xffU)];
 837              		.loc 1 126 26 view .LVU269
 838 003e C4F3072E 		ubfx	lr, r4, #8, #8
 839 0042 AE5D     		ldrb	r6, [r5, r6]	@ zero_extendqisi2
 840 0044 8EEA060E 		eor	lr, lr, r6
 841              	.LBE127:
 842              	.LBE126:
 843              	.LBE125:
 844              	.LBE124:
 452:Src/aspep.c   ****       }
 845              		.loc 1 452 18 view .LVU270
 846 0048 0432     		adds	r2, r2, #4
 847              	.LVL56:
 848              	.LBB149:
 849              	.LBB144:
 850              	.LBB131:
 851              	.LBB128:
 127:Src/aspep.c   ****   crc = CRC4_Lookup4[crc ^ (uint8_t)((header >> 24U) & 0x0fU)];
 852              		.loc 1 127 26 view .LVU271
 853 004a 15F80E60 		ldrb	r6, [r5, lr]	@ zero_extendqisi2
 854 004e C4F3074E 		ubfx	lr, r4, #16, #8
 855 0052 8EEA060E 		eor	lr, lr, r6
 856              	.LBE128:
 857              	.LBE131:
 858              	.LBE144:
 859              	.LBE149:
 429:Src/aspep.c   ****       tmpHeader = ((uint32_t)((uint32_t)txDataLengthTemp << (uint32_t)4) | (uint32_t)syncAsync);
 860              		.loc 1 429 13 view .LVU272
 861 0056 A1F1040C 		sub	ip, r1, #4
 862              	.LVL57:
 452:Src/aspep.c   ****       }
 863              		.loc 1 452 9 is_stmt 1 view .LVU273
 864              	.LBB150:
 865              	.LBB145:
 866              	.LBB132:
 867              	.LBB129:
 128:Src/aspep.c   **** #else /* CRC4_PER_NIBBLE */
ARM GAS  C:\Users\ep_ygh\AppData\Local\Temp\ccopCd9W.s 			page 34


 868              		.loc 1 128 26 is_stmt 0 view .LVU274
 869 005a 15F80EE0 		ldrb	lr, [r5, lr]	@ zero_extendqisi2
 128:Src/aspep.c   **** #else /* CRC4_PER_NIBBLE */
 870              		.loc 1 128 46 view .LVU275
 871 005e C4F30365 		ubfx	r5, r4, #24, #4
 128:Src/aspep.c   **** #else /* CRC4_PER_NIBBLE */
 872              		.loc 1 128 26 view .LVU276
 873 0062 8EEA050E 		eor	lr, lr, r5
 128:Src/aspep.c   **** #else /* CRC4_PER_NIBBLE */
 874              		.loc 1 128 7 view .LVU277
 875 0066 2B4D     		ldr	r5, .L55+4
 139:Src/aspep.c   **** 
 876              		.loc 1 139 17 view .LVU278
 877 0068 15F80E50 		ldrb	r5, [r5, lr]	@ zero_extendqisi2
 139:Src/aspep.c   **** 
 878              		.loc 1 139 14 view .LVU279
 879 006c 44EA0574 		orr	r4, r4, r5, lsl #28
 880              	.LBE129:
 881              	.LBE132:
 882              	.LBE145:
 883              	.LBE150:
 452:Src/aspep.c   ****       }
 884              		.loc 1 452 18 view .LVU280
 885 0070 92B2     		uxth	r2, r2
 886              	.LVL58:
 887              	.LBB151:
 888              	.LBI124:
 479:Src/aspep.c   **** {
 889              		.loc 1 479 9 is_stmt 1 view .LVU281
 890              	.LBB146:
 481:Src/aspep.c   **** #ifdef NULL_PTR_CHECK_ASP
 891              		.loc 1 481 3 view .LVU282
 491:Src/aspep.c   ****     __disable_irq(); /*TODO: Disable High frequency task is enough */
 892              		.loc 1 491 5 view .LVU283
 893              	.LBB133:
 894              	.LBI126:
 117:Src/aspep.c   **** {
 895              		.loc 1 117 13 view .LVU284
 896              	.LBB130:
 119:Src/aspep.c   ****   uint32_t header = *headerPtr;
 897              		.loc 1 119 3 view .LVU285
 120:Src/aspep.c   **** 
 898              		.loc 1 120 3 view .LVU286
 123:Src/aspep.c   **** 
 899              		.loc 1 123 3 view .LVU287
 125:Src/aspep.c   ****   crc = CRC4_Lookup8[crc ^ (uint8_t)((header >> 8U) & 0xffU)];
 900              		.loc 1 125 3 view .LVU288
 126:Src/aspep.c   ****   crc = CRC4_Lookup8[crc ^ (uint8_t)((header >> 16U) & 0xffU)];
 901              		.loc 1 126 3 view .LVU289
 127:Src/aspep.c   ****   crc = CRC4_Lookup4[crc ^ (uint8_t)((header >> 24U) & 0x0fU)];
 902              		.loc 1 127 3 view .LVU290
 128:Src/aspep.c   **** #else /* CRC4_PER_NIBBLE */
 903              		.loc 1 128 3 view .LVU291
 139:Src/aspep.c   **** 
 904              		.loc 1 139 3 view .LVU292
 139:Src/aspep.c   **** 
 905              		.loc 1 139 14 is_stmt 0 view .LVU293
ARM GAS  C:\Users\ep_ygh\AppData\Local\Temp\ccopCd9W.s 			page 35


 906 0072 41F8044C 		str	r4, [r1, #-4]
 907              	.LVL59:
 139:Src/aspep.c   **** 
 908              		.loc 1 139 14 view .LVU294
 909              	.LBE130:
 910              	.LBE133:
 492:Src/aspep.c   ****     if (NULL == pHandle->lockBuffer) /* Communication Ip free to send data*/
 911              		.loc 1 492 5 is_stmt 1 view .LVU295
 912              	.LBB134:
 913              	.LBI134:
 207:Drivers/CMSIS/Include/cmsis_gcc.h **** {
 914              		.loc 2 207 27 view .LVU296
 915              	.LBB135:
 916              		.loc 2 209 3 view .LVU297
 917              		.syntax unified
 918              	@ 209 "Drivers/CMSIS/Include/cmsis_gcc.h" 1
 919 0076 72B6     		cpsid i
 920              	@ 0 "" 2
 921              		.thumb
 922              		.syntax unified
 923              	.LBE135:
 924              	.LBE134:
 493:Src/aspep.c   ****     {
 925              		.loc 1 493 5 view .LVU298
 493:Src/aspep.c   ****     {
 926              		.loc 1 493 8 is_stmt 0 view .LVU299
 927 0078 816C     		ldr	r1, [r0, #72]
 928              	.LVL60:
 493:Src/aspep.c   ****     {
 929              		.loc 1 493 8 view .LVU300
 930 007a E1B1     		cbz	r1, .L49
 520:Src/aspep.c   ****       /* Lock buffer can be freed here */
 931              		.loc 1 520 7 is_stmt 1 view .LVU301
 932              	.LBB136:
 933              	.LBI136:
 196:Drivers/CMSIS/Include/cmsis_gcc.h **** {
 934              		.loc 2 196 27 view .LVU302
 935              	.LBB137:
 198:Drivers/CMSIS/Include/cmsis_gcc.h **** }
 936              		.loc 2 198 3 view .LVU303
 937              		.syntax unified
 938              	@ 198 "Drivers/CMSIS/Include/cmsis_gcc.h" 1
 939 007c 62B6     		cpsie i
 940              	@ 0 "" 2
 941              		.thumb
 942              		.syntax unified
 943              	.LBE137:
 944              	.LBE136:
 522:Src/aspep.c   ****       {
 945              		.loc 1 522 7 view .LVU304
 522:Src/aspep.c   ****       {
 946              		.loc 1 522 10 is_stmt 0 view .LVU305
 947 007e 092B     		cmp	r3, #9
 948 0080 0DD0     		beq	.L50
 548:Src/aspep.c   ****       {
 949              		.loc 1 548 12 is_stmt 1 view .LVU306
 548:Src/aspep.c   ****       {
ARM GAS  C:\Users\ep_ygh\AppData\Local\Temp\ccopCd9W.s 			page 36


 950              		.loc 1 548 15 is_stmt 0 view .LVU307
 951 0082 0A2B     		cmp	r3, #10
 952 0084 2ED0     		beq	.L51
 560:Src/aspep.c   ****       {
 953              		.loc 1 560 12 is_stmt 1 view .LVU308
 560:Src/aspep.c   ****       {
 954              		.loc 1 560 14 is_stmt 0 view .LVU309
 955 0086 002B     		cmp	r3, #0
 956 0088 32D1     		bne	.L45
 562:Src/aspep.c   ****         {
 957              		.loc 1 562 9 is_stmt 1 view .LVU310
 562:Src/aspep.c   ****         {
 958              		.loc 1 562 32 is_stmt 0 view .LVU311
 959 008a 90F82410 		ldrb	r1, [r0, #36]	@ zero_extendqisi2
 562:Src/aspep.c   ****         {
 960              		.loc 1 562 12 view .LVU312
 961 008e 69BB     		cbnz	r1, .L46
 568:Src/aspep.c   ****         }
 962              		.loc 1 568 11 is_stmt 1 view .LVU313
 568:Src/aspep.c   ****         }
 963              		.loc 1 568 37 is_stmt 0 view .LVU314
 964 0090 0223     		movs	r3, #2
 965              	.LVL61:
 568:Src/aspep.c   ****         }
 966              		.loc 1 568 37 view .LVU315
 967 0092 80F82430 		strb	r3, [r0, #36]
 968 0096 B9E7     		b	.L30
 969              	.LVL62:
 970              	.L42:
 568:Src/aspep.c   ****         }
 971              		.loc 1 568 37 view .LVU316
 972              	.LBE146:
 973              	.LBE151:
 447:Src/aspep.c   ****         }
 974              		.loc 1 447 18 view .LVU317
 975 0098 0121     		movs	r1, #1
 976              	.LVL63:
 462:Src/aspep.c   **** }
 977              		.loc 1 462 3 is_stmt 1 view .LVU318
 463:Src/aspep.c   **** 
 978              		.loc 1 463 1 is_stmt 0 view .LVU319
 979 009a 0846     		mov	r0, r1
 980              	.LVL64:
 463:Src/aspep.c   **** 
 981              		.loc 1 463 1 view .LVU320
 982 009c 70BD     		pop	{r4, r5, r6, pc}
 983              	.LVL65:
 984              	.L50:
 985              	.LBB152:
 986              	.LBB147:
 525:Src/aspep.c   ****         {
 987              		.loc 1 525 9 is_stmt 1 view .LVU321
 525:Src/aspep.c   ****         {
 988              		.loc 1 525 43 is_stmt 0 view .LVU322
 989 009e 036C     		ldr	r3, [r0, #64]
 990              	.LVL66:
 533:Src/aspep.c   ****         {
ARM GAS  C:\Users\ep_ygh\AppData\Local\Temp\ccopCd9W.s 			page 37


 991              		.loc 1 533 12 view .LVU323
 992 00a0 446C     		ldr	r4, [r0, #68]
 525:Src/aspep.c   ****         {
 993              		.loc 1 525 12 view .LVU324
 994 00a2 1968     		ldr	r1, [r3]
 527:Src/aspep.c   ****         }
 995              		.loc 1 527 18 view .LVU325
 996 00a4 8C45     		cmp	ip, r1
 997 00a6 14BF     		ite	ne
 998 00a8 0321     		movne	r1, #3
 999 00aa 0021     		moveq	r1, #0
 1000              	.LVL67:
 532:Src/aspep.c   ****         if (NULL == pHandle->asyncNextBuffer)
 1001              		.loc 1 532 9 is_stmt 1 view .LVU326
 533:Src/aspep.c   ****         {
 1002              		.loc 1 533 9 view .LVU327
 533:Src/aspep.c   ****         {
 1003              		.loc 1 533 12 is_stmt 0 view .LVU328
 1004 00ac 6CB3     		cbz	r4, .L52
 1005              	.L39:
 541:Src/aspep.c   ****         pHandle->lastRequestedAsyncBuff->state = pending;
 1006              		.loc 1 541 9 is_stmt 1 view .LVU329
 542:Src/aspep.c   ****         pHandle->lastRequestedAsyncBuff->length = bufferLength;
 1007              		.loc 1 542 9 view .LVU330
 542:Src/aspep.c   ****         pHandle->lastRequestedAsyncBuff->length = bufferLength;
 1008              		.loc 1 542 48 is_stmt 0 view .LVU331
 1009 00ae 0220     		movs	r0, #2
 1010              	.LVL68:
 542:Src/aspep.c   ****         pHandle->lastRequestedAsyncBuff->length = bufferLength;
 1011              		.loc 1 542 48 view .LVU332
 1012 00b0 9871     		strb	r0, [r3, #6]
 543:Src/aspep.c   **** #ifdef MCP_DEBUG_METRICS
 1013              		.loc 1 543 9 is_stmt 1 view .LVU333
 543:Src/aspep.c   **** #ifdef MCP_DEBUG_METRICS
 1014              		.loc 1 543 49 is_stmt 0 view .LVU334
 1015 00b2 9A80     		strh	r2, [r3, #4]	@ movhi
 1016 00b4 AAE7     		b	.L30
 1017              	.LVL69:
 1018              	.L49:
 1019              	.LBB138:
 1020              	.LBI138:
 479:Src/aspep.c   **** {
 1021              		.loc 1 479 9 is_stmt 1 view .LVU335
 1022              	.LBB139:
 495:Src/aspep.c   ****       {
 1023              		.loc 1 495 7 view .LVU336
 495:Src/aspep.c   ****       {
 1024              		.loc 1 495 10 is_stmt 0 view .LVU337
 1025 00b6 092B     		cmp	r3, #9
 1026 00b8 22D0     		beq	.L53
 504:Src/aspep.c   ****       {
 1027              		.loc 1 504 12 is_stmt 1 view .LVU338
 504:Src/aspep.c   ****       {
 1028              		.loc 1 504 15 is_stmt 0 view .LVU339
 1029 00ba 0A2B     		cmp	r3, #10
 506:Src/aspep.c   ****         pHandle->lockBuffer = (void *)&pHandle->syncBuffer;
 1030              		.loc 1 506 9 is_stmt 1 view .LVU340
ARM GAS  C:\Users\ep_ygh\AppData\Local\Temp\ccopCd9W.s 			page 38


 506:Src/aspep.c   ****         pHandle->lockBuffer = (void *)&pHandle->syncBuffer;
 1031              		.loc 1 506 35 is_stmt 0 view .LVU341
 1032 00bc 4FF00301 		mov	r1, #3
 507:Src/aspep.c   ****       }
 1033              		.loc 1 507 39 view .LVU342
 1034 00c0 0BBF     		itete	eq
 1035 00c2 00F12803 		addeq	r3, r0, #40
 1036              	.LVL70:
 512:Src/aspep.c   ****       }
 1037              		.loc 1 512 39 view .LVU343
 1038 00c6 00F12003 		addne	r3, r0, #32
 506:Src/aspep.c   ****         pHandle->lockBuffer = (void *)&pHandle->syncBuffer;
 1039              		.loc 1 506 35 view .LVU344
 1040 00ca 80F82E10 		strbeq	r1, [r0, #46]
 511:Src/aspep.c   ****         pHandle->lockBuffer = (void *)&pHandle->ctrlBuffer;
 1041              		.loc 1 511 9 is_stmt 1 view .LVU345
 511:Src/aspep.c   ****         pHandle->lockBuffer = (void *)&pHandle->ctrlBuffer;
 1042              		.loc 1 511 35 is_stmt 0 view .LVU346
 1043 00ce 80F82410 		strbne	r1, [r0, #36]
 512:Src/aspep.c   ****       }
 1044              		.loc 1 512 9 is_stmt 1 view .LVU347
 512:Src/aspep.c   ****       }
 1045              		.loc 1 512 29 is_stmt 0 view .LVU348
 1046 00d2 8364     		str	r3, [r0, #72]
 1047              	.L35:
 515:Src/aspep.c   ****       pHandle->fASPEP_send(pHandle->HWIp, txBuffer, bufferLength);
 1048              		.loc 1 515 7 is_stmt 1 view .LVU349
 1049              	.LBB140:
 1050              	.LBI140:
 196:Drivers/CMSIS/Include/cmsis_gcc.h **** {
 1051              		.loc 2 196 27 view .LVU350
 1052              	.LBB141:
 198:Drivers/CMSIS/Include/cmsis_gcc.h **** }
 1053              		.loc 2 198 3 view .LVU351
 1054              		.syntax unified
 1055              	@ 198 "Drivers/CMSIS/Include/cmsis_gcc.h" 1
 1056 00d4 62B6     		cpsie i
 1057              	@ 0 "" 2
 1058              		.thumb
 1059              		.syntax unified
 1060              	.LBE141:
 1061              	.LBE140:
 516:Src/aspep.c   ****     }
 1062              		.loc 1 516 7 view .LVU352
 1063 00d6 836D     		ldr	r3, [r0, #88]
 1064 00d8 4069     		ldr	r0, [r0, #20]
 1065              	.LVL71:
 516:Src/aspep.c   ****     }
 1066              		.loc 1 516 7 is_stmt 0 view .LVU353
 1067 00da 6146     		mov	r1, ip
 1068 00dc 9847     		blx	r3
 1069              	.LVL72:
 574:Src/aspep.c   ****     }
 1070              		.loc 1 574 7 is_stmt 1 view .LVU354
 1071              		.loc 1 579 3 view .LVU355
 516:Src/aspep.c   ****     }
 1072              		.loc 1 516 7 is_stmt 0 view .LVU356
ARM GAS  C:\Users\ep_ygh\AppData\Local\Temp\ccopCd9W.s 			page 39


 1073 00de 0021     		movs	r1, #0
 1074              	.LVL73:
 516:Src/aspep.c   ****     }
 1075              		.loc 1 516 7 view .LVU357
 1076              	.LBE139:
 1077              	.LBE138:
 1078              	.LBE147:
 1079              	.LBE152:
 462:Src/aspep.c   **** }
 1080              		.loc 1 462 3 is_stmt 1 view .LVU358
 463:Src/aspep.c   **** 
 1081              		.loc 1 463 1 is_stmt 0 view .LVU359
 1082 00e0 0846     		mov	r0, r1
 1083 00e2 70BD     		pop	{r4, r5, r6, pc}
 1084              	.LVL74:
 1085              	.L51:
 1086              	.LBB153:
 1087              	.LBB148:
 550:Src/aspep.c   ****         {
 1088              		.loc 1 550 9 is_stmt 1 view .LVU360
 550:Src/aspep.c   ****         {
 1089              		.loc 1 550 12 is_stmt 0 view .LVU361
 1090 00e4 90F82E30 		ldrb	r3, [r0, #46]	@ zero_extendqisi2
 1091              	.LVL75:
 550:Src/aspep.c   ****         {
 1092              		.loc 1 550 12 view .LVU362
 1093 00e8 012B     		cmp	r3, #1
 1094 00ea 03D0     		beq	.L54
 1095              	.L46:
 552:Src/aspep.c   ****         }
 1096              		.loc 1 552 18 view .LVU363
 1097 00ec 0321     		movs	r1, #3
 1098 00ee 8DE7     		b	.L30
 1099              	.LVL76:
 1100              	.L45:
 481:Src/aspep.c   **** #ifdef NULL_PTR_CHECK_ASP
 1101              		.loc 1 481 11 view .LVU364
 1102 00f0 0021     		movs	r1, #0
 1103 00f2 8BE7     		b	.L30
 1104              	.LVL77:
 1105              	.L54:
 556:Src/aspep.c   ****           pHandle->syncBuffer.length = bufferLength;
 1106              		.loc 1 556 11 is_stmt 1 view .LVU365
 556:Src/aspep.c   ****           pHandle->syncBuffer.length = bufferLength;
 1107              		.loc 1 556 37 is_stmt 0 view .LVU366
 1108 00f4 0223     		movs	r3, #2
 1109 00f6 80F82E30 		strb	r3, [r0, #46]
 557:Src/aspep.c   ****         }
 1110              		.loc 1 557 11 is_stmt 1 view .LVU367
 557:Src/aspep.c   ****         }
 1111              		.loc 1 557 38 is_stmt 0 view .LVU368
 1112 00fa 8285     		strh	r2, [r0, #44]	@ movhi
 481:Src/aspep.c   **** #ifdef NULL_PTR_CHECK_ASP
 1113              		.loc 1 481 11 view .LVU369
 1114 00fc 0021     		movs	r1, #0
 1115 00fe 85E7     		b	.L30
 1116              	.LVL78:
ARM GAS  C:\Users\ep_ygh\AppData\Local\Temp\ccopCd9W.s 			page 40


 1117              	.L53:
 1118              	.LBB143:
 1119              	.LBB142:
 498:Src/aspep.c   ****         pHandle->lockBuffer = (void *)pHandle->lastRequestedAsyncBuff;
 1120              		.loc 1 498 9 is_stmt 1 view .LVU370
 498:Src/aspep.c   ****         pHandle->lockBuffer = (void *)pHandle->lastRequestedAsyncBuff;
 1121              		.loc 1 498 16 is_stmt 0 view .LVU371
 1122 0100 036C     		ldr	r3, [r0, #64]
 1123              	.LVL79:
 498:Src/aspep.c   ****         pHandle->lockBuffer = (void *)pHandle->lastRequestedAsyncBuff;
 1124              		.loc 1 498 48 view .LVU372
 1125 0102 0321     		movs	r1, #3
 1126 0104 9971     		strb	r1, [r3, #6]
 499:Src/aspep.c   **** #ifdef MCP_DEBUG_METRICS
 1127              		.loc 1 499 9 is_stmt 1 view .LVU373
 499:Src/aspep.c   **** #ifdef MCP_DEBUG_METRICS
 1128              		.loc 1 499 29 is_stmt 0 view .LVU374
 1129 0106 8364     		str	r3, [r0, #72]
 1130 0108 E4E7     		b	.L35
 1131              	.LVL80:
 1132              	.L52:
 499:Src/aspep.c   **** #ifdef MCP_DEBUG_METRICS
 1133              		.loc 1 499 29 view .LVU375
 1134              	.LBE142:
 1135              	.LBE143:
 536:Src/aspep.c   ****         }
 1136              		.loc 1 536 11 is_stmt 1 view .LVU376
 536:Src/aspep.c   ****         }
 1137              		.loc 1 536 36 is_stmt 0 view .LVU377
 1138 010a 4364     		str	r3, [r0, #68]
 1139 010c CFE7     		b	.L39
 1140              	.L56:
 1141 010e 00BF     		.align	2
 1142              	.L55:
 1143 0110 00000000 		.word	.LANCHOR0
 1144 0114 00000000 		.word	.LANCHOR1
 1145              	.LBE148:
 1146              	.LBE153:
 1147              		.cfi_endproc
 1148              	.LFE1098:
 1150              		.section	.text.ASPEP_HWDataTransmittedIT,"ax",%progbits
 1151              		.align	1
 1152              		.p2align 2,,3
 1153              		.global	ASPEP_HWDataTransmittedIT
 1154              		.syntax unified
 1155              		.thumb
 1156              		.thumb_func
 1158              	ASPEP_HWDataTransmittedIT:
 1159              	.LVL81:
 1160              	.LFB1100:
 580:Src/aspep.c   **** }
 581:Src/aspep.c   **** 
 582:Src/aspep.c   **** /**
 583:Src/aspep.c   ****   * @brief  Frees previously locked buffer and/or locks the next pending buffer. Once locked, sends
 584:Src/aspep.c   ****   *
 585:Src/aspep.c   ****   * Called as soon as previous packet transfer is completed, pHandle->lockBuffer is set before pack
 586:Src/aspep.c   ****   * Therefore, there is no need to protect this ISR against another higher priority ISR (HF Task).
ARM GAS  C:\Users\ep_ygh\AppData\Local\Temp\ccopCd9W.s 			page 41


 587:Src/aspep.c   ****   *
 588:Src/aspep.c   ****   * @param  *pHandle Handler of the current instance of the ASPEP component
 589:Src/aspep.c   ****   */
 590:Src/aspep.c   **** void ASPEP_HWDataTransmittedIT(ASPEP_Handle_t *pHandle)
 591:Src/aspep.c   **** {
 1161              		.loc 1 591 1 is_stmt 1 view -0
 1162              		.cfi_startproc
 1163              		@ args = 0, pretend = 0, frame = 0
 1164              		@ frame_needed = 0, uses_anonymous_args = 0
 592:Src/aspep.c   **** #ifdef NULL_PTR_CHECK_ASP
 593:Src/aspep.c   ****   if (NULL == pHandle)
 594:Src/aspep.c   ****   {
 595:Src/aspep.c   ****     /* Nothing to do */
 596:Src/aspep.c   ****   }
 597:Src/aspep.c   ****   else
 598:Src/aspep.c   ****   {
 599:Src/aspep.c   **** #endif
 600:Src/aspep.c   ****     /* First free previous readLock buffer */
 601:Src/aspep.c   ****     if (pHandle->ctrlBuffer.state == readLock)
 1165              		.loc 1 601 5 view .LVU379
 591:Src/aspep.c   **** #ifdef NULL_PTR_CHECK_ASP
 1166              		.loc 1 591 1 is_stmt 0 view .LVU380
 1167 0000 10B5     		push	{r4, lr}
 1168              	.LCFI17:
 1169              		.cfi_def_cfa_offset 8
 1170              		.cfi_offset 4, -8
 1171              		.cfi_offset 14, -4
 1172              		.loc 1 601 28 view .LVU381
 1173 0002 90F82430 		ldrb	r3, [r0, #36]	@ zero_extendqisi2
 1174              		.loc 1 601 8 view .LVU382
 1175 0006 032B     		cmp	r3, #3
 591:Src/aspep.c   **** #ifdef NULL_PTR_CHECK_ASP
 1176              		.loc 1 591 1 view .LVU383
 1177 0008 0446     		mov	r4, r0
 1178              		.loc 1 601 8 view .LVU384
 1179 000a 13D0     		beq	.L73
 1180              	.LBB154:
 602:Src/aspep.c   ****     {
 603:Src/aspep.c   ****       pHandle->ctrlBuffer.state = available;
 604:Src/aspep.c   ****     }
 605:Src/aspep.c   ****     else /* if previous buffer was not ASPEP_CTRL, then the buffer locked is a MCTL_Buff_t */
 606:Src/aspep.c   ****     {
 607:Src/aspep.c   ****       MCTL_Buff_t *tempBuff = (MCTL_Buff_t *)pHandle->lockBuffer; //cstat !MISRAC2012-Rule-11.5
 1181              		.loc 1 607 7 is_stmt 1 view .LVU385
 1182              	.LVL82:
 608:Src/aspep.c   ****       tempBuff->state = available;
 1183              		.loc 1 608 7 view .LVU386
 1184              		.loc 1 608 23 is_stmt 0 view .LVU387
 1185 000c 826C     		ldr	r2, [r0, #72]
 1186 000e 0021     		movs	r1, #0
 1187 0010 9171     		strb	r1, [r2, #6]
 1188              	.LVL83:
 1189              		.loc 1 608 23 view .LVU388
 1190              	.LBE154:
 609:Src/aspep.c   ****     }
 610:Src/aspep.c   ****     if (pHandle->syncBuffer.state == pending)
 1191              		.loc 1 610 5 is_stmt 1 view .LVU389
ARM GAS  C:\Users\ep_ygh\AppData\Local\Temp\ccopCd9W.s 			page 42


 1192              		.loc 1 610 8 is_stmt 0 view .LVU390
 1193 0012 90F82E20 		ldrb	r2, [r0, #46]	@ zero_extendqisi2
 1194              	.LVL84:
 1195              		.loc 1 610 8 view .LVU391
 1196 0016 022A     		cmp	r2, #2
 1197 0018 13D0     		beq	.L61
 611:Src/aspep.c   ****     {
 612:Src/aspep.c   ****       pHandle->lockBuffer = (void *)&pHandle->syncBuffer;
 613:Src/aspep.c   ****       pHandle->fASPEP_send(pHandle->HWIp, pHandle->syncBuffer.buffer, pHandle->syncBuffer.length);
 614:Src/aspep.c   ****       pHandle->syncBuffer.state = readLock;
 615:Src/aspep.c   ****     }
 616:Src/aspep.c   ****     /* Second prepare transfer of pending buffer */
 617:Src/aspep.c   ****     else if (pHandle->ctrlBuffer.state == pending)
 1198              		.loc 1 617 10 is_stmt 1 view .LVU392
 1199              		.loc 1 617 13 is_stmt 0 view .LVU393
 1200 001a 022B     		cmp	r3, #2
 1201 001c 1DD1     		bne	.L59
 618:Src/aspep.c   ****     {
 619:Src/aspep.c   ****       pHandle->lockBuffer = (void *)(&pHandle ->ctrlBuffer);
 1202              		.loc 1 619 7 is_stmt 1 view .LVU394
 1203              		.loc 1 619 38 is_stmt 0 view .LVU395
 1204 001e 00F12001 		add	r1, r0, #32
 620:Src/aspep.c   ****       pHandle->fASPEP_send(pHandle ->HWIp, pHandle->ctrlBuffer.buffer, ASPEP_CTRL_SIZE);
 1205              		.loc 1 620 7 view .LVU396
 1206 0022 836D     		ldr	r3, [r0, #88]
 619:Src/aspep.c   ****       pHandle->fASPEP_send(pHandle ->HWIp, pHandle->ctrlBuffer.buffer, ASPEP_CTRL_SIZE);
 1207              		.loc 1 619 27 view .LVU397
 1208 0024 8164     		str	r1, [r0, #72]
 1209              		.loc 1 620 7 is_stmt 1 view .LVU398
 1210 0026 0422     		movs	r2, #4
 1211 0028 4069     		ldr	r0, [r0, #20]
 1212              	.LVL85:
 1213              		.loc 1 620 7 is_stmt 0 view .LVU399
 1214 002a 9847     		blx	r3
 1215              	.LVL86:
 621:Src/aspep.c   ****       pHandle->ctrlBuffer.state = readLock;
 1216              		.loc 1 621 7 is_stmt 1 view .LVU400
 1217              		.loc 1 621 33 is_stmt 0 view .LVU401
 1218 002c 0323     		movs	r3, #3
 1219 002e 84F82430 		strb	r3, [r4, #36]
 622:Src/aspep.c   ****     }
 623:Src/aspep.c   ****     else
 624:Src/aspep.c   ****     {
 625:Src/aspep.c   ****       __disable_irq();
 626:Src/aspep.c   ****       if (pHandle->asyncNextBuffer != NULL)
 627:Src/aspep.c   ****       {
 628:Src/aspep.c   ****         pHandle->lockBuffer = (void *)pHandle->asyncNextBuffer;
 629:Src/aspep.c   ****         pHandle->asyncNextBuffer->state = readLock;
 630:Src/aspep.c   **** #ifdef MCP_DEBUG_METRICS
 631:Src/aspep.c   ****         pHandle->asyncNextBuffer->SentNumber++;
 632:Src/aspep.c   **** #endif
 633:Src/aspep.c   ****         pHandle->fASPEP_send(pHandle ->HWIp, pHandle->asyncNextBuffer->buffer, pHandle->asyncNextBu
 634:Src/aspep.c   ****         /* If one Async buffer is still pending, assign it to the asyncNextBuffer pointer*/
 635:Src/aspep.c   ****         if ((pHandle->asyncBufferA.state == pending) || (pHandle->asyncBufferB.state == pending))
 636:Src/aspep.c   ****         {
 637:Src/aspep.c   ****           //cstat !MISRAC2012-Rule-11.4
 638:Src/aspep.c   ****           uint32_t temp = (uint32_t)&pHandle->asyncBufferA + (uint32_t)&pHandle->asyncBufferB
ARM GAS  C:\Users\ep_ygh\AppData\Local\Temp\ccopCd9W.s 			page 43


 639:Src/aspep.c   ****                           - (uint32_t) pHandle->asyncNextBuffer; //cstat !MISRAC2012-Rule-11.4
 640:Src/aspep.c   ****           pHandle->asyncNextBuffer = (MCTL_Buff_t *) temp; //cstat !MISRAC2012-Rule-11.4
 641:Src/aspep.c   ****         }
 642:Src/aspep.c   ****         else
 643:Src/aspep.c   ****         {
 644:Src/aspep.c   ****           pHandle->asyncNextBuffer = NULL;
 645:Src/aspep.c   ****         }
 646:Src/aspep.c   ****       }
 647:Src/aspep.c   ****       else /* No TX packet are pending, HW resource is free*/
 648:Src/aspep.c   ****       {
 649:Src/aspep.c   ****         pHandle->lockBuffer = NULL;
 650:Src/aspep.c   ****       }
 651:Src/aspep.c   ****       __enable_irq();
 652:Src/aspep.c   ****     }
 653:Src/aspep.c   **** #ifdef NULL_PTR_CHECK_ASP
 654:Src/aspep.c   ****   }
 655:Src/aspep.c   **** #endif
 656:Src/aspep.c   **** }
 1220              		.loc 1 656 1 view .LVU402
 1221 0032 10BD     		pop	{r4, pc}
 1222              	.LVL87:
 1223              	.L73:
 603:Src/aspep.c   ****     }
 1224              		.loc 1 603 7 is_stmt 1 view .LVU403
 610:Src/aspep.c   ****     {
 1225              		.loc 1 610 8 is_stmt 0 view .LVU404
 1226 0034 90F82E30 		ldrb	r3, [r0, #46]	@ zero_extendqisi2
 603:Src/aspep.c   ****     }
 1227              		.loc 1 603 33 view .LVU405
 1228 0038 0022     		movs	r2, #0
 610:Src/aspep.c   ****     {
 1229              		.loc 1 610 8 view .LVU406
 1230 003a 022B     		cmp	r3, #2
 603:Src/aspep.c   ****     }
 1231              		.loc 1 603 33 view .LVU407
 1232 003c 80F82420 		strb	r2, [r0, #36]
 610:Src/aspep.c   ****     {
 1233              		.loc 1 610 5 is_stmt 1 view .LVU408
 610:Src/aspep.c   ****     {
 1234              		.loc 1 610 8 is_stmt 0 view .LVU409
 1235 0040 0BD1     		bne	.L59
 1236              	.L61:
 612:Src/aspep.c   ****       pHandle->fASPEP_send(pHandle->HWIp, pHandle->syncBuffer.buffer, pHandle->syncBuffer.length);
 1237              		.loc 1 612 7 is_stmt 1 view .LVU410
 612:Src/aspep.c   ****       pHandle->fASPEP_send(pHandle->HWIp, pHandle->syncBuffer.buffer, pHandle->syncBuffer.length);
 1238              		.loc 1 612 37 is_stmt 0 view .LVU411
 1239 0042 04F12800 		add	r0, r4, #40
 1240              	.LVL88:
 613:Src/aspep.c   ****       pHandle->syncBuffer.state = readLock;
 1241              		.loc 1 613 7 view .LVU412
 1242 0046 A36D     		ldr	r3, [r4, #88]
 612:Src/aspep.c   ****       pHandle->fASPEP_send(pHandle->HWIp, pHandle->syncBuffer.buffer, pHandle->syncBuffer.length);
 1243              		.loc 1 612 27 view .LVU413
 1244 0048 A064     		str	r0, [r4, #72]
 613:Src/aspep.c   ****       pHandle->syncBuffer.state = readLock;
 1245              		.loc 1 613 7 is_stmt 1 view .LVU414
 1246 004a A28D     		ldrh	r2, [r4, #44]
ARM GAS  C:\Users\ep_ygh\AppData\Local\Temp\ccopCd9W.s 			page 44


 1247 004c A16A     		ldr	r1, [r4, #40]
 1248 004e 6069     		ldr	r0, [r4, #20]
 1249 0050 9847     		blx	r3
 1250              	.LVL89:
 614:Src/aspep.c   ****     }
 1251              		.loc 1 614 7 view .LVU415
 614:Src/aspep.c   ****     }
 1252              		.loc 1 614 33 is_stmt 0 view .LVU416
 1253 0052 0323     		movs	r3, #3
 1254 0054 84F82E30 		strb	r3, [r4, #46]
 1255              		.loc 1 656 1 view .LVU417
 1256 0058 10BD     		pop	{r4, pc}
 1257              	.LVL90:
 1258              	.L59:
 625:Src/aspep.c   ****       if (pHandle->asyncNextBuffer != NULL)
 1259              		.loc 1 625 7 is_stmt 1 view .LVU418
 1260              	.LBB155:
 1261              	.LBI155:
 207:Drivers/CMSIS/Include/cmsis_gcc.h **** {
 1262              		.loc 2 207 27 view .LVU419
 1263              	.LBB156:
 1264              		.loc 2 209 3 view .LVU420
 1265              		.syntax unified
 1266              	@ 209 "Drivers/CMSIS/Include/cmsis_gcc.h" 1
 1267 005a 72B6     		cpsid i
 1268              	@ 0 "" 2
 1269              		.thumb
 1270              		.syntax unified
 1271              	.LBE156:
 1272              	.LBE155:
 626:Src/aspep.c   ****       {
 1273              		.loc 1 626 7 view .LVU421
 626:Src/aspep.c   ****       {
 1274              		.loc 1 626 18 is_stmt 0 view .LVU422
 1275 005c 636C     		ldr	r3, [r4, #68]
 626:Src/aspep.c   ****       {
 1276              		.loc 1 626 10 view .LVU423
 1277 005e CBB1     		cbz	r3, .L62
 628:Src/aspep.c   ****         pHandle->asyncNextBuffer->state = readLock;
 1278              		.loc 1 628 9 is_stmt 1 view .LVU424
 629:Src/aspep.c   **** #ifdef MCP_DEBUG_METRICS
 1279              		.loc 1 629 41 is_stmt 0 view .LVU425
 1280 0060 0322     		movs	r2, #3
 628:Src/aspep.c   ****         pHandle->asyncNextBuffer->state = readLock;
 1281              		.loc 1 628 29 view .LVU426
 1282 0062 A364     		str	r3, [r4, #72]
 629:Src/aspep.c   **** #ifdef MCP_DEBUG_METRICS
 1283              		.loc 1 629 9 is_stmt 1 view .LVU427
 629:Src/aspep.c   **** #ifdef MCP_DEBUG_METRICS
 1284              		.loc 1 629 41 is_stmt 0 view .LVU428
 1285 0064 9A71     		strb	r2, [r3, #6]
 633:Src/aspep.c   ****         /* If one Async buffer is still pending, assign it to the asyncNextBuffer pointer*/
 1286              		.loc 1 633 9 is_stmt 1 view .LVU429
 1287 0066 1968     		ldr	r1, [r3]
 1288 0068 9A88     		ldrh	r2, [r3, #4]
 1289 006a 6069     		ldr	r0, [r4, #20]
 1290              	.LVL91:
ARM GAS  C:\Users\ep_ygh\AppData\Local\Temp\ccopCd9W.s 			page 45


 633:Src/aspep.c   ****         /* If one Async buffer is still pending, assign it to the asyncNextBuffer pointer*/
 1291              		.loc 1 633 9 is_stmt 0 view .LVU430
 1292 006c A36D     		ldr	r3, [r4, #88]
 1293 006e 9847     		blx	r3
 1294              	.LVL92:
 635:Src/aspep.c   ****         {
 1295              		.loc 1 635 9 is_stmt 1 view .LVU431
 635:Src/aspep.c   ****         {
 1296              		.loc 1 635 12 is_stmt 0 view .LVU432
 1297 0070 94F83630 		ldrb	r3, [r4, #54]	@ zero_extendqisi2
 1298 0074 022B     		cmp	r3, #2
 1299 0076 07D0     		beq	.L63
 635:Src/aspep.c   ****         {
 1300              		.loc 1 635 54 discriminator 1 view .LVU433
 1301 0078 94F83E30 		ldrb	r3, [r4, #62]	@ zero_extendqisi2
 1302 007c 022B     		cmp	r3, #2
 1303 007e 03D0     		beq	.L63
 644:Src/aspep.c   ****         }
 1304              		.loc 1 644 11 is_stmt 1 view .LVU434
 644:Src/aspep.c   ****         }
 1305              		.loc 1 644 36 is_stmt 0 view .LVU435
 1306 0080 0023     		movs	r3, #0
 1307 0082 6364     		str	r3, [r4, #68]
 1308              	.L65:
 651:Src/aspep.c   ****     }
 1309              		.loc 1 651 7 is_stmt 1 view .LVU436
 1310              	.LBB157:
 1311              	.LBI157:
 196:Drivers/CMSIS/Include/cmsis_gcc.h **** {
 1312              		.loc 2 196 27 view .LVU437
 1313              	.LBB158:
 198:Drivers/CMSIS/Include/cmsis_gcc.h **** }
 1314              		.loc 2 198 3 view .LVU438
 1315              		.syntax unified
 1316              	@ 198 "Drivers/CMSIS/Include/cmsis_gcc.h" 1
 1317 0084 62B6     		cpsie i
 1318              	@ 0 "" 2
 1319              		.thumb
 1320              		.syntax unified
 1321              	.LBE158:
 1322              	.LBE157:
 1323              		.loc 1 656 1 is_stmt 0 view .LVU439
 1324 0086 10BD     		pop	{r4, pc}
 1325              	.LVL93:
 1326              	.L63:
 1327              	.LBB159:
 638:Src/aspep.c   ****                           - (uint32_t) pHandle->asyncNextBuffer; //cstat !MISRAC2012-Rule-11.4
 1328              		.loc 1 638 11 is_stmt 1 view .LVU440
 640:Src/aspep.c   ****         }
 1329              		.loc 1 640 11 view .LVU441
 638:Src/aspep.c   ****                           - (uint32_t) pHandle->asyncNextBuffer; //cstat !MISRAC2012-Rule-11.4
 1330              		.loc 1 638 20 is_stmt 0 view .LVU442
 1331 0088 626C     		ldr	r2, [r4, #68]
 638:Src/aspep.c   ****                           - (uint32_t) pHandle->asyncNextBuffer; //cstat !MISRAC2012-Rule-11.4
 1332              		.loc 1 638 72 view .LVU443
 1333 008a 6300     		lsls	r3, r4, #1
 638:Src/aspep.c   ****                           - (uint32_t) pHandle->asyncNextBuffer; //cstat !MISRAC2012-Rule-11.4
ARM GAS  C:\Users\ep_ygh\AppData\Local\Temp\ccopCd9W.s 			page 46


 1334              		.loc 1 638 60 view .LVU444
 1335 008c 6833     		adds	r3, r3, #104
 638:Src/aspep.c   ****                           - (uint32_t) pHandle->asyncNextBuffer; //cstat !MISRAC2012-Rule-11.4
 1336              		.loc 1 638 20 view .LVU445
 1337 008e 9B1A     		subs	r3, r3, r2
 640:Src/aspep.c   ****         }
 1338              		.loc 1 640 36 view .LVU446
 1339 0090 6364     		str	r3, [r4, #68]
 1340              	.LVL94:
 640:Src/aspep.c   ****         }
 1341              		.loc 1 640 36 view .LVU447
 1342              	.LBE159:
 636:Src/aspep.c   ****           //cstat !MISRAC2012-Rule-11.4
 1343              		.loc 1 636 9 view .LVU448
 1344 0092 F7E7     		b	.L65
 1345              	.LVL95:
 1346              	.L62:
 649:Src/aspep.c   ****       }
 1347              		.loc 1 649 9 is_stmt 1 view .LVU449
 649:Src/aspep.c   ****       }
 1348              		.loc 1 649 29 is_stmt 0 view .LVU450
 1349 0094 A364     		str	r3, [r4, #72]
 1350 0096 F5E7     		b	.L65
 1351              		.cfi_endproc
 1352              	.LFE1100:
 1354              		.section	.text.ASPEP_RXframeProcess,"ax",%progbits
 1355              		.align	1
 1356              		.p2align 2,,3
 1357              		.global	ASPEP_RXframeProcess
 1358              		.syntax unified
 1359              		.thumb
 1360              		.thumb_func
 1362              	ASPEP_RXframeProcess:
 1363              	.LVL96:
 1364              	.LFB1101:
 657:Src/aspep.c   **** 
 658:Src/aspep.c   **** /**
 659:Src/aspep.c   ****   * @brief  Updates ASPEP state depending on received packet from Controller and sends a response a
 660:Src/aspep.c   ****   *
 661:Src/aspep.c   ****   * ASPEP protocol defined in section 4.4.1 Connection Procedure of Motor Control Protocol Suite of
 662:Src/aspep.c   ****   *
 663:Src/aspep.c   ****   * @param  *pSupHandle Handler of the current instance of the MCTL component
 664:Src/aspep.c   ****   * @param  *packetLength Length of the packet to be processed
 665:Src/aspep.c   ****   *
 666:Src/aspep.c   ****   * @return Returns the buffer of data transmitted by the MCP controller device
 667:Src/aspep.c   ****   */
 668:Src/aspep.c   **** uint8_t *ASPEP_RXframeProcess(MCTL_Handle_t *pSupHandle, uint16_t *packetLength)
 669:Src/aspep.c   **** {
 1365              		.loc 1 669 1 is_stmt 1 view -0
 1366              		.cfi_startproc
 1367              		@ args = 0, pretend = 0, frame = 0
 1368              		@ frame_needed = 0, uses_anonymous_args = 0
 670:Src/aspep.c   ****   uint8_t *result = NULL; //cstat !MISRAC2012-Rule-8.13
 1369              		.loc 1 670 3 view .LVU452
 671:Src/aspep.c   **** #ifdef NULL_PTR_CHECK_ASP
 672:Src/aspep.c   ****   if ((NULL == pSupHandle) || (NULL == packetLength))
 673:Src/aspep.c   ****   {
ARM GAS  C:\Users\ep_ygh\AppData\Local\Temp\ccopCd9W.s 			page 47


 674:Src/aspep.c   ****     /* Nothing to do */
 675:Src/aspep.c   ****   }
 676:Src/aspep.c   ****   else
 677:Src/aspep.c   ****   {
 678:Src/aspep.c   **** #endif
 679:Src/aspep.c   ****     ASPEP_Handle_t *pHandle = (ASPEP_Handle_t *)pSupHandle; //cstat !MISRAC2012-Rule-11.3
 1370              		.loc 1 679 5 view .LVU453
 669:Src/aspep.c   ****   uint8_t *result = NULL; //cstat !MISRAC2012-Rule-8.13
 1371              		.loc 1 669 1 is_stmt 0 view .LVU454
 1372 0000 2DE9F843 		push	{r3, r4, r5, r6, r7, r8, r9, lr}
 1373              	.LCFI18:
 1374              		.cfi_def_cfa_offset 32
 1375              		.cfi_offset 3, -32
 1376              		.cfi_offset 4, -28
 1377              		.cfi_offset 5, -24
 1378              		.cfi_offset 6, -20
 1379              		.cfi_offset 7, -16
 1380              		.cfi_offset 8, -12
 1381              		.cfi_offset 9, -8
 1382              		.cfi_offset 14, -4
 680:Src/aspep.c   ****     uint32_t packetHeader = *((uint32_t *)pHandle->rxHeader); //cstat !MISRAC2012-Rule-11.3
 681:Src/aspep.c   ****     uint16_t packetNumber;
 682:Src/aspep.c   **** #if VALID_CRC_DATA
 683:Src/aspep.c   ****     bool validCRCData = true;
 684:Src/aspep.c   **** #endif
 685:Src/aspep.c   ****     *packetLength = 0;
 686:Src/aspep.c   ****     if (pHandle->NewPacketAvailable)
 1383              		.loc 1 686 8 view .LVU455
 1384 0004 90F86130 		ldrb	r3, [r0, #97]	@ zero_extendqisi2
 680:Src/aspep.c   ****     uint32_t packetHeader = *((uint32_t *)pHandle->rxHeader); //cstat !MISRAC2012-Rule-11.3
 1385              		.loc 1 680 14 view .LVU456
 1386 0008 C269     		ldr	r2, [r0, #28]
 685:Src/aspep.c   ****     if (pHandle->NewPacketAvailable)
 1387              		.loc 1 685 19 view .LVU457
 1388 000a 0025     		movs	r5, #0
 669:Src/aspep.c   ****   uint8_t *result = NULL; //cstat !MISRAC2012-Rule-8.13
 1389              		.loc 1 669 1 view .LVU458
 1390 000c 0446     		mov	r4, r0
 1391              	.LVL97:
 680:Src/aspep.c   ****     uint32_t packetHeader = *((uint32_t *)pHandle->rxHeader); //cstat !MISRAC2012-Rule-11.3
 1392              		.loc 1 680 5 is_stmt 1 view .LVU459
 681:Src/aspep.c   **** #if VALID_CRC_DATA
 1393              		.loc 1 681 5 view .LVU460
 685:Src/aspep.c   ****     if (pHandle->NewPacketAvailable)
 1394              		.loc 1 685 5 view .LVU461
 685:Src/aspep.c   ****     if (pHandle->NewPacketAvailable)
 1395              		.loc 1 685 19 is_stmt 0 view .LVU462
 1396 000e 0D80     		strh	r5, [r1]	@ movhi
 1397              		.loc 1 686 5 is_stmt 1 view .LVU463
 1398              		.loc 1 686 8 is_stmt 0 view .LVU464
 1399 0010 93B1     		cbz	r3, .L75
 687:Src/aspep.c   ****     {
 688:Src/aspep.c   ****       pHandle->NewPacketAvailable = false; /* Consumes new packet*/
 1400              		.loc 1 688 7 is_stmt 1 view .LVU465
 689:Src/aspep.c   ****       switch (pHandle->ASPEP_State)
 1401              		.loc 1 689 22 is_stmt 0 view .LVU466
 1402 0012 90F86460 		ldrb	r6, [r0, #100]	@ zero_extendqisi2
ARM GAS  C:\Users\ep_ygh\AppData\Local\Temp\ccopCd9W.s 			page 48


 688:Src/aspep.c   ****       switch (pHandle->ASPEP_State)
 1403              		.loc 1 688 35 view .LVU467
 1404 0016 80F86150 		strb	r5, [r0, #97]
 1405              		.loc 1 689 7 is_stmt 1 view .LVU468
 1406 001a 012E     		cmp	r6, #1
 1407 001c 54D0     		beq	.L76
 1408 001e 022E     		cmp	r6, #2
 1409 0020 3ED0     		beq	.L77
 1410 0022 002E     		cmp	r6, #0
 1411 0024 33D0     		beq	.L102
 1412              	.LVL98:
 1413              	.L78:
 690:Src/aspep.c   ****       {
 691:Src/aspep.c   ****         case ASPEP_IDLE:
 692:Src/aspep.c   ****         {
 693:Src/aspep.c   ****           if (BEACON == pHandle->rxPacketType)
 694:Src/aspep.c   ****           {
 695:Src/aspep.c   ****             if (ASPEP_CheckBeacon(pHandle) == true)
 696:Src/aspep.c   ****             {
 697:Src/aspep.c   ****               /* Controller capabilities match performer capabilities.*/
 698:Src/aspep.c   ****               pSupHandle->txSyncMaxPayload = (pHandle->Capabilities.TXS_maxSize + (uint16_t)1U) * (
 699:Src/aspep.c   ****               pSupHandle->txAsyncMaxPayload = (pHandle->Capabilities.TXA_maxSize) * (uint16_t)64U;
 700:Src/aspep.c   ****               pHandle->maxRXPayload = (pHandle->Capabilities.RX_maxSize + (uint16_t)1U) * (uint16_t
 701:Src/aspep.c   ****               pHandle->ASPEP_State = ASPEP_CONFIGURED;
 702:Src/aspep.c   ****             }
 703:Src/aspep.c   ****             else
 704:Src/aspep.c   ****             {
 705:Src/aspep.c   ****               /* Nothing to do, controller has to send back new beacon with matching capabilities *
 706:Src/aspep.c   ****             }
 707:Src/aspep.c   ****             /* Beacon Packet must be answered*/
 708:Src/aspep.c   ****             ASPEP_sendBeacon(pHandle, &pHandle->Capabilities);
 709:Src/aspep.c   ****           }
 710:Src/aspep.c   ****           else if (PING == pHandle->rxPacketType)
 711:Src/aspep.c   ****           {
 712:Src/aspep.c   ****             /* In Listening for controller performer, */
 713:Src/aspep.c   ****             packetNumber = (uint16_t)((packetHeader & 0x0FFFF000U) >> (uint16_t)12U);
 714:Src/aspep.c   ****             ASPEP_sendPing(pHandle, ASPEP_PING_RESET, packetNumber);
 715:Src/aspep.c   ****           }
 716:Src/aspep.c   ****           else
 717:Src/aspep.c   ****           {
 718:Src/aspep.c   ****             /* Nothing to do */
 719:Src/aspep.c   ****           }
 720:Src/aspep.c   ****           break;
 721:Src/aspep.c   ****         }
 722:Src/aspep.c   **** 
 723:Src/aspep.c   ****         case ASPEP_CONFIGURED:
 724:Src/aspep.c   ****         {
 725:Src/aspep.c   ****           if (BEACON == pHandle->rxPacketType)
 726:Src/aspep.c   ****           {
 727:Src/aspep.c   ****             if (ASPEP_CheckBeacon(pHandle) == false)
 728:Src/aspep.c   ****             {
 729:Src/aspep.c   ****               pHandle->ASPEP_State = ASPEP_IDLE;
 730:Src/aspep.c   ****             }
 731:Src/aspep.c   ****             else
 732:Src/aspep.c   ****             {
 733:Src/aspep.c   ****               /* Nothing to do */
 734:Src/aspep.c   ****             }
ARM GAS  C:\Users\ep_ygh\AppData\Local\Temp\ccopCd9W.s 			page 49


 735:Src/aspep.c   **** 
 736:Src/aspep.c   ****             ASPEP_sendBeacon (pHandle, &pHandle->Capabilities);
 737:Src/aspep.c   ****           }
 738:Src/aspep.c   ****           else if (PING == pHandle->rxPacketType)
 739:Src/aspep.c   ****           {
 740:Src/aspep.c   ****             /* In Listening for controller performer, */
 741:Src/aspep.c   ****             packetNumber = (uint16_t)((packetHeader & 0x0FFFF000U) >> (uint16_t)12U);
 742:Src/aspep.c   ****             ASPEP_sendPing(pHandle, ASPEP_PING_CFG, packetNumber);
 743:Src/aspep.c   ****             pHandle->ASPEP_State = ASPEP_CONNECTED;
 744:Src/aspep.c   ****           }
 745:Src/aspep.c   ****           else
 746:Src/aspep.c   ****           {
 747:Src/aspep.c   ****             /* Nothing to do */
 748:Src/aspep.c   ****           }
 749:Src/aspep.c   ****           break;
 750:Src/aspep.c   ****         }
 751:Src/aspep.c   **** 
 752:Src/aspep.c   ****         case ASPEP_CONNECTED:
 753:Src/aspep.c   ****         {
 754:Src/aspep.c   ****           if (BEACON == pHandle->rxPacketType)
 755:Src/aspep.c   ****           {
 756:Src/aspep.c   ****             if (ASPEP_CheckBeacon(pHandle) == false)
 757:Src/aspep.c   ****             {
 758:Src/aspep.c   ****               pHandle->ASPEP_State = ASPEP_IDLE;
 759:Src/aspep.c   ****             }
 760:Src/aspep.c   ****             else
 761:Src/aspep.c   ****             {
 762:Src/aspep.c   ****               pHandle->ASPEP_State = ASPEP_CONFIGURED;
 763:Src/aspep.c   ****             }
 764:Src/aspep.c   ****             ASPEP_sendBeacon(pHandle, &pHandle->Capabilities);
 765:Src/aspep.c   ****           }
 766:Src/aspep.c   ****           else if (PING == pHandle->rxPacketType)
 767:Src/aspep.c   ****           {
 768:Src/aspep.c   ****             packetNumber = pHandle->rxHeader[1];
 769:Src/aspep.c   ****             ASPEP_sendPing(pHandle, ASPEP_PING_CFG, packetNumber);
 770:Src/aspep.c   ****           }
 771:Src/aspep.c   ****           else if (DATA_PACKET == pHandle->rxPacketType)
 772:Src/aspep.c   ****           {
 773:Src/aspep.c   **** #if VALID_CRC_DATA
 774:Src/aspep.c   ****             if (validCRCData)
 775:Src/aspep.c   ****             {
 776:Src/aspep.c   **** #endif
 777:Src/aspep.c   ****               pHandle->syncPacketCount++; /* this counter is incremented at each valid data packet 
 778:Src/aspep.c   ****               pSupHandle->MCP_PacketAvailable = true; /* Will be consumed in ASPEP_sendPacket */
 779:Src/aspep.c   ****               *packetLength = pHandle->rxLength;
 780:Src/aspep.c   ****               result = pHandle->rxBuffer;
 781:Src/aspep.c   **** #if VALID_CRC_DATA
 782:Src/aspep.c   ****             }
 783:Src/aspep.c   ****             else
 784:Src/aspep.c   ****             {
 785:Src/aspep.c   ****               ASPEP_sendNack (pHandle, ASPEP_BAD_CRC_DATA);
 786:Src/aspep.c   ****             }
 787:Src/aspep.c   **** #endif
 788:Src/aspep.c   ****           }
 789:Src/aspep.c   ****           else
 790:Src/aspep.c   ****           {
 791:Src/aspep.c   ****             /* This condition is not reachable because already filtred by NewPacketAvailable */
ARM GAS  C:\Users\ep_ygh\AppData\Local\Temp\ccopCd9W.s 			page 50


 792:Src/aspep.c   ****             /* ASPEP_sendNack (pHandle, ASPEP_BAD_PACKET_TYPE) */
 793:Src/aspep.c   ****           }
 794:Src/aspep.c   ****           break;
 795:Src/aspep.c   ****         }
 796:Src/aspep.c   **** 
 797:Src/aspep.c   ****         default:
 798:Src/aspep.c   ****           break;
 799:Src/aspep.c   ****       }
 800:Src/aspep.c   ****       /* The valid received packet is now safely consumes, we are ready to receive a new packet */
 801:Src/aspep.c   ****       pHandle->fASPEP_receive(pHandle->HWIp, pHandle->rxHeader, ASPEP_HEADER_SIZE);
 1414              		.loc 1 801 7 view .LVU469
 1415 0026 636D     		ldr	r3, [r4, #84]
 1416 0028 6069     		ldr	r0, [r4, #20]
 1417 002a 0422     		movs	r2, #4
 1418 002c 04F11C01 		add	r1, r4, #28
 1419 0030 9847     		blx	r3
 1420              	.LVL99:
 1421              	.L74:
 802:Src/aspep.c   ****     }
 803:Src/aspep.c   ****     else if (pHandle->badPacketFlag > ASPEP_OK)
 804:Src/aspep.c   ****     {
 805:Src/aspep.c   ****       ASPEP_sendNack(pHandle, pHandle->badPacketFlag);
 806:Src/aspep.c   ****       /* ASPEP_RXframeProcess can be called before reception of another packet */
 807:Src/aspep.c   ****       pHandle->badPacketFlag = ASPEP_OK;
 808:Src/aspep.c   ****       /* As we received a packet with a bad header, we need to be sure that the HW IP is well Synch
 809:Src/aspep.c   ****         * DMA will be configured to receive next packet as soon as HW IP RX line is free to receive
 810:Src/aspep.c   ****         * It is important to note that we will detect only the NEXT free line transition, it means 
 811:Src/aspep.c   ****         * be lost but the end of this lost packet will generate the IDLE interrupt
 812:Src/aspep.c   ****         * the IDLE interrupt will call ASPEP_HWDMAReset (in charge of the IP_aspep driver to call i
 813:Src/aspep.c   ****         * time)*/
 814:Src/aspep.c   ****       pHandle->fASPEP_HWSync(pHandle->HWIp);
 815:Src/aspep.c   ****     }
 816:Src/aspep.c   ****     else
 817:Src/aspep.c   ****     {
 818:Src/aspep.c   ****       /* Nothing to do, no response is due to the controller */
 819:Src/aspep.c   ****     }
 820:Src/aspep.c   **** #ifdef NULL_PTR_CHECK_ASP
 821:Src/aspep.c   ****   }
 822:Src/aspep.c   **** #endif
 823:Src/aspep.c   ****   return (result);
 824:Src/aspep.c   **** }
 1422              		.loc 1 824 1 is_stmt 0 view .LVU470
 1423 0032 2846     		mov	r0, r5
 1424 0034 BDE8F883 		pop	{r3, r4, r5, r6, r7, r8, r9, pc}
 1425              	.LVL100:
 1426              	.L75:
 803:Src/aspep.c   ****     {
 1427              		.loc 1 803 10 is_stmt 1 view .LVU471
 803:Src/aspep.c   ****     {
 1428              		.loc 1 803 21 is_stmt 0 view .LVU472
 1429 0038 90F86250 		ldrb	r5, [r0, #98]	@ zero_extendqisi2
 803:Src/aspep.c   ****     {
 1430              		.loc 1 803 13 view .LVU473
 1431 003c 002D     		cmp	r5, #0
 1432 003e F8D0     		beq	.L74
 805:Src/aspep.c   ****       /* ASPEP_RXframeProcess can be called before reception of another packet */
 1433              		.loc 1 805 7 is_stmt 1 view .LVU474
ARM GAS  C:\Users\ep_ygh\AppData\Local\Temp\ccopCd9W.s 			page 51


 1434              	.LVL101:
 1435              	.LBB184:
 1436              	.LBI184:
 237:Src/aspep.c   **** {
 1437              		.loc 1 237 13 view .LVU475
 1438              	.LBB185:
 239:Src/aspep.c   ****   *packet = NACK | (uint32_t)(((uint32_t) errorInfo) << 8U) | (uint32_t)(((uint32_t) errorInfo) << 
 1439              		.loc 1 239 3 view .LVU476
 240:Src/aspep.c   ****   (void)ASPEP_TXframeProcess(pHandle, ASPEP_CTRL, &pHandle->ctrlBuffer, ASPEP_CTRL_SIZE);
 1440              		.loc 1 240 3 view .LVU477
 240:Src/aspep.c   ****   (void)ASPEP_TXframeProcess(pHandle, ASPEP_CTRL, &pHandle->ctrlBuffer, ASPEP_CTRL_SIZE);
 1441              		.loc 1 240 63 is_stmt 0 view .LVU478
 1442 0040 2B04     		lsls	r3, r5, #16
 240:Src/aspep.c   ****   (void)ASPEP_TXframeProcess(pHandle, ASPEP_CTRL, &pHandle->ctrlBuffer, ASPEP_CTRL_SIZE);
 1443              		.loc 1 240 61 view .LVU479
 1444 0042 43EA0525 		orr	r5, r3, r5, lsl #8
 1445              	.LVL102:
 1446              	.LBB186:
 1447              	.LBB187:
 1448              	.LBB188:
 1449              	.LBB189:
 126:Src/aspep.c   ****   crc = CRC4_Lookup8[crc ^ (uint8_t)((header >> 16U) & 0xffU)];
 1450              		.loc 1 126 26 view .LVU480
 1451 0046 C5F30723 		ubfx	r3, r5, #8, #8
 126:Src/aspep.c   ****   crc = CRC4_Lookup8[crc ^ (uint8_t)((header >> 16U) & 0xffU)];
 1452              		.loc 1 126 7 view .LVU481
 1453 004a 9549     		ldr	r1, .L111
 1454              	.LVL103:
 128:Src/aspep.c   **** #else /* CRC4_PER_NIBBLE */
 1455              		.loc 1 128 7 view .LVU482
 1456 004c 9548     		ldr	r0, .L111+4
 1457              	.LVL104:
 126:Src/aspep.c   ****   crc = CRC4_Lookup8[crc ^ (uint8_t)((header >> 16U) & 0xffU)];
 1458              		.loc 1 126 26 view .LVU483
 1459 004e 83F00903 		eor	r3, r3, #9
 127:Src/aspep.c   ****   crc = CRC4_Lookup4[crc ^ (uint8_t)((header >> 24U) & 0x0fU)];
 1460              		.loc 1 127 26 view .LVU484
 1461 0052 CA5C     		ldrb	r2, [r1, r3]	@ zero_extendqisi2
 1462              	.LVL105:
 127:Src/aspep.c   ****   crc = CRC4_Lookup4[crc ^ (uint8_t)((header >> 24U) & 0x0fU)];
 1463              		.loc 1 127 26 view .LVU485
 1464              	.LBE189:
 1465              	.LBE188:
 1466              	.LBE187:
 1467              	.LBE186:
 240:Src/aspep.c   ****   (void)ASPEP_TXframeProcess(pHandle, ASPEP_CTRL, &pHandle->ctrlBuffer, ASPEP_CTRL_SIZE);
 1468              		.loc 1 240 61 view .LVU486
 1469 0054 45F00F03 		orr	r3, r5, #15
 241:Src/aspep.c   **** }
 1470              		.loc 1 241 3 is_stmt 1 view .LVU487
 1471              	.LVL106:
 1472              	.LBB202:
 1473              	.LBI186:
 479:Src/aspep.c   **** {
 1474              		.loc 1 479 9 view .LVU488
 1475              	.LBB200:
 481:Src/aspep.c   **** #ifdef NULL_PTR_CHECK_ASP
ARM GAS  C:\Users\ep_ygh\AppData\Local\Temp\ccopCd9W.s 			page 52


 1476              		.loc 1 481 3 view .LVU489
 491:Src/aspep.c   ****     __disable_irq(); /*TODO: Disable High frequency task is enough */
 1477              		.loc 1 491 5 view .LVU490
 1478              	.LBB191:
 1479              	.LBI188:
 117:Src/aspep.c   **** {
 1480              		.loc 1 117 13 view .LVU491
 1481              	.LBB190:
 119:Src/aspep.c   ****   uint32_t header = *headerPtr;
 1482              		.loc 1 119 3 view .LVU492
 120:Src/aspep.c   **** 
 1483              		.loc 1 120 3 view .LVU493
 123:Src/aspep.c   **** 
 1484              		.loc 1 123 3 view .LVU494
 125:Src/aspep.c   ****   crc = CRC4_Lookup8[crc ^ (uint8_t)((header >> 8U) & 0xffU)];
 1485              		.loc 1 125 3 view .LVU495
 126:Src/aspep.c   ****   crc = CRC4_Lookup8[crc ^ (uint8_t)((header >> 16U) & 0xffU)];
 1486              		.loc 1 126 3 view .LVU496
 127:Src/aspep.c   ****   crc = CRC4_Lookup4[crc ^ (uint8_t)((header >> 24U) & 0x0fU)];
 1487              		.loc 1 127 3 view .LVU497
 127:Src/aspep.c   ****   crc = CRC4_Lookup4[crc ^ (uint8_t)((header >> 24U) & 0x0fU)];
 1488              		.loc 1 127 26 is_stmt 0 view .LVU498
 1489 0058 82EA1545 		eor	r5, r2, r5, lsr #16
 1490              	.LVL107:
 128:Src/aspep.c   **** #else /* CRC4_PER_NIBBLE */
 1491              		.loc 1 128 3 is_stmt 1 view .LVU499
 128:Src/aspep.c   **** #else /* CRC4_PER_NIBBLE */
 1492              		.loc 1 128 26 is_stmt 0 view .LVU500
 1493 005c 4A5D     		ldrb	r2, [r1, r5]	@ zero_extendqisi2
 1494              	.LVL108:
 139:Src/aspep.c   **** 
 1495              		.loc 1 139 3 is_stmt 1 view .LVU501
 139:Src/aspep.c   **** 
 1496              		.loc 1 139 17 is_stmt 0 view .LVU502
 1497 005e 825C     		ldrb	r2, [r0, r2]	@ zero_extendqisi2
 1498              	.LVL109:
 139:Src/aspep.c   **** 
 1499              		.loc 1 139 14 view .LVU503
 1500 0060 43EA0273 		orr	r3, r3, r2, lsl #28
 1501              	.LVL110:
 139:Src/aspep.c   **** 
 1502              		.loc 1 139 14 view .LVU504
 1503 0064 2362     		str	r3, [r4, #32]
 1504              	.LVL111:
 139:Src/aspep.c   **** 
 1505              		.loc 1 139 14 view .LVU505
 1506              	.LBE190:
 1507              	.LBE191:
 492:Src/aspep.c   ****     if (NULL == pHandle->lockBuffer) /* Communication Ip free to send data*/
 1508              		.loc 1 492 5 is_stmt 1 view .LVU506
 1509              	.LBB192:
 1510              	.LBI192:
 207:Drivers/CMSIS/Include/cmsis_gcc.h **** {
 1511              		.loc 2 207 27 view .LVU507
 1512              	.LBB193:
 1513              		.loc 2 209 3 view .LVU508
 1514              		.syntax unified
ARM GAS  C:\Users\ep_ygh\AppData\Local\Temp\ccopCd9W.s 			page 53


 1515              	@ 209 "Drivers/CMSIS/Include/cmsis_gcc.h" 1
 1516 0066 72B6     		cpsid i
 1517              	@ 0 "" 2
 1518              		.thumb
 1519              		.syntax unified
 1520              	.LBE193:
 1521              	.LBE192:
 493:Src/aspep.c   ****     {
 1522              		.loc 1 493 5 view .LVU509
 493:Src/aspep.c   ****     {
 1523              		.loc 1 493 8 is_stmt 0 view .LVU510
 1524 0068 A36C     		ldr	r3, [r4, #72]
 1525 006a 002B     		cmp	r3, #0
 1526 006c 3AD0     		beq	.L103
 520:Src/aspep.c   ****       /* Lock buffer can be freed here */
 1527              		.loc 1 520 7 is_stmt 1 view .LVU511
 1528              	.LBB194:
 1529              	.LBI194:
 196:Drivers/CMSIS/Include/cmsis_gcc.h **** {
 1530              		.loc 2 196 27 view .LVU512
 1531              	.LBB195:
 198:Drivers/CMSIS/Include/cmsis_gcc.h **** }
 1532              		.loc 2 198 3 view .LVU513
 1533              		.syntax unified
 1534              	@ 198 "Drivers/CMSIS/Include/cmsis_gcc.h" 1
 1535 006e 62B6     		cpsie i
 1536              	@ 0 "" 2
 1537              		.thumb
 1538              		.syntax unified
 1539              	.LBE195:
 1540              	.LBE194:
 522:Src/aspep.c   ****       {
 1541              		.loc 1 522 7 view .LVU514
 548:Src/aspep.c   ****       {
 1542              		.loc 1 548 12 view .LVU515
 560:Src/aspep.c   ****       {
 1543              		.loc 1 560 12 view .LVU516
 562:Src/aspep.c   ****         {
 1544              		.loc 1 562 9 view .LVU517
 562:Src/aspep.c   ****         {
 1545              		.loc 1 562 12 is_stmt 0 view .LVU518
 1546 0070 94F82430 		ldrb	r3, [r4, #36]	@ zero_extendqisi2
 1547 0074 13B9     		cbnz	r3, .L90
 568:Src/aspep.c   ****         }
 1548              		.loc 1 568 11 is_stmt 1 view .LVU519
 568:Src/aspep.c   ****         }
 1549              		.loc 1 568 37 is_stmt 0 view .LVU520
 1550 0076 0223     		movs	r3, #2
 1551 0078 84F82430 		strb	r3, [r4, #36]
 1552              	.LVL112:
 1553              	.L90:
 574:Src/aspep.c   ****     }
 1554              		.loc 1 574 7 is_stmt 1 view .LVU521
 579:Src/aspep.c   **** }
 1555              		.loc 1 579 3 view .LVU522
 579:Src/aspep.c   **** }
 1556              		.loc 1 579 3 is_stmt 0 view .LVU523
ARM GAS  C:\Users\ep_ygh\AppData\Local\Temp\ccopCd9W.s 			page 54


 1557              	.LBE200:
 1558              	.LBE202:
 1559              	.LBE185:
 1560              	.LBE184:
 807:Src/aspep.c   ****       /* As we received a packet with a bad header, we need to be sure that the HW IP is well Synch
 1561              		.loc 1 807 7 is_stmt 1 view .LVU524
 807:Src/aspep.c   ****       /* As we received a packet with a bad header, we need to be sure that the HW IP is well Synch
 1562              		.loc 1 807 30 is_stmt 0 view .LVU525
 1563 007c 0025     		movs	r5, #0
 814:Src/aspep.c   ****     }
 1564              		.loc 1 814 7 view .LVU526
 1565 007e 6069     		ldr	r0, [r4, #20]
 1566 0080 236D     		ldr	r3, [r4, #80]
 807:Src/aspep.c   ****       /* As we received a packet with a bad header, we need to be sure that the HW IP is well Synch
 1567              		.loc 1 807 30 view .LVU527
 1568 0082 84F86250 		strb	r5, [r4, #98]
 814:Src/aspep.c   ****     }
 1569              		.loc 1 814 7 is_stmt 1 view .LVU528
 1570 0086 9847     		blx	r3
 1571              	.LVL113:
 1572              		.loc 1 824 1 is_stmt 0 view .LVU529
 1573 0088 2846     		mov	r0, r5
 1574 008a BDE8F883 		pop	{r3, r4, r5, r6, r7, r8, r9, pc}
 1575              	.LVL114:
 1576              	.L102:
 693:Src/aspep.c   ****           {
 1577              		.loc 1 693 11 is_stmt 1 view .LVU530
 693:Src/aspep.c   ****           {
 1578              		.loc 1 693 32 is_stmt 0 view .LVU531
 1579 008e 836E     		ldr	r3, [r0, #104]
 693:Src/aspep.c   ****           {
 1580              		.loc 1 693 14 view .LVU532
 1581 0090 052B     		cmp	r3, #5
 1582 0092 00F09580 		beq	.L104
 710:Src/aspep.c   ****           {
 1583              		.loc 1 710 16 is_stmt 1 view .LVU533
 710:Src/aspep.c   ****           {
 1584              		.loc 1 710 19 is_stmt 0 view .LVU534
 1585 0096 062B     		cmp	r3, #6
 1586 0098 00F0D780 		beq	.L105
 670:Src/aspep.c   **** #ifdef NULL_PTR_CHECK_ASP
 1587              		.loc 1 670 12 view .LVU535
 1588 009c 3546     		mov	r5, r6
 1589 009e C2E7     		b	.L78
 1590              	.L77:
 754:Src/aspep.c   ****           {
 1591              		.loc 1 754 11 is_stmt 1 view .LVU536
 754:Src/aspep.c   ****           {
 1592              		.loc 1 754 32 is_stmt 0 view .LVU537
 1593 00a0 836E     		ldr	r3, [r0, #104]
 754:Src/aspep.c   ****           {
 1594              		.loc 1 754 14 view .LVU538
 1595 00a2 052B     		cmp	r3, #5
 1596 00a4 5FD0     		beq	.L106
 766:Src/aspep.c   ****           {
 1597              		.loc 1 766 16 is_stmt 1 view .LVU539
 766:Src/aspep.c   ****           {
ARM GAS  C:\Users\ep_ygh\AppData\Local\Temp\ccopCd9W.s 			page 55


 1598              		.loc 1 766 19 is_stmt 0 view .LVU540
 1599 00a6 062B     		cmp	r3, #6
 1600 00a8 00F0D680 		beq	.L107
 771:Src/aspep.c   ****           {
 1601              		.loc 1 771 16 is_stmt 1 view .LVU541
 771:Src/aspep.c   ****           {
 1602              		.loc 1 771 19 is_stmt 0 view .LVU542
 1603 00ac 092B     		cmp	r3, #9
 1604 00ae BAD1     		bne	.L78
 777:Src/aspep.c   ****               pSupHandle->MCP_PacketAvailable = true; /* Will be consumed in ASPEP_sendPacket */
 1605              		.loc 1 777 15 is_stmt 1 view .LVU543
 777:Src/aspep.c   ****               pSupHandle->MCP_PacketAvailable = true; /* Will be consumed in ASPEP_sendPacket */
 1606              		.loc 1 777 39 is_stmt 0 view .LVU544
 1607 00b0 90F86030 		ldrb	r3, [r0, #96]	@ zero_extendqisi2
 779:Src/aspep.c   ****               result = pHandle->rxBuffer;
 1608              		.loc 1 779 38 view .LVU545
 1609 00b4 B0F85C20 		ldrh	r2, [r0, #92]
 1610              	.LVL115:
 780:Src/aspep.c   **** #if VALID_CRC_DATA
 1611              		.loc 1 780 22 view .LVU546
 1612 00b8 A569     		ldr	r5, [r4, #24]
 777:Src/aspep.c   ****               pSupHandle->MCP_PacketAvailable = true; /* Will be consumed in ASPEP_sendPacket */
 1613              		.loc 1 777 39 view .LVU547
 1614 00ba 0133     		adds	r3, r3, #1
 778:Src/aspep.c   ****               *packetLength = pHandle->rxLength;
 1615              		.loc 1 778 47 view .LVU548
 1616 00bc 0120     		movs	r0, #1
 1617              	.LVL116:
 777:Src/aspep.c   ****               pSupHandle->MCP_PacketAvailable = true; /* Will be consumed in ASPEP_sendPacket */
 1618              		.loc 1 777 39 view .LVU549
 1619 00be 84F86030 		strb	r3, [r4, #96]
 778:Src/aspep.c   ****               *packetLength = pHandle->rxLength;
 1620              		.loc 1 778 15 is_stmt 1 view .LVU550
 778:Src/aspep.c   ****               *packetLength = pHandle->rxLength;
 1621              		.loc 1 778 47 is_stmt 0 view .LVU551
 1622 00c2 2074     		strb	r0, [r4, #16]
 779:Src/aspep.c   ****               result = pHandle->rxBuffer;
 1623              		.loc 1 779 15 is_stmt 1 view .LVU552
 779:Src/aspep.c   ****               result = pHandle->rxBuffer;
 1624              		.loc 1 779 29 is_stmt 0 view .LVU553
 1625 00c4 0A80     		strh	r2, [r1]	@ movhi
 780:Src/aspep.c   **** #if VALID_CRC_DATA
 1626              		.loc 1 780 15 is_stmt 1 view .LVU554
 1627              	.LVL117:
 780:Src/aspep.c   **** #if VALID_CRC_DATA
 1628              		.loc 1 780 15 is_stmt 0 view .LVU555
 1629 00c6 AEE7     		b	.L78
 1630              	.LVL118:
 1631              	.L76:
 725:Src/aspep.c   ****           {
 1632              		.loc 1 725 11 is_stmt 1 view .LVU556
 725:Src/aspep.c   ****           {
 1633              		.loc 1 725 32 is_stmt 0 view .LVU557
 1634 00c8 836E     		ldr	r3, [r0, #104]
 725:Src/aspep.c   ****           {
 1635              		.loc 1 725 14 view .LVU558
 1636 00ca 052B     		cmp	r3, #5
ARM GAS  C:\Users\ep_ygh\AppData\Local\Temp\ccopCd9W.s 			page 56


 1637 00cc 16D0     		beq	.L108
 738:Src/aspep.c   ****           {
 1638              		.loc 1 738 16 is_stmt 1 view .LVU559
 738:Src/aspep.c   ****           {
 1639              		.loc 1 738 19 is_stmt 0 view .LVU560
 1640 00ce 062B     		cmp	r3, #6
 1641 00d0 A9D1     		bne	.L78
 741:Src/aspep.c   ****             ASPEP_sendPing(pHandle, ASPEP_PING_CFG, packetNumber);
 1642              		.loc 1 741 13 is_stmt 1 view .LVU561
 1643              	.LVL119:
 742:Src/aspep.c   ****             pHandle->ASPEP_State = ASPEP_CONNECTED;
 1644              		.loc 1 742 13 view .LVU562
 1645 00d2 C2F30F32 		ubfx	r2, r2, #12, #16
 1646              	.LVL120:
 742:Src/aspep.c   ****             pHandle->ASPEP_State = ASPEP_CONNECTED;
 1647              		.loc 1 742 13 is_stmt 0 view .LVU563
 1648 00d6 3146     		mov	r1, r6
 1649              	.LVL121:
 742:Src/aspep.c   ****             pHandle->ASPEP_State = ASPEP_CONNECTED;
 1650              		.loc 1 742 13 view .LVU564
 1651 00d8 FFF7FEFF 		bl	ASPEP_sendPing
 1652              	.LVL122:
 743:Src/aspep.c   ****           }
 1653              		.loc 1 743 13 is_stmt 1 view .LVU565
 743:Src/aspep.c   ****           }
 1654              		.loc 1 743 34 is_stmt 0 view .LVU566
 1655 00dc 0223     		movs	r3, #2
 1656 00de 84F86430 		strb	r3, [r4, #100]
 1657 00e2 A0E7     		b	.L78
 1658              	.LVL123:
 1659              	.L103:
 1660              	.LBB205:
 1661              	.LBB204:
 241:Src/aspep.c   **** }
 1662              		.loc 1 241 51 view .LVU567
 1663 00e4 04F12001 		add	r1, r4, #32
 1664              	.LVL124:
 1665              	.LBB203:
 1666              	.LBB201:
 1667              	.LBB196:
 1668              	.LBI196:
 479:Src/aspep.c   **** {
 1669              		.loc 1 479 9 is_stmt 1 view .LVU568
 1670              	.LBB197:
 495:Src/aspep.c   ****       {
 1671              		.loc 1 495 7 view .LVU569
 504:Src/aspep.c   ****       {
 1672              		.loc 1 504 12 view .LVU570
 511:Src/aspep.c   ****         pHandle->lockBuffer = (void *)&pHandle->ctrlBuffer;
 1673              		.loc 1 511 9 view .LVU571
 511:Src/aspep.c   ****         pHandle->lockBuffer = (void *)&pHandle->ctrlBuffer;
 1674              		.loc 1 511 35 is_stmt 0 view .LVU572
 1675 00e8 0323     		movs	r3, #3
 1676 00ea 84F82430 		strb	r3, [r4, #36]
 512:Src/aspep.c   ****       }
 1677              		.loc 1 512 9 is_stmt 1 view .LVU573
 512:Src/aspep.c   ****       }
ARM GAS  C:\Users\ep_ygh\AppData\Local\Temp\ccopCd9W.s 			page 57


 1678              		.loc 1 512 29 is_stmt 0 view .LVU574
 1679 00ee A164     		str	r1, [r4, #72]
 515:Src/aspep.c   ****       pHandle->fASPEP_send(pHandle->HWIp, txBuffer, bufferLength);
 1680              		.loc 1 515 7 is_stmt 1 view .LVU575
 1681              	.LBB198:
 1682              	.LBI198:
 196:Drivers/CMSIS/Include/cmsis_gcc.h **** {
 1683              		.loc 2 196 27 view .LVU576
 1684              	.LBB199:
 198:Drivers/CMSIS/Include/cmsis_gcc.h **** }
 1685              		.loc 2 198 3 view .LVU577
 1686              		.syntax unified
 1687              	@ 198 "Drivers/CMSIS/Include/cmsis_gcc.h" 1
 1688 00f0 62B6     		cpsie i
 1689              	@ 0 "" 2
 1690              		.thumb
 1691              		.syntax unified
 1692              	.LBE199:
 1693              	.LBE198:
 516:Src/aspep.c   ****     }
 1694              		.loc 1 516 7 view .LVU578
 1695 00f2 0422     		movs	r2, #4
 1696 00f4 A36D     		ldr	r3, [r4, #88]
 1697 00f6 6069     		ldr	r0, [r4, #20]
 1698 00f8 9847     		blx	r3
 1699              	.LVL125:
 574:Src/aspep.c   ****     }
 1700              		.loc 1 574 7 view .LVU579
 579:Src/aspep.c   **** }
 1701              		.loc 1 579 3 view .LVU580
 579:Src/aspep.c   **** }
 1702              		.loc 1 579 3 is_stmt 0 view .LVU581
 1703 00fa BFE7     		b	.L90
 1704              	.LVL126:
 1705              	.L108:
 579:Src/aspep.c   **** }
 1706              		.loc 1 579 3 view .LVU582
 1707              	.LBE197:
 1708              	.LBE196:
 1709              	.LBE201:
 1710              	.LBE203:
 1711              	.LBE204:
 1712              	.LBE205:
 727:Src/aspep.c   ****             {
 1713              		.loc 1 727 13 is_stmt 1 view .LVU583
 1714              	.LBB206:
 1715              	.LBI206:
 355:Src/aspep.c   **** {
 1716              		.loc 1 355 6 view .LVU584
 1717              	.LBB207:
 357:Src/aspep.c   **** 
 1718              		.loc 1 357 3 view .LVU585
 359:Src/aspep.c   ****   ASPEP_Capabilities_def MasterCapabilities;
 1719              		.loc 1 359 3 view .LVU586
 360:Src/aspep.c   ****   MasterCapabilities.version = (uint8_t)((packetHeader &0x70U)>> 4U);           /*Bits 4 to 6*/
 1720              		.loc 1 360 3 view .LVU587
 361:Src/aspep.c   ****   MasterCapabilities.DATA_CRC = pHandle->rxHeader[0] >> 7U ;                     /*Bit 7 */
ARM GAS  C:\Users\ep_ygh\AppData\Local\Temp\ccopCd9W.s 			page 58


 1721              		.loc 1 361 3 view .LVU588
 362:Src/aspep.c   ****   MasterCapabilities.RX_maxSize = pHandle->rxHeader[1] &0x3FU;                  /*Bits 8 to  13*/
 1722              		.loc 1 362 3 view .LVU589
 362:Src/aspep.c   ****   MasterCapabilities.RX_maxSize = pHandle->rxHeader[1] &0x3FU;                  /*Bits 8 to  13*/
 1723              		.loc 1 362 31 is_stmt 0 view .LVU590
 1724 00fc 037F     		ldrb	r3, [r0, #28]	@ zero_extendqisi2
 363:Src/aspep.c   ****   MasterCapabilities.TXS_maxSize = (uint8_t)((packetHeader&0x01FC000U)  >> 14); /*Bits 14 to 20 */
 1725              		.loc 1 363 56 view .LVU591
 1726 00fe 407F     		ldrb	r0, [r0, #29]	@ zero_extendqisi2
 1727              	.LVL127:
 368:Src/aspep.c   ****   pHandle->Capabilities.TXS_maxSize = MIN(pHandle->Capabilities.TXS_maxSize, MasterCapabilities.TXS
 1728              		.loc 1 368 38 view .LVU592
 1729 0100 94F86D10 		ldrb	r1, [r4, #109]	@ zero_extendqisi2
 1730              	.LVL128:
 367:Src/aspep.c   ****   pHandle->Capabilities.RX_maxSize = MIN(pHandle->Capabilities.RX_maxSize, MasterCapabilities.RX_ma
 1731              		.loc 1 367 36 view .LVU593
 1732 0104 94F86C50 		ldrb	r5, [r4, #108]	@ zero_extendqisi2
 369:Src/aspep.c   ****   pHandle->Capabilities.TXA_maxSize = MIN(pHandle->Capabilities.TXA_maxSize, MasterCapabilities.TXA
 1733              		.loc 1 369 39 view .LVU594
 1734 0108 94F86E60 		ldrb	r6, [r4, #110]	@ zero_extendqisi2
 370:Src/aspep.c   **** 
 1735              		.loc 1 370 39 view .LVU595
 1736 010c 94F86F70 		ldrb	r7, [r4, #111]	@ zero_extendqisi2
 363:Src/aspep.c   ****   MasterCapabilities.TXS_maxSize = (uint8_t)((packetHeader&0x01FC000U)  >> 14); /*Bits 14 to 20 */
 1737              		.loc 1 363 56 view .LVU596
 1738 0110 00F03F00 		and	r0, r0, #63
 362:Src/aspep.c   ****   MasterCapabilities.RX_maxSize = pHandle->rxHeader[1] &0x3FU;                  /*Bits 8 to  13*/
 1739              		.loc 1 362 31 view .LVU597
 1740 0114 DB09     		lsrs	r3, r3, #7
 1741              	.LVL129:
 363:Src/aspep.c   ****   MasterCapabilities.TXS_maxSize = (uint8_t)((packetHeader&0x01FC000U)  >> 14); /*Bits 14 to 20 */
 1742              		.loc 1 363 3 is_stmt 1 view .LVU598
 364:Src/aspep.c   ****   MasterCapabilities.TXA_maxSize = (uint8_t)((packetHeader&0xFE00000U) >> 21);  /*Bits 21 to 27  */
 1743              		.loc 1 364 3 view .LVU599
 368:Src/aspep.c   ****   pHandle->Capabilities.TXS_maxSize = MIN(pHandle->Capabilities.TXS_maxSize, MasterCapabilities.TXS
 1744              		.loc 1 368 38 is_stmt 0 view .LVU600
 1745 0116 8142     		cmp	r1, r0
 364:Src/aspep.c   ****   MasterCapabilities.TXA_maxSize = (uint8_t)((packetHeader&0xFE00000U) >> 21);  /*Bits 21 to 27  */
 1746              		.loc 1 364 36 view .LVU601
 1747 0118 C2F3863C 		ubfx	ip, r2, #14, #7
 1748              	.LVL130:
 365:Src/aspep.c   **** 
 1749              		.loc 1 365 3 is_stmt 1 view .LVU602
 368:Src/aspep.c   ****   pHandle->Capabilities.TXS_maxSize = MIN(pHandle->Capabilities.TXS_maxSize, MasterCapabilities.TXS
 1750              		.loc 1 368 38 is_stmt 0 view .LVU603
 1751 011c 28BF     		it	cs
 1752 011e 0146     		movcs	r1, r0
 367:Src/aspep.c   ****   pHandle->Capabilities.RX_maxSize = MIN(pHandle->Capabilities.RX_maxSize, MasterCapabilities.RX_ma
 1753              		.loc 1 367 36 view .LVU604
 1754 0120 AB42     		cmp	r3, r5
 1755 0122 9846     		mov	r8, r3
 365:Src/aspep.c   **** 
 1756              		.loc 1 365 36 view .LVU605
 1757 0124 C2F3465E 		ubfx	lr, r2, #21, #7
 1758              	.LVL131:
 367:Src/aspep.c   ****   pHandle->Capabilities.RX_maxSize = MIN(pHandle->Capabilities.RX_maxSize, MasterCapabilities.RX_ma
 1759              		.loc 1 367 3 is_stmt 1 view .LVU606
ARM GAS  C:\Users\ep_ygh\AppData\Local\Temp\ccopCd9W.s 			page 59


 367:Src/aspep.c   ****   pHandle->Capabilities.RX_maxSize = MIN(pHandle->Capabilities.RX_maxSize, MasterCapabilities.RX_ma
 1760              		.loc 1 367 36 is_stmt 0 view .LVU607
 1761 0128 28BF     		it	cs
 1762 012a A846     		movcs	r8, r5
 369:Src/aspep.c   ****   pHandle->Capabilities.TXA_maxSize = MIN(pHandle->Capabilities.TXA_maxSize, MasterCapabilities.TXA
 1763              		.loc 1 369 39 view .LVU608
 1764 012c B445     		cmp	ip, r6
 367:Src/aspep.c   ****   pHandle->Capabilities.RX_maxSize = MIN(pHandle->Capabilities.RX_maxSize, MasterCapabilities.RX_ma
 1765              		.loc 1 367 34 view .LVU609
 1766 012e 84F86C80 		strb	r8, [r4, #108]
 368:Src/aspep.c   ****   pHandle->Capabilities.TXS_maxSize = MIN(pHandle->Capabilities.TXS_maxSize, MasterCapabilities.TXS
 1767              		.loc 1 368 3 is_stmt 1 view .LVU610
 369:Src/aspep.c   ****   pHandle->Capabilities.TXA_maxSize = MIN(pHandle->Capabilities.TXA_maxSize, MasterCapabilities.TXA
 1768              		.loc 1 369 3 view .LVU611
 369:Src/aspep.c   ****   pHandle->Capabilities.TXA_maxSize = MIN(pHandle->Capabilities.TXA_maxSize, MasterCapabilities.TXA
 1769              		.loc 1 369 39 is_stmt 0 view .LVU612
 1770 0132 E046     		mov	r8, ip
 1771 0134 28BF     		it	cs
 1772 0136 B046     		movcs	r8, r6
 370:Src/aspep.c   **** 
 1773              		.loc 1 370 39 view .LVU613
 1774 0138 BE45     		cmp	lr, r7
 369:Src/aspep.c   ****   pHandle->Capabilities.TXA_maxSize = MIN(pHandle->Capabilities.TXA_maxSize, MasterCapabilities.TXA
 1775              		.loc 1 369 37 view .LVU614
 1776 013a 84F86E80 		strb	r8, [r4, #110]
 370:Src/aspep.c   **** 
 1777              		.loc 1 370 3 is_stmt 1 view .LVU615
 370:Src/aspep.c   **** 
 1778              		.loc 1 370 39 is_stmt 0 view .LVU616
 1779 013e F046     		mov	r8, lr
 1780 0140 28BF     		it	cs
 1781 0142 B846     		movcs	r8, r7
 372:Src/aspep.c   ****    /* Data packet the controller can send is bigger than performer can receive */
 1782              		.loc 1 372 6 view .LVU617
 1783 0144 AB42     		cmp	r3, r5
 368:Src/aspep.c   ****   pHandle->Capabilities.TXS_maxSize = MIN(pHandle->Capabilities.TXS_maxSize, MasterCapabilities.TXS
 1784              		.loc 1 368 36 view .LVU618
 1785 0146 84F86D10 		strb	r1, [r4, #109]
 370:Src/aspep.c   **** 
 1786              		.loc 1 370 37 view .LVU619
 1787 014a 84F86F80 		strb	r8, [r4, #111]
 372:Src/aspep.c   ****    /* Data packet the controller can send is bigger than performer can receive */
 1788              		.loc 1 372 3 is_stmt 1 view .LVU620
 372:Src/aspep.c   ****    /* Data packet the controller can send is bigger than performer can receive */
 1789              		.loc 1 372 6 is_stmt 0 view .LVU621
 1790 014e 40F28880 		bls	.L109
 1791              	.LVL132:
 1792              	.L84:
 384:Src/aspep.c   ****   }
 1793              		.loc 1 384 5 is_stmt 1 view .LVU622
 391:Src/aspep.c   **** }
 1794              		.loc 1 391 3 view .LVU623
 391:Src/aspep.c   **** }
 1795              		.loc 1 391 3 is_stmt 0 view .LVU624
 1796              	.LBE207:
 1797              	.LBE206:
 729:Src/aspep.c   ****             }
ARM GAS  C:\Users\ep_ygh\AppData\Local\Temp\ccopCd9W.s 			page 60


 1798              		.loc 1 729 15 is_stmt 1 view .LVU625
 729:Src/aspep.c   ****             }
 1799              		.loc 1 729 36 is_stmt 0 view .LVU626
 1800 0152 0023     		movs	r3, #0
 1801 0154 84F86430 		strb	r3, [r4, #100]
 1802              	.LVL133:
 1803              	.L101:
 764:Src/aspep.c   ****           }
 1804              		.loc 1 764 13 is_stmt 1 view .LVU627
 1805 0158 04F16C01 		add	r1, r4, #108
 1806 015c 2046     		mov	r0, r4
 1807 015e FFF7FEFF 		bl	ASPEP_sendBeacon
 1808              	.LVL134:
 670:Src/aspep.c   **** #ifdef NULL_PTR_CHECK_ASP
 1809              		.loc 1 670 12 is_stmt 0 view .LVU628
 1810 0162 0025     		movs	r5, #0
 1811 0164 5FE7     		b	.L78
 1812              	.LVL135:
 1813              	.L106:
 756:Src/aspep.c   ****             {
 1814              		.loc 1 756 13 is_stmt 1 view .LVU629
 1815              	.LBB209:
 1816              	.LBI209:
 355:Src/aspep.c   **** {
 1817              		.loc 1 355 6 view .LVU630
 1818              	.LBB210:
 357:Src/aspep.c   **** 
 1819              		.loc 1 357 3 view .LVU631
 359:Src/aspep.c   ****   ASPEP_Capabilities_def MasterCapabilities;
 1820              		.loc 1 359 3 view .LVU632
 360:Src/aspep.c   ****   MasterCapabilities.version = (uint8_t)((packetHeader &0x70U)>> 4U);           /*Bits 4 to 6*/
 1821              		.loc 1 360 3 view .LVU633
 361:Src/aspep.c   ****   MasterCapabilities.DATA_CRC = pHandle->rxHeader[0] >> 7U ;                     /*Bit 7 */
 1822              		.loc 1 361 3 view .LVU634
 362:Src/aspep.c   ****   MasterCapabilities.RX_maxSize = pHandle->rxHeader[1] &0x3FU;                  /*Bits 8 to  13*/
 1823              		.loc 1 362 3 view .LVU635
 362:Src/aspep.c   ****   MasterCapabilities.RX_maxSize = pHandle->rxHeader[1] &0x3FU;                  /*Bits 8 to  13*/
 1824              		.loc 1 362 31 is_stmt 0 view .LVU636
 1825 0166 037F     		ldrb	r3, [r0, #28]	@ zero_extendqisi2
 363:Src/aspep.c   ****   MasterCapabilities.TXS_maxSize = (uint8_t)((packetHeader&0x01FC000U)  >> 14); /*Bits 14 to 20 */
 1826              		.loc 1 363 56 view .LVU637
 1827 0168 407F     		ldrb	r0, [r0, #29]	@ zero_extendqisi2
 1828              	.LVL136:
 368:Src/aspep.c   ****   pHandle->Capabilities.TXS_maxSize = MIN(pHandle->Capabilities.TXS_maxSize, MasterCapabilities.TXS
 1829              		.loc 1 368 38 view .LVU638
 1830 016a 94F86D10 		ldrb	r1, [r4, #109]	@ zero_extendqisi2
 1831              	.LVL137:
 367:Src/aspep.c   ****   pHandle->Capabilities.RX_maxSize = MIN(pHandle->Capabilities.RX_maxSize, MasterCapabilities.RX_ma
 1832              		.loc 1 367 36 view .LVU639
 1833 016e 94F86C60 		ldrb	r6, [r4, #108]	@ zero_extendqisi2
 369:Src/aspep.c   ****   pHandle->Capabilities.TXA_maxSize = MIN(pHandle->Capabilities.TXA_maxSize, MasterCapabilities.TXA
 1834              		.loc 1 369 39 view .LVU640
 1835 0172 94F86EC0 		ldrb	ip, [r4, #110]	@ zero_extendqisi2
 370:Src/aspep.c   **** 
 1836              		.loc 1 370 39 view .LVU641
 1837 0176 94F86F70 		ldrb	r7, [r4, #111]	@ zero_extendqisi2
 363:Src/aspep.c   ****   MasterCapabilities.TXS_maxSize = (uint8_t)((packetHeader&0x01FC000U)  >> 14); /*Bits 14 to 20 */
ARM GAS  C:\Users\ep_ygh\AppData\Local\Temp\ccopCd9W.s 			page 61


 1838              		.loc 1 363 56 view .LVU642
 1839 017a 00F03F00 		and	r0, r0, #63
 362:Src/aspep.c   ****   MasterCapabilities.RX_maxSize = pHandle->rxHeader[1] &0x3FU;                  /*Bits 8 to  13*/
 1840              		.loc 1 362 31 view .LVU643
 1841 017e DB09     		lsrs	r3, r3, #7
 1842              	.LVL138:
 363:Src/aspep.c   ****   MasterCapabilities.TXS_maxSize = (uint8_t)((packetHeader&0x01FC000U)  >> 14); /*Bits 14 to 20 */
 1843              		.loc 1 363 3 is_stmt 1 view .LVU644
 364:Src/aspep.c   ****   MasterCapabilities.TXA_maxSize = (uint8_t)((packetHeader&0xFE00000U) >> 21);  /*Bits 21 to 27  */
 1844              		.loc 1 364 3 view .LVU645
 368:Src/aspep.c   ****   pHandle->Capabilities.TXS_maxSize = MIN(pHandle->Capabilities.TXS_maxSize, MasterCapabilities.TXS
 1845              		.loc 1 368 38 is_stmt 0 view .LVU646
 1846 0180 8142     		cmp	r1, r0
 1847 0182 28BF     		it	cs
 1848 0184 0146     		movcs	r1, r0
 364:Src/aspep.c   ****   MasterCapabilities.TXA_maxSize = (uint8_t)((packetHeader&0xFE00000U) >> 21);  /*Bits 21 to 27  */
 1849              		.loc 1 364 36 view .LVU647
 1850 0186 C2F3863E 		ubfx	lr, r2, #14, #7
 1851              	.LVL139:
 365:Src/aspep.c   **** 
 1852              		.loc 1 365 3 is_stmt 1 view .LVU648
 367:Src/aspep.c   ****   pHandle->Capabilities.RX_maxSize = MIN(pHandle->Capabilities.RX_maxSize, MasterCapabilities.RX_ma
 1853              		.loc 1 367 36 is_stmt 0 view .LVU649
 1854 018a B342     		cmp	r3, r6
 1855 018c 9946     		mov	r9, r3
 365:Src/aspep.c   **** 
 1856              		.loc 1 365 36 view .LVU650
 1857 018e C2F34658 		ubfx	r8, r2, #21, #7
 1858              	.LVL140:
 367:Src/aspep.c   ****   pHandle->Capabilities.RX_maxSize = MIN(pHandle->Capabilities.RX_maxSize, MasterCapabilities.RX_ma
 1859              		.loc 1 367 3 is_stmt 1 view .LVU651
 367:Src/aspep.c   ****   pHandle->Capabilities.RX_maxSize = MIN(pHandle->Capabilities.RX_maxSize, MasterCapabilities.RX_ma
 1860              		.loc 1 367 36 is_stmt 0 view .LVU652
 1861 0192 28BF     		it	cs
 1862 0194 B146     		movcs	r9, r6
 369:Src/aspep.c   ****   pHandle->Capabilities.TXA_maxSize = MIN(pHandle->Capabilities.TXA_maxSize, MasterCapabilities.TXA
 1863              		.loc 1 369 39 view .LVU653
 1864 0196 E645     		cmp	lr, ip
 367:Src/aspep.c   ****   pHandle->Capabilities.RX_maxSize = MIN(pHandle->Capabilities.RX_maxSize, MasterCapabilities.RX_ma
 1865              		.loc 1 367 34 view .LVU654
 1866 0198 84F86C90 		strb	r9, [r4, #108]
 368:Src/aspep.c   ****   pHandle->Capabilities.TXS_maxSize = MIN(pHandle->Capabilities.TXS_maxSize, MasterCapabilities.TXS
 1867              		.loc 1 368 3 is_stmt 1 view .LVU655
 369:Src/aspep.c   ****   pHandle->Capabilities.TXA_maxSize = MIN(pHandle->Capabilities.TXA_maxSize, MasterCapabilities.TXA
 1868              		.loc 1 369 3 view .LVU656
 369:Src/aspep.c   ****   pHandle->Capabilities.TXA_maxSize = MIN(pHandle->Capabilities.TXA_maxSize, MasterCapabilities.TXA
 1869              		.loc 1 369 39 is_stmt 0 view .LVU657
 1870 019c F146     		mov	r9, lr
 1871 019e 28BF     		it	cs
 1872 01a0 E146     		movcs	r9, ip
 370:Src/aspep.c   **** 
 1873              		.loc 1 370 39 view .LVU658
 1874 01a2 B845     		cmp	r8, r7
 369:Src/aspep.c   ****   pHandle->Capabilities.TXA_maxSize = MIN(pHandle->Capabilities.TXA_maxSize, MasterCapabilities.TXA
 1875              		.loc 1 369 37 view .LVU659
 1876 01a4 84F86E90 		strb	r9, [r4, #110]
 370:Src/aspep.c   **** 
ARM GAS  C:\Users\ep_ygh\AppData\Local\Temp\ccopCd9W.s 			page 62


 1877              		.loc 1 370 3 is_stmt 1 view .LVU660
 370:Src/aspep.c   **** 
 1878              		.loc 1 370 39 is_stmt 0 view .LVU661
 1879 01a8 C146     		mov	r9, r8
 1880 01aa 28BF     		it	cs
 1881 01ac B946     		movcs	r9, r7
 372:Src/aspep.c   ****    /* Data packet the controller can send is bigger than performer can receive */
 1882              		.loc 1 372 6 view .LVU662
 1883 01ae B342     		cmp	r3, r6
 368:Src/aspep.c   ****   pHandle->Capabilities.TXS_maxSize = MIN(pHandle->Capabilities.TXS_maxSize, MasterCapabilities.TXS
 1884              		.loc 1 368 36 view .LVU663
 1885 01b0 84F86D10 		strb	r1, [r4, #109]
 370:Src/aspep.c   **** 
 1886              		.loc 1 370 37 view .LVU664
 1887 01b4 84F86F90 		strb	r9, [r4, #111]
 372:Src/aspep.c   ****    /* Data packet the controller can send is bigger than performer can receive */
 1888              		.loc 1 372 3 is_stmt 1 view .LVU665
 372:Src/aspep.c   ****    /* Data packet the controller can send is bigger than performer can receive */
 1889              		.loc 1 372 6 is_stmt 0 view .LVU666
 1890 01b8 64D9     		bls	.L110
 1891              	.LVL141:
 1892              	.L86:
 372:Src/aspep.c   ****    /* Data packet the controller can send is bigger than performer can receive */
 1893              		.loc 1 372 6 view .LVU667
 1894 01ba 84F86450 		strb	r5, [r4, #100]
 1895 01be CBE7     		b	.L101
 1896              	.LVL142:
 1897              	.L104:
 372:Src/aspep.c   ****    /* Data packet the controller can send is bigger than performer can receive */
 1898              		.loc 1 372 6 view .LVU668
 1899              	.LBE210:
 1900              	.LBE209:
 695:Src/aspep.c   ****             {
 1901              		.loc 1 695 13 is_stmt 1 view .LVU669
 1902              	.LBB213:
 1903              	.LBI213:
 355:Src/aspep.c   **** {
 1904              		.loc 1 355 6 view .LVU670
 1905              	.LBB214:
 357:Src/aspep.c   **** 
 1906              		.loc 1 357 3 view .LVU671
 359:Src/aspep.c   ****   ASPEP_Capabilities_def MasterCapabilities;
 1907              		.loc 1 359 3 view .LVU672
 360:Src/aspep.c   ****   MasterCapabilities.version = (uint8_t)((packetHeader &0x70U)>> 4U);           /*Bits 4 to 6*/
 1908              		.loc 1 360 3 view .LVU673
 361:Src/aspep.c   ****   MasterCapabilities.DATA_CRC = pHandle->rxHeader[0] >> 7U ;                     /*Bit 7 */
 1909              		.loc 1 361 3 view .LVU674
 362:Src/aspep.c   ****   MasterCapabilities.RX_maxSize = pHandle->rxHeader[1] &0x3FU;                  /*Bits 8 to  13*/
 1910              		.loc 1 362 3 view .LVU675
 363:Src/aspep.c   ****   MasterCapabilities.TXS_maxSize = (uint8_t)((packetHeader&0x01FC000U)  >> 14); /*Bits 14 to 20 */
 1911              		.loc 1 363 56 is_stmt 0 view .LVU676
 1912 01c0 657F     		ldrb	r5, [r4, #29]	@ zero_extendqisi2
 362:Src/aspep.c   ****   MasterCapabilities.RX_maxSize = pHandle->rxHeader[1] &0x3FU;                  /*Bits 8 to  13*/
 1913              		.loc 1 362 31 view .LVU677
 1914 01c2 007F     		ldrb	r0, [r0, #28]	@ zero_extendqisi2
 1915              	.LVL143:
 368:Src/aspep.c   ****   pHandle->Capabilities.TXS_maxSize = MIN(pHandle->Capabilities.TXS_maxSize, MasterCapabilities.TXS
ARM GAS  C:\Users\ep_ygh\AppData\Local\Temp\ccopCd9W.s 			page 63


 1916              		.loc 1 368 38 view .LVU678
 1917 01c4 94F86D30 		ldrb	r3, [r4, #109]	@ zero_extendqisi2
 367:Src/aspep.c   ****   pHandle->Capabilities.RX_maxSize = MIN(pHandle->Capabilities.RX_maxSize, MasterCapabilities.RX_ma
 1918              		.loc 1 367 36 view .LVU679
 1919 01c8 94F86CC0 		ldrb	ip, [r4, #108]	@ zero_extendqisi2
 369:Src/aspep.c   ****   pHandle->Capabilities.TXA_maxSize = MIN(pHandle->Capabilities.TXA_maxSize, MasterCapabilities.TXA
 1920              		.loc 1 369 39 view .LVU680
 1921 01cc 94F86EE0 		ldrb	lr, [r4, #110]	@ zero_extendqisi2
 370:Src/aspep.c   **** 
 1922              		.loc 1 370 39 view .LVU681
 1923 01d0 94F86F80 		ldrb	r8, [r4, #111]	@ zero_extendqisi2
 363:Src/aspep.c   ****   MasterCapabilities.TXS_maxSize = (uint8_t)((packetHeader&0x01FC000U)  >> 14); /*Bits 14 to 20 */
 1924              		.loc 1 363 56 view .LVU682
 1925 01d4 05F03F05 		and	r5, r5, #63
 362:Src/aspep.c   ****   MasterCapabilities.RX_maxSize = pHandle->rxHeader[1] &0x3FU;                  /*Bits 8 to  13*/
 1926              		.loc 1 362 31 view .LVU683
 1927 01d8 C009     		lsrs	r0, r0, #7
 1928              	.LVL144:
 363:Src/aspep.c   ****   MasterCapabilities.TXS_maxSize = (uint8_t)((packetHeader&0x01FC000U)  >> 14); /*Bits 14 to 20 */
 1929              		.loc 1 363 3 is_stmt 1 view .LVU684
 364:Src/aspep.c   ****   MasterCapabilities.TXA_maxSize = (uint8_t)((packetHeader&0xFE00000U) >> 21);  /*Bits 21 to 27  */
 1930              		.loc 1 364 3 view .LVU685
 368:Src/aspep.c   ****   pHandle->Capabilities.TXS_maxSize = MIN(pHandle->Capabilities.TXS_maxSize, MasterCapabilities.TXS
 1931              		.loc 1 368 38 is_stmt 0 view .LVU686
 1932 01da AB42     		cmp	r3, r5
 364:Src/aspep.c   ****   MasterCapabilities.TXA_maxSize = (uint8_t)((packetHeader&0xFE00000U) >> 21);  /*Bits 21 to 27  */
 1933              		.loc 1 364 36 view .LVU687
 1934 01dc C2F38637 		ubfx	r7, r2, #14, #7
 1935              	.LVL145:
 365:Src/aspep.c   **** 
 1936              		.loc 1 365 3 is_stmt 1 view .LVU688
 368:Src/aspep.c   ****   pHandle->Capabilities.TXS_maxSize = MIN(pHandle->Capabilities.TXS_maxSize, MasterCapabilities.TXS
 1937              		.loc 1 368 38 is_stmt 0 view .LVU689
 1938 01e0 28BF     		it	cs
 1939 01e2 2B46     		movcs	r3, r5
 367:Src/aspep.c   ****   pHandle->Capabilities.RX_maxSize = MIN(pHandle->Capabilities.RX_maxSize, MasterCapabilities.RX_ma
 1940              		.loc 1 367 36 view .LVU690
 1941 01e4 6045     		cmp	r0, ip
 1942 01e6 0146     		mov	r1, r0
 1943              	.LVL146:
 365:Src/aspep.c   **** 
 1944              		.loc 1 365 36 view .LVU691
 1945 01e8 C2F34659 		ubfx	r9, r2, #21, #7
 1946              	.LVL147:
 367:Src/aspep.c   ****   pHandle->Capabilities.RX_maxSize = MIN(pHandle->Capabilities.RX_maxSize, MasterCapabilities.RX_ma
 1947              		.loc 1 367 3 is_stmt 1 view .LVU692
 367:Src/aspep.c   ****   pHandle->Capabilities.RX_maxSize = MIN(pHandle->Capabilities.RX_maxSize, MasterCapabilities.RX_ma
 1948              		.loc 1 367 36 is_stmt 0 view .LVU693
 1949 01ec 28BF     		it	cs
 1950 01ee 6146     		movcs	r1, ip
 369:Src/aspep.c   ****   pHandle->Capabilities.TXA_maxSize = MIN(pHandle->Capabilities.TXA_maxSize, MasterCapabilities.TXA
 1951              		.loc 1 369 39 view .LVU694
 1952 01f0 7745     		cmp	r7, lr
 367:Src/aspep.c   ****   pHandle->Capabilities.RX_maxSize = MIN(pHandle->Capabilities.RX_maxSize, MasterCapabilities.RX_ma
 1953              		.loc 1 367 34 view .LVU695
 1954 01f2 84F86C10 		strb	r1, [r4, #108]
 368:Src/aspep.c   ****   pHandle->Capabilities.TXS_maxSize = MIN(pHandle->Capabilities.TXS_maxSize, MasterCapabilities.TXS
ARM GAS  C:\Users\ep_ygh\AppData\Local\Temp\ccopCd9W.s 			page 64


 1955              		.loc 1 368 3 is_stmt 1 view .LVU696
 369:Src/aspep.c   ****   pHandle->Capabilities.TXA_maxSize = MIN(pHandle->Capabilities.TXA_maxSize, MasterCapabilities.TXA
 1956              		.loc 1 369 3 view .LVU697
 369:Src/aspep.c   ****   pHandle->Capabilities.TXA_maxSize = MIN(pHandle->Capabilities.TXA_maxSize, MasterCapabilities.TXA
 1957              		.loc 1 369 39 is_stmt 0 view .LVU698
 1958 01f6 3946     		mov	r1, r7
 1959 01f8 28BF     		it	cs
 1960 01fa 7146     		movcs	r1, lr
 370:Src/aspep.c   **** 
 1961              		.loc 1 370 39 view .LVU699
 1962 01fc C145     		cmp	r9, r8
 1963 01fe 4E46     		mov	r6, r9
 1964 0200 28BF     		it	cs
 1965 0202 4646     		movcs	r6, r8
 372:Src/aspep.c   ****    /* Data packet the controller can send is bigger than performer can receive */
 1966              		.loc 1 372 6 view .LVU700
 1967 0204 6045     		cmp	r0, ip
 368:Src/aspep.c   ****   pHandle->Capabilities.TXS_maxSize = MIN(pHandle->Capabilities.TXS_maxSize, MasterCapabilities.TXS
 1968              		.loc 1 368 36 view .LVU701
 1969 0206 84F86D30 		strb	r3, [r4, #109]
 369:Src/aspep.c   ****   pHandle->Capabilities.TXA_maxSize = MIN(pHandle->Capabilities.TXA_maxSize, MasterCapabilities.TXA
 1970              		.loc 1 369 37 view .LVU702
 1971 020a 84F86E10 		strb	r1, [r4, #110]
 370:Src/aspep.c   **** 
 1972              		.loc 1 370 3 is_stmt 1 view .LVU703
 370:Src/aspep.c   **** 
 1973              		.loc 1 370 37 is_stmt 0 view .LVU704
 1974 020e 84F86F60 		strb	r6, [r4, #111]
 372:Src/aspep.c   ****    /* Data packet the controller can send is bigger than performer can receive */
 1975              		.loc 1 372 3 is_stmt 1 view .LVU705
 372:Src/aspep.c   ****    /* Data packet the controller can send is bigger than performer can receive */
 1976              		.loc 1 372 6 is_stmt 0 view .LVU706
 1977 0212 A1D8     		bhi	.L101
 374:Src/aspep.c   ****    /* Sync packet size alignement is required in order for the controller to be able to store it, a
 1978              		.loc 1 374 4 view .LVU707
 1979 0214 9D42     		cmp	r5, r3
 1980 0216 9FD8     		bhi	.L101
 377:Src/aspep.c   ****    /* Async packet the performer can send is bigger than the controller can receive (but controller
 1981              		.loc 1 377 4 view .LVU708
 1982 0218 7745     		cmp	r7, lr
 1983 021a 9DD8     		bhi	.L101
 380:Src/aspep.c   ****    /* For the time being, controller version has to match performer version */
 1984              		.loc 1 380 4 view .LVU709
 1985 021c C145     		cmp	r9, r8
 1986 021e 9BD8     		bhi	.L101
 382:Src/aspep.c   ****   {
 1987              		.loc 1 382 4 view .LVU710
 1988 0220 94F87000 		ldrb	r0, [r4, #112]	@ zero_extendqisi2
 1989              	.LVL148:
 382:Src/aspep.c   ****   {
 1990              		.loc 1 382 4 view .LVU711
 1991 0224 C2F30212 		ubfx	r2, r2, #4, #3
 1992              	.LVL149:
 382:Src/aspep.c   ****   {
 1993              		.loc 1 382 4 view .LVU712
 1994 0228 9042     		cmp	r0, r2
 1995 022a 95D1     		bne	.L101
ARM GAS  C:\Users\ep_ygh\AppData\Local\Temp\ccopCd9W.s 			page 65


 391:Src/aspep.c   **** }
 1996              		.loc 1 391 3 is_stmt 1 view .LVU713
 1997              	.LVL150:
 391:Src/aspep.c   **** }
 1998              		.loc 1 391 3 is_stmt 0 view .LVU714
 1999              	.LBE214:
 2000              	.LBE213:
 698:Src/aspep.c   ****               pSupHandle->txAsyncMaxPayload = (pHandle->Capabilities.TXA_maxSize) * (uint16_t)64U;
 2001              		.loc 1 698 15 is_stmt 1 view .LVU715
 698:Src/aspep.c   ****               pSupHandle->txAsyncMaxPayload = (pHandle->Capabilities.TXA_maxSize) * (uint16_t)64U;
 2002              		.loc 1 698 44 is_stmt 0 view .LVU716
 2003 022c 4A1C     		adds	r2, r1, #1
 700:Src/aspep.c   ****               pHandle->ASPEP_State = ASPEP_CONFIGURED;
 2004              		.loc 1 700 37 view .LVU717
 2005 022e 0133     		adds	r3, r3, #1
 698:Src/aspep.c   ****               pSupHandle->txAsyncMaxPayload = (pHandle->Capabilities.TXA_maxSize) * (uint16_t)64U;
 2006              		.loc 1 698 44 view .LVU718
 2007 0230 D2B2     		uxtb	r2, r2
 700:Src/aspep.c   ****               pHandle->ASPEP_State = ASPEP_CONFIGURED;
 2008              		.loc 1 700 37 view .LVU719
 2009 0232 DBB2     		uxtb	r3, r3
 698:Src/aspep.c   ****               pSupHandle->txAsyncMaxPayload = (pHandle->Capabilities.TXA_maxSize) * (uint16_t)64U;
 2010              		.loc 1 698 44 view .LVU720
 2011 0234 5201     		lsls	r2, r2, #5
 699:Src/aspep.c   ****               pHandle->maxRXPayload = (pHandle->Capabilities.RX_maxSize + (uint16_t)1U) * (uint16_t
 2012              		.loc 1 699 45 view .LVU721
 2013 0236 B601     		lsls	r6, r6, #6
 700:Src/aspep.c   ****               pHandle->ASPEP_State = ASPEP_CONFIGURED;
 2014              		.loc 1 700 37 view .LVU722
 2015 0238 5B01     		lsls	r3, r3, #5
 701:Src/aspep.c   ****             }
 2016              		.loc 1 701 36 view .LVU723
 2017 023a 0121     		movs	r1, #1
 698:Src/aspep.c   ****               pSupHandle->txAsyncMaxPayload = (pHandle->Capabilities.TXA_maxSize) * (uint16_t)64U;
 2018              		.loc 1 698 44 view .LVU724
 2019 023c A281     		strh	r2, [r4, #12]	@ movhi
 699:Src/aspep.c   ****               pHandle->maxRXPayload = (pHandle->Capabilities.RX_maxSize + (uint16_t)1U) * (uint16_t
 2020              		.loc 1 699 15 is_stmt 1 view .LVU725
 699:Src/aspep.c   ****               pHandle->maxRXPayload = (pHandle->Capabilities.RX_maxSize + (uint16_t)1U) * (uint16_t
 2021              		.loc 1 699 45 is_stmt 0 view .LVU726
 2022 023e E681     		strh	r6, [r4, #14]	@ movhi
 700:Src/aspep.c   ****               pHandle->ASPEP_State = ASPEP_CONFIGURED;
 2023              		.loc 1 700 15 is_stmt 1 view .LVU727
 700:Src/aspep.c   ****               pHandle->ASPEP_State = ASPEP_CONFIGURED;
 2024              		.loc 1 700 37 is_stmt 0 view .LVU728
 2025 0240 A4F85E30 		strh	r3, [r4, #94]	@ movhi
 701:Src/aspep.c   ****             }
 2026              		.loc 1 701 15 is_stmt 1 view .LVU729
 701:Src/aspep.c   ****             }
 2027              		.loc 1 701 36 is_stmt 0 view .LVU730
 2028 0244 84F86410 		strb	r1, [r4, #100]
 2029 0248 86E7     		b	.L101
 2030              	.LVL151:
 2031              	.L105:
 713:Src/aspep.c   ****             ASPEP_sendPing(pHandle, ASPEP_PING_RESET, packetNumber);
 2032              		.loc 1 713 13 is_stmt 1 view .LVU731
 714:Src/aspep.c   ****           }
ARM GAS  C:\Users\ep_ygh\AppData\Local\Temp\ccopCd9W.s 			page 66


 2033              		.loc 1 714 13 view .LVU732
 2034 024a C2F30F32 		ubfx	r2, r2, #12, #16
 2035              	.LVL152:
 714:Src/aspep.c   ****           }
 2036              		.loc 1 714 13 is_stmt 0 view .LVU733
 2037 024e 3146     		mov	r1, r6
 2038              	.LVL153:
 714:Src/aspep.c   ****           }
 2039              		.loc 1 714 13 view .LVU734
 2040 0250 FFF7FEFF 		bl	ASPEP_sendPing
 2041              	.LVL154:
 670:Src/aspep.c   **** #ifdef NULL_PTR_CHECK_ASP
 2042              		.loc 1 670 12 view .LVU735
 2043 0254 3546     		mov	r5, r6
 2044 0256 E6E6     		b	.L78
 2045              	.LVL155:
 2046              	.L107:
 768:Src/aspep.c   ****             ASPEP_sendPing(pHandle, ASPEP_PING_CFG, packetNumber);
 2047              		.loc 1 768 13 is_stmt 1 view .LVU736
 769:Src/aspep.c   ****           }
 2048              		.loc 1 769 13 view .LVU737
 2049 0258 427F     		ldrb	r2, [r0, #29]	@ zero_extendqisi2
 2050              	.LVL156:
 769:Src/aspep.c   ****           }
 2051              		.loc 1 769 13 is_stmt 0 view .LVU738
 2052 025a 0121     		movs	r1, #1
 2053              	.LVL157:
 769:Src/aspep.c   ****           }
 2054              		.loc 1 769 13 view .LVU739
 2055 025c FFF7FEFF 		bl	ASPEP_sendPing
 2056              	.LVL158:
 769:Src/aspep.c   ****           }
 2057              		.loc 1 769 13 view .LVU740
 2058 0260 E1E6     		b	.L78
 2059              	.LVL159:
 2060              	.L109:
 2061              	.LBB215:
 2062              	.LBB208:
 374:Src/aspep.c   ****    /* Sync packet size alignement is required in order for the controller to be able to store it, a
 2063              		.loc 1 374 4 view .LVU741
 2064 0262 8842     		cmp	r0, r1
 2065 0264 3FF675AF 		bhi	.L84
 377:Src/aspep.c   ****    /* Async packet the performer can send is bigger than the controller can receive (but controller
 2066              		.loc 1 377 4 view .LVU742
 2067 0268 B445     		cmp	ip, r6
 2068 026a 3FF672AF 		bhi	.L84
 380:Src/aspep.c   ****    /* For the time being, controller version has to match performer version */
 2069              		.loc 1 380 4 view .LVU743
 2070 026e BE45     		cmp	lr, r7
 2071 0270 3FF66FAF 		bhi	.L84
 382:Src/aspep.c   ****   {
 2072              		.loc 1 382 4 view .LVU744
 2073 0274 94F87030 		ldrb	r3, [r4, #112]	@ zero_extendqisi2
 2074              	.LVL160:
 382:Src/aspep.c   ****   {
 2075              		.loc 1 382 4 view .LVU745
 2076 0278 C2F30212 		ubfx	r2, r2, #4, #3
ARM GAS  C:\Users\ep_ygh\AppData\Local\Temp\ccopCd9W.s 			page 67


 2077              	.LVL161:
 382:Src/aspep.c   ****   {
 2078              		.loc 1 382 4 view .LVU746
 2079 027c 9342     		cmp	r3, r2
 2080 027e 7FF468AF 		bne	.L84
 2081 0282 69E7     		b	.L101
 2082              	.LVL162:
 2083              	.L110:
 382:Src/aspep.c   ****   {
 2084              		.loc 1 382 4 view .LVU747
 2085              	.LBE208:
 2086              	.LBE215:
 2087              	.LBB216:
 2088              	.LBB211:
 374:Src/aspep.c   ****    /* Sync packet size alignement is required in order for the controller to be able to store it, a
 2089              		.loc 1 374 4 view .LVU748
 2090 0284 8842     		cmp	r0, r1
 2091 0286 98D8     		bhi	.L86
 377:Src/aspep.c   ****    /* Async packet the performer can send is bigger than the controller can receive (but controller
 2092              		.loc 1 377 4 view .LVU749
 2093 0288 E645     		cmp	lr, ip
 2094 028a 96D8     		bhi	.L86
 380:Src/aspep.c   ****    /* For the time being, controller version has to match performer version */
 2095              		.loc 1 380 4 view .LVU750
 2096 028c B845     		cmp	r8, r7
 2097 028e 94D8     		bhi	.L86
 382:Src/aspep.c   ****   {
 2098              		.loc 1 382 4 view .LVU751
 2099 0290 94F87050 		ldrb	r5, [r4, #112]	@ zero_extendqisi2
 2100 0294 C2F30212 		ubfx	r2, r2, #4, #3
 2101              	.LVL163:
 382:Src/aspep.c   ****   {
 2102              		.loc 1 382 4 view .LVU752
 2103              	.LBE211:
 2104              	.LBE216:
 758:Src/aspep.c   ****             }
 2105              		.loc 1 758 36 view .LVU753
 2106 0298 AB1A     		subs	r3, r5, r2
 2107              	.LVL164:
 758:Src/aspep.c   ****             }
 2108              		.loc 1 758 36 view .LVU754
 2109 029a 5D42     		rsbs	r5, r3, #0
 2110 029c 5D41     		adcs	r5, r5, r3
 2111              	.LBB217:
 2112              	.LBB212:
 2113 029e 8CE7     		b	.L86
 2114              	.L112:
 2115              		.align	2
 2116              	.L111:
 2117 02a0 00000000 		.word	.LANCHOR0
 2118 02a4 00000000 		.word	.LANCHOR1
 2119              	.LBE212:
 2120              	.LBE217:
 2121              		.cfi_endproc
 2122              	.LFE1101:
 2124              		.section	.text.ASPEP_HWDataReceivedIT,"ax",%progbits
 2125              		.align	1
ARM GAS  C:\Users\ep_ygh\AppData\Local\Temp\ccopCd9W.s 			page 68


 2126              		.p2align 2,,3
 2127              		.global	ASPEP_HWDataReceivedIT
 2128              		.syntax unified
 2129              		.thumb
 2130              		.thumb_func
 2132              	ASPEP_HWDataReceivedIT:
 2133              	.LVL165:
 2134              	.LFB1102:
 825:Src/aspep.c   **** 
 826:Src/aspep.c   **** /**
 827:Src/aspep.c   ****   * @brief  Processes the received data packet.
 828:Src/aspep.c   ****   *
 829:Src/aspep.c   ****   * This function is called once DMA has transfered the configure number of byte.
 830:Src/aspep.c   ****   * Upon reception of a new packet the DMA will be re-configured only once the answer has been sent
 831:Src/aspep.c   ****   * This is mandatory to avoid a race condition in case of a new packet is received while executing
 832:Src/aspep.c   ****   * If the packet received contains an error in the header, the HW IP will be re-synchronised first
 833:Src/aspep.c   ****   *
 834:Src/aspep.c   ****   * @param  *pHandle Handler of the current instance of the ASPEP component
 835:Src/aspep.c   ****   */
 836:Src/aspep.c   **** void ASPEP_HWDataReceivedIT(ASPEP_Handle_t *pHandle)
 837:Src/aspep.c   **** {
 2135              		.loc 1 837 1 is_stmt 1 view -0
 2136              		.cfi_startproc
 2137              		@ args = 0, pretend = 0, frame = 0
 2138              		@ frame_needed = 0, uses_anonymous_args = 0
 838:Src/aspep.c   **** #ifdef NULL_PTR_CHECK_ASP
 839:Src/aspep.c   ****   if (MC_NULL == pHandle)
 840:Src/aspep.c   ****   {
 841:Src/aspep.c   ****     /* Nothing to do */
 842:Src/aspep.c   ****   }
 843:Src/aspep.c   ****   else
 844:Src/aspep.c   ****   {
 845:Src/aspep.c   **** #endif
 846:Src/aspep.c   ****     switch (pHandle->ASPEP_TL_State)
 2139              		.loc 1 846 5 view .LVU756
 837:Src/aspep.c   **** #ifdef NULL_PTR_CHECK_ASP
 2140              		.loc 1 837 1 is_stmt 0 view .LVU757
 2141 0000 10B5     		push	{r4, lr}
 2142              	.LCFI19:
 2143              		.cfi_def_cfa_offset 8
 2144              		.cfi_offset 4, -8
 2145              		.cfi_offset 14, -4
 2146              		.loc 1 846 20 view .LVU758
 2147 0002 90F86530 		ldrb	r3, [r0, #101]	@ zero_extendqisi2
 837:Src/aspep.c   **** #ifdef NULL_PTR_CHECK_ASP
 2148              		.loc 1 837 1 view .LVU759
 2149 0006 0446     		mov	r4, r0
 2150              		.loc 1 846 5 view .LVU760
 2151 0008 3BB1     		cbz	r3, .L114
 2152 000a 012B     		cmp	r3, #1
 2153 000c 04D1     		bne	.L113
 847:Src/aspep.c   ****     {
 848:Src/aspep.c   ****       case WAITING_PACKET:
 849:Src/aspep.c   ****       {
 850:Src/aspep.c   ****         if (ASPEP_CheckHeaderCRC(*(uint32_t *)pHandle->rxHeader) == true) //cstat !MISRAC2012-Rule-
 851:Src/aspep.c   ****         {
 852:Src/aspep.c   ****           pHandle->rxPacketType = (ASPEP_packetType)(((uint32_t)pHandle->rxHeader[0]) & ID_MASK);
ARM GAS  C:\Users\ep_ygh\AppData\Local\Temp\ccopCd9W.s 			page 69


 853:Src/aspep.c   ****           switch (pHandle->rxPacketType)
 854:Src/aspep.c   ****           {
 855:Src/aspep.c   ****             case DATA_PACKET:
 856:Src/aspep.c   ****             {
 857:Src/aspep.c   ****               //cstat !MISRAC2012-Rule-11.3
 858:Src/aspep.c   ****               pHandle->rxLength = (uint16_t)((*((uint16_t *)pHandle->rxHeader) & 0x1FFF0U) >> (uint
 859:Src/aspep.c   ****               if (0U == pHandle->rxLength) /* data packet with length 0 is a valid packet */
 860:Src/aspep.c   ****               {
 861:Src/aspep.c   ****                 pHandle->NewPacketAvailable = true;
 862:Src/aspep.c   ****                 /* The receiver is not reconfigure right now on purpose to avoid race condition whe
 863:Src/aspep.c   ****                   *  processed in ASPEP_RXframeProcess */
 864:Src/aspep.c   ****               }
 865:Src/aspep.c   ****               else if (pHandle->rxLength <= pHandle->maxRXPayload)
 866:Src/aspep.c   ****               {
 867:Src/aspep.c   ****                 pHandle->fASPEP_receive(pHandle->HWIp, pHandle->rxBuffer,  /* need to read + 2 byte
 868:Src/aspep.c   ****                                         (pHandle->rxLength + ((uint16_t)ASPEP_DATACRC_SIZE * (uint1
 869:Src/aspep.c   ****                 pHandle->ASPEP_TL_State = WAITING_PAYLOAD;
 870:Src/aspep.c   ****               }
 871:Src/aspep.c   ****               else
 872:Src/aspep.c   ****               {
 873:Src/aspep.c   ****                 pHandle->badPacketFlag = ASPEP_BAD_PACKET_SIZE;
 874:Src/aspep.c   ****               }
 875:Src/aspep.c   ****               break;
 876:Src/aspep.c   ****             }
 877:Src/aspep.c   **** 
 878:Src/aspep.c   ****             case BEACON:
 879:Src/aspep.c   ****             case PING:
 880:Src/aspep.c   ****             {
 881:Src/aspep.c   ****               pHandle->NewPacketAvailable = true;
 882:Src/aspep.c   ****               /* The receiver is not reconfigure right now on purpose to avoid race condition when 
 883:Src/aspep.c   ****                 * processed in ASPEP_RXframeProcess */
 884:Src/aspep.c   ****               break;
 885:Src/aspep.c   ****             }
 886:Src/aspep.c   **** 
 887:Src/aspep.c   ****             default:
 888:Src/aspep.c   ****             {
 889:Src/aspep.c   ****               pHandle->badPacketFlag = ASPEP_BAD_PACKET_TYPE;
 890:Src/aspep.c   ****               break;
 891:Src/aspep.c   ****             }
 892:Src/aspep.c   ****           }
 893:Src/aspep.c   ****         }
 894:Src/aspep.c   ****         else
 895:Src/aspep.c   ****         {
 896:Src/aspep.c   ****           pHandle->badPacketFlag = ASPEP_BAD_CRC_HEADER;
 897:Src/aspep.c   ****         }
 898:Src/aspep.c   ****         break;
 899:Src/aspep.c   ****       }
 900:Src/aspep.c   **** 
 901:Src/aspep.c   ****       case WAITING_PAYLOAD:
 902:Src/aspep.c   ****       {
 903:Src/aspep.c   ****         pHandle->ASPEP_TL_State = WAITING_PACKET;
 2154              		.loc 1 903 9 is_stmt 1 view .LVU761
 2155              		.loc 1 903 33 is_stmt 0 view .LVU762
 2156 000e 0022     		movs	r2, #0
 2157 0010 80F86520 		strb	r2, [r0, #101]
 904:Src/aspep.c   ****         /* Payload received, */
 905:Src/aspep.c   ****         pHandle->NewPacketAvailable = true;
ARM GAS  C:\Users\ep_ygh\AppData\Local\Temp\ccopCd9W.s 			page 70


 2158              		.loc 1 905 9 is_stmt 1 view .LVU763
 2159              		.loc 1 905 37 is_stmt 0 view .LVU764
 2160 0014 80F86130 		strb	r3, [r0, #97]
 906:Src/aspep.c   ****         /* The receiver is not reconfigure right now on purpose to avoid race condition when the pa
 907:Src/aspep.c   ****           * processed in ASPEP_RXframeProcess */
 908:Src/aspep.c   ****         break;
 2161              		.loc 1 908 9 is_stmt 1 view .LVU765
 2162              	.L113:
 909:Src/aspep.c   ****       }
 910:Src/aspep.c   **** 
 911:Src/aspep.c   ****       default:
 912:Src/aspep.c   ****         break;
 913:Src/aspep.c   ****     }
 914:Src/aspep.c   **** #ifdef NULL_PTR_CHECK_ASP
 915:Src/aspep.c   ****   }
 916:Src/aspep.c   **** #endif
 917:Src/aspep.c   **** }
 2163              		.loc 1 917 1 is_stmt 0 view .LVU766
 2164 0018 10BD     		pop	{r4, pc}
 2165              	.L114:
 850:Src/aspep.c   ****         {
 2166              		.loc 1 850 9 is_stmt 1 view .LVU767
 850:Src/aspep.c   ****         {
 2167              		.loc 1 850 13 is_stmt 0 view .LVU768
 2168 001a C169     		ldr	r1, [r0, #28]
 2169              	.LVL166:
 2170              	.LBB218:
 2171              	.LBI218:
 151:Src/aspep.c   **** {
 2172              		.loc 1 151 13 is_stmt 1 view .LVU769
 2173              	.LBB219:
 153:Src/aspep.c   **** 
 2174              		.loc 1 153 3 view .LVU770
 156:Src/aspep.c   ****   crc = CRC4_Lookup8[crc ^ (uint8_t)((header >> 8U) & 0xffU)];
 2175              		.loc 1 156 3 view .LVU771
 157:Src/aspep.c   ****   crc = CRC4_Lookup8[crc ^ (uint8_t)((header >> 16U) & 0xffU)];
 2176              		.loc 1 157 3 view .LVU772
 156:Src/aspep.c   ****   crc = CRC4_Lookup8[crc ^ (uint8_t)((header >> 8U) & 0xffU)];
 2177              		.loc 1 156 7 is_stmt 0 view .LVU773
 2178 001c 1E4A     		ldr	r2, .L124
 156:Src/aspep.c   ****   crc = CRC4_Lookup8[crc ^ (uint8_t)((header >> 8U) & 0xffU)];
 2179              		.loc 1 156 26 view .LVU774
 2180 001e CBB2     		uxtb	r3, r1
 157:Src/aspep.c   ****   crc = CRC4_Lookup8[crc ^ (uint8_t)((header >> 16U) & 0xffU)];
 2181              		.loc 1 157 26 view .LVU775
 2182 0020 D35C     		ldrb	r3, [r2, r3]	@ zero_extendqisi2
 2183 0022 83EA1123 		eor	r3, r3, r1, lsr #8
 2184 0026 DBB2     		uxtb	r3, r3
 2185              	.LVL167:
 158:Src/aspep.c   ****   crc = CRC4_Lookup8[crc ^ (uint8_t)((header >> 24U) & 0xffU)];
 2186              		.loc 1 158 3 is_stmt 1 view .LVU776
 158:Src/aspep.c   ****   crc = CRC4_Lookup8[crc ^ (uint8_t)((header >> 24U) & 0xffU)];
 2187              		.loc 1 158 26 is_stmt 0 view .LVU777
 2188 0028 D35C     		ldrb	r3, [r2, r3]	@ zero_extendqisi2
 2189              	.LVL168:
 158:Src/aspep.c   ****   crc = CRC4_Lookup8[crc ^ (uint8_t)((header >> 24U) & 0xffU)];
 2190              		.loc 1 158 26 view .LVU778
ARM GAS  C:\Users\ep_ygh\AppData\Local\Temp\ccopCd9W.s 			page 71


 2191 002a 83EA1143 		eor	r3, r3, r1, lsr #16
 2192 002e DBB2     		uxtb	r3, r3
 2193              	.LVL169:
 159:Src/aspep.c   **** #else /* CRC4_PER_NIBBLE */
 2194              		.loc 1 159 3 is_stmt 1 view .LVU779
 159:Src/aspep.c   **** #else /* CRC4_PER_NIBBLE */
 2195              		.loc 1 159 26 is_stmt 0 view .LVU780
 2196 0030 D35C     		ldrb	r3, [r2, r3]	@ zero_extendqisi2
 2197              	.LVL170:
 159:Src/aspep.c   **** #else /* CRC4_PER_NIBBLE */
 2198              		.loc 1 159 26 view .LVU781
 2199 0032 83EA1161 		eor	r1, r3, r1, lsr #24
 2200              	.LVL171:
 171:Src/aspep.c   **** }
 2201              		.loc 1 171 3 is_stmt 1 view .LVU782
 171:Src/aspep.c   **** }
 2202              		.loc 1 171 3 is_stmt 0 view .LVU783
 2203              	.LBE219:
 2204              	.LBE218:
 850:Src/aspep.c   ****         {
 2205              		.loc 1 850 12 view .LVU784
 2206 0036 535C     		ldrb	r3, [r2, r1]	@ zero_extendqisi2
 2207 0038 5BB9     		cbnz	r3, .L117
 852:Src/aspep.c   ****           switch (pHandle->rxPacketType)
 2208              		.loc 1 852 11 is_stmt 1 view .LVU785
 2209 003a 037F     		ldrb	r3, [r0, #28]	@ zero_extendqisi2
 2210 003c 03F00F03 		and	r3, r3, #15
 2211 0040 062B     		cmp	r3, #6
 852:Src/aspep.c   ****           switch (pHandle->rxPacketType)
 2212              		.loc 1 852 35 is_stmt 0 view .LVU786
 2213 0042 8366     		str	r3, [r0, #104]
 853:Src/aspep.c   ****           {
 2214              		.loc 1 853 11 is_stmt 1 view .LVU787
 2215 0044 09D8     		bhi	.L118
 2216 0046 042B     		cmp	r3, #4
 2217 0048 1ED8     		bhi	.L119
 2218              	.L120:
 889:Src/aspep.c   ****               break;
 2219              		.loc 1 889 15 view .LVU788
 889:Src/aspep.c   ****               break;
 2220              		.loc 1 889 38 is_stmt 0 view .LVU789
 2221 004a 0123     		movs	r3, #1
 2222 004c 84F86230 		strb	r3, [r4, #98]
 890:Src/aspep.c   ****             }
 2223              		.loc 1 890 15 is_stmt 1 view .LVU790
 2224              		.loc 1 917 1 is_stmt 0 view .LVU791
 2225 0050 10BD     		pop	{r4, pc}
 2226              	.L117:
 896:Src/aspep.c   ****         }
 2227              		.loc 1 896 11 is_stmt 1 view .LVU792
 896:Src/aspep.c   ****         }
 2228              		.loc 1 896 34 is_stmt 0 view .LVU793
 2229 0052 0423     		movs	r3, #4
 2230 0054 80F86230 		strb	r3, [r0, #98]
 2231              		.loc 1 917 1 view .LVU794
 2232 0058 10BD     		pop	{r4, pc}
 2233              	.L118:
ARM GAS  C:\Users\ep_ygh\AppData\Local\Temp\ccopCd9W.s 			page 72


 2234              		.loc 1 917 1 view .LVU795
 2235 005a 092B     		cmp	r3, #9
 2236 005c F5D1     		bne	.L120
 858:Src/aspep.c   ****               if (0U == pHandle->rxLength) /* data packet with length 0 is a valid packet */
 2237              		.loc 1 858 15 is_stmt 1 view .LVU796
 858:Src/aspep.c   ****               if (0U == pHandle->rxLength) /* data packet with length 0 is a valid packet */
 2238              		.loc 1 858 92 is_stmt 0 view .LVU797
 2239 005e 838B     		ldrh	r3, [r0, #28]
 2240 0060 1B09     		lsrs	r3, r3, #4
 858:Src/aspep.c   ****               if (0U == pHandle->rxLength) /* data packet with length 0 is a valid packet */
 2241              		.loc 1 858 33 view .LVU798
 2242 0062 A0F85C30 		strh	r3, [r0, #92]	@ movhi
 859:Src/aspep.c   ****               {
 2243              		.loc 1 859 15 is_stmt 1 view .LVU799
 859:Src/aspep.c   ****               {
 2244              		.loc 1 859 18 is_stmt 0 view .LVU800
 2245 0066 7BB1     		cbz	r3, .L119
 865:Src/aspep.c   ****               {
 2246              		.loc 1 865 20 is_stmt 1 view .LVU801
 865:Src/aspep.c   ****               {
 2247              		.loc 1 865 23 is_stmt 0 view .LVU802
 2248 0068 B0F85E20 		ldrh	r2, [r0, #94]
 2249 006c 9A42     		cmp	r2, r3
 2250 006e 0FD3     		bcc	.L122
 867:Src/aspep.c   ****                                         (pHandle->rxLength + ((uint16_t)ASPEP_DATACRC_SIZE * (uint1
 2251              		.loc 1 867 17 is_stmt 1 view .LVU803
 2252 0070 90F86C20 		ldrb	r2, [r0, #108]	@ zero_extendqisi2
 2253 0074 8169     		ldr	r1, [r0, #24]
 2254 0076 4069     		ldr	r0, [r0, #20]
 2255              	.LVL172:
 867:Src/aspep.c   ****                                         (pHandle->rxLength + ((uint16_t)ASPEP_DATACRC_SIZE * (uint1
 2256              		.loc 1 867 17 is_stmt 0 view .LVU804
 2257 0078 03EB4202 		add	r2, r3, r2, lsl #1
 2258 007c 636D     		ldr	r3, [r4, #84]
 2259 007e 9847     		blx	r3
 2260              	.LVL173:
 869:Src/aspep.c   ****               }
 2261              		.loc 1 869 17 is_stmt 1 view .LVU805
 869:Src/aspep.c   ****               }
 2262              		.loc 1 869 41 is_stmt 0 view .LVU806
 2263 0080 0123     		movs	r3, #1
 2264 0082 84F86530 		strb	r3, [r4, #101]
 2265              		.loc 1 917 1 view .LVU807
 2266 0086 10BD     		pop	{r4, pc}
 2267              	.LVL174:
 2268              	.L119:
 881:Src/aspep.c   ****               /* The receiver is not reconfigure right now on purpose to avoid race condition when 
 2269              		.loc 1 881 15 is_stmt 1 view .LVU808
 881:Src/aspep.c   ****               /* The receiver is not reconfigure right now on purpose to avoid race condition when 
 2270              		.loc 1 881 43 is_stmt 0 view .LVU809
 2271 0088 0123     		movs	r3, #1
 2272 008a 84F86130 		strb	r3, [r4, #97]
 884:Src/aspep.c   ****             }
 2273              		.loc 1 884 15 is_stmt 1 view .LVU810
 2274              		.loc 1 917 1 is_stmt 0 view .LVU811
 2275 008e 10BD     		pop	{r4, pc}
 2276              	.L122:
ARM GAS  C:\Users\ep_ygh\AppData\Local\Temp\ccopCd9W.s 			page 73


 873:Src/aspep.c   ****               }
 2277              		.loc 1 873 17 is_stmt 1 view .LVU812
 873:Src/aspep.c   ****               }
 2278              		.loc 1 873 40 is_stmt 0 view .LVU813
 2279 0090 0223     		movs	r3, #2
 2280 0092 80F86230 		strb	r3, [r0, #98]
 2281              		.loc 1 917 1 view .LVU814
 2282 0096 10BD     		pop	{r4, pc}
 2283              	.L125:
 2284              		.align	2
 2285              	.L124:
 2286 0098 00000000 		.word	.LANCHOR0
 2287              		.cfi_endproc
 2288              	.LFE1102:
 2290              		.section	.text.ASPEP_HWDMAReset,"ax",%progbits
 2291              		.align	1
 2292              		.p2align 2,,3
 2293              		.global	ASPEP_HWDMAReset
 2294              		.syntax unified
 2295              		.thumb
 2296              		.thumb_func
 2298              	ASPEP_HWDMAReset:
 2299              	.LVL175:
 2300              	.LFB1103:
 918:Src/aspep.c   **** 
 919:Src/aspep.c   **** /**
 920:Src/aspep.c   ****   * @brief  Resets DMA after debugger has stopped the MCU.
 921:Src/aspep.c   ****   *
 922:Src/aspep.c   ****   * @param  *pHandle Handler of the current instance of the ASPEP component
 923:Src/aspep.c   ****   */
 924:Src/aspep.c   **** void ASPEP_HWDMAReset(ASPEP_Handle_t *pHandle)
 925:Src/aspep.c   **** {
 2301              		.loc 1 925 1 is_stmt 1 view -0
 2302              		.cfi_startproc
 2303              		@ args = 0, pretend = 0, frame = 0
 2304              		@ frame_needed = 0, uses_anonymous_args = 0
 2305              		@ link register save eliminated.
 926:Src/aspep.c   **** #ifdef NULL_PTR_CHECK_ASP
 927:Src/aspep.c   ****   if (NULL == pHandle)
 928:Src/aspep.c   ****   {
 929:Src/aspep.c   ****     /* Nothing to do */
 930:Src/aspep.c   ****   }
 931:Src/aspep.c   ****   else
 932:Src/aspep.c   ****   {
 933:Src/aspep.c   **** #endif
 934:Src/aspep.c   ****     /* We must reset the RX state machine to be sure to not be in Waiting packet state */
 935:Src/aspep.c   ****     /* Otherwise the arrival of a new packet will trigger a NewPacketAvailable despite */
 936:Src/aspep.c   ****     /* the fact that bytes have been lost because of overrun (debugger paused for instance) */
 937:Src/aspep.c   ****     pHandle->ASPEP_TL_State = WAITING_PACKET;
 2306              		.loc 1 937 5 view .LVU816
 925:Src/aspep.c   **** #ifdef NULL_PTR_CHECK_ASP
 2307              		.loc 1 925 1 is_stmt 0 view .LVU817
 2308 0000 0146     		mov	r1, r0
 2309              		.loc 1 937 29 view .LVU818
 2310 0002 0022     		movs	r2, #0
 2311 0004 80F86520 		strb	r2, [r0, #101]
 938:Src/aspep.c   ****     pHandle->fASPEP_receive(pHandle->HWIp, pHandle->rxHeader, ASPEP_HEADER_SIZE);
ARM GAS  C:\Users\ep_ygh\AppData\Local\Temp\ccopCd9W.s 			page 74


 2312              		.loc 1 938 5 is_stmt 1 view .LVU819
 2313 0008 436D     		ldr	r3, [r0, #84]
 2314 000a 4069     		ldr	r0, [r0, #20]
 2315              	.LVL176:
 2316              		.loc 1 938 5 is_stmt 0 view .LVU820
 2317 000c 0422     		movs	r2, #4
 2318 000e 1C31     		adds	r1, r1, #28
 2319              	.LVL177:
 2320              		.loc 1 938 5 view .LVU821
 2321 0010 1847     		bx	r3	@ indirect register sibling call
 2322              	.LVL178:
 2323              		.loc 1 938 5 view .LVU822
 2324              		.cfi_endproc
 2325              	.LFE1103:
 2327 0012 00BF     		.section	.rodata.CRC4_Lookup4,"a"
 2328              		.align	2
 2329              		.set	.LANCHOR1,. + 0
 2332              	CRC4_Lookup4:
 2333 0000 00070E09 		.ascii	"\000\007\016\011\013\014\005\002\001\006\017\010\012"
 2333      0B0C0502 
 2333      01060F08 
 2333      0A
 2334 000d 0D0403   		.ascii	"\015\004\003"
 2335              		.section	.rodata.CRC4_Lookup8,"a"
 2336              		.align	2
 2337              		.set	.LANCHOR0,. + 0
 2340              	CRC4_Lookup8:
 2341 0000 00020406 		.ascii	"\000\002\004\006\010\012\014\016\007\005\003\001\017"
 2341      080A0C0E 
 2341      07050301 
 2341      0F
 2342 000d 0D0B0907 		.ascii	"\015\013\011\007\005\003\001\017\015\013\011\000\002"
 2342      0503010F 
 2342      0D0B0900 
 2342      02
 2343 001a 0406080A 		.ascii	"\004\006\010\012\014\016\016\014\012\010\006\004\002"
 2343      0C0E0E0C 
 2343      0A080604 
 2343      02
 2344 0027 00090B0D 		.ascii	"\000\011\013\015\017\001\003\005\007\011\013\015\017"
 2344      0F010305 
 2344      07090B0D 
 2344      0F
 2345 0034 01030507 		.ascii	"\001\003\005\007\016\014\012\010\006\004\002\000\013"
 2345      0E0C0A08 
 2345      06040200 
 2345      0B
 2346 0041 090F0D03 		.ascii	"\011\017\015\003\001\007\005\014\016\010\012\004\006"
 2346      0107050C 
 2346      0E080A04 
 2346      06
 2347 004e 00020C0E 		.ascii	"\000\002\014\016\010\012\004\006\000\002\013\011\017"
 2347      080A0406 
 2347      00020B09 
 2347      0F
 2348 005b 0D030107 		.ascii	"\015\003\001\007\005\005\007\001\003\015\017\011\013"
 2348      05050701 
ARM GAS  C:\Users\ep_ygh\AppData\Local\Temp\ccopCd9W.s 			page 75


 2348      030D0F09 
 2348      0B
 2349 0068 02000604 		.ascii	"\002\000\006\004\012\010\016\014\002\000\006\004\012"
 2349      0A080E0C 
 2349      02000604 
 2349      0A
 2350 0075 080E0C05 		.ascii	"\010\016\014\005\007\001\003\015\017\011\013\001\003"
 2350      0701030D 
 2350      0F090B01 
 2350      03
 2351 0082 0507090B 		.ascii	"\005\007\011\013\015\017\006\004\002\000\016\014\012"
 2351      0D0F0604 
 2351      02000E0C 
 2351      0A
 2352 008f 08060402 		.ascii	"\010\006\004\002\000\016\014\012\010\001\003\005\007"
 2352      000E0C0A 
 2352      08010305 
 2352      07
 2353 009c 090B0D0F 		.ascii	"\011\013\015\017\017\015\013\011\007\005\003\001\010"
 2353      0F0D0B09 
 2353      07050301 
 2353      08
 2354 00a9 0A0C0E00 		.ascii	"\012\014\016\000\002\004\006\010\012\014\016\000\002"
 2354      02040608 
 2354      0A0C0E00 
 2354      02
 2355 00b6 04060F0D 		.ascii	"\004\006\017\015\013\011\007\005\003\001\012\010\016"
 2355      0B090705 
 2355      03010A08 
 2355      0E
 2356 00c3 0C020006 		.ascii	"\014\002\000\006\004\015\017\011\013\005\007\001\003"
 2356      040D0F09 
 2356      0B050701 
 2356      03
 2357 00d0 0D0F090B 		.ascii	"\015\017\011\013\005\007\001\003\012\010\016\014\002"
 2357      05070103 
 2357      0A080E0C 
 2357      02
 2358 00dd 00060404 		.ascii	"\000\006\004\004\006\000\002\014\016\010\012\003\001"
 2358      0600020C 
 2358      0E080A03 
 2358      01
 2359 00ea 07050B09 		.ascii	"\007\005\013\011\017\015\003\001\007\005\013\011\017"
 2359      0F0D0301 
 2359      07050B09 
 2359      0F
 2360 00f7 0D040600 		.ascii	"\015\004\006\000\002\014\016\010\012"
 2360      020C0E08 
 2360      0A
 2361              		.text
 2362              	.Letext0:
 2363              		.file 3 "c:\\programdata\\chocolatey\\lib\\gcc-arm-embedded\\tools\\gcc-arm-none-eabi-10.3-2021.10
 2364              		.file 4 "c:\\programdata\\chocolatey\\lib\\gcc-arm-embedded\\tools\\gcc-arm-none-eabi-10.3-2021.10
 2365              		.file 5 "Drivers/STM32L4xx_HAL_Driver/Inc/stm32l4xx_ll_tim.h"
 2366              		.file 6 "Drivers/STM32L4xx_HAL_Driver/Inc/stm32l4xx_ll_dma.h"
 2367              		.file 7 "MCSDK_v6.2.1-Full/MotorControl/MCSDK/MCLib/Any/Inc/mcptl.h"
 2368              		.file 8 "Inc/aspep.h"
ARM GAS  C:\Users\ep_ygh\AppData\Local\Temp\ccopCd9W.s 			page 76


ARM GAS  C:\Users\ep_ygh\AppData\Local\Temp\ccopCd9W.s 			page 77

