ARM GAS  C:\Users\ep_ygh\AppData\Local\Temp\ccVL2nhg.s 			page 1


   1              		.cpu cortex-m4
   2              		.arch armv7e-m
   3              		.fpu fpv4-sp-d16
   4              		.eabi_attribute 27, 1
   5              		.eabi_attribute 28, 1
   6              		.eabi_attribute 20, 1
   7              		.eabi_attribute 21, 1
   8              		.eabi_attribute 23, 3
   9              		.eabi_attribute 24, 1
  10              		.eabi_attribute 25, 1
  11              		.eabi_attribute 26, 1
  12              		.eabi_attribute 30, 2
  13              		.eabi_attribute 34, 1
  14              		.eabi_attribute 18, 4
  15              		.file	"dac_ui.c"
  16              		.text
  17              	.Ltext0:
  18              		.cfi_sections	.debug_frame
  19              		.section	.text.DAC_Init,"ax",%progbits
  20              		.align	1
  21              		.p2align 2,,3
  22              		.weak	DAC_Init
  23              		.syntax unified
  24              		.thumb
  25              		.thumb_func
  27              	DAC_Init:
  28              	.LVL0:
  29              	.LFB1088:
  30              		.file 1 "Src/dac_ui.c"
   1:Src/dac_ui.c  **** 
   2:Src/dac_ui.c  **** /**
   3:Src/dac_ui.c  ****   ******************************************************************************
   4:Src/dac_ui.c  ****   * @file    dac_ui.c
   5:Src/dac_ui.c  ****   * @author  Motor Control SDK Team, ST Microelectronics
   6:Src/dac_ui.c  ****   * @brief   This file provides firmware functions that implement the following features
   7:Src/dac_ui.c  ****   *          of the dac component of the Motor Control SDK:
   8:Src/dac_ui.c  ****   *           + dac or virtual dac initialization
   9:Src/dac_ui.c  ****   *           + dac or virtual dac execution
  10:Src/dac_ui.c  ****   *
  11:Src/dac_ui.c  ****   ******************************************************************************
  12:Src/dac_ui.c  ****   * @attention
  13:Src/dac_ui.c  ****   *
  14:Src/dac_ui.c  ****   * <h2><center>&copy; Copyright (c) 2023 STMicroelectronics.
  15:Src/dac_ui.c  ****   * All rights reserved.</center></h2>
  16:Src/dac_ui.c  ****   *
  17:Src/dac_ui.c  ****   * This software component is licensed by ST under Ultimate Liberty license
  18:Src/dac_ui.c  ****   * SLA0044, the "License"; You may not use this file except in compliance with
  19:Src/dac_ui.c  ****   * the License. You may obtain a copy of the License at:
  20:Src/dac_ui.c  ****   *                             www.st.com/SLA0044
  21:Src/dac_ui.c  ****   *
  22:Src/dac_ui.c  ****   ******************************************************************************
  23:Src/dac_ui.c  ****   */
  24:Src/dac_ui.c  **** 
  25:Src/dac_ui.c  **** /* Includes ------------------------------------------------------------------*/
  26:Src/dac_ui.c  **** #include "mc_type.h"
  27:Src/dac_ui.c  **** #include "dac_ui.h"
  28:Src/dac_ui.c  **** #include "register_interface.h"
ARM GAS  C:\Users\ep_ygh\AppData\Local\Temp\ccVL2nhg.s 			page 2


  29:Src/dac_ui.c  **** 
  30:Src/dac_ui.c  **** #define DACOFF (uint32_t)32768
  31:Src/dac_ui.c  **** 
  32:Src/dac_ui.c  **** /** @addtogroup MCSDK
  33:Src/dac_ui.c  ****   * @{
  34:Src/dac_ui.c  ****   */
  35:Src/dac_ui.c  **** 
  36:Src/dac_ui.c  **** /** @addtogroup MCUI
  37:Src/dac_ui.c  ****   * @{
  38:Src/dac_ui.c  ****   */
  39:Src/dac_ui.c  **** 
  40:Src/dac_ui.c  **** /**
  41:Src/dac_ui.c  ****  * @defgroup DAC_UserInterface DAC User Interface
  42:Src/dac_ui.c  ****  *
  43:Src/dac_ui.c  ****  * @brief DAC User Interface
  44:Src/dac_ui.c  ****  *
  45:Src/dac_ui.c  ****  * @todo Complete Documentation.
  46:Src/dac_ui.c  ****  * @{
  47:Src/dac_ui.c  ****  */
  48:Src/dac_ui.c  **** 
  49:Src/dac_ui.c  **** DAC_Handle_t DAC_Handle;
  50:Src/dac_ui.c  **** 
  51:Src/dac_ui.c  **** /**
  52:Src/dac_ui.c  ****   * @brief  Hardware and software initialization of the DAC object.
  53:Src/dac_ui.c  ****   * @param  pHandle pointer on related component instance.
  54:Src/dac_ui.c  ****   */
  55:Src/dac_ui.c  **** __weak void DAC_Init(DAC_Handle_t *pHandle)
  56:Src/dac_ui.c  **** {
  31              		.loc 1 56 1 view -0
  32              		.cfi_startproc
  33              		@ args = 0, pretend = 0, frame = 0
  34              		@ frame_needed = 0, uses_anonymous_args = 0
  57:Src/dac_ui.c  **** #ifdef NULL_PTR_CHECK_DAC_UI
  58:Src/dac_ui.c  ****   if (MC_NULL == pHandle)
  59:Src/dac_ui.c  ****   {
  60:Src/dac_ui.c  ****     /* Nothing to do */
  61:Src/dac_ui.c  ****   }
  62:Src/dac_ui.c  ****   else
  63:Src/dac_ui.c  ****   {
  64:Src/dac_ui.c  **** #endif
  65:Src/dac_ui.c  ****     /* Enable DAC Channel1 */
  66:Src/dac_ui.c  ****     /* By default send Ia motor 1 */
  67:Src/dac_ui.c  ****     (void)RI_GetPtrReg((MC_REG_I_A + 0x1U), (void *)&pHandle->ptrDataCh[DAC_CH1]); //cstat !MISRAC2
  35              		.loc 1 67 5 view .LVU1
  56:Src/dac_ui.c  **** #ifdef NULL_PTR_CHECK_DAC_UI
  36              		.loc 1 56 1 is_stmt 0 view .LVU2
  37 0000 38B5     		push	{r3, r4, r5, lr}
  38              	.LCFI0:
  39              		.cfi_def_cfa_offset 16
  40              		.cfi_offset 3, -16
  41              		.cfi_offset 4, -12
  42              		.cfi_offset 5, -8
  43              		.cfi_offset 14, -4
  44              	.LBB14:
  45              	.LBB15:
  46              		.file 2 "Drivers/STM32L4xx_HAL_Driver/Inc/stm32l4xx_ll_dac.h"
   1:Drivers/STM32L4xx_HAL_Driver/Inc/stm32l4xx_ll_dac.h **** /**
ARM GAS  C:\Users\ep_ygh\AppData\Local\Temp\ccVL2nhg.s 			page 3


   2:Drivers/STM32L4xx_HAL_Driver/Inc/stm32l4xx_ll_dac.h ****   ******************************************************************************
   3:Drivers/STM32L4xx_HAL_Driver/Inc/stm32l4xx_ll_dac.h ****   * @file    stm32l4xx_ll_dac.h
   4:Drivers/STM32L4xx_HAL_Driver/Inc/stm32l4xx_ll_dac.h ****   * @author  MCD Application Team
   5:Drivers/STM32L4xx_HAL_Driver/Inc/stm32l4xx_ll_dac.h ****   * @brief   Header file of DAC LL module.
   6:Drivers/STM32L4xx_HAL_Driver/Inc/stm32l4xx_ll_dac.h ****   ******************************************************************************
   7:Drivers/STM32L4xx_HAL_Driver/Inc/stm32l4xx_ll_dac.h ****   * @attention
   8:Drivers/STM32L4xx_HAL_Driver/Inc/stm32l4xx_ll_dac.h ****   *
   9:Drivers/STM32L4xx_HAL_Driver/Inc/stm32l4xx_ll_dac.h ****   * Copyright (c) 2017 STMicroelectronics.
  10:Drivers/STM32L4xx_HAL_Driver/Inc/stm32l4xx_ll_dac.h ****   * All rights reserved.
  11:Drivers/STM32L4xx_HAL_Driver/Inc/stm32l4xx_ll_dac.h ****   *
  12:Drivers/STM32L4xx_HAL_Driver/Inc/stm32l4xx_ll_dac.h ****   * This software is licensed under terms that can be found in the LICENSE file
  13:Drivers/STM32L4xx_HAL_Driver/Inc/stm32l4xx_ll_dac.h ****   * in the root directory of this software component.
  14:Drivers/STM32L4xx_HAL_Driver/Inc/stm32l4xx_ll_dac.h ****   * If no LICENSE file comes with this software, it is provided AS-IS.
  15:Drivers/STM32L4xx_HAL_Driver/Inc/stm32l4xx_ll_dac.h ****   *
  16:Drivers/STM32L4xx_HAL_Driver/Inc/stm32l4xx_ll_dac.h ****   ******************************************************************************
  17:Drivers/STM32L4xx_HAL_Driver/Inc/stm32l4xx_ll_dac.h ****   */
  18:Drivers/STM32L4xx_HAL_Driver/Inc/stm32l4xx_ll_dac.h **** 
  19:Drivers/STM32L4xx_HAL_Driver/Inc/stm32l4xx_ll_dac.h **** /* Define to prevent recursive inclusion -------------------------------------*/
  20:Drivers/STM32L4xx_HAL_Driver/Inc/stm32l4xx_ll_dac.h **** #ifndef STM32L4xx_LL_DAC_H
  21:Drivers/STM32L4xx_HAL_Driver/Inc/stm32l4xx_ll_dac.h **** #define STM32L4xx_LL_DAC_H
  22:Drivers/STM32L4xx_HAL_Driver/Inc/stm32l4xx_ll_dac.h **** 
  23:Drivers/STM32L4xx_HAL_Driver/Inc/stm32l4xx_ll_dac.h **** #ifdef __cplusplus
  24:Drivers/STM32L4xx_HAL_Driver/Inc/stm32l4xx_ll_dac.h **** extern "C" {
  25:Drivers/STM32L4xx_HAL_Driver/Inc/stm32l4xx_ll_dac.h **** #endif
  26:Drivers/STM32L4xx_HAL_Driver/Inc/stm32l4xx_ll_dac.h **** 
  27:Drivers/STM32L4xx_HAL_Driver/Inc/stm32l4xx_ll_dac.h **** /* Includes ------------------------------------------------------------------*/
  28:Drivers/STM32L4xx_HAL_Driver/Inc/stm32l4xx_ll_dac.h **** #include "stm32l4xx.h"
  29:Drivers/STM32L4xx_HAL_Driver/Inc/stm32l4xx_ll_dac.h **** 
  30:Drivers/STM32L4xx_HAL_Driver/Inc/stm32l4xx_ll_dac.h **** /** @addtogroup STM32L4xx_LL_Driver
  31:Drivers/STM32L4xx_HAL_Driver/Inc/stm32l4xx_ll_dac.h ****   * @{
  32:Drivers/STM32L4xx_HAL_Driver/Inc/stm32l4xx_ll_dac.h ****   */
  33:Drivers/STM32L4xx_HAL_Driver/Inc/stm32l4xx_ll_dac.h **** 
  34:Drivers/STM32L4xx_HAL_Driver/Inc/stm32l4xx_ll_dac.h **** #if defined (DAC1)
  35:Drivers/STM32L4xx_HAL_Driver/Inc/stm32l4xx_ll_dac.h **** 
  36:Drivers/STM32L4xx_HAL_Driver/Inc/stm32l4xx_ll_dac.h **** /** @defgroup DAC_LL DAC
  37:Drivers/STM32L4xx_HAL_Driver/Inc/stm32l4xx_ll_dac.h ****   * @{
  38:Drivers/STM32L4xx_HAL_Driver/Inc/stm32l4xx_ll_dac.h ****   */
  39:Drivers/STM32L4xx_HAL_Driver/Inc/stm32l4xx_ll_dac.h **** 
  40:Drivers/STM32L4xx_HAL_Driver/Inc/stm32l4xx_ll_dac.h **** /* Private types -------------------------------------------------------------*/
  41:Drivers/STM32L4xx_HAL_Driver/Inc/stm32l4xx_ll_dac.h **** /* Private variables ---------------------------------------------------------*/
  42:Drivers/STM32L4xx_HAL_Driver/Inc/stm32l4xx_ll_dac.h **** 
  43:Drivers/STM32L4xx_HAL_Driver/Inc/stm32l4xx_ll_dac.h **** /* Private constants ---------------------------------------------------------*/
  44:Drivers/STM32L4xx_HAL_Driver/Inc/stm32l4xx_ll_dac.h **** /** @defgroup DAC_LL_Private_Constants DAC Private Constants
  45:Drivers/STM32L4xx_HAL_Driver/Inc/stm32l4xx_ll_dac.h ****   * @{
  46:Drivers/STM32L4xx_HAL_Driver/Inc/stm32l4xx_ll_dac.h ****   */
  47:Drivers/STM32L4xx_HAL_Driver/Inc/stm32l4xx_ll_dac.h **** 
  48:Drivers/STM32L4xx_HAL_Driver/Inc/stm32l4xx_ll_dac.h **** /* Internal masks for DAC channels definition */
  49:Drivers/STM32L4xx_HAL_Driver/Inc/stm32l4xx_ll_dac.h **** /* To select into literal LL_DAC_CHANNEL_x the relevant bits for:             */
  50:Drivers/STM32L4xx_HAL_Driver/Inc/stm32l4xx_ll_dac.h **** /* - channel bits position into registers CR, MCR, CCR, SHHR, SHRR            */
  51:Drivers/STM32L4xx_HAL_Driver/Inc/stm32l4xx_ll_dac.h **** /* - channel bits position into register SWTRIG                               */
  52:Drivers/STM32L4xx_HAL_Driver/Inc/stm32l4xx_ll_dac.h **** /* - channel register offset of data holding register DHRx                    */
  53:Drivers/STM32L4xx_HAL_Driver/Inc/stm32l4xx_ll_dac.h **** /* - channel register offset of data output register DORx                     */
  54:Drivers/STM32L4xx_HAL_Driver/Inc/stm32l4xx_ll_dac.h **** /* - channel register offset of sample-and-hold sample time register SHSRx    */
  55:Drivers/STM32L4xx_HAL_Driver/Inc/stm32l4xx_ll_dac.h **** #define DAC_CR_CH1_BITOFFSET           0U    /* Position of channel bits into registers CR, MCR, CC
  56:Drivers/STM32L4xx_HAL_Driver/Inc/stm32l4xx_ll_dac.h **** #define DAC_CR_CH2_BITOFFSET           16U   /* Position of channel bits into registers CR, MCR, CC
  57:Drivers/STM32L4xx_HAL_Driver/Inc/stm32l4xx_ll_dac.h **** #define DAC_CR_CHX_BITOFFSET_MASK      (DAC_CR_CH1_BITOFFSET | DAC_CR_CH2_BITOFFSET)
  58:Drivers/STM32L4xx_HAL_Driver/Inc/stm32l4xx_ll_dac.h **** 
ARM GAS  C:\Users\ep_ygh\AppData\Local\Temp\ccVL2nhg.s 			page 4


  59:Drivers/STM32L4xx_HAL_Driver/Inc/stm32l4xx_ll_dac.h **** #define DAC_SWTR_CH1                   (DAC_SWTRIGR_SWTRIG1) /* Channel bit into register SWTRIGR o
  60:Drivers/STM32L4xx_HAL_Driver/Inc/stm32l4xx_ll_dac.h **** #if defined(DAC_CHANNEL2_SUPPORT)
  61:Drivers/STM32L4xx_HAL_Driver/Inc/stm32l4xx_ll_dac.h **** #define DAC_SWTR_CH2                   (DAC_SWTRIGR_SWTRIG2) /* Channel bit into register SWTRIGR o
  62:Drivers/STM32L4xx_HAL_Driver/Inc/stm32l4xx_ll_dac.h **** #define DAC_SWTR_CHX_MASK              (DAC_SWTR_CH1 | DAC_SWTR_CH2)
  63:Drivers/STM32L4xx_HAL_Driver/Inc/stm32l4xx_ll_dac.h **** #else
  64:Drivers/STM32L4xx_HAL_Driver/Inc/stm32l4xx_ll_dac.h **** #define DAC_SWTR_CHX_MASK              (DAC_SWTR_CH1)
  65:Drivers/STM32L4xx_HAL_Driver/Inc/stm32l4xx_ll_dac.h **** #endif /* DAC_CHANNEL2_SUPPORT */
  66:Drivers/STM32L4xx_HAL_Driver/Inc/stm32l4xx_ll_dac.h **** 
  67:Drivers/STM32L4xx_HAL_Driver/Inc/stm32l4xx_ll_dac.h **** #define DAC_REG_DHR12R1_REGOFFSET      0x00000000U             /* Register DHR12Rx channel 1 taken 
  68:Drivers/STM32L4xx_HAL_Driver/Inc/stm32l4xx_ll_dac.h **** #define DAC_REG_DHR12L1_REGOFFSET      0x00100000U             /* Register offset of DHR12Lx channe
  69:Drivers/STM32L4xx_HAL_Driver/Inc/stm32l4xx_ll_dac.h **** #define DAC_REG_DHR8R1_REGOFFSET       0x02000000U             /* Register offset of DHR8Rx  channe
  70:Drivers/STM32L4xx_HAL_Driver/Inc/stm32l4xx_ll_dac.h **** #if defined(DAC_CHANNEL2_SUPPORT)
  71:Drivers/STM32L4xx_HAL_Driver/Inc/stm32l4xx_ll_dac.h **** #define DAC_REG_DHR12R2_REGOFFSET      0x30000000U             /* Register offset of DHR12Rx channe
  72:Drivers/STM32L4xx_HAL_Driver/Inc/stm32l4xx_ll_dac.h **** #define DAC_REG_DHR12L2_REGOFFSET      0x00400000U             /* Register offset of DHR12Lx channe
  73:Drivers/STM32L4xx_HAL_Driver/Inc/stm32l4xx_ll_dac.h **** #define DAC_REG_DHR8R2_REGOFFSET       0x05000000U             /* Register offset of DHR8Rx  channe
  74:Drivers/STM32L4xx_HAL_Driver/Inc/stm32l4xx_ll_dac.h **** #endif /* DAC_CHANNEL2_SUPPORT */
  75:Drivers/STM32L4xx_HAL_Driver/Inc/stm32l4xx_ll_dac.h **** #define DAC_REG_DHR12RX_REGOFFSET_MASK 0xF0000000U
  76:Drivers/STM32L4xx_HAL_Driver/Inc/stm32l4xx_ll_dac.h **** #define DAC_REG_DHR12LX_REGOFFSET_MASK 0x00F00000U
  77:Drivers/STM32L4xx_HAL_Driver/Inc/stm32l4xx_ll_dac.h **** #define DAC_REG_DHR8RX_REGOFFSET_MASK  0x0F000000U
  78:Drivers/STM32L4xx_HAL_Driver/Inc/stm32l4xx_ll_dac.h **** #define DAC_REG_DHRX_REGOFFSET_MASK    (DAC_REG_DHR12RX_REGOFFSET_MASK | DAC_REG_DHR12LX_REGOFFSET_
  79:Drivers/STM32L4xx_HAL_Driver/Inc/stm32l4xx_ll_dac.h **** 
  80:Drivers/STM32L4xx_HAL_Driver/Inc/stm32l4xx_ll_dac.h **** #define DAC_REG_DOR1_REGOFFSET         0x00000000U             /* Register DORx channel 1 taken as 
  81:Drivers/STM32L4xx_HAL_Driver/Inc/stm32l4xx_ll_dac.h **** #if defined(DAC_CHANNEL2_SUPPORT)
  82:Drivers/STM32L4xx_HAL_Driver/Inc/stm32l4xx_ll_dac.h **** #define DAC_REG_DOR2_REGOFFSET         0x00000020U             /* Register offset of DORx channel 1
  83:Drivers/STM32L4xx_HAL_Driver/Inc/stm32l4xx_ll_dac.h **** #define DAC_REG_DORX_REGOFFSET_MASK    (DAC_REG_DOR1_REGOFFSET | DAC_REG_DOR2_REGOFFSET)
  84:Drivers/STM32L4xx_HAL_Driver/Inc/stm32l4xx_ll_dac.h **** #else
  85:Drivers/STM32L4xx_HAL_Driver/Inc/stm32l4xx_ll_dac.h **** #define DAC_REG_DORX_REGOFFSET_MASK    (DAC_REG_DOR1_REGOFFSET)
  86:Drivers/STM32L4xx_HAL_Driver/Inc/stm32l4xx_ll_dac.h **** #endif /* DAC_CHANNEL2_SUPPORT */
  87:Drivers/STM32L4xx_HAL_Driver/Inc/stm32l4xx_ll_dac.h **** 
  88:Drivers/STM32L4xx_HAL_Driver/Inc/stm32l4xx_ll_dac.h **** #define DAC_REG_SHSR1_REGOFFSET        0x00000000U             /* Register SHSRx channel 1 taken as
  89:Drivers/STM32L4xx_HAL_Driver/Inc/stm32l4xx_ll_dac.h **** #if defined(DAC_CHANNEL2_SUPPORT)
  90:Drivers/STM32L4xx_HAL_Driver/Inc/stm32l4xx_ll_dac.h **** #define DAC_REG_SHSR2_REGOFFSET        0x00000040U             /* Register offset of SHSRx channel 
  91:Drivers/STM32L4xx_HAL_Driver/Inc/stm32l4xx_ll_dac.h **** #define DAC_REG_SHSRX_REGOFFSET_MASK   (DAC_REG_SHSR1_REGOFFSET | DAC_REG_SHSR2_REGOFFSET)
  92:Drivers/STM32L4xx_HAL_Driver/Inc/stm32l4xx_ll_dac.h **** #else
  93:Drivers/STM32L4xx_HAL_Driver/Inc/stm32l4xx_ll_dac.h **** #define DAC_REG_SHSRX_REGOFFSET_MASK   (DAC_REG_SHSR1_REGOFFSET)
  94:Drivers/STM32L4xx_HAL_Driver/Inc/stm32l4xx_ll_dac.h **** #endif /* DAC_CHANNEL2_SUPPORT */
  95:Drivers/STM32L4xx_HAL_Driver/Inc/stm32l4xx_ll_dac.h **** 
  96:Drivers/STM32L4xx_HAL_Driver/Inc/stm32l4xx_ll_dac.h **** #define DAC_REG_DHR_REGOFFSET_MASK_POSBIT0         0x0000000FU  /* Mask of data hold registers offs
  97:Drivers/STM32L4xx_HAL_Driver/Inc/stm32l4xx_ll_dac.h **** #define DAC_REG_DORX_REGOFFSET_MASK_POSBIT0        0x00000001U  /* Mask of DORx registers offset wh
  98:Drivers/STM32L4xx_HAL_Driver/Inc/stm32l4xx_ll_dac.h **** #define DAC_REG_SHSRX_REGOFFSET_MASK_POSBIT0       0x00000001U  /* Mask of SHSRx registers offset w
  99:Drivers/STM32L4xx_HAL_Driver/Inc/stm32l4xx_ll_dac.h **** 
 100:Drivers/STM32L4xx_HAL_Driver/Inc/stm32l4xx_ll_dac.h **** #define DAC_REG_DHR12RX_REGOFFSET_BITOFFSET_POS           28U   /* Position of bits register offset
 101:Drivers/STM32L4xx_HAL_Driver/Inc/stm32l4xx_ll_dac.h **** #define DAC_REG_DHR12LX_REGOFFSET_BITOFFSET_POS           20U   /* Position of bits register offset
 102:Drivers/STM32L4xx_HAL_Driver/Inc/stm32l4xx_ll_dac.h **** #define DAC_REG_DHR8RX_REGOFFSET_BITOFFSET_POS            24U   /* Position of bits register offset
 103:Drivers/STM32L4xx_HAL_Driver/Inc/stm32l4xx_ll_dac.h **** #define DAC_REG_DORX_REGOFFSET_BITOFFSET_POS               5U   /* Position of bits register offset
 104:Drivers/STM32L4xx_HAL_Driver/Inc/stm32l4xx_ll_dac.h **** #define DAC_REG_SHSRX_REGOFFSET_BITOFFSET_POS              6U   /* Position of bits register offset
 105:Drivers/STM32L4xx_HAL_Driver/Inc/stm32l4xx_ll_dac.h **** 
 106:Drivers/STM32L4xx_HAL_Driver/Inc/stm32l4xx_ll_dac.h **** /* DAC registers bits positions */
 107:Drivers/STM32L4xx_HAL_Driver/Inc/stm32l4xx_ll_dac.h **** #if defined(DAC_CHANNEL2_SUPPORT)
 108:Drivers/STM32L4xx_HAL_Driver/Inc/stm32l4xx_ll_dac.h **** #define DAC_DHR12RD_DACC2DHR_BITOFFSET_POS                DAC_DHR12RD_DACC2DHR_Pos
 109:Drivers/STM32L4xx_HAL_Driver/Inc/stm32l4xx_ll_dac.h **** #define DAC_DHR12LD_DACC2DHR_BITOFFSET_POS                DAC_DHR12LD_DACC2DHR_Pos
 110:Drivers/STM32L4xx_HAL_Driver/Inc/stm32l4xx_ll_dac.h **** #define DAC_DHR8RD_DACC2DHR_BITOFFSET_POS                 DAC_DHR8RD_DACC2DHR_Pos
 111:Drivers/STM32L4xx_HAL_Driver/Inc/stm32l4xx_ll_dac.h **** #endif /* DAC_CHANNEL2_SUPPORT */
 112:Drivers/STM32L4xx_HAL_Driver/Inc/stm32l4xx_ll_dac.h **** 
 113:Drivers/STM32L4xx_HAL_Driver/Inc/stm32l4xx_ll_dac.h **** /* Miscellaneous data */
 114:Drivers/STM32L4xx_HAL_Driver/Inc/stm32l4xx_ll_dac.h **** #define DAC_DIGITAL_SCALE_12BITS                        4095U  /* Full-scale digital value with a r
 115:Drivers/STM32L4xx_HAL_Driver/Inc/stm32l4xx_ll_dac.h **** 
ARM GAS  C:\Users\ep_ygh\AppData\Local\Temp\ccVL2nhg.s 			page 5


 116:Drivers/STM32L4xx_HAL_Driver/Inc/stm32l4xx_ll_dac.h **** /**
 117:Drivers/STM32L4xx_HAL_Driver/Inc/stm32l4xx_ll_dac.h ****   * @}
 118:Drivers/STM32L4xx_HAL_Driver/Inc/stm32l4xx_ll_dac.h ****   */
 119:Drivers/STM32L4xx_HAL_Driver/Inc/stm32l4xx_ll_dac.h **** 
 120:Drivers/STM32L4xx_HAL_Driver/Inc/stm32l4xx_ll_dac.h **** 
 121:Drivers/STM32L4xx_HAL_Driver/Inc/stm32l4xx_ll_dac.h **** /* Private macros ------------------------------------------------------------*/
 122:Drivers/STM32L4xx_HAL_Driver/Inc/stm32l4xx_ll_dac.h **** /** @defgroup DAC_LL_Private_Macros DAC Private Macros
 123:Drivers/STM32L4xx_HAL_Driver/Inc/stm32l4xx_ll_dac.h ****   * @{
 124:Drivers/STM32L4xx_HAL_Driver/Inc/stm32l4xx_ll_dac.h ****   */
 125:Drivers/STM32L4xx_HAL_Driver/Inc/stm32l4xx_ll_dac.h **** 
 126:Drivers/STM32L4xx_HAL_Driver/Inc/stm32l4xx_ll_dac.h **** /**
 127:Drivers/STM32L4xx_HAL_Driver/Inc/stm32l4xx_ll_dac.h ****   * @brief  Driver macro reserved for internal use: set a pointer to
 128:Drivers/STM32L4xx_HAL_Driver/Inc/stm32l4xx_ll_dac.h ****   *         a register from a register basis from which an offset
 129:Drivers/STM32L4xx_HAL_Driver/Inc/stm32l4xx_ll_dac.h ****   *         is applied.
 130:Drivers/STM32L4xx_HAL_Driver/Inc/stm32l4xx_ll_dac.h ****   * @param  __REG__ Register basis from which the offset is applied.
 131:Drivers/STM32L4xx_HAL_Driver/Inc/stm32l4xx_ll_dac.h ****   * @param  __REG_OFFFSET__ Offset to be applied (unit: number of registers).
 132:Drivers/STM32L4xx_HAL_Driver/Inc/stm32l4xx_ll_dac.h ****   * @retval Pointer to register address
 133:Drivers/STM32L4xx_HAL_Driver/Inc/stm32l4xx_ll_dac.h **** */
 134:Drivers/STM32L4xx_HAL_Driver/Inc/stm32l4xx_ll_dac.h **** #define __DAC_PTR_REG_OFFSET(__REG__, __REG_OFFFSET__)                         \
 135:Drivers/STM32L4xx_HAL_Driver/Inc/stm32l4xx_ll_dac.h ****  ((uint32_t *)((uint32_t) ((uint32_t)(&(__REG__)) + ((__REG_OFFFSET__) << 2U))))
 136:Drivers/STM32L4xx_HAL_Driver/Inc/stm32l4xx_ll_dac.h **** 
 137:Drivers/STM32L4xx_HAL_Driver/Inc/stm32l4xx_ll_dac.h **** /**
 138:Drivers/STM32L4xx_HAL_Driver/Inc/stm32l4xx_ll_dac.h ****   * @}
 139:Drivers/STM32L4xx_HAL_Driver/Inc/stm32l4xx_ll_dac.h ****   */
 140:Drivers/STM32L4xx_HAL_Driver/Inc/stm32l4xx_ll_dac.h **** 
 141:Drivers/STM32L4xx_HAL_Driver/Inc/stm32l4xx_ll_dac.h **** 
 142:Drivers/STM32L4xx_HAL_Driver/Inc/stm32l4xx_ll_dac.h **** /* Exported types ------------------------------------------------------------*/
 143:Drivers/STM32L4xx_HAL_Driver/Inc/stm32l4xx_ll_dac.h **** #if defined(USE_FULL_LL_DRIVER)
 144:Drivers/STM32L4xx_HAL_Driver/Inc/stm32l4xx_ll_dac.h **** /** @defgroup DAC_LL_ES_INIT DAC Exported Init structure
 145:Drivers/STM32L4xx_HAL_Driver/Inc/stm32l4xx_ll_dac.h ****   * @{
 146:Drivers/STM32L4xx_HAL_Driver/Inc/stm32l4xx_ll_dac.h ****   */
 147:Drivers/STM32L4xx_HAL_Driver/Inc/stm32l4xx_ll_dac.h **** 
 148:Drivers/STM32L4xx_HAL_Driver/Inc/stm32l4xx_ll_dac.h **** /**
 149:Drivers/STM32L4xx_HAL_Driver/Inc/stm32l4xx_ll_dac.h ****   * @brief  Structure definition of some features of DAC instance.
 150:Drivers/STM32L4xx_HAL_Driver/Inc/stm32l4xx_ll_dac.h ****   */
 151:Drivers/STM32L4xx_HAL_Driver/Inc/stm32l4xx_ll_dac.h **** typedef struct
 152:Drivers/STM32L4xx_HAL_Driver/Inc/stm32l4xx_ll_dac.h **** {
 153:Drivers/STM32L4xx_HAL_Driver/Inc/stm32l4xx_ll_dac.h ****   uint32_t TriggerSource;               /*!< Set the conversion trigger source for the selected DAC
 154:Drivers/STM32L4xx_HAL_Driver/Inc/stm32l4xx_ll_dac.h ****                                              This parameter can be a value of @ref DAC_LL_EC_TRIGGE
 155:Drivers/STM32L4xx_HAL_Driver/Inc/stm32l4xx_ll_dac.h **** 
 156:Drivers/STM32L4xx_HAL_Driver/Inc/stm32l4xx_ll_dac.h ****                                              This feature can be modified afterwards using unitary 
 157:Drivers/STM32L4xx_HAL_Driver/Inc/stm32l4xx_ll_dac.h **** 
 158:Drivers/STM32L4xx_HAL_Driver/Inc/stm32l4xx_ll_dac.h ****   uint32_t WaveAutoGeneration;          /*!< Set the waveform automatic generation mode for the sel
 159:Drivers/STM32L4xx_HAL_Driver/Inc/stm32l4xx_ll_dac.h ****                                              This parameter can be a value of @ref DAC_LL_EC_WAVE_A
 160:Drivers/STM32L4xx_HAL_Driver/Inc/stm32l4xx_ll_dac.h **** 
 161:Drivers/STM32L4xx_HAL_Driver/Inc/stm32l4xx_ll_dac.h ****                                              This feature can be modified afterwards using unitary 
 162:Drivers/STM32L4xx_HAL_Driver/Inc/stm32l4xx_ll_dac.h **** 
 163:Drivers/STM32L4xx_HAL_Driver/Inc/stm32l4xx_ll_dac.h ****   uint32_t WaveAutoGenerationConfig;    /*!< Set the waveform automatic generation mode for the sel
 164:Drivers/STM32L4xx_HAL_Driver/Inc/stm32l4xx_ll_dac.h ****                                              If waveform automatic generation mode is set to noise,
 165:Drivers/STM32L4xx_HAL_Driver/Inc/stm32l4xx_ll_dac.h ****                                              If waveform automatic generation mode is set to triang
 166:Drivers/STM32L4xx_HAL_Driver/Inc/stm32l4xx_ll_dac.h ****                                              @note If waveform automatic generation mode is disable
 167:Drivers/STM32L4xx_HAL_Driver/Inc/stm32l4xx_ll_dac.h **** 
 168:Drivers/STM32L4xx_HAL_Driver/Inc/stm32l4xx_ll_dac.h ****                                              This feature can be modified afterwards using unitary 
 169:Drivers/STM32L4xx_HAL_Driver/Inc/stm32l4xx_ll_dac.h ****                                              depending on the wave automatic generation selected. *
 170:Drivers/STM32L4xx_HAL_Driver/Inc/stm32l4xx_ll_dac.h **** 
 171:Drivers/STM32L4xx_HAL_Driver/Inc/stm32l4xx_ll_dac.h ****   uint32_t OutputBuffer;                /*!< Set the output buffer for the selected DAC channel.
 172:Drivers/STM32L4xx_HAL_Driver/Inc/stm32l4xx_ll_dac.h ****                                              This parameter can be a value of @ref DAC_LL_EC_OUTPUT
ARM GAS  C:\Users\ep_ygh\AppData\Local\Temp\ccVL2nhg.s 			page 6


 173:Drivers/STM32L4xx_HAL_Driver/Inc/stm32l4xx_ll_dac.h **** 
 174:Drivers/STM32L4xx_HAL_Driver/Inc/stm32l4xx_ll_dac.h ****                                              This feature can be modified afterwards using unitary 
 175:Drivers/STM32L4xx_HAL_Driver/Inc/stm32l4xx_ll_dac.h **** 
 176:Drivers/STM32L4xx_HAL_Driver/Inc/stm32l4xx_ll_dac.h ****   uint32_t OutputConnection;            /*!< Set the output connection for the selected DAC channel
 177:Drivers/STM32L4xx_HAL_Driver/Inc/stm32l4xx_ll_dac.h ****                                              This parameter can be a value of @ref DAC_LL_EC_OUTPUT
 178:Drivers/STM32L4xx_HAL_Driver/Inc/stm32l4xx_ll_dac.h **** 
 179:Drivers/STM32L4xx_HAL_Driver/Inc/stm32l4xx_ll_dac.h ****                                              This feature can be modified afterwards using unitary 
 180:Drivers/STM32L4xx_HAL_Driver/Inc/stm32l4xx_ll_dac.h **** 
 181:Drivers/STM32L4xx_HAL_Driver/Inc/stm32l4xx_ll_dac.h ****   uint32_t OutputMode;                  /*!< Set the output mode normal or sample-and-hold for the 
 182:Drivers/STM32L4xx_HAL_Driver/Inc/stm32l4xx_ll_dac.h ****                                              This parameter can be a value of @ref DAC_LL_EC_OUTPUT
 183:Drivers/STM32L4xx_HAL_Driver/Inc/stm32l4xx_ll_dac.h **** 
 184:Drivers/STM32L4xx_HAL_Driver/Inc/stm32l4xx_ll_dac.h ****                                              This feature can be modified afterwards using unitary 
 185:Drivers/STM32L4xx_HAL_Driver/Inc/stm32l4xx_ll_dac.h **** } LL_DAC_InitTypeDef;
 186:Drivers/STM32L4xx_HAL_Driver/Inc/stm32l4xx_ll_dac.h **** 
 187:Drivers/STM32L4xx_HAL_Driver/Inc/stm32l4xx_ll_dac.h **** /**
 188:Drivers/STM32L4xx_HAL_Driver/Inc/stm32l4xx_ll_dac.h ****   * @}
 189:Drivers/STM32L4xx_HAL_Driver/Inc/stm32l4xx_ll_dac.h ****   */
 190:Drivers/STM32L4xx_HAL_Driver/Inc/stm32l4xx_ll_dac.h **** #endif /* USE_FULL_LL_DRIVER */
 191:Drivers/STM32L4xx_HAL_Driver/Inc/stm32l4xx_ll_dac.h **** 
 192:Drivers/STM32L4xx_HAL_Driver/Inc/stm32l4xx_ll_dac.h **** /* Exported constants --------------------------------------------------------*/
 193:Drivers/STM32L4xx_HAL_Driver/Inc/stm32l4xx_ll_dac.h **** /** @defgroup DAC_LL_Exported_Constants DAC Exported Constants
 194:Drivers/STM32L4xx_HAL_Driver/Inc/stm32l4xx_ll_dac.h ****   * @{
 195:Drivers/STM32L4xx_HAL_Driver/Inc/stm32l4xx_ll_dac.h ****   */
 196:Drivers/STM32L4xx_HAL_Driver/Inc/stm32l4xx_ll_dac.h **** 
 197:Drivers/STM32L4xx_HAL_Driver/Inc/stm32l4xx_ll_dac.h **** /** @defgroup DAC_LL_EC_GET_FLAG DAC flags
 198:Drivers/STM32L4xx_HAL_Driver/Inc/stm32l4xx_ll_dac.h ****   * @brief    Flags defines which can be used with LL_DAC_ReadReg function
 199:Drivers/STM32L4xx_HAL_Driver/Inc/stm32l4xx_ll_dac.h ****   * @{
 200:Drivers/STM32L4xx_HAL_Driver/Inc/stm32l4xx_ll_dac.h ****   */
 201:Drivers/STM32L4xx_HAL_Driver/Inc/stm32l4xx_ll_dac.h **** /* DAC channel 1 flags */
 202:Drivers/STM32L4xx_HAL_Driver/Inc/stm32l4xx_ll_dac.h **** #define LL_DAC_FLAG_DMAUDR1                (DAC_SR_DMAUDR1)   /*!< DAC channel 1 flag DMA underrun 
 203:Drivers/STM32L4xx_HAL_Driver/Inc/stm32l4xx_ll_dac.h **** #define LL_DAC_FLAG_CAL1                   (DAC_SR_CAL_FLAG1) /*!< DAC channel 1 flag offset calibr
 204:Drivers/STM32L4xx_HAL_Driver/Inc/stm32l4xx_ll_dac.h **** #define LL_DAC_FLAG_BWST1                  (DAC_SR_BWST1)     /*!< DAC channel 1 flag busy writing 
 205:Drivers/STM32L4xx_HAL_Driver/Inc/stm32l4xx_ll_dac.h **** 
 206:Drivers/STM32L4xx_HAL_Driver/Inc/stm32l4xx_ll_dac.h **** #if defined(DAC_CHANNEL2_SUPPORT)
 207:Drivers/STM32L4xx_HAL_Driver/Inc/stm32l4xx_ll_dac.h **** /* DAC channel 2 flags */
 208:Drivers/STM32L4xx_HAL_Driver/Inc/stm32l4xx_ll_dac.h **** #define LL_DAC_FLAG_DMAUDR2                (DAC_SR_DMAUDR2)   /*!< DAC channel 2 flag DMA underrun 
 209:Drivers/STM32L4xx_HAL_Driver/Inc/stm32l4xx_ll_dac.h **** #define LL_DAC_FLAG_CAL2                   (DAC_SR_CAL_FLAG2) /*!< DAC channel 2 flag offset calibr
 210:Drivers/STM32L4xx_HAL_Driver/Inc/stm32l4xx_ll_dac.h **** #define LL_DAC_FLAG_BWST2                  (DAC_SR_BWST2)     /*!< DAC channel 2 flag busy writing 
 211:Drivers/STM32L4xx_HAL_Driver/Inc/stm32l4xx_ll_dac.h **** #endif /* DAC_CHANNEL2_SUPPORT */
 212:Drivers/STM32L4xx_HAL_Driver/Inc/stm32l4xx_ll_dac.h **** /**
 213:Drivers/STM32L4xx_HAL_Driver/Inc/stm32l4xx_ll_dac.h ****   * @}
 214:Drivers/STM32L4xx_HAL_Driver/Inc/stm32l4xx_ll_dac.h ****   */
 215:Drivers/STM32L4xx_HAL_Driver/Inc/stm32l4xx_ll_dac.h **** 
 216:Drivers/STM32L4xx_HAL_Driver/Inc/stm32l4xx_ll_dac.h **** /** @defgroup DAC_LL_EC_IT DAC interruptions
 217:Drivers/STM32L4xx_HAL_Driver/Inc/stm32l4xx_ll_dac.h ****   * @brief    IT defines which can be used with LL_DAC_ReadReg and  LL_DAC_WriteReg functions
 218:Drivers/STM32L4xx_HAL_Driver/Inc/stm32l4xx_ll_dac.h ****   * @{
 219:Drivers/STM32L4xx_HAL_Driver/Inc/stm32l4xx_ll_dac.h ****   */
 220:Drivers/STM32L4xx_HAL_Driver/Inc/stm32l4xx_ll_dac.h **** #define LL_DAC_IT_DMAUDRIE1                (DAC_CR_DMAUDRIE1) /*!< DAC channel 1 interruption DMA u
 221:Drivers/STM32L4xx_HAL_Driver/Inc/stm32l4xx_ll_dac.h **** #if defined(DAC_CHANNEL2_SUPPORT)
 222:Drivers/STM32L4xx_HAL_Driver/Inc/stm32l4xx_ll_dac.h **** #define LL_DAC_IT_DMAUDRIE2                (DAC_CR_DMAUDRIE2) /*!< DAC channel 2 interruption DMA u
 223:Drivers/STM32L4xx_HAL_Driver/Inc/stm32l4xx_ll_dac.h **** #endif /* DAC_CHANNEL2_SUPPORT */
 224:Drivers/STM32L4xx_HAL_Driver/Inc/stm32l4xx_ll_dac.h **** /**
 225:Drivers/STM32L4xx_HAL_Driver/Inc/stm32l4xx_ll_dac.h ****   * @}
 226:Drivers/STM32L4xx_HAL_Driver/Inc/stm32l4xx_ll_dac.h ****   */
 227:Drivers/STM32L4xx_HAL_Driver/Inc/stm32l4xx_ll_dac.h **** 
 228:Drivers/STM32L4xx_HAL_Driver/Inc/stm32l4xx_ll_dac.h **** /** @defgroup DAC_LL_EC_CHANNEL DAC channels
 229:Drivers/STM32L4xx_HAL_Driver/Inc/stm32l4xx_ll_dac.h ****   * @{
ARM GAS  C:\Users\ep_ygh\AppData\Local\Temp\ccVL2nhg.s 			page 7


 230:Drivers/STM32L4xx_HAL_Driver/Inc/stm32l4xx_ll_dac.h ****   */
 231:Drivers/STM32L4xx_HAL_Driver/Inc/stm32l4xx_ll_dac.h **** #define LL_DAC_CHANNEL_1                   (DAC_REG_SHSR1_REGOFFSET | DAC_REG_DOR1_REGOFFSET | DAC_
 232:Drivers/STM32L4xx_HAL_Driver/Inc/stm32l4xx_ll_dac.h **** #if defined(DAC_CHANNEL2_SUPPORT)
 233:Drivers/STM32L4xx_HAL_Driver/Inc/stm32l4xx_ll_dac.h **** #define LL_DAC_CHANNEL_2                   (DAC_REG_SHSR2_REGOFFSET | DAC_REG_DOR2_REGOFFSET | DAC_
 234:Drivers/STM32L4xx_HAL_Driver/Inc/stm32l4xx_ll_dac.h **** #endif /* DAC_CHANNEL2_SUPPORT */
 235:Drivers/STM32L4xx_HAL_Driver/Inc/stm32l4xx_ll_dac.h **** /**
 236:Drivers/STM32L4xx_HAL_Driver/Inc/stm32l4xx_ll_dac.h ****   * @}
 237:Drivers/STM32L4xx_HAL_Driver/Inc/stm32l4xx_ll_dac.h ****   */
 238:Drivers/STM32L4xx_HAL_Driver/Inc/stm32l4xx_ll_dac.h **** #if defined (DAC_CR_HFSEL) /* High frequency interface mode */
 239:Drivers/STM32L4xx_HAL_Driver/Inc/stm32l4xx_ll_dac.h **** 
 240:Drivers/STM32L4xx_HAL_Driver/Inc/stm32l4xx_ll_dac.h **** /** @defgroup DAC_LL_EC_HIGH_FREQUENCY_MODE DAC high frequency interface mode
 241:Drivers/STM32L4xx_HAL_Driver/Inc/stm32l4xx_ll_dac.h ****   * @brief    High frequency interface mode defines that can be used with LL_DAC_SetHighFrequencyMo
 242:Drivers/STM32L4xx_HAL_Driver/Inc/stm32l4xx_ll_dac.h ****   * @{
 243:Drivers/STM32L4xx_HAL_Driver/Inc/stm32l4xx_ll_dac.h ****   */
 244:Drivers/STM32L4xx_HAL_Driver/Inc/stm32l4xx_ll_dac.h **** #define LL_DAC_HIGH_FREQ_MODE_DISABLE         0x00000000U        /*!< High frequency interface mode
 245:Drivers/STM32L4xx_HAL_Driver/Inc/stm32l4xx_ll_dac.h **** #define LL_DAC_HIGH_FREQ_MODE_ABOVE_80MHZ     (DAC_CR_HFSEL)     /*!< High frequency interface mode
 246:Drivers/STM32L4xx_HAL_Driver/Inc/stm32l4xx_ll_dac.h **** /**
 247:Drivers/STM32L4xx_HAL_Driver/Inc/stm32l4xx_ll_dac.h ****   * @}
 248:Drivers/STM32L4xx_HAL_Driver/Inc/stm32l4xx_ll_dac.h ****   */
 249:Drivers/STM32L4xx_HAL_Driver/Inc/stm32l4xx_ll_dac.h **** #endif /* High frequency interface mode */
 250:Drivers/STM32L4xx_HAL_Driver/Inc/stm32l4xx_ll_dac.h **** 
 251:Drivers/STM32L4xx_HAL_Driver/Inc/stm32l4xx_ll_dac.h **** /** @defgroup DAC_LL_EC_OPERATING_MODE DAC operating mode
 252:Drivers/STM32L4xx_HAL_Driver/Inc/stm32l4xx_ll_dac.h ****   * @{
 253:Drivers/STM32L4xx_HAL_Driver/Inc/stm32l4xx_ll_dac.h ****   */
 254:Drivers/STM32L4xx_HAL_Driver/Inc/stm32l4xx_ll_dac.h **** #define LL_DAC_MODE_NORMAL_OPERATION       0x00000000U             /*!< DAC channel in mode normal 
 255:Drivers/STM32L4xx_HAL_Driver/Inc/stm32l4xx_ll_dac.h **** #define LL_DAC_MODE_CALIBRATION            (DAC_CR_CEN1)           /*!< DAC channel in mode calibra
 256:Drivers/STM32L4xx_HAL_Driver/Inc/stm32l4xx_ll_dac.h **** /**
 257:Drivers/STM32L4xx_HAL_Driver/Inc/stm32l4xx_ll_dac.h ****   * @}
 258:Drivers/STM32L4xx_HAL_Driver/Inc/stm32l4xx_ll_dac.h ****   */
 259:Drivers/STM32L4xx_HAL_Driver/Inc/stm32l4xx_ll_dac.h **** 
 260:Drivers/STM32L4xx_HAL_Driver/Inc/stm32l4xx_ll_dac.h **** /** @defgroup DAC_LL_EC_TRIGGER_SOURCE DAC trigger source
 261:Drivers/STM32L4xx_HAL_Driver/Inc/stm32l4xx_ll_dac.h ****   * @{
 262:Drivers/STM32L4xx_HAL_Driver/Inc/stm32l4xx_ll_dac.h ****   */
 263:Drivers/STM32L4xx_HAL_Driver/Inc/stm32l4xx_ll_dac.h **** #if defined (DAC_CR_TSEL1_3)
 264:Drivers/STM32L4xx_HAL_Driver/Inc/stm32l4xx_ll_dac.h **** #define LL_DAC_TRIG_EXT_TIM1_TRGO          (                                                   DAC_
 265:Drivers/STM32L4xx_HAL_Driver/Inc/stm32l4xx_ll_dac.h **** #define LL_DAC_TRIG_EXT_TIM2_TRGO          (                                  DAC_CR_TSEL1_1       
 266:Drivers/STM32L4xx_HAL_Driver/Inc/stm32l4xx_ll_dac.h **** #define LL_DAC_TRIG_EXT_TIM4_TRGO          (                                  DAC_CR_TSEL1_1 | DAC_
 267:Drivers/STM32L4xx_HAL_Driver/Inc/stm32l4xx_ll_dac.h **** #define LL_DAC_TRIG_EXT_TIM5_TRGO          (                 DAC_CR_TSEL1_2                        
 268:Drivers/STM32L4xx_HAL_Driver/Inc/stm32l4xx_ll_dac.h **** #define LL_DAC_TRIG_EXT_TIM6_TRGO          (                 DAC_CR_TSEL1_2 |                  DAC_
 269:Drivers/STM32L4xx_HAL_Driver/Inc/stm32l4xx_ll_dac.h **** #define LL_DAC_TRIG_EXT_TIM7_TRGO          (                 DAC_CR_TSEL1_2 | DAC_CR_TSEL1_1       
 270:Drivers/STM32L4xx_HAL_Driver/Inc/stm32l4xx_ll_dac.h **** #define LL_DAC_TRIG_EXT_TIM8_TRGO          (                 DAC_CR_TSEL1_2 | DAC_CR_TSEL1_1 | DAC_
 271:Drivers/STM32L4xx_HAL_Driver/Inc/stm32l4xx_ll_dac.h **** #define LL_DAC_TRIG_EXT_TIM15_TRGO         (DAC_CR_TSEL1_3                                         
 272:Drivers/STM32L4xx_HAL_Driver/Inc/stm32l4xx_ll_dac.h **** #define LL_DAC_TRIG_EXT_LPTIM1_OUT         (DAC_CR_TSEL1_3                  | DAC_CR_TSEL1_1 | DAC_
 273:Drivers/STM32L4xx_HAL_Driver/Inc/stm32l4xx_ll_dac.h **** #define LL_DAC_TRIG_EXT_LPTIM2_OUT         (DAC_CR_TSEL1_3 | DAC_CR_TSEL1_2                        
 274:Drivers/STM32L4xx_HAL_Driver/Inc/stm32l4xx_ll_dac.h **** #define LL_DAC_TRIG_EXT_EXTI_LINE9         (DAC_CR_TSEL1_3 | DAC_CR_TSEL1_2                  | DAC_
 275:Drivers/STM32L4xx_HAL_Driver/Inc/stm32l4xx_ll_dac.h **** #define LL_DAC_TRIG_SOFTWARE               0x00000000U                                             
 276:Drivers/STM32L4xx_HAL_Driver/Inc/stm32l4xx_ll_dac.h **** #else
 277:Drivers/STM32L4xx_HAL_Driver/Inc/stm32l4xx_ll_dac.h **** #define LL_DAC_TRIG_SOFTWARE               (DAC_CR_TSEL1_2 | DAC_CR_TSEL1_1 | DAC_CR_TSEL1_0)      
 278:Drivers/STM32L4xx_HAL_Driver/Inc/stm32l4xx_ll_dac.h **** #define LL_DAC_TRIG_EXT_TIM2_TRGO          (DAC_CR_TSEL1_2                                  )      
 279:Drivers/STM32L4xx_HAL_Driver/Inc/stm32l4xx_ll_dac.h **** #define LL_DAC_TRIG_EXT_TIM4_TRGO          (DAC_CR_TSEL1_2                  | DAC_CR_TSEL1_0)      
 280:Drivers/STM32L4xx_HAL_Driver/Inc/stm32l4xx_ll_dac.h **** #define LL_DAC_TRIG_EXT_TIM5_TRGO          (                 DAC_CR_TSEL1_1 | DAC_CR_TSEL1_0)      
 281:Drivers/STM32L4xx_HAL_Driver/Inc/stm32l4xx_ll_dac.h **** #define LL_DAC_TRIG_EXT_TIM6_TRGO          0x00000000U                                             
 282:Drivers/STM32L4xx_HAL_Driver/Inc/stm32l4xx_ll_dac.h **** #define LL_DAC_TRIG_EXT_TIM7_TRGO          (                 DAC_CR_TSEL1_1                 )      
 283:Drivers/STM32L4xx_HAL_Driver/Inc/stm32l4xx_ll_dac.h **** #define LL_DAC_TRIG_EXT_TIM8_TRGO          (                                  DAC_CR_TSEL1_0)      
 284:Drivers/STM32L4xx_HAL_Driver/Inc/stm32l4xx_ll_dac.h **** #define LL_DAC_TRIG_EXT_EXTI_LINE9         (DAC_CR_TSEL1_2 | DAC_CR_TSEL1_1                 )      
 285:Drivers/STM32L4xx_HAL_Driver/Inc/stm32l4xx_ll_dac.h **** #endif
 286:Drivers/STM32L4xx_HAL_Driver/Inc/stm32l4xx_ll_dac.h **** 
ARM GAS  C:\Users\ep_ygh\AppData\Local\Temp\ccVL2nhg.s 			page 8


 287:Drivers/STM32L4xx_HAL_Driver/Inc/stm32l4xx_ll_dac.h **** /**
 288:Drivers/STM32L4xx_HAL_Driver/Inc/stm32l4xx_ll_dac.h ****   * @}
 289:Drivers/STM32L4xx_HAL_Driver/Inc/stm32l4xx_ll_dac.h ****   */
 290:Drivers/STM32L4xx_HAL_Driver/Inc/stm32l4xx_ll_dac.h **** 
 291:Drivers/STM32L4xx_HAL_Driver/Inc/stm32l4xx_ll_dac.h **** /** @defgroup DAC_LL_EC_WAVE_AUTO_GENERATION_MODE DAC waveform automatic generation mode
 292:Drivers/STM32L4xx_HAL_Driver/Inc/stm32l4xx_ll_dac.h ****   * @{
 293:Drivers/STM32L4xx_HAL_Driver/Inc/stm32l4xx_ll_dac.h ****   */
 294:Drivers/STM32L4xx_HAL_Driver/Inc/stm32l4xx_ll_dac.h **** #define LL_DAC_WAVE_AUTO_GENERATION_NONE     0x00000000U                     /*!< DAC channel wave 
 295:Drivers/STM32L4xx_HAL_Driver/Inc/stm32l4xx_ll_dac.h **** #define LL_DAC_WAVE_AUTO_GENERATION_NOISE    (               DAC_CR_WAVE1_0) /*!< DAC channel wave 
 296:Drivers/STM32L4xx_HAL_Driver/Inc/stm32l4xx_ll_dac.h **** #define LL_DAC_WAVE_AUTO_GENERATION_TRIANGLE (DAC_CR_WAVE1_1               ) /*!< DAC channel wave 
 297:Drivers/STM32L4xx_HAL_Driver/Inc/stm32l4xx_ll_dac.h **** /**
 298:Drivers/STM32L4xx_HAL_Driver/Inc/stm32l4xx_ll_dac.h ****   * @}
 299:Drivers/STM32L4xx_HAL_Driver/Inc/stm32l4xx_ll_dac.h ****   */
 300:Drivers/STM32L4xx_HAL_Driver/Inc/stm32l4xx_ll_dac.h **** 
 301:Drivers/STM32L4xx_HAL_Driver/Inc/stm32l4xx_ll_dac.h **** /** @defgroup DAC_LL_EC_WAVE_NOISE_LFSR_UNMASK_BITS DAC wave generation - Noise LFSR unmask bits
 302:Drivers/STM32L4xx_HAL_Driver/Inc/stm32l4xx_ll_dac.h ****   * @{
 303:Drivers/STM32L4xx_HAL_Driver/Inc/stm32l4xx_ll_dac.h ****   */
 304:Drivers/STM32L4xx_HAL_Driver/Inc/stm32l4xx_ll_dac.h **** #define LL_DAC_NOISE_LFSR_UNMASK_BIT0      0x00000000U                                             
 305:Drivers/STM32L4xx_HAL_Driver/Inc/stm32l4xx_ll_dac.h **** #define LL_DAC_NOISE_LFSR_UNMASK_BITS1_0   (                                                   DAC_
 306:Drivers/STM32L4xx_HAL_Driver/Inc/stm32l4xx_ll_dac.h **** #define LL_DAC_NOISE_LFSR_UNMASK_BITS2_0   (                                  DAC_CR_MAMP1_1       
 307:Drivers/STM32L4xx_HAL_Driver/Inc/stm32l4xx_ll_dac.h **** #define LL_DAC_NOISE_LFSR_UNMASK_BITS3_0   (                                  DAC_CR_MAMP1_1 | DAC_
 308:Drivers/STM32L4xx_HAL_Driver/Inc/stm32l4xx_ll_dac.h **** #define LL_DAC_NOISE_LFSR_UNMASK_BITS4_0   (                 DAC_CR_MAMP1_2                        
 309:Drivers/STM32L4xx_HAL_Driver/Inc/stm32l4xx_ll_dac.h **** #define LL_DAC_NOISE_LFSR_UNMASK_BITS5_0   (                 DAC_CR_MAMP1_2                  | DAC_
 310:Drivers/STM32L4xx_HAL_Driver/Inc/stm32l4xx_ll_dac.h **** #define LL_DAC_NOISE_LFSR_UNMASK_BITS6_0   (                 DAC_CR_MAMP1_2 | DAC_CR_MAMP1_1       
 311:Drivers/STM32L4xx_HAL_Driver/Inc/stm32l4xx_ll_dac.h **** #define LL_DAC_NOISE_LFSR_UNMASK_BITS7_0   (                 DAC_CR_MAMP1_2 | DAC_CR_MAMP1_1 | DAC_
 312:Drivers/STM32L4xx_HAL_Driver/Inc/stm32l4xx_ll_dac.h **** #define LL_DAC_NOISE_LFSR_UNMASK_BITS8_0   (DAC_CR_MAMP1_3                                         
 313:Drivers/STM32L4xx_HAL_Driver/Inc/stm32l4xx_ll_dac.h **** #define LL_DAC_NOISE_LFSR_UNMASK_BITS9_0   (DAC_CR_MAMP1_3                                   | DAC_
 314:Drivers/STM32L4xx_HAL_Driver/Inc/stm32l4xx_ll_dac.h **** #define LL_DAC_NOISE_LFSR_UNMASK_BITS10_0  (DAC_CR_MAMP1_3                  | DAC_CR_MAMP1_1       
 315:Drivers/STM32L4xx_HAL_Driver/Inc/stm32l4xx_ll_dac.h **** #define LL_DAC_NOISE_LFSR_UNMASK_BITS11_0  (DAC_CR_MAMP1_3                  | DAC_CR_MAMP1_1 | DAC_
 316:Drivers/STM32L4xx_HAL_Driver/Inc/stm32l4xx_ll_dac.h **** /**
 317:Drivers/STM32L4xx_HAL_Driver/Inc/stm32l4xx_ll_dac.h ****   * @}
 318:Drivers/STM32L4xx_HAL_Driver/Inc/stm32l4xx_ll_dac.h ****   */
 319:Drivers/STM32L4xx_HAL_Driver/Inc/stm32l4xx_ll_dac.h **** 
 320:Drivers/STM32L4xx_HAL_Driver/Inc/stm32l4xx_ll_dac.h **** /** @defgroup DAC_LL_EC_WAVE_TRIANGLE_AMPLITUDE DAC wave generation - Triangle amplitude
 321:Drivers/STM32L4xx_HAL_Driver/Inc/stm32l4xx_ll_dac.h ****   * @{
 322:Drivers/STM32L4xx_HAL_Driver/Inc/stm32l4xx_ll_dac.h ****   */
 323:Drivers/STM32L4xx_HAL_Driver/Inc/stm32l4xx_ll_dac.h **** #define LL_DAC_TRIANGLE_AMPLITUDE_1        0x00000000U                                             
 324:Drivers/STM32L4xx_HAL_Driver/Inc/stm32l4xx_ll_dac.h **** #define LL_DAC_TRIANGLE_AMPLITUDE_3        (                                                   DAC_
 325:Drivers/STM32L4xx_HAL_Driver/Inc/stm32l4xx_ll_dac.h **** #define LL_DAC_TRIANGLE_AMPLITUDE_7        (                                  DAC_CR_MAMP1_1       
 326:Drivers/STM32L4xx_HAL_Driver/Inc/stm32l4xx_ll_dac.h **** #define LL_DAC_TRIANGLE_AMPLITUDE_15       (                                  DAC_CR_MAMP1_1 | DAC_
 327:Drivers/STM32L4xx_HAL_Driver/Inc/stm32l4xx_ll_dac.h **** #define LL_DAC_TRIANGLE_AMPLITUDE_31       (                 DAC_CR_MAMP1_2                        
 328:Drivers/STM32L4xx_HAL_Driver/Inc/stm32l4xx_ll_dac.h **** #define LL_DAC_TRIANGLE_AMPLITUDE_63       (                 DAC_CR_MAMP1_2                  | DAC_
 329:Drivers/STM32L4xx_HAL_Driver/Inc/stm32l4xx_ll_dac.h **** #define LL_DAC_TRIANGLE_AMPLITUDE_127      (                 DAC_CR_MAMP1_2 | DAC_CR_MAMP1_1       
 330:Drivers/STM32L4xx_HAL_Driver/Inc/stm32l4xx_ll_dac.h **** #define LL_DAC_TRIANGLE_AMPLITUDE_255      (                 DAC_CR_MAMP1_2 | DAC_CR_MAMP1_1 | DAC_
 331:Drivers/STM32L4xx_HAL_Driver/Inc/stm32l4xx_ll_dac.h **** #define LL_DAC_TRIANGLE_AMPLITUDE_511      (DAC_CR_MAMP1_3                                         
 332:Drivers/STM32L4xx_HAL_Driver/Inc/stm32l4xx_ll_dac.h **** #define LL_DAC_TRIANGLE_AMPLITUDE_1023     (DAC_CR_MAMP1_3                                   | DAC_
 333:Drivers/STM32L4xx_HAL_Driver/Inc/stm32l4xx_ll_dac.h **** #define LL_DAC_TRIANGLE_AMPLITUDE_2047     (DAC_CR_MAMP1_3                  | DAC_CR_MAMP1_1       
 334:Drivers/STM32L4xx_HAL_Driver/Inc/stm32l4xx_ll_dac.h **** #define LL_DAC_TRIANGLE_AMPLITUDE_4095     (DAC_CR_MAMP1_3                  | DAC_CR_MAMP1_1 | DAC_
 335:Drivers/STM32L4xx_HAL_Driver/Inc/stm32l4xx_ll_dac.h **** /**
 336:Drivers/STM32L4xx_HAL_Driver/Inc/stm32l4xx_ll_dac.h ****   * @}
 337:Drivers/STM32L4xx_HAL_Driver/Inc/stm32l4xx_ll_dac.h ****   */
 338:Drivers/STM32L4xx_HAL_Driver/Inc/stm32l4xx_ll_dac.h **** 
 339:Drivers/STM32L4xx_HAL_Driver/Inc/stm32l4xx_ll_dac.h **** /** @defgroup DAC_LL_EC_OUTPUT_MODE DAC channel output mode
 340:Drivers/STM32L4xx_HAL_Driver/Inc/stm32l4xx_ll_dac.h ****   * @{
 341:Drivers/STM32L4xx_HAL_Driver/Inc/stm32l4xx_ll_dac.h ****   */
 342:Drivers/STM32L4xx_HAL_Driver/Inc/stm32l4xx_ll_dac.h **** #define LL_DAC_OUTPUT_MODE_NORMAL          0x00000000U             /*!< The selected DAC channel ou
 343:Drivers/STM32L4xx_HAL_Driver/Inc/stm32l4xx_ll_dac.h **** #define LL_DAC_OUTPUT_MODE_SAMPLE_AND_HOLD (DAC_MCR_MODE1_2)       /*!< The selected DAC channel ou
ARM GAS  C:\Users\ep_ygh\AppData\Local\Temp\ccVL2nhg.s 			page 9


 344:Drivers/STM32L4xx_HAL_Driver/Inc/stm32l4xx_ll_dac.h **** /**
 345:Drivers/STM32L4xx_HAL_Driver/Inc/stm32l4xx_ll_dac.h ****   * @}
 346:Drivers/STM32L4xx_HAL_Driver/Inc/stm32l4xx_ll_dac.h ****   */
 347:Drivers/STM32L4xx_HAL_Driver/Inc/stm32l4xx_ll_dac.h **** 
 348:Drivers/STM32L4xx_HAL_Driver/Inc/stm32l4xx_ll_dac.h **** /** @defgroup DAC_LL_EC_OUTPUT_BUFFER DAC channel output buffer
 349:Drivers/STM32L4xx_HAL_Driver/Inc/stm32l4xx_ll_dac.h ****   * @{
 350:Drivers/STM32L4xx_HAL_Driver/Inc/stm32l4xx_ll_dac.h ****   */
 351:Drivers/STM32L4xx_HAL_Driver/Inc/stm32l4xx_ll_dac.h **** #define LL_DAC_OUTPUT_BUFFER_ENABLE        0x00000000U             /*!< The selected DAC channel ou
 352:Drivers/STM32L4xx_HAL_Driver/Inc/stm32l4xx_ll_dac.h **** #define LL_DAC_OUTPUT_BUFFER_DISABLE       (DAC_MCR_MODE1_1)       /*!< The selected DAC channel ou
 353:Drivers/STM32L4xx_HAL_Driver/Inc/stm32l4xx_ll_dac.h **** /**
 354:Drivers/STM32L4xx_HAL_Driver/Inc/stm32l4xx_ll_dac.h ****   * @}
 355:Drivers/STM32L4xx_HAL_Driver/Inc/stm32l4xx_ll_dac.h ****   */
 356:Drivers/STM32L4xx_HAL_Driver/Inc/stm32l4xx_ll_dac.h **** 
 357:Drivers/STM32L4xx_HAL_Driver/Inc/stm32l4xx_ll_dac.h **** /** @defgroup DAC_LL_EC_OUTPUT_CONNECTION DAC channel output connection
 358:Drivers/STM32L4xx_HAL_Driver/Inc/stm32l4xx_ll_dac.h ****   * @{
 359:Drivers/STM32L4xx_HAL_Driver/Inc/stm32l4xx_ll_dac.h ****   */
 360:Drivers/STM32L4xx_HAL_Driver/Inc/stm32l4xx_ll_dac.h **** #define LL_DAC_OUTPUT_CONNECT_GPIO         0x00000000U             /*!< The selected DAC channel ou
 361:Drivers/STM32L4xx_HAL_Driver/Inc/stm32l4xx_ll_dac.h **** #define LL_DAC_OUTPUT_CONNECT_INTERNAL     (DAC_MCR_MODE1_0)       /*!< The selected DAC channel ou
 362:Drivers/STM32L4xx_HAL_Driver/Inc/stm32l4xx_ll_dac.h **** /**
 363:Drivers/STM32L4xx_HAL_Driver/Inc/stm32l4xx_ll_dac.h ****   * @}
 364:Drivers/STM32L4xx_HAL_Driver/Inc/stm32l4xx_ll_dac.h ****   */
 365:Drivers/STM32L4xx_HAL_Driver/Inc/stm32l4xx_ll_dac.h **** 
 366:Drivers/STM32L4xx_HAL_Driver/Inc/stm32l4xx_ll_dac.h **** /** @defgroup DAC_LL_EC_RESOLUTION  DAC channel output resolution
 367:Drivers/STM32L4xx_HAL_Driver/Inc/stm32l4xx_ll_dac.h ****   * @{
 368:Drivers/STM32L4xx_HAL_Driver/Inc/stm32l4xx_ll_dac.h ****   */
 369:Drivers/STM32L4xx_HAL_Driver/Inc/stm32l4xx_ll_dac.h **** #define LL_DAC_RESOLUTION_12B              0x00000000U             /*!< DAC channel resolution 12 b
 370:Drivers/STM32L4xx_HAL_Driver/Inc/stm32l4xx_ll_dac.h **** #define LL_DAC_RESOLUTION_8B               0x00000002U             /*!< DAC channel resolution 8 bi
 371:Drivers/STM32L4xx_HAL_Driver/Inc/stm32l4xx_ll_dac.h **** /**
 372:Drivers/STM32L4xx_HAL_Driver/Inc/stm32l4xx_ll_dac.h ****   * @}
 373:Drivers/STM32L4xx_HAL_Driver/Inc/stm32l4xx_ll_dac.h ****   */
 374:Drivers/STM32L4xx_HAL_Driver/Inc/stm32l4xx_ll_dac.h **** 
 375:Drivers/STM32L4xx_HAL_Driver/Inc/stm32l4xx_ll_dac.h **** /** @defgroup DAC_LL_EC_REGISTERS  DAC registers compliant with specific purpose
 376:Drivers/STM32L4xx_HAL_Driver/Inc/stm32l4xx_ll_dac.h ****   * @{
 377:Drivers/STM32L4xx_HAL_Driver/Inc/stm32l4xx_ll_dac.h ****   */
 378:Drivers/STM32L4xx_HAL_Driver/Inc/stm32l4xx_ll_dac.h **** /* List of DAC registers intended to be used (most commonly) with             */
 379:Drivers/STM32L4xx_HAL_Driver/Inc/stm32l4xx_ll_dac.h **** /* DMA transfer.                                                              */
 380:Drivers/STM32L4xx_HAL_Driver/Inc/stm32l4xx_ll_dac.h **** /* Refer to function @ref LL_DAC_DMA_GetRegAddr().                            */
 381:Drivers/STM32L4xx_HAL_Driver/Inc/stm32l4xx_ll_dac.h **** #define LL_DAC_DMA_REG_DATA_12BITS_RIGHT_ALIGNED  DAC_REG_DHR12RX_REGOFFSET_BITOFFSET_POS /*!< DAC 
 382:Drivers/STM32L4xx_HAL_Driver/Inc/stm32l4xx_ll_dac.h **** #define LL_DAC_DMA_REG_DATA_12BITS_LEFT_ALIGNED   DAC_REG_DHR12LX_REGOFFSET_BITOFFSET_POS /*!< DAC 
 383:Drivers/STM32L4xx_HAL_Driver/Inc/stm32l4xx_ll_dac.h **** #define LL_DAC_DMA_REG_DATA_8BITS_RIGHT_ALIGNED   DAC_REG_DHR8RX_REGOFFSET_BITOFFSET_POS  /*!< DAC 
 384:Drivers/STM32L4xx_HAL_Driver/Inc/stm32l4xx_ll_dac.h **** /**
 385:Drivers/STM32L4xx_HAL_Driver/Inc/stm32l4xx_ll_dac.h ****   * @}
 386:Drivers/STM32L4xx_HAL_Driver/Inc/stm32l4xx_ll_dac.h ****   */
 387:Drivers/STM32L4xx_HAL_Driver/Inc/stm32l4xx_ll_dac.h **** 
 388:Drivers/STM32L4xx_HAL_Driver/Inc/stm32l4xx_ll_dac.h **** /** @defgroup DAC_LL_EC_HW_DELAYS  Definitions of DAC hardware constraints delays
 389:Drivers/STM32L4xx_HAL_Driver/Inc/stm32l4xx_ll_dac.h ****   * @note   Only DAC peripheral HW delays are defined in DAC LL driver driver,
 390:Drivers/STM32L4xx_HAL_Driver/Inc/stm32l4xx_ll_dac.h ****   *         not timeout values.
 391:Drivers/STM32L4xx_HAL_Driver/Inc/stm32l4xx_ll_dac.h ****   *         For details on delays values, refer to descriptions in source code
 392:Drivers/STM32L4xx_HAL_Driver/Inc/stm32l4xx_ll_dac.h ****   *         above each literal definition.
 393:Drivers/STM32L4xx_HAL_Driver/Inc/stm32l4xx_ll_dac.h ****   * @{
 394:Drivers/STM32L4xx_HAL_Driver/Inc/stm32l4xx_ll_dac.h ****   */
 395:Drivers/STM32L4xx_HAL_Driver/Inc/stm32l4xx_ll_dac.h **** 
 396:Drivers/STM32L4xx_HAL_Driver/Inc/stm32l4xx_ll_dac.h **** /* Delay for DAC channel voltage settling time from DAC channel startup       */
 397:Drivers/STM32L4xx_HAL_Driver/Inc/stm32l4xx_ll_dac.h **** /* (transition from disable to enable).                                       */
 398:Drivers/STM32L4xx_HAL_Driver/Inc/stm32l4xx_ll_dac.h **** /* Note: DAC channel startup time depends on board application environment:   */
 399:Drivers/STM32L4xx_HAL_Driver/Inc/stm32l4xx_ll_dac.h **** /*       impedance connected to DAC channel output.                           */
 400:Drivers/STM32L4xx_HAL_Driver/Inc/stm32l4xx_ll_dac.h **** /*       The delay below is specified under conditions:                       */
ARM GAS  C:\Users\ep_ygh\AppData\Local\Temp\ccVL2nhg.s 			page 10


 401:Drivers/STM32L4xx_HAL_Driver/Inc/stm32l4xx_ll_dac.h **** /*        - voltage maximum transition (lowest to highest value)              */
 402:Drivers/STM32L4xx_HAL_Driver/Inc/stm32l4xx_ll_dac.h **** /*        - until voltage reaches final value +-1LSB                          */
 403:Drivers/STM32L4xx_HAL_Driver/Inc/stm32l4xx_ll_dac.h **** /*        - DAC channel output buffer enabled                                 */
 404:Drivers/STM32L4xx_HAL_Driver/Inc/stm32l4xx_ll_dac.h **** /*        - load impedance of 5kOhm (min), 50pF (max)                         */
 405:Drivers/STM32L4xx_HAL_Driver/Inc/stm32l4xx_ll_dac.h **** /* Literal set to maximum value (refer to device datasheet,                   */
 406:Drivers/STM32L4xx_HAL_Driver/Inc/stm32l4xx_ll_dac.h **** /* parameter "tWAKEUP").                                                      */
 407:Drivers/STM32L4xx_HAL_Driver/Inc/stm32l4xx_ll_dac.h **** /* Unit: us                                                                   */
 408:Drivers/STM32L4xx_HAL_Driver/Inc/stm32l4xx_ll_dac.h **** #define LL_DAC_DELAY_STARTUP_VOLTAGE_SETTLING_US             8U  /*!< Delay for DAC channel voltage
 409:Drivers/STM32L4xx_HAL_Driver/Inc/stm32l4xx_ll_dac.h **** 
 410:Drivers/STM32L4xx_HAL_Driver/Inc/stm32l4xx_ll_dac.h **** 
 411:Drivers/STM32L4xx_HAL_Driver/Inc/stm32l4xx_ll_dac.h **** /* Delay for DAC channel voltage settling time.                               */
 412:Drivers/STM32L4xx_HAL_Driver/Inc/stm32l4xx_ll_dac.h **** /* Note: DAC channel startup time depends on board application environment:   */
 413:Drivers/STM32L4xx_HAL_Driver/Inc/stm32l4xx_ll_dac.h **** /*       impedance connected to DAC channel output.                           */
 414:Drivers/STM32L4xx_HAL_Driver/Inc/stm32l4xx_ll_dac.h **** /*       The delay below is specified under conditions:                       */
 415:Drivers/STM32L4xx_HAL_Driver/Inc/stm32l4xx_ll_dac.h **** /*        - voltage maximum transition (lowest to highest value)              */
 416:Drivers/STM32L4xx_HAL_Driver/Inc/stm32l4xx_ll_dac.h **** /*        - until voltage reaches final value +-1LSB                          */
 417:Drivers/STM32L4xx_HAL_Driver/Inc/stm32l4xx_ll_dac.h **** /*        - DAC channel output buffer enabled                                 */
 418:Drivers/STM32L4xx_HAL_Driver/Inc/stm32l4xx_ll_dac.h **** /*        - load impedance of 5kOhm min, 50pF max                             */
 419:Drivers/STM32L4xx_HAL_Driver/Inc/stm32l4xx_ll_dac.h **** /* Literal set to maximum value (refer to device datasheet,                   */
 420:Drivers/STM32L4xx_HAL_Driver/Inc/stm32l4xx_ll_dac.h **** /* parameter "tSETTLING").                                                    */
 421:Drivers/STM32L4xx_HAL_Driver/Inc/stm32l4xx_ll_dac.h **** /* Unit: us                                                                   */
 422:Drivers/STM32L4xx_HAL_Driver/Inc/stm32l4xx_ll_dac.h **** #define LL_DAC_DELAY_VOLTAGE_SETTLING_US                     3U  /*!< Delay for DAC channel voltage
 423:Drivers/STM32L4xx_HAL_Driver/Inc/stm32l4xx_ll_dac.h **** 
 424:Drivers/STM32L4xx_HAL_Driver/Inc/stm32l4xx_ll_dac.h **** /**
 425:Drivers/STM32L4xx_HAL_Driver/Inc/stm32l4xx_ll_dac.h ****   * @}
 426:Drivers/STM32L4xx_HAL_Driver/Inc/stm32l4xx_ll_dac.h ****   */
 427:Drivers/STM32L4xx_HAL_Driver/Inc/stm32l4xx_ll_dac.h **** 
 428:Drivers/STM32L4xx_HAL_Driver/Inc/stm32l4xx_ll_dac.h **** /**
 429:Drivers/STM32L4xx_HAL_Driver/Inc/stm32l4xx_ll_dac.h ****   * @}
 430:Drivers/STM32L4xx_HAL_Driver/Inc/stm32l4xx_ll_dac.h ****   */
 431:Drivers/STM32L4xx_HAL_Driver/Inc/stm32l4xx_ll_dac.h **** 
 432:Drivers/STM32L4xx_HAL_Driver/Inc/stm32l4xx_ll_dac.h **** /* Exported macro ------------------------------------------------------------*/
 433:Drivers/STM32L4xx_HAL_Driver/Inc/stm32l4xx_ll_dac.h **** /** @defgroup DAC_LL_Exported_Macros DAC Exported Macros
 434:Drivers/STM32L4xx_HAL_Driver/Inc/stm32l4xx_ll_dac.h ****   * @{
 435:Drivers/STM32L4xx_HAL_Driver/Inc/stm32l4xx_ll_dac.h ****   */
 436:Drivers/STM32L4xx_HAL_Driver/Inc/stm32l4xx_ll_dac.h **** 
 437:Drivers/STM32L4xx_HAL_Driver/Inc/stm32l4xx_ll_dac.h **** /** @defgroup DAC_LL_EM_WRITE_READ Common write and read registers macros
 438:Drivers/STM32L4xx_HAL_Driver/Inc/stm32l4xx_ll_dac.h ****   * @{
 439:Drivers/STM32L4xx_HAL_Driver/Inc/stm32l4xx_ll_dac.h ****   */
 440:Drivers/STM32L4xx_HAL_Driver/Inc/stm32l4xx_ll_dac.h **** 
 441:Drivers/STM32L4xx_HAL_Driver/Inc/stm32l4xx_ll_dac.h **** /**
 442:Drivers/STM32L4xx_HAL_Driver/Inc/stm32l4xx_ll_dac.h ****   * @brief  Write a value in DAC register
 443:Drivers/STM32L4xx_HAL_Driver/Inc/stm32l4xx_ll_dac.h ****   * @param  __INSTANCE__ DAC Instance
 444:Drivers/STM32L4xx_HAL_Driver/Inc/stm32l4xx_ll_dac.h ****   * @param  __REG__ Register to be written
 445:Drivers/STM32L4xx_HAL_Driver/Inc/stm32l4xx_ll_dac.h ****   * @param  __VALUE__ Value to be written in the register
 446:Drivers/STM32L4xx_HAL_Driver/Inc/stm32l4xx_ll_dac.h ****   * @retval None
 447:Drivers/STM32L4xx_HAL_Driver/Inc/stm32l4xx_ll_dac.h ****   */
 448:Drivers/STM32L4xx_HAL_Driver/Inc/stm32l4xx_ll_dac.h **** #define LL_DAC_WriteReg(__INSTANCE__, __REG__, __VALUE__) WRITE_REG(__INSTANCE__->__REG__, (__VALUE
 449:Drivers/STM32L4xx_HAL_Driver/Inc/stm32l4xx_ll_dac.h **** 
 450:Drivers/STM32L4xx_HAL_Driver/Inc/stm32l4xx_ll_dac.h **** /**
 451:Drivers/STM32L4xx_HAL_Driver/Inc/stm32l4xx_ll_dac.h ****   * @brief  Read a value in DAC register
 452:Drivers/STM32L4xx_HAL_Driver/Inc/stm32l4xx_ll_dac.h ****   * @param  __INSTANCE__ DAC Instance
 453:Drivers/STM32L4xx_HAL_Driver/Inc/stm32l4xx_ll_dac.h ****   * @param  __REG__ Register to be read
 454:Drivers/STM32L4xx_HAL_Driver/Inc/stm32l4xx_ll_dac.h ****   * @retval Register value
 455:Drivers/STM32L4xx_HAL_Driver/Inc/stm32l4xx_ll_dac.h ****   */
 456:Drivers/STM32L4xx_HAL_Driver/Inc/stm32l4xx_ll_dac.h **** #define LL_DAC_ReadReg(__INSTANCE__, __REG__) READ_REG(__INSTANCE__->__REG__)
 457:Drivers/STM32L4xx_HAL_Driver/Inc/stm32l4xx_ll_dac.h **** 
ARM GAS  C:\Users\ep_ygh\AppData\Local\Temp\ccVL2nhg.s 			page 11


 458:Drivers/STM32L4xx_HAL_Driver/Inc/stm32l4xx_ll_dac.h **** /**
 459:Drivers/STM32L4xx_HAL_Driver/Inc/stm32l4xx_ll_dac.h ****   * @}
 460:Drivers/STM32L4xx_HAL_Driver/Inc/stm32l4xx_ll_dac.h ****   */
 461:Drivers/STM32L4xx_HAL_Driver/Inc/stm32l4xx_ll_dac.h **** 
 462:Drivers/STM32L4xx_HAL_Driver/Inc/stm32l4xx_ll_dac.h **** /** @defgroup DAC_LL_EM_HELPER_MACRO DAC helper macro
 463:Drivers/STM32L4xx_HAL_Driver/Inc/stm32l4xx_ll_dac.h ****   * @{
 464:Drivers/STM32L4xx_HAL_Driver/Inc/stm32l4xx_ll_dac.h ****   */
 465:Drivers/STM32L4xx_HAL_Driver/Inc/stm32l4xx_ll_dac.h **** 
 466:Drivers/STM32L4xx_HAL_Driver/Inc/stm32l4xx_ll_dac.h **** /**
 467:Drivers/STM32L4xx_HAL_Driver/Inc/stm32l4xx_ll_dac.h ****   * @brief  Helper macro to get DAC channel number in decimal format
 468:Drivers/STM32L4xx_HAL_Driver/Inc/stm32l4xx_ll_dac.h ****   *         from literals LL_DAC_CHANNEL_x.
 469:Drivers/STM32L4xx_HAL_Driver/Inc/stm32l4xx_ll_dac.h ****   *         Example:
 470:Drivers/STM32L4xx_HAL_Driver/Inc/stm32l4xx_ll_dac.h ****   *            __LL_DAC_CHANNEL_TO_DECIMAL_NB(LL_DAC_CHANNEL_1)
 471:Drivers/STM32L4xx_HAL_Driver/Inc/stm32l4xx_ll_dac.h ****   *            will return decimal number "1".
 472:Drivers/STM32L4xx_HAL_Driver/Inc/stm32l4xx_ll_dac.h ****   * @note   The input can be a value from functions where a channel
 473:Drivers/STM32L4xx_HAL_Driver/Inc/stm32l4xx_ll_dac.h ****   *         number is returned.
 474:Drivers/STM32L4xx_HAL_Driver/Inc/stm32l4xx_ll_dac.h ****   * @param  __CHANNEL__ This parameter can be one of the following values:
 475:Drivers/STM32L4xx_HAL_Driver/Inc/stm32l4xx_ll_dac.h ****   *         @arg @ref LL_DAC_CHANNEL_1
 476:Drivers/STM32L4xx_HAL_Driver/Inc/stm32l4xx_ll_dac.h ****   *         @arg @ref LL_DAC_CHANNEL_2
 477:Drivers/STM32L4xx_HAL_Driver/Inc/stm32l4xx_ll_dac.h ****   * @retval 1...2
 478:Drivers/STM32L4xx_HAL_Driver/Inc/stm32l4xx_ll_dac.h ****   */
 479:Drivers/STM32L4xx_HAL_Driver/Inc/stm32l4xx_ll_dac.h **** #define __LL_DAC_CHANNEL_TO_DECIMAL_NB(__CHANNEL__)                            \
 480:Drivers/STM32L4xx_HAL_Driver/Inc/stm32l4xx_ll_dac.h ****   ((__CHANNEL__) & DAC_SWTR_CHX_MASK)
 481:Drivers/STM32L4xx_HAL_Driver/Inc/stm32l4xx_ll_dac.h **** 
 482:Drivers/STM32L4xx_HAL_Driver/Inc/stm32l4xx_ll_dac.h **** /**
 483:Drivers/STM32L4xx_HAL_Driver/Inc/stm32l4xx_ll_dac.h ****   * @brief  Helper macro to get DAC channel in literal format LL_DAC_CHANNEL_x
 484:Drivers/STM32L4xx_HAL_Driver/Inc/stm32l4xx_ll_dac.h ****   *         from number in decimal format.
 485:Drivers/STM32L4xx_HAL_Driver/Inc/stm32l4xx_ll_dac.h ****   *         Example:
 486:Drivers/STM32L4xx_HAL_Driver/Inc/stm32l4xx_ll_dac.h ****   *           __LL_DAC_DECIMAL_NB_TO_CHANNEL(1)
 487:Drivers/STM32L4xx_HAL_Driver/Inc/stm32l4xx_ll_dac.h ****   *           will return a data equivalent to "LL_DAC_CHANNEL_1".
 488:Drivers/STM32L4xx_HAL_Driver/Inc/stm32l4xx_ll_dac.h ****   * @note  If the input parameter does not correspond to a DAC channel,
 489:Drivers/STM32L4xx_HAL_Driver/Inc/stm32l4xx_ll_dac.h ****   *        this macro returns value '0'.
 490:Drivers/STM32L4xx_HAL_Driver/Inc/stm32l4xx_ll_dac.h ****   * @param  __DECIMAL_NB__ 1...2
 491:Drivers/STM32L4xx_HAL_Driver/Inc/stm32l4xx_ll_dac.h ****   * @retval Returned value can be one of the following values:
 492:Drivers/STM32L4xx_HAL_Driver/Inc/stm32l4xx_ll_dac.h ****   *         @arg @ref LL_DAC_CHANNEL_1
 493:Drivers/STM32L4xx_HAL_Driver/Inc/stm32l4xx_ll_dac.h ****   *         @arg @ref LL_DAC_CHANNEL_2
 494:Drivers/STM32L4xx_HAL_Driver/Inc/stm32l4xx_ll_dac.h ****   */
 495:Drivers/STM32L4xx_HAL_Driver/Inc/stm32l4xx_ll_dac.h **** #if defined(DAC_CHANNEL2_SUPPORT)
 496:Drivers/STM32L4xx_HAL_Driver/Inc/stm32l4xx_ll_dac.h **** #define __LL_DAC_DECIMAL_NB_TO_CHANNEL(__DECIMAL_NB__)                         \
 497:Drivers/STM32L4xx_HAL_Driver/Inc/stm32l4xx_ll_dac.h ****   (((__DECIMAL_NB__) == 1U)                                                    \
 498:Drivers/STM32L4xx_HAL_Driver/Inc/stm32l4xx_ll_dac.h ****     ? (                                                                        \
 499:Drivers/STM32L4xx_HAL_Driver/Inc/stm32l4xx_ll_dac.h ****        LL_DAC_CHANNEL_1                                                        \
 500:Drivers/STM32L4xx_HAL_Driver/Inc/stm32l4xx_ll_dac.h ****       )                                                                        \
 501:Drivers/STM32L4xx_HAL_Driver/Inc/stm32l4xx_ll_dac.h ****       :                                                                        \
 502:Drivers/STM32L4xx_HAL_Driver/Inc/stm32l4xx_ll_dac.h ****       (((__DECIMAL_NB__) == 2U)                                                \
 503:Drivers/STM32L4xx_HAL_Driver/Inc/stm32l4xx_ll_dac.h ****         ? (                                                                    \
 504:Drivers/STM32L4xx_HAL_Driver/Inc/stm32l4xx_ll_dac.h ****            LL_DAC_CHANNEL_2                                                    \
 505:Drivers/STM32L4xx_HAL_Driver/Inc/stm32l4xx_ll_dac.h ****           )                                                                    \
 506:Drivers/STM32L4xx_HAL_Driver/Inc/stm32l4xx_ll_dac.h ****           :                                                                    \
 507:Drivers/STM32L4xx_HAL_Driver/Inc/stm32l4xx_ll_dac.h ****           (                                                                    \
 508:Drivers/STM32L4xx_HAL_Driver/Inc/stm32l4xx_ll_dac.h ****            0U                                                                  \
 509:Drivers/STM32L4xx_HAL_Driver/Inc/stm32l4xx_ll_dac.h ****           )                                                                    \
 510:Drivers/STM32L4xx_HAL_Driver/Inc/stm32l4xx_ll_dac.h ****       )                                                                        \
 511:Drivers/STM32L4xx_HAL_Driver/Inc/stm32l4xx_ll_dac.h ****   )
 512:Drivers/STM32L4xx_HAL_Driver/Inc/stm32l4xx_ll_dac.h **** #else
 513:Drivers/STM32L4xx_HAL_Driver/Inc/stm32l4xx_ll_dac.h **** #define __LL_DAC_DECIMAL_NB_TO_CHANNEL(__DECIMAL_NB__)                         \
 514:Drivers/STM32L4xx_HAL_Driver/Inc/stm32l4xx_ll_dac.h ****   (((__DECIMAL_NB__) == 1U)                                                    \
ARM GAS  C:\Users\ep_ygh\AppData\Local\Temp\ccVL2nhg.s 			page 12


 515:Drivers/STM32L4xx_HAL_Driver/Inc/stm32l4xx_ll_dac.h ****     ? (                                                                        \
 516:Drivers/STM32L4xx_HAL_Driver/Inc/stm32l4xx_ll_dac.h ****        LL_DAC_CHANNEL_1                                                        \
 517:Drivers/STM32L4xx_HAL_Driver/Inc/stm32l4xx_ll_dac.h ****       )                                                                        \
 518:Drivers/STM32L4xx_HAL_Driver/Inc/stm32l4xx_ll_dac.h ****       :                                                                        \
 519:Drivers/STM32L4xx_HAL_Driver/Inc/stm32l4xx_ll_dac.h ****       (                                                                        \
 520:Drivers/STM32L4xx_HAL_Driver/Inc/stm32l4xx_ll_dac.h ****        0U                                                                      \
 521:Drivers/STM32L4xx_HAL_Driver/Inc/stm32l4xx_ll_dac.h ****       )                                                                        \
 522:Drivers/STM32L4xx_HAL_Driver/Inc/stm32l4xx_ll_dac.h ****   )
 523:Drivers/STM32L4xx_HAL_Driver/Inc/stm32l4xx_ll_dac.h **** #endif  /* DAC_CHANNEL2_SUPPORT */
 524:Drivers/STM32L4xx_HAL_Driver/Inc/stm32l4xx_ll_dac.h **** 
 525:Drivers/STM32L4xx_HAL_Driver/Inc/stm32l4xx_ll_dac.h **** /**
 526:Drivers/STM32L4xx_HAL_Driver/Inc/stm32l4xx_ll_dac.h ****   * @brief  Helper macro to define the DAC conversion data full-scale digital
 527:Drivers/STM32L4xx_HAL_Driver/Inc/stm32l4xx_ll_dac.h ****   *         value corresponding to the selected DAC resolution.
 528:Drivers/STM32L4xx_HAL_Driver/Inc/stm32l4xx_ll_dac.h ****   * @note   DAC conversion data full-scale corresponds to voltage range
 529:Drivers/STM32L4xx_HAL_Driver/Inc/stm32l4xx_ll_dac.h ****   *         determined by analog voltage references Vref+ and Vref-
 530:Drivers/STM32L4xx_HAL_Driver/Inc/stm32l4xx_ll_dac.h ****   *         (refer to reference manual).
 531:Drivers/STM32L4xx_HAL_Driver/Inc/stm32l4xx_ll_dac.h ****   * @param  __DAC_RESOLUTION__ This parameter can be one of the following values:
 532:Drivers/STM32L4xx_HAL_Driver/Inc/stm32l4xx_ll_dac.h ****   *         @arg @ref LL_DAC_RESOLUTION_12B
 533:Drivers/STM32L4xx_HAL_Driver/Inc/stm32l4xx_ll_dac.h ****   *         @arg @ref LL_DAC_RESOLUTION_8B
 534:Drivers/STM32L4xx_HAL_Driver/Inc/stm32l4xx_ll_dac.h ****   * @retval ADC conversion data equivalent voltage value (unit: mVolt)
 535:Drivers/STM32L4xx_HAL_Driver/Inc/stm32l4xx_ll_dac.h ****   */
 536:Drivers/STM32L4xx_HAL_Driver/Inc/stm32l4xx_ll_dac.h **** #define __LL_DAC_DIGITAL_SCALE(__DAC_RESOLUTION__)                             \
 537:Drivers/STM32L4xx_HAL_Driver/Inc/stm32l4xx_ll_dac.h ****   ((0x00000FFFU) >> ((__DAC_RESOLUTION__) << 1U))
 538:Drivers/STM32L4xx_HAL_Driver/Inc/stm32l4xx_ll_dac.h **** 
 539:Drivers/STM32L4xx_HAL_Driver/Inc/stm32l4xx_ll_dac.h **** /**
 540:Drivers/STM32L4xx_HAL_Driver/Inc/stm32l4xx_ll_dac.h ****   * @brief  Helper macro to calculate the DAC conversion data (unit: digital
 541:Drivers/STM32L4xx_HAL_Driver/Inc/stm32l4xx_ll_dac.h ****   *         value) corresponding to a voltage (unit: mVolt).
 542:Drivers/STM32L4xx_HAL_Driver/Inc/stm32l4xx_ll_dac.h ****   * @note   This helper macro is intended to provide input data in voltage
 543:Drivers/STM32L4xx_HAL_Driver/Inc/stm32l4xx_ll_dac.h ****   *         rather than digital value,
 544:Drivers/STM32L4xx_HAL_Driver/Inc/stm32l4xx_ll_dac.h ****   *         to be used with LL DAC functions such as
 545:Drivers/STM32L4xx_HAL_Driver/Inc/stm32l4xx_ll_dac.h ****   *         @ref LL_DAC_ConvertData12RightAligned().
 546:Drivers/STM32L4xx_HAL_Driver/Inc/stm32l4xx_ll_dac.h ****   * @note   Analog reference voltage (Vref+) must be either known from
 547:Drivers/STM32L4xx_HAL_Driver/Inc/stm32l4xx_ll_dac.h ****   *         user board environment or can be calculated using ADC measurement
 548:Drivers/STM32L4xx_HAL_Driver/Inc/stm32l4xx_ll_dac.h ****   *         and ADC helper macro @ref __LL_ADC_CALC_VREFANALOG_VOLTAGE().
 549:Drivers/STM32L4xx_HAL_Driver/Inc/stm32l4xx_ll_dac.h ****   * @param  __VREFANALOG_VOLTAGE__ Analog reference voltage (unit: mV)
 550:Drivers/STM32L4xx_HAL_Driver/Inc/stm32l4xx_ll_dac.h ****   * @param  __DAC_VOLTAGE__ Voltage to be generated by DAC channel
 551:Drivers/STM32L4xx_HAL_Driver/Inc/stm32l4xx_ll_dac.h ****   *                         (unit: mVolt).
 552:Drivers/STM32L4xx_HAL_Driver/Inc/stm32l4xx_ll_dac.h ****   * @param  __DAC_RESOLUTION__ This parameter can be one of the following values:
 553:Drivers/STM32L4xx_HAL_Driver/Inc/stm32l4xx_ll_dac.h ****   *         @arg @ref LL_DAC_RESOLUTION_12B
 554:Drivers/STM32L4xx_HAL_Driver/Inc/stm32l4xx_ll_dac.h ****   *         @arg @ref LL_DAC_RESOLUTION_8B
 555:Drivers/STM32L4xx_HAL_Driver/Inc/stm32l4xx_ll_dac.h ****   * @retval DAC conversion data (unit: digital value)
 556:Drivers/STM32L4xx_HAL_Driver/Inc/stm32l4xx_ll_dac.h ****   */
 557:Drivers/STM32L4xx_HAL_Driver/Inc/stm32l4xx_ll_dac.h **** #define __LL_DAC_CALC_VOLTAGE_TO_DATA(__VREFANALOG_VOLTAGE__,\
 558:Drivers/STM32L4xx_HAL_Driver/Inc/stm32l4xx_ll_dac.h ****                                       __DAC_VOLTAGE__,\
 559:Drivers/STM32L4xx_HAL_Driver/Inc/stm32l4xx_ll_dac.h ****                                       __DAC_RESOLUTION__)                      \
 560:Drivers/STM32L4xx_HAL_Driver/Inc/stm32l4xx_ll_dac.h ****   ((__DAC_VOLTAGE__) * __LL_DAC_DIGITAL_SCALE(__DAC_RESOLUTION__)              \
 561:Drivers/STM32L4xx_HAL_Driver/Inc/stm32l4xx_ll_dac.h ****    / (__VREFANALOG_VOLTAGE__)                                                  \
 562:Drivers/STM32L4xx_HAL_Driver/Inc/stm32l4xx_ll_dac.h ****   )
 563:Drivers/STM32L4xx_HAL_Driver/Inc/stm32l4xx_ll_dac.h **** 
 564:Drivers/STM32L4xx_HAL_Driver/Inc/stm32l4xx_ll_dac.h **** /**
 565:Drivers/STM32L4xx_HAL_Driver/Inc/stm32l4xx_ll_dac.h ****   * @}
 566:Drivers/STM32L4xx_HAL_Driver/Inc/stm32l4xx_ll_dac.h ****   */
 567:Drivers/STM32L4xx_HAL_Driver/Inc/stm32l4xx_ll_dac.h **** 
 568:Drivers/STM32L4xx_HAL_Driver/Inc/stm32l4xx_ll_dac.h **** /**
 569:Drivers/STM32L4xx_HAL_Driver/Inc/stm32l4xx_ll_dac.h ****   * @}
 570:Drivers/STM32L4xx_HAL_Driver/Inc/stm32l4xx_ll_dac.h ****   */
 571:Drivers/STM32L4xx_HAL_Driver/Inc/stm32l4xx_ll_dac.h **** 
ARM GAS  C:\Users\ep_ygh\AppData\Local\Temp\ccVL2nhg.s 			page 13


 572:Drivers/STM32L4xx_HAL_Driver/Inc/stm32l4xx_ll_dac.h **** 
 573:Drivers/STM32L4xx_HAL_Driver/Inc/stm32l4xx_ll_dac.h **** /* Exported functions --------------------------------------------------------*/
 574:Drivers/STM32L4xx_HAL_Driver/Inc/stm32l4xx_ll_dac.h **** /** @defgroup DAC_LL_Exported_Functions DAC Exported Functions
 575:Drivers/STM32L4xx_HAL_Driver/Inc/stm32l4xx_ll_dac.h ****   * @{
 576:Drivers/STM32L4xx_HAL_Driver/Inc/stm32l4xx_ll_dac.h ****   */
 577:Drivers/STM32L4xx_HAL_Driver/Inc/stm32l4xx_ll_dac.h **** 
 578:Drivers/STM32L4xx_HAL_Driver/Inc/stm32l4xx_ll_dac.h **** #if defined (DAC_CR_HFSEL) /* High frequency interface mode */
 579:Drivers/STM32L4xx_HAL_Driver/Inc/stm32l4xx_ll_dac.h **** 
 580:Drivers/STM32L4xx_HAL_Driver/Inc/stm32l4xx_ll_dac.h **** /** @defgroup DAC_LL_EF_High_Frequency_Configuration High Frequency Configuration of DAC instance
 581:Drivers/STM32L4xx_HAL_Driver/Inc/stm32l4xx_ll_dac.h ****   * @{
 582:Drivers/STM32L4xx_HAL_Driver/Inc/stm32l4xx_ll_dac.h ****   */
 583:Drivers/STM32L4xx_HAL_Driver/Inc/stm32l4xx_ll_dac.h **** /**
 584:Drivers/STM32L4xx_HAL_Driver/Inc/stm32l4xx_ll_dac.h ****   * @brief  Set the high frequency interface mode for the selected DAC instance
 585:Drivers/STM32L4xx_HAL_Driver/Inc/stm32l4xx_ll_dac.h ****   * @rmtoll CR       HFSEL          LL_DAC_SetHighFrequencyMode
 586:Drivers/STM32L4xx_HAL_Driver/Inc/stm32l4xx_ll_dac.h ****   * @param  DACx DAC instance
 587:Drivers/STM32L4xx_HAL_Driver/Inc/stm32l4xx_ll_dac.h ****   * @param  HighFreqMode This parameter can be one of the following values:
 588:Drivers/STM32L4xx_HAL_Driver/Inc/stm32l4xx_ll_dac.h ****   *         @arg @ref LL_DAC_HIGH_FREQ_MODE_DISABLE
 589:Drivers/STM32L4xx_HAL_Driver/Inc/stm32l4xx_ll_dac.h ****   *         @arg @ref LL_DAC_HIGH_FREQ_MODE_ABOVE_80MHZ
 590:Drivers/STM32L4xx_HAL_Driver/Inc/stm32l4xx_ll_dac.h ****   * @retval None
 591:Drivers/STM32L4xx_HAL_Driver/Inc/stm32l4xx_ll_dac.h ****   */
 592:Drivers/STM32L4xx_HAL_Driver/Inc/stm32l4xx_ll_dac.h **** __STATIC_INLINE void LL_DAC_SetHighFrequencyMode(DAC_TypeDef *DACx, uint32_t HighFreqMode)
 593:Drivers/STM32L4xx_HAL_Driver/Inc/stm32l4xx_ll_dac.h **** {
 594:Drivers/STM32L4xx_HAL_Driver/Inc/stm32l4xx_ll_dac.h ****   MODIFY_REG(DACx->CR, DAC_CR_HFSEL, HighFreqMode);
 595:Drivers/STM32L4xx_HAL_Driver/Inc/stm32l4xx_ll_dac.h **** }
 596:Drivers/STM32L4xx_HAL_Driver/Inc/stm32l4xx_ll_dac.h **** 
 597:Drivers/STM32L4xx_HAL_Driver/Inc/stm32l4xx_ll_dac.h **** /**
 598:Drivers/STM32L4xx_HAL_Driver/Inc/stm32l4xx_ll_dac.h ****   * @brief  Get the high frequency interface mode for the selected DAC instance
 599:Drivers/STM32L4xx_HAL_Driver/Inc/stm32l4xx_ll_dac.h ****   * @rmtoll CR       HFSEL          LL_DAC_GetHighFrequencyMode
 600:Drivers/STM32L4xx_HAL_Driver/Inc/stm32l4xx_ll_dac.h ****   * @param  DACx DAC instance
 601:Drivers/STM32L4xx_HAL_Driver/Inc/stm32l4xx_ll_dac.h ****   * @retval Returned value can be one of the following values:
 602:Drivers/STM32L4xx_HAL_Driver/Inc/stm32l4xx_ll_dac.h ****   *         @arg @ref LL_DAC_HIGH_FREQ_MODE_DISABLE
 603:Drivers/STM32L4xx_HAL_Driver/Inc/stm32l4xx_ll_dac.h ****   *         @arg @ref LL_DAC_HIGH_FREQ_MODE_ABOVE_80MHZ
 604:Drivers/STM32L4xx_HAL_Driver/Inc/stm32l4xx_ll_dac.h ****   */
 605:Drivers/STM32L4xx_HAL_Driver/Inc/stm32l4xx_ll_dac.h **** __STATIC_INLINE uint32_t LL_DAC_GetHighFrequencyMode(DAC_TypeDef *DACx)
 606:Drivers/STM32L4xx_HAL_Driver/Inc/stm32l4xx_ll_dac.h **** {
 607:Drivers/STM32L4xx_HAL_Driver/Inc/stm32l4xx_ll_dac.h ****   return (uint32_t)(READ_BIT(DACx->CR, DAC_CR_HFSEL));
 608:Drivers/STM32L4xx_HAL_Driver/Inc/stm32l4xx_ll_dac.h **** }
 609:Drivers/STM32L4xx_HAL_Driver/Inc/stm32l4xx_ll_dac.h **** /**
 610:Drivers/STM32L4xx_HAL_Driver/Inc/stm32l4xx_ll_dac.h ****   * @}
 611:Drivers/STM32L4xx_HAL_Driver/Inc/stm32l4xx_ll_dac.h ****   */
 612:Drivers/STM32L4xx_HAL_Driver/Inc/stm32l4xx_ll_dac.h **** 
 613:Drivers/STM32L4xx_HAL_Driver/Inc/stm32l4xx_ll_dac.h **** #endif /* High frequency interface mode */
 614:Drivers/STM32L4xx_HAL_Driver/Inc/stm32l4xx_ll_dac.h **** 
 615:Drivers/STM32L4xx_HAL_Driver/Inc/stm32l4xx_ll_dac.h **** /** @defgroup DAC_LL_EF_Configuration Configuration of DAC channels
 616:Drivers/STM32L4xx_HAL_Driver/Inc/stm32l4xx_ll_dac.h ****   * @{
 617:Drivers/STM32L4xx_HAL_Driver/Inc/stm32l4xx_ll_dac.h ****   */
 618:Drivers/STM32L4xx_HAL_Driver/Inc/stm32l4xx_ll_dac.h **** 
 619:Drivers/STM32L4xx_HAL_Driver/Inc/stm32l4xx_ll_dac.h **** /**
 620:Drivers/STM32L4xx_HAL_Driver/Inc/stm32l4xx_ll_dac.h ****   * @brief  Set the operating mode for the selected DAC channel:
 621:Drivers/STM32L4xx_HAL_Driver/Inc/stm32l4xx_ll_dac.h ****   *         calibration or normal operating mode.
 622:Drivers/STM32L4xx_HAL_Driver/Inc/stm32l4xx_ll_dac.h ****   * @rmtoll CR       CEN1           LL_DAC_SetMode\n
 623:Drivers/STM32L4xx_HAL_Driver/Inc/stm32l4xx_ll_dac.h ****   *         CR       CEN2           LL_DAC_SetMode
 624:Drivers/STM32L4xx_HAL_Driver/Inc/stm32l4xx_ll_dac.h ****   * @param  DACx DAC instance
 625:Drivers/STM32L4xx_HAL_Driver/Inc/stm32l4xx_ll_dac.h ****   * @param  DAC_Channel This parameter can be one of the following values:
 626:Drivers/STM32L4xx_HAL_Driver/Inc/stm32l4xx_ll_dac.h ****   *         @arg @ref LL_DAC_CHANNEL_1
 627:Drivers/STM32L4xx_HAL_Driver/Inc/stm32l4xx_ll_dac.h ****   *         @arg @ref LL_DAC_CHANNEL_2
 628:Drivers/STM32L4xx_HAL_Driver/Inc/stm32l4xx_ll_dac.h ****   * @param  ChannelMode This parameter can be one of the following values:
ARM GAS  C:\Users\ep_ygh\AppData\Local\Temp\ccVL2nhg.s 			page 14


 629:Drivers/STM32L4xx_HAL_Driver/Inc/stm32l4xx_ll_dac.h ****   *         @arg @ref LL_DAC_MODE_NORMAL_OPERATION
 630:Drivers/STM32L4xx_HAL_Driver/Inc/stm32l4xx_ll_dac.h ****   *         @arg @ref LL_DAC_MODE_CALIBRATION
 631:Drivers/STM32L4xx_HAL_Driver/Inc/stm32l4xx_ll_dac.h ****   * @retval None
 632:Drivers/STM32L4xx_HAL_Driver/Inc/stm32l4xx_ll_dac.h ****   */
 633:Drivers/STM32L4xx_HAL_Driver/Inc/stm32l4xx_ll_dac.h **** __STATIC_INLINE void LL_DAC_SetMode(DAC_TypeDef *DACx, uint32_t DAC_Channel, uint32_t ChannelMode)
 634:Drivers/STM32L4xx_HAL_Driver/Inc/stm32l4xx_ll_dac.h **** {
 635:Drivers/STM32L4xx_HAL_Driver/Inc/stm32l4xx_ll_dac.h ****   MODIFY_REG(DACx->CR,
 636:Drivers/STM32L4xx_HAL_Driver/Inc/stm32l4xx_ll_dac.h ****              DAC_CR_CEN1 << (DAC_Channel & DAC_CR_CHX_BITOFFSET_MASK),
 637:Drivers/STM32L4xx_HAL_Driver/Inc/stm32l4xx_ll_dac.h ****              ChannelMode << (DAC_Channel & DAC_CR_CHX_BITOFFSET_MASK));
 638:Drivers/STM32L4xx_HAL_Driver/Inc/stm32l4xx_ll_dac.h **** }
 639:Drivers/STM32L4xx_HAL_Driver/Inc/stm32l4xx_ll_dac.h **** 
 640:Drivers/STM32L4xx_HAL_Driver/Inc/stm32l4xx_ll_dac.h **** /**
 641:Drivers/STM32L4xx_HAL_Driver/Inc/stm32l4xx_ll_dac.h ****   * @brief  Get the operating mode for the selected DAC channel:
 642:Drivers/STM32L4xx_HAL_Driver/Inc/stm32l4xx_ll_dac.h ****   *         calibration or normal operating mode.
 643:Drivers/STM32L4xx_HAL_Driver/Inc/stm32l4xx_ll_dac.h ****   * @rmtoll CR       CEN1           LL_DAC_GetMode\n
 644:Drivers/STM32L4xx_HAL_Driver/Inc/stm32l4xx_ll_dac.h ****   *         CR       CEN2           LL_DAC_GetMode
 645:Drivers/STM32L4xx_HAL_Driver/Inc/stm32l4xx_ll_dac.h ****   * @param  DACx DAC instance
 646:Drivers/STM32L4xx_HAL_Driver/Inc/stm32l4xx_ll_dac.h ****   * @param  DAC_Channel This parameter can be one of the following values:
 647:Drivers/STM32L4xx_HAL_Driver/Inc/stm32l4xx_ll_dac.h ****   *         @arg @ref LL_DAC_CHANNEL_1
 648:Drivers/STM32L4xx_HAL_Driver/Inc/stm32l4xx_ll_dac.h ****   *         @arg @ref LL_DAC_CHANNEL_2
 649:Drivers/STM32L4xx_HAL_Driver/Inc/stm32l4xx_ll_dac.h ****   * @retval Returned value can be one of the following values:
 650:Drivers/STM32L4xx_HAL_Driver/Inc/stm32l4xx_ll_dac.h ****   *         @arg @ref LL_DAC_MODE_NORMAL_OPERATION
 651:Drivers/STM32L4xx_HAL_Driver/Inc/stm32l4xx_ll_dac.h ****   *         @arg @ref LL_DAC_MODE_CALIBRATION
 652:Drivers/STM32L4xx_HAL_Driver/Inc/stm32l4xx_ll_dac.h ****   */
 653:Drivers/STM32L4xx_HAL_Driver/Inc/stm32l4xx_ll_dac.h **** __STATIC_INLINE uint32_t LL_DAC_GetMode(DAC_TypeDef *DACx, uint32_t DAC_Channel)
 654:Drivers/STM32L4xx_HAL_Driver/Inc/stm32l4xx_ll_dac.h **** {
 655:Drivers/STM32L4xx_HAL_Driver/Inc/stm32l4xx_ll_dac.h ****   return (uint32_t)(READ_BIT(DACx->CR, DAC_CR_CEN1 << (DAC_Channel & DAC_CR_CHX_BITOFFSET_MASK))
 656:Drivers/STM32L4xx_HAL_Driver/Inc/stm32l4xx_ll_dac.h ****                     >> (DAC_Channel & DAC_CR_CHX_BITOFFSET_MASK)
 657:Drivers/STM32L4xx_HAL_Driver/Inc/stm32l4xx_ll_dac.h ****                    );
 658:Drivers/STM32L4xx_HAL_Driver/Inc/stm32l4xx_ll_dac.h **** }
 659:Drivers/STM32L4xx_HAL_Driver/Inc/stm32l4xx_ll_dac.h **** 
 660:Drivers/STM32L4xx_HAL_Driver/Inc/stm32l4xx_ll_dac.h **** /**
 661:Drivers/STM32L4xx_HAL_Driver/Inc/stm32l4xx_ll_dac.h ****   * @brief  Set the offset trimming value for the selected DAC channel.
 662:Drivers/STM32L4xx_HAL_Driver/Inc/stm32l4xx_ll_dac.h ****   *         Trimming has an impact when output buffer is enabled
 663:Drivers/STM32L4xx_HAL_Driver/Inc/stm32l4xx_ll_dac.h ****   *         and is intended to replace factory calibration default values.
 664:Drivers/STM32L4xx_HAL_Driver/Inc/stm32l4xx_ll_dac.h ****   * @rmtoll CCR      OTRIM1         LL_DAC_SetTrimmingValue\n
 665:Drivers/STM32L4xx_HAL_Driver/Inc/stm32l4xx_ll_dac.h ****   *         CCR      OTRIM2         LL_DAC_SetTrimmingValue
 666:Drivers/STM32L4xx_HAL_Driver/Inc/stm32l4xx_ll_dac.h ****   * @param  DACx DAC instance
 667:Drivers/STM32L4xx_HAL_Driver/Inc/stm32l4xx_ll_dac.h ****   * @param  DAC_Channel This parameter can be one of the following values:
 668:Drivers/STM32L4xx_HAL_Driver/Inc/stm32l4xx_ll_dac.h ****   *         @arg @ref LL_DAC_CHANNEL_1
 669:Drivers/STM32L4xx_HAL_Driver/Inc/stm32l4xx_ll_dac.h ****   *         @arg @ref LL_DAC_CHANNEL_2
 670:Drivers/STM32L4xx_HAL_Driver/Inc/stm32l4xx_ll_dac.h ****   * @param  TrimmingValue Value between Min_Data=0x00 and Max_Data=0x1F
 671:Drivers/STM32L4xx_HAL_Driver/Inc/stm32l4xx_ll_dac.h ****   * @retval None
 672:Drivers/STM32L4xx_HAL_Driver/Inc/stm32l4xx_ll_dac.h ****   */
 673:Drivers/STM32L4xx_HAL_Driver/Inc/stm32l4xx_ll_dac.h **** __STATIC_INLINE void LL_DAC_SetTrimmingValue(DAC_TypeDef *DACx, uint32_t DAC_Channel, uint32_t Trim
 674:Drivers/STM32L4xx_HAL_Driver/Inc/stm32l4xx_ll_dac.h **** {
 675:Drivers/STM32L4xx_HAL_Driver/Inc/stm32l4xx_ll_dac.h ****   MODIFY_REG(DACx->CCR,
 676:Drivers/STM32L4xx_HAL_Driver/Inc/stm32l4xx_ll_dac.h ****              DAC_CCR_OTRIM1 << (DAC_Channel & DAC_CR_CHX_BITOFFSET_MASK),
 677:Drivers/STM32L4xx_HAL_Driver/Inc/stm32l4xx_ll_dac.h ****              TrimmingValue << (DAC_Channel & DAC_CR_CHX_BITOFFSET_MASK));
 678:Drivers/STM32L4xx_HAL_Driver/Inc/stm32l4xx_ll_dac.h **** }
 679:Drivers/STM32L4xx_HAL_Driver/Inc/stm32l4xx_ll_dac.h **** 
 680:Drivers/STM32L4xx_HAL_Driver/Inc/stm32l4xx_ll_dac.h **** /**
 681:Drivers/STM32L4xx_HAL_Driver/Inc/stm32l4xx_ll_dac.h ****   * @brief  Get the offset trimming value for the selected DAC channel.
 682:Drivers/STM32L4xx_HAL_Driver/Inc/stm32l4xx_ll_dac.h ****   *         Trimming has an impact when output buffer is enabled
 683:Drivers/STM32L4xx_HAL_Driver/Inc/stm32l4xx_ll_dac.h ****   *         and is intended to replace factory calibration default values.
 684:Drivers/STM32L4xx_HAL_Driver/Inc/stm32l4xx_ll_dac.h ****   * @rmtoll CCR      OTRIM1         LL_DAC_GetTrimmingValue\n
 685:Drivers/STM32L4xx_HAL_Driver/Inc/stm32l4xx_ll_dac.h ****   *         CCR      OTRIM2         LL_DAC_GetTrimmingValue
ARM GAS  C:\Users\ep_ygh\AppData\Local\Temp\ccVL2nhg.s 			page 15


 686:Drivers/STM32L4xx_HAL_Driver/Inc/stm32l4xx_ll_dac.h ****   * @param  DACx DAC instance
 687:Drivers/STM32L4xx_HAL_Driver/Inc/stm32l4xx_ll_dac.h ****   * @param  DAC_Channel This parameter can be one of the following values:
 688:Drivers/STM32L4xx_HAL_Driver/Inc/stm32l4xx_ll_dac.h ****   *         @arg @ref LL_DAC_CHANNEL_1
 689:Drivers/STM32L4xx_HAL_Driver/Inc/stm32l4xx_ll_dac.h ****   *         @arg @ref LL_DAC_CHANNEL_2
 690:Drivers/STM32L4xx_HAL_Driver/Inc/stm32l4xx_ll_dac.h ****   * @retval TrimmingValue Value between Min_Data=0x00 and Max_Data=0x1F
 691:Drivers/STM32L4xx_HAL_Driver/Inc/stm32l4xx_ll_dac.h ****   */
 692:Drivers/STM32L4xx_HAL_Driver/Inc/stm32l4xx_ll_dac.h **** __STATIC_INLINE uint32_t LL_DAC_GetTrimmingValue(DAC_TypeDef *DACx, uint32_t DAC_Channel)
 693:Drivers/STM32L4xx_HAL_Driver/Inc/stm32l4xx_ll_dac.h **** {
 694:Drivers/STM32L4xx_HAL_Driver/Inc/stm32l4xx_ll_dac.h ****   return (uint32_t)(READ_BIT(DACx->CCR, DAC_CCR_OTRIM1 << (DAC_Channel & DAC_CR_CHX_BITOFFSET_MASK)
 695:Drivers/STM32L4xx_HAL_Driver/Inc/stm32l4xx_ll_dac.h ****                     >> (DAC_Channel & DAC_CR_CHX_BITOFFSET_MASK)
 696:Drivers/STM32L4xx_HAL_Driver/Inc/stm32l4xx_ll_dac.h ****                    );
 697:Drivers/STM32L4xx_HAL_Driver/Inc/stm32l4xx_ll_dac.h **** }
 698:Drivers/STM32L4xx_HAL_Driver/Inc/stm32l4xx_ll_dac.h **** 
 699:Drivers/STM32L4xx_HAL_Driver/Inc/stm32l4xx_ll_dac.h **** /**
 700:Drivers/STM32L4xx_HAL_Driver/Inc/stm32l4xx_ll_dac.h ****   * @brief  Set the conversion trigger source for the selected DAC channel.
 701:Drivers/STM32L4xx_HAL_Driver/Inc/stm32l4xx_ll_dac.h ****   * @note   For conversion trigger source to be effective, DAC trigger
 702:Drivers/STM32L4xx_HAL_Driver/Inc/stm32l4xx_ll_dac.h ****   *         must be enabled using function @ref LL_DAC_EnableTrigger().
 703:Drivers/STM32L4xx_HAL_Driver/Inc/stm32l4xx_ll_dac.h ****   * @note   To set conversion trigger source, DAC channel must be disabled.
 704:Drivers/STM32L4xx_HAL_Driver/Inc/stm32l4xx_ll_dac.h ****   *         Otherwise, the setting is discarded.
 705:Drivers/STM32L4xx_HAL_Driver/Inc/stm32l4xx_ll_dac.h ****   * @note   Availability of parameters of trigger sources from timer
 706:Drivers/STM32L4xx_HAL_Driver/Inc/stm32l4xx_ll_dac.h ****   *         depends on timers availability on the selected device.
 707:Drivers/STM32L4xx_HAL_Driver/Inc/stm32l4xx_ll_dac.h ****   * @rmtoll CR       TSEL1          LL_DAC_SetTriggerSource\n
 708:Drivers/STM32L4xx_HAL_Driver/Inc/stm32l4xx_ll_dac.h ****   *         CR       TSEL2          LL_DAC_SetTriggerSource
 709:Drivers/STM32L4xx_HAL_Driver/Inc/stm32l4xx_ll_dac.h ****   * @param  DACx DAC instance
 710:Drivers/STM32L4xx_HAL_Driver/Inc/stm32l4xx_ll_dac.h ****   * @param  DAC_Channel This parameter can be one of the following values:
 711:Drivers/STM32L4xx_HAL_Driver/Inc/stm32l4xx_ll_dac.h ****   *         @arg @ref LL_DAC_CHANNEL_1
 712:Drivers/STM32L4xx_HAL_Driver/Inc/stm32l4xx_ll_dac.h ****   *         @arg @ref LL_DAC_CHANNEL_2
 713:Drivers/STM32L4xx_HAL_Driver/Inc/stm32l4xx_ll_dac.h ****   * @param  TriggerSource This parameter can be one of the following values:
 714:Drivers/STM32L4xx_HAL_Driver/Inc/stm32l4xx_ll_dac.h ****   *         @arg @ref LL_DAC_TRIG_SOFTWARE
 715:Drivers/STM32L4xx_HAL_Driver/Inc/stm32l4xx_ll_dac.h ****   *         @arg @ref LL_DAC_TRIG_EXT_TIM1_TRGO
 716:Drivers/STM32L4xx_HAL_Driver/Inc/stm32l4xx_ll_dac.h ****   *         @arg @ref LL_DAC_TRIG_EXT_TIM2_TRGO
 717:Drivers/STM32L4xx_HAL_Driver/Inc/stm32l4xx_ll_dac.h ****   *         @arg @ref LL_DAC_TRIG_EXT_TIM4_TRGO
 718:Drivers/STM32L4xx_HAL_Driver/Inc/stm32l4xx_ll_dac.h ****   *         @arg @ref LL_DAC_TRIG_EXT_TIM5_TRGO
 719:Drivers/STM32L4xx_HAL_Driver/Inc/stm32l4xx_ll_dac.h ****   *         @arg @ref LL_DAC_TRIG_EXT_TIM6_TRGO
 720:Drivers/STM32L4xx_HAL_Driver/Inc/stm32l4xx_ll_dac.h ****   *         @arg @ref LL_DAC_TRIG_EXT_TIM7_TRGO
 721:Drivers/STM32L4xx_HAL_Driver/Inc/stm32l4xx_ll_dac.h ****   *         @arg @ref LL_DAC_TRIG_EXT_TIM8_TRGO
 722:Drivers/STM32L4xx_HAL_Driver/Inc/stm32l4xx_ll_dac.h ****   *         @arg @ref LL_DAC_TRIG_EXT_TIM15_TRGO
 723:Drivers/STM32L4xx_HAL_Driver/Inc/stm32l4xx_ll_dac.h ****   *         @arg @ref LL_DAC_TRIG_EXT_LPTIM1_OUT
 724:Drivers/STM32L4xx_HAL_Driver/Inc/stm32l4xx_ll_dac.h ****   *         @arg @ref LL_DAC_TRIG_EXT_LPTIM2_OUT
 725:Drivers/STM32L4xx_HAL_Driver/Inc/stm32l4xx_ll_dac.h ****   *         @arg @ref LL_DAC_TRIG_EXT_EXTI_LINE9
 726:Drivers/STM32L4xx_HAL_Driver/Inc/stm32l4xx_ll_dac.h ****   * @retval None
 727:Drivers/STM32L4xx_HAL_Driver/Inc/stm32l4xx_ll_dac.h ****   */
 728:Drivers/STM32L4xx_HAL_Driver/Inc/stm32l4xx_ll_dac.h **** __STATIC_INLINE void LL_DAC_SetTriggerSource(DAC_TypeDef *DACx, uint32_t DAC_Channel, uint32_t Trig
 729:Drivers/STM32L4xx_HAL_Driver/Inc/stm32l4xx_ll_dac.h **** {
 730:Drivers/STM32L4xx_HAL_Driver/Inc/stm32l4xx_ll_dac.h ****   MODIFY_REG(DACx->CR,
 731:Drivers/STM32L4xx_HAL_Driver/Inc/stm32l4xx_ll_dac.h ****              DAC_CR_TSEL1 << (DAC_Channel & DAC_CR_CHX_BITOFFSET_MASK),
 732:Drivers/STM32L4xx_HAL_Driver/Inc/stm32l4xx_ll_dac.h ****              TriggerSource << (DAC_Channel & DAC_CR_CHX_BITOFFSET_MASK));
 733:Drivers/STM32L4xx_HAL_Driver/Inc/stm32l4xx_ll_dac.h **** }
 734:Drivers/STM32L4xx_HAL_Driver/Inc/stm32l4xx_ll_dac.h **** 
 735:Drivers/STM32L4xx_HAL_Driver/Inc/stm32l4xx_ll_dac.h **** /**
 736:Drivers/STM32L4xx_HAL_Driver/Inc/stm32l4xx_ll_dac.h ****   * @brief  Get the conversion trigger source for the selected DAC channel.
 737:Drivers/STM32L4xx_HAL_Driver/Inc/stm32l4xx_ll_dac.h ****   * @note   For conversion trigger source to be effective, DAC trigger
 738:Drivers/STM32L4xx_HAL_Driver/Inc/stm32l4xx_ll_dac.h ****   *         must be enabled using function @ref LL_DAC_EnableTrigger().
 739:Drivers/STM32L4xx_HAL_Driver/Inc/stm32l4xx_ll_dac.h ****   * @note   Availability of parameters of trigger sources from timer
 740:Drivers/STM32L4xx_HAL_Driver/Inc/stm32l4xx_ll_dac.h ****   *         depends on timers availability on the selected device.
 741:Drivers/STM32L4xx_HAL_Driver/Inc/stm32l4xx_ll_dac.h ****   * @rmtoll CR       TSEL1          LL_DAC_GetTriggerSource\n
 742:Drivers/STM32L4xx_HAL_Driver/Inc/stm32l4xx_ll_dac.h ****   *         CR       TSEL2          LL_DAC_GetTriggerSource
ARM GAS  C:\Users\ep_ygh\AppData\Local\Temp\ccVL2nhg.s 			page 16


 743:Drivers/STM32L4xx_HAL_Driver/Inc/stm32l4xx_ll_dac.h ****   * @param  DACx DAC instance
 744:Drivers/STM32L4xx_HAL_Driver/Inc/stm32l4xx_ll_dac.h ****   * @param  DAC_Channel This parameter can be one of the following values:
 745:Drivers/STM32L4xx_HAL_Driver/Inc/stm32l4xx_ll_dac.h ****   *         @arg @ref LL_DAC_CHANNEL_1
 746:Drivers/STM32L4xx_HAL_Driver/Inc/stm32l4xx_ll_dac.h ****   *         @arg @ref LL_DAC_CHANNEL_2 (1)
 747:Drivers/STM32L4xx_HAL_Driver/Inc/stm32l4xx_ll_dac.h ****   *
 748:Drivers/STM32L4xx_HAL_Driver/Inc/stm32l4xx_ll_dac.h ****   *         (1) On this STM32 series, parameter not available on all devices.
 749:Drivers/STM32L4xx_HAL_Driver/Inc/stm32l4xx_ll_dac.h ****   *             Refer to device datasheet for channels availability.
 750:Drivers/STM32L4xx_HAL_Driver/Inc/stm32l4xx_ll_dac.h ****   * @retval Returned value can be one of the following values:
 751:Drivers/STM32L4xx_HAL_Driver/Inc/stm32l4xx_ll_dac.h ****   *         @arg @ref LL_DAC_TRIG_SOFTWARE
 752:Drivers/STM32L4xx_HAL_Driver/Inc/stm32l4xx_ll_dac.h ****   *         @arg @ref LL_DAC_TRIG_EXT_TIM1_TRGO
 753:Drivers/STM32L4xx_HAL_Driver/Inc/stm32l4xx_ll_dac.h ****   *         @arg @ref LL_DAC_TRIG_EXT_TIM2_TRGO
 754:Drivers/STM32L4xx_HAL_Driver/Inc/stm32l4xx_ll_dac.h ****   *         @arg @ref LL_DAC_TRIG_EXT_TIM4_TRGO
 755:Drivers/STM32L4xx_HAL_Driver/Inc/stm32l4xx_ll_dac.h ****   *         @arg @ref LL_DAC_TRIG_EXT_TIM5_TRGO
 756:Drivers/STM32L4xx_HAL_Driver/Inc/stm32l4xx_ll_dac.h ****   *         @arg @ref LL_DAC_TRIG_EXT_TIM6_TRGO
 757:Drivers/STM32L4xx_HAL_Driver/Inc/stm32l4xx_ll_dac.h ****   *         @arg @ref LL_DAC_TRIG_EXT_TIM7_TRGO
 758:Drivers/STM32L4xx_HAL_Driver/Inc/stm32l4xx_ll_dac.h ****   *         @arg @ref LL_DAC_TRIG_EXT_TIM8_TRGO
 759:Drivers/STM32L4xx_HAL_Driver/Inc/stm32l4xx_ll_dac.h ****   *         @arg @ref LL_DAC_TRIG_EXT_TIM15_TRGO
 760:Drivers/STM32L4xx_HAL_Driver/Inc/stm32l4xx_ll_dac.h ****   *         @arg @ref LL_DAC_TRIG_EXT_LPTIM1_OUT
 761:Drivers/STM32L4xx_HAL_Driver/Inc/stm32l4xx_ll_dac.h ****   *         @arg @ref LL_DAC_TRIG_EXT_LPTIM2_OUT
 762:Drivers/STM32L4xx_HAL_Driver/Inc/stm32l4xx_ll_dac.h ****   *         @arg @ref LL_DAC_TRIG_EXT_EXTI_LINE9
 763:Drivers/STM32L4xx_HAL_Driver/Inc/stm32l4xx_ll_dac.h ****   */
 764:Drivers/STM32L4xx_HAL_Driver/Inc/stm32l4xx_ll_dac.h **** __STATIC_INLINE uint32_t LL_DAC_GetTriggerSource(DAC_TypeDef *DACx, uint32_t DAC_Channel)
 765:Drivers/STM32L4xx_HAL_Driver/Inc/stm32l4xx_ll_dac.h **** {
 766:Drivers/STM32L4xx_HAL_Driver/Inc/stm32l4xx_ll_dac.h ****   return (uint32_t)(READ_BIT(DACx->CR, DAC_CR_TSEL1 << (DAC_Channel & DAC_CR_CHX_BITOFFSET_MASK))
 767:Drivers/STM32L4xx_HAL_Driver/Inc/stm32l4xx_ll_dac.h ****                     >> (DAC_Channel & DAC_CR_CHX_BITOFFSET_MASK)
 768:Drivers/STM32L4xx_HAL_Driver/Inc/stm32l4xx_ll_dac.h ****                    );
 769:Drivers/STM32L4xx_HAL_Driver/Inc/stm32l4xx_ll_dac.h **** }
 770:Drivers/STM32L4xx_HAL_Driver/Inc/stm32l4xx_ll_dac.h **** 
 771:Drivers/STM32L4xx_HAL_Driver/Inc/stm32l4xx_ll_dac.h **** /**
 772:Drivers/STM32L4xx_HAL_Driver/Inc/stm32l4xx_ll_dac.h ****   * @brief  Set the waveform automatic generation mode
 773:Drivers/STM32L4xx_HAL_Driver/Inc/stm32l4xx_ll_dac.h ****   *         for the selected DAC channel.
 774:Drivers/STM32L4xx_HAL_Driver/Inc/stm32l4xx_ll_dac.h ****   * @rmtoll CR       WAVE1          LL_DAC_SetWaveAutoGeneration\n
 775:Drivers/STM32L4xx_HAL_Driver/Inc/stm32l4xx_ll_dac.h ****   *         CR       WAVE2          LL_DAC_SetWaveAutoGeneration
 776:Drivers/STM32L4xx_HAL_Driver/Inc/stm32l4xx_ll_dac.h ****   * @param  DACx DAC instance
 777:Drivers/STM32L4xx_HAL_Driver/Inc/stm32l4xx_ll_dac.h ****   * @param  DAC_Channel This parameter can be one of the following values:
 778:Drivers/STM32L4xx_HAL_Driver/Inc/stm32l4xx_ll_dac.h ****   *         @arg @ref LL_DAC_CHANNEL_1
 779:Drivers/STM32L4xx_HAL_Driver/Inc/stm32l4xx_ll_dac.h ****   *         @arg @ref LL_DAC_CHANNEL_2 (1)
 780:Drivers/STM32L4xx_HAL_Driver/Inc/stm32l4xx_ll_dac.h ****   *
 781:Drivers/STM32L4xx_HAL_Driver/Inc/stm32l4xx_ll_dac.h ****   *         (1) On this STM32 series, parameter not available on all devices.
 782:Drivers/STM32L4xx_HAL_Driver/Inc/stm32l4xx_ll_dac.h ****   *             Refer to device datasheet for channels availability.
 783:Drivers/STM32L4xx_HAL_Driver/Inc/stm32l4xx_ll_dac.h ****   * @param  WaveAutoGeneration This parameter can be one of the following values:
 784:Drivers/STM32L4xx_HAL_Driver/Inc/stm32l4xx_ll_dac.h ****   *         @arg @ref LL_DAC_WAVE_AUTO_GENERATION_NONE
 785:Drivers/STM32L4xx_HAL_Driver/Inc/stm32l4xx_ll_dac.h ****   *         @arg @ref LL_DAC_WAVE_AUTO_GENERATION_NOISE
 786:Drivers/STM32L4xx_HAL_Driver/Inc/stm32l4xx_ll_dac.h ****   *         @arg @ref LL_DAC_WAVE_AUTO_GENERATION_TRIANGLE
 787:Drivers/STM32L4xx_HAL_Driver/Inc/stm32l4xx_ll_dac.h ****   * @retval None
 788:Drivers/STM32L4xx_HAL_Driver/Inc/stm32l4xx_ll_dac.h ****   */
 789:Drivers/STM32L4xx_HAL_Driver/Inc/stm32l4xx_ll_dac.h **** __STATIC_INLINE void LL_DAC_SetWaveAutoGeneration(DAC_TypeDef *DACx, uint32_t DAC_Channel, uint32_t
 790:Drivers/STM32L4xx_HAL_Driver/Inc/stm32l4xx_ll_dac.h **** {
 791:Drivers/STM32L4xx_HAL_Driver/Inc/stm32l4xx_ll_dac.h ****   MODIFY_REG(DACx->CR,
 792:Drivers/STM32L4xx_HAL_Driver/Inc/stm32l4xx_ll_dac.h ****              DAC_CR_WAVE1 << (DAC_Channel & DAC_CR_CHX_BITOFFSET_MASK),
 793:Drivers/STM32L4xx_HAL_Driver/Inc/stm32l4xx_ll_dac.h ****              WaveAutoGeneration << (DAC_Channel & DAC_CR_CHX_BITOFFSET_MASK));
 794:Drivers/STM32L4xx_HAL_Driver/Inc/stm32l4xx_ll_dac.h **** }
 795:Drivers/STM32L4xx_HAL_Driver/Inc/stm32l4xx_ll_dac.h **** 
 796:Drivers/STM32L4xx_HAL_Driver/Inc/stm32l4xx_ll_dac.h **** /**
 797:Drivers/STM32L4xx_HAL_Driver/Inc/stm32l4xx_ll_dac.h ****   * @brief  Get the waveform automatic generation mode
 798:Drivers/STM32L4xx_HAL_Driver/Inc/stm32l4xx_ll_dac.h ****   *         for the selected DAC channel.
 799:Drivers/STM32L4xx_HAL_Driver/Inc/stm32l4xx_ll_dac.h ****   * @rmtoll CR       WAVE1          LL_DAC_GetWaveAutoGeneration\n
ARM GAS  C:\Users\ep_ygh\AppData\Local\Temp\ccVL2nhg.s 			page 17


 800:Drivers/STM32L4xx_HAL_Driver/Inc/stm32l4xx_ll_dac.h ****   *         CR       WAVE2          LL_DAC_GetWaveAutoGeneration
 801:Drivers/STM32L4xx_HAL_Driver/Inc/stm32l4xx_ll_dac.h ****   * @param  DACx DAC instance
 802:Drivers/STM32L4xx_HAL_Driver/Inc/stm32l4xx_ll_dac.h ****   * @param  DAC_Channel This parameter can be one of the following values:
 803:Drivers/STM32L4xx_HAL_Driver/Inc/stm32l4xx_ll_dac.h ****   *         @arg @ref LL_DAC_CHANNEL_1
 804:Drivers/STM32L4xx_HAL_Driver/Inc/stm32l4xx_ll_dac.h ****   *         @arg @ref LL_DAC_CHANNEL_2 (1)
 805:Drivers/STM32L4xx_HAL_Driver/Inc/stm32l4xx_ll_dac.h ****   *
 806:Drivers/STM32L4xx_HAL_Driver/Inc/stm32l4xx_ll_dac.h ****   *         (1) On this STM32 series, parameter not available on all devices.
 807:Drivers/STM32L4xx_HAL_Driver/Inc/stm32l4xx_ll_dac.h ****   *             Refer to device datasheet for channels availability.
 808:Drivers/STM32L4xx_HAL_Driver/Inc/stm32l4xx_ll_dac.h ****   * @retval Returned value can be one of the following values:
 809:Drivers/STM32L4xx_HAL_Driver/Inc/stm32l4xx_ll_dac.h ****   *         @arg @ref LL_DAC_WAVE_AUTO_GENERATION_NONE
 810:Drivers/STM32L4xx_HAL_Driver/Inc/stm32l4xx_ll_dac.h ****   *         @arg @ref LL_DAC_WAVE_AUTO_GENERATION_NOISE
 811:Drivers/STM32L4xx_HAL_Driver/Inc/stm32l4xx_ll_dac.h ****   *         @arg @ref LL_DAC_WAVE_AUTO_GENERATION_TRIANGLE
 812:Drivers/STM32L4xx_HAL_Driver/Inc/stm32l4xx_ll_dac.h ****   */
 813:Drivers/STM32L4xx_HAL_Driver/Inc/stm32l4xx_ll_dac.h **** __STATIC_INLINE uint32_t LL_DAC_GetWaveAutoGeneration(DAC_TypeDef *DACx, uint32_t DAC_Channel)
 814:Drivers/STM32L4xx_HAL_Driver/Inc/stm32l4xx_ll_dac.h **** {
 815:Drivers/STM32L4xx_HAL_Driver/Inc/stm32l4xx_ll_dac.h ****   return (uint32_t)(READ_BIT(DACx->CR, DAC_CR_WAVE1 << (DAC_Channel & DAC_CR_CHX_BITOFFSET_MASK))
 816:Drivers/STM32L4xx_HAL_Driver/Inc/stm32l4xx_ll_dac.h ****                     >> (DAC_Channel & DAC_CR_CHX_BITOFFSET_MASK)
 817:Drivers/STM32L4xx_HAL_Driver/Inc/stm32l4xx_ll_dac.h ****                    );
 818:Drivers/STM32L4xx_HAL_Driver/Inc/stm32l4xx_ll_dac.h **** }
 819:Drivers/STM32L4xx_HAL_Driver/Inc/stm32l4xx_ll_dac.h **** 
 820:Drivers/STM32L4xx_HAL_Driver/Inc/stm32l4xx_ll_dac.h **** /**
 821:Drivers/STM32L4xx_HAL_Driver/Inc/stm32l4xx_ll_dac.h ****   * @brief  Set the noise waveform generation for the selected DAC channel:
 822:Drivers/STM32L4xx_HAL_Driver/Inc/stm32l4xx_ll_dac.h ****   *         Noise mode and parameters LFSR (linear feedback shift register).
 823:Drivers/STM32L4xx_HAL_Driver/Inc/stm32l4xx_ll_dac.h ****   * @note   For wave generation to be effective, DAC channel
 824:Drivers/STM32L4xx_HAL_Driver/Inc/stm32l4xx_ll_dac.h ****   *         wave generation mode must be enabled using
 825:Drivers/STM32L4xx_HAL_Driver/Inc/stm32l4xx_ll_dac.h ****   *         function @ref LL_DAC_SetWaveAutoGeneration().
 826:Drivers/STM32L4xx_HAL_Driver/Inc/stm32l4xx_ll_dac.h ****   * @note   This setting can be set when the selected DAC channel is disabled
 827:Drivers/STM32L4xx_HAL_Driver/Inc/stm32l4xx_ll_dac.h ****   *         (otherwise, the setting operation is ignored).
 828:Drivers/STM32L4xx_HAL_Driver/Inc/stm32l4xx_ll_dac.h ****   * @rmtoll CR       MAMP1          LL_DAC_SetWaveNoiseLFSR\n
 829:Drivers/STM32L4xx_HAL_Driver/Inc/stm32l4xx_ll_dac.h ****   *         CR       MAMP2          LL_DAC_SetWaveNoiseLFSR
 830:Drivers/STM32L4xx_HAL_Driver/Inc/stm32l4xx_ll_dac.h ****   * @param  DACx DAC instance
 831:Drivers/STM32L4xx_HAL_Driver/Inc/stm32l4xx_ll_dac.h ****   * @param  DAC_Channel This parameter can be one of the following values:
 832:Drivers/STM32L4xx_HAL_Driver/Inc/stm32l4xx_ll_dac.h ****   *         @arg @ref LL_DAC_CHANNEL_1
 833:Drivers/STM32L4xx_HAL_Driver/Inc/stm32l4xx_ll_dac.h ****   *         @arg @ref LL_DAC_CHANNEL_2 (1)
 834:Drivers/STM32L4xx_HAL_Driver/Inc/stm32l4xx_ll_dac.h ****   *
 835:Drivers/STM32L4xx_HAL_Driver/Inc/stm32l4xx_ll_dac.h ****   *         (1) On this STM32 series, parameter not available on all devices.
 836:Drivers/STM32L4xx_HAL_Driver/Inc/stm32l4xx_ll_dac.h ****   *             Refer to device datasheet for channels availability.
 837:Drivers/STM32L4xx_HAL_Driver/Inc/stm32l4xx_ll_dac.h ****   * @param  NoiseLFSRMask This parameter can be one of the following values:
 838:Drivers/STM32L4xx_HAL_Driver/Inc/stm32l4xx_ll_dac.h ****   *         @arg @ref LL_DAC_NOISE_LFSR_UNMASK_BIT0
 839:Drivers/STM32L4xx_HAL_Driver/Inc/stm32l4xx_ll_dac.h ****   *         @arg @ref LL_DAC_NOISE_LFSR_UNMASK_BITS1_0
 840:Drivers/STM32L4xx_HAL_Driver/Inc/stm32l4xx_ll_dac.h ****   *         @arg @ref LL_DAC_NOISE_LFSR_UNMASK_BITS2_0
 841:Drivers/STM32L4xx_HAL_Driver/Inc/stm32l4xx_ll_dac.h ****   *         @arg @ref LL_DAC_NOISE_LFSR_UNMASK_BITS3_0
 842:Drivers/STM32L4xx_HAL_Driver/Inc/stm32l4xx_ll_dac.h ****   *         @arg @ref LL_DAC_NOISE_LFSR_UNMASK_BITS4_0
 843:Drivers/STM32L4xx_HAL_Driver/Inc/stm32l4xx_ll_dac.h ****   *         @arg @ref LL_DAC_NOISE_LFSR_UNMASK_BITS5_0
 844:Drivers/STM32L4xx_HAL_Driver/Inc/stm32l4xx_ll_dac.h ****   *         @arg @ref LL_DAC_NOISE_LFSR_UNMASK_BITS6_0
 845:Drivers/STM32L4xx_HAL_Driver/Inc/stm32l4xx_ll_dac.h ****   *         @arg @ref LL_DAC_NOISE_LFSR_UNMASK_BITS7_0
 846:Drivers/STM32L4xx_HAL_Driver/Inc/stm32l4xx_ll_dac.h ****   *         @arg @ref LL_DAC_NOISE_LFSR_UNMASK_BITS8_0
 847:Drivers/STM32L4xx_HAL_Driver/Inc/stm32l4xx_ll_dac.h ****   *         @arg @ref LL_DAC_NOISE_LFSR_UNMASK_BITS9_0
 848:Drivers/STM32L4xx_HAL_Driver/Inc/stm32l4xx_ll_dac.h ****   *         @arg @ref LL_DAC_NOISE_LFSR_UNMASK_BITS10_0
 849:Drivers/STM32L4xx_HAL_Driver/Inc/stm32l4xx_ll_dac.h ****   *         @arg @ref LL_DAC_NOISE_LFSR_UNMASK_BITS11_0
 850:Drivers/STM32L4xx_HAL_Driver/Inc/stm32l4xx_ll_dac.h ****   * @retval None
 851:Drivers/STM32L4xx_HAL_Driver/Inc/stm32l4xx_ll_dac.h ****   */
 852:Drivers/STM32L4xx_HAL_Driver/Inc/stm32l4xx_ll_dac.h **** __STATIC_INLINE void LL_DAC_SetWaveNoiseLFSR(DAC_TypeDef *DACx, uint32_t DAC_Channel, uint32_t Nois
 853:Drivers/STM32L4xx_HAL_Driver/Inc/stm32l4xx_ll_dac.h **** {
 854:Drivers/STM32L4xx_HAL_Driver/Inc/stm32l4xx_ll_dac.h ****   MODIFY_REG(DACx->CR,
 855:Drivers/STM32L4xx_HAL_Driver/Inc/stm32l4xx_ll_dac.h ****              DAC_CR_MAMP1 << (DAC_Channel & DAC_CR_CHX_BITOFFSET_MASK),
 856:Drivers/STM32L4xx_HAL_Driver/Inc/stm32l4xx_ll_dac.h ****              NoiseLFSRMask << (DAC_Channel & DAC_CR_CHX_BITOFFSET_MASK));
ARM GAS  C:\Users\ep_ygh\AppData\Local\Temp\ccVL2nhg.s 			page 18


 857:Drivers/STM32L4xx_HAL_Driver/Inc/stm32l4xx_ll_dac.h **** }
 858:Drivers/STM32L4xx_HAL_Driver/Inc/stm32l4xx_ll_dac.h **** 
 859:Drivers/STM32L4xx_HAL_Driver/Inc/stm32l4xx_ll_dac.h **** /**
 860:Drivers/STM32L4xx_HAL_Driver/Inc/stm32l4xx_ll_dac.h ****   * @brief  Get the noise waveform generation for the selected DAC channel:
 861:Drivers/STM32L4xx_HAL_Driver/Inc/stm32l4xx_ll_dac.h ****   *         Noise mode and parameters LFSR (linear feedback shift register).
 862:Drivers/STM32L4xx_HAL_Driver/Inc/stm32l4xx_ll_dac.h ****   * @rmtoll CR       MAMP1          LL_DAC_GetWaveNoiseLFSR\n
 863:Drivers/STM32L4xx_HAL_Driver/Inc/stm32l4xx_ll_dac.h ****   *         CR       MAMP2          LL_DAC_GetWaveNoiseLFSR
 864:Drivers/STM32L4xx_HAL_Driver/Inc/stm32l4xx_ll_dac.h ****   * @param  DACx DAC instance
 865:Drivers/STM32L4xx_HAL_Driver/Inc/stm32l4xx_ll_dac.h ****   * @param  DAC_Channel This parameter can be one of the following values:
 866:Drivers/STM32L4xx_HAL_Driver/Inc/stm32l4xx_ll_dac.h ****   *         @arg @ref LL_DAC_CHANNEL_1
 867:Drivers/STM32L4xx_HAL_Driver/Inc/stm32l4xx_ll_dac.h ****   *         @arg @ref LL_DAC_CHANNEL_2 (1)
 868:Drivers/STM32L4xx_HAL_Driver/Inc/stm32l4xx_ll_dac.h ****   *
 869:Drivers/STM32L4xx_HAL_Driver/Inc/stm32l4xx_ll_dac.h ****   *         (1) On this STM32 series, parameter not available on all devices.
 870:Drivers/STM32L4xx_HAL_Driver/Inc/stm32l4xx_ll_dac.h ****   *             Refer to device datasheet for channels availability.
 871:Drivers/STM32L4xx_HAL_Driver/Inc/stm32l4xx_ll_dac.h ****   * @retval Returned value can be one of the following values:
 872:Drivers/STM32L4xx_HAL_Driver/Inc/stm32l4xx_ll_dac.h ****   *         @arg @ref LL_DAC_NOISE_LFSR_UNMASK_BIT0
 873:Drivers/STM32L4xx_HAL_Driver/Inc/stm32l4xx_ll_dac.h ****   *         @arg @ref LL_DAC_NOISE_LFSR_UNMASK_BITS1_0
 874:Drivers/STM32L4xx_HAL_Driver/Inc/stm32l4xx_ll_dac.h ****   *         @arg @ref LL_DAC_NOISE_LFSR_UNMASK_BITS2_0
 875:Drivers/STM32L4xx_HAL_Driver/Inc/stm32l4xx_ll_dac.h ****   *         @arg @ref LL_DAC_NOISE_LFSR_UNMASK_BITS3_0
 876:Drivers/STM32L4xx_HAL_Driver/Inc/stm32l4xx_ll_dac.h ****   *         @arg @ref LL_DAC_NOISE_LFSR_UNMASK_BITS4_0
 877:Drivers/STM32L4xx_HAL_Driver/Inc/stm32l4xx_ll_dac.h ****   *         @arg @ref LL_DAC_NOISE_LFSR_UNMASK_BITS5_0
 878:Drivers/STM32L4xx_HAL_Driver/Inc/stm32l4xx_ll_dac.h ****   *         @arg @ref LL_DAC_NOISE_LFSR_UNMASK_BITS6_0
 879:Drivers/STM32L4xx_HAL_Driver/Inc/stm32l4xx_ll_dac.h ****   *         @arg @ref LL_DAC_NOISE_LFSR_UNMASK_BITS7_0
 880:Drivers/STM32L4xx_HAL_Driver/Inc/stm32l4xx_ll_dac.h ****   *         @arg @ref LL_DAC_NOISE_LFSR_UNMASK_BITS8_0
 881:Drivers/STM32L4xx_HAL_Driver/Inc/stm32l4xx_ll_dac.h ****   *         @arg @ref LL_DAC_NOISE_LFSR_UNMASK_BITS9_0
 882:Drivers/STM32L4xx_HAL_Driver/Inc/stm32l4xx_ll_dac.h ****   *         @arg @ref LL_DAC_NOISE_LFSR_UNMASK_BITS10_0
 883:Drivers/STM32L4xx_HAL_Driver/Inc/stm32l4xx_ll_dac.h ****   *         @arg @ref LL_DAC_NOISE_LFSR_UNMASK_BITS11_0
 884:Drivers/STM32L4xx_HAL_Driver/Inc/stm32l4xx_ll_dac.h ****   */
 885:Drivers/STM32L4xx_HAL_Driver/Inc/stm32l4xx_ll_dac.h **** __STATIC_INLINE uint32_t LL_DAC_GetWaveNoiseLFSR(DAC_TypeDef *DACx, uint32_t DAC_Channel)
 886:Drivers/STM32L4xx_HAL_Driver/Inc/stm32l4xx_ll_dac.h **** {
 887:Drivers/STM32L4xx_HAL_Driver/Inc/stm32l4xx_ll_dac.h ****   return (uint32_t)(READ_BIT(DACx->CR, DAC_CR_MAMP1 << (DAC_Channel & DAC_CR_CHX_BITOFFSET_MASK))
 888:Drivers/STM32L4xx_HAL_Driver/Inc/stm32l4xx_ll_dac.h ****                     >> (DAC_Channel & DAC_CR_CHX_BITOFFSET_MASK)
 889:Drivers/STM32L4xx_HAL_Driver/Inc/stm32l4xx_ll_dac.h ****                    );
 890:Drivers/STM32L4xx_HAL_Driver/Inc/stm32l4xx_ll_dac.h **** }
 891:Drivers/STM32L4xx_HAL_Driver/Inc/stm32l4xx_ll_dac.h **** 
 892:Drivers/STM32L4xx_HAL_Driver/Inc/stm32l4xx_ll_dac.h **** /**
 893:Drivers/STM32L4xx_HAL_Driver/Inc/stm32l4xx_ll_dac.h ****   * @brief  Set the triangle waveform generation for the selected DAC channel:
 894:Drivers/STM32L4xx_HAL_Driver/Inc/stm32l4xx_ll_dac.h ****   *         triangle mode and amplitude.
 895:Drivers/STM32L4xx_HAL_Driver/Inc/stm32l4xx_ll_dac.h ****   * @note   For wave generation to be effective, DAC channel
 896:Drivers/STM32L4xx_HAL_Driver/Inc/stm32l4xx_ll_dac.h ****   *         wave generation mode must be enabled using
 897:Drivers/STM32L4xx_HAL_Driver/Inc/stm32l4xx_ll_dac.h ****   *         function @ref LL_DAC_SetWaveAutoGeneration().
 898:Drivers/STM32L4xx_HAL_Driver/Inc/stm32l4xx_ll_dac.h ****   * @note   This setting can be set when the selected DAC channel is disabled
 899:Drivers/STM32L4xx_HAL_Driver/Inc/stm32l4xx_ll_dac.h ****   *         (otherwise, the setting operation is ignored).
 900:Drivers/STM32L4xx_HAL_Driver/Inc/stm32l4xx_ll_dac.h ****   * @rmtoll CR       MAMP1          LL_DAC_SetWaveTriangleAmplitude\n
 901:Drivers/STM32L4xx_HAL_Driver/Inc/stm32l4xx_ll_dac.h ****   *         CR       MAMP2          LL_DAC_SetWaveTriangleAmplitude
 902:Drivers/STM32L4xx_HAL_Driver/Inc/stm32l4xx_ll_dac.h ****   * @param  DACx DAC instance
 903:Drivers/STM32L4xx_HAL_Driver/Inc/stm32l4xx_ll_dac.h ****   * @param  DAC_Channel This parameter can be one of the following values:
 904:Drivers/STM32L4xx_HAL_Driver/Inc/stm32l4xx_ll_dac.h ****   *         @arg @ref LL_DAC_CHANNEL_1
 905:Drivers/STM32L4xx_HAL_Driver/Inc/stm32l4xx_ll_dac.h ****   *         @arg @ref LL_DAC_CHANNEL_2 (1)
 906:Drivers/STM32L4xx_HAL_Driver/Inc/stm32l4xx_ll_dac.h ****   *
 907:Drivers/STM32L4xx_HAL_Driver/Inc/stm32l4xx_ll_dac.h ****   *         (1) On this STM32 series, parameter not available on all devices.
 908:Drivers/STM32L4xx_HAL_Driver/Inc/stm32l4xx_ll_dac.h ****   *             Refer to device datasheet for channels availability.
 909:Drivers/STM32L4xx_HAL_Driver/Inc/stm32l4xx_ll_dac.h ****   * @param  TriangleAmplitude This parameter can be one of the following values:
 910:Drivers/STM32L4xx_HAL_Driver/Inc/stm32l4xx_ll_dac.h ****   *         @arg @ref LL_DAC_TRIANGLE_AMPLITUDE_1
 911:Drivers/STM32L4xx_HAL_Driver/Inc/stm32l4xx_ll_dac.h ****   *         @arg @ref LL_DAC_TRIANGLE_AMPLITUDE_3
 912:Drivers/STM32L4xx_HAL_Driver/Inc/stm32l4xx_ll_dac.h ****   *         @arg @ref LL_DAC_TRIANGLE_AMPLITUDE_7
 913:Drivers/STM32L4xx_HAL_Driver/Inc/stm32l4xx_ll_dac.h ****   *         @arg @ref LL_DAC_TRIANGLE_AMPLITUDE_15
ARM GAS  C:\Users\ep_ygh\AppData\Local\Temp\ccVL2nhg.s 			page 19


 914:Drivers/STM32L4xx_HAL_Driver/Inc/stm32l4xx_ll_dac.h ****   *         @arg @ref LL_DAC_TRIANGLE_AMPLITUDE_31
 915:Drivers/STM32L4xx_HAL_Driver/Inc/stm32l4xx_ll_dac.h ****   *         @arg @ref LL_DAC_TRIANGLE_AMPLITUDE_63
 916:Drivers/STM32L4xx_HAL_Driver/Inc/stm32l4xx_ll_dac.h ****   *         @arg @ref LL_DAC_TRIANGLE_AMPLITUDE_127
 917:Drivers/STM32L4xx_HAL_Driver/Inc/stm32l4xx_ll_dac.h ****   *         @arg @ref LL_DAC_TRIANGLE_AMPLITUDE_255
 918:Drivers/STM32L4xx_HAL_Driver/Inc/stm32l4xx_ll_dac.h ****   *         @arg @ref LL_DAC_TRIANGLE_AMPLITUDE_511
 919:Drivers/STM32L4xx_HAL_Driver/Inc/stm32l4xx_ll_dac.h ****   *         @arg @ref LL_DAC_TRIANGLE_AMPLITUDE_1023
 920:Drivers/STM32L4xx_HAL_Driver/Inc/stm32l4xx_ll_dac.h ****   *         @arg @ref LL_DAC_TRIANGLE_AMPLITUDE_2047
 921:Drivers/STM32L4xx_HAL_Driver/Inc/stm32l4xx_ll_dac.h ****   *         @arg @ref LL_DAC_TRIANGLE_AMPLITUDE_4095
 922:Drivers/STM32L4xx_HAL_Driver/Inc/stm32l4xx_ll_dac.h ****   * @retval None
 923:Drivers/STM32L4xx_HAL_Driver/Inc/stm32l4xx_ll_dac.h ****   */
 924:Drivers/STM32L4xx_HAL_Driver/Inc/stm32l4xx_ll_dac.h **** __STATIC_INLINE void LL_DAC_SetWaveTriangleAmplitude(DAC_TypeDef *DACx, uint32_t DAC_Channel,
 925:Drivers/STM32L4xx_HAL_Driver/Inc/stm32l4xx_ll_dac.h ****                                                      uint32_t TriangleAmplitude)
 926:Drivers/STM32L4xx_HAL_Driver/Inc/stm32l4xx_ll_dac.h **** {
 927:Drivers/STM32L4xx_HAL_Driver/Inc/stm32l4xx_ll_dac.h ****   MODIFY_REG(DACx->CR,
 928:Drivers/STM32L4xx_HAL_Driver/Inc/stm32l4xx_ll_dac.h ****              DAC_CR_MAMP1 << (DAC_Channel & DAC_CR_CHX_BITOFFSET_MASK),
 929:Drivers/STM32L4xx_HAL_Driver/Inc/stm32l4xx_ll_dac.h ****              TriangleAmplitude << (DAC_Channel & DAC_CR_CHX_BITOFFSET_MASK));
 930:Drivers/STM32L4xx_HAL_Driver/Inc/stm32l4xx_ll_dac.h **** }
 931:Drivers/STM32L4xx_HAL_Driver/Inc/stm32l4xx_ll_dac.h **** 
 932:Drivers/STM32L4xx_HAL_Driver/Inc/stm32l4xx_ll_dac.h **** /**
 933:Drivers/STM32L4xx_HAL_Driver/Inc/stm32l4xx_ll_dac.h ****   * @brief  Get the triangle waveform generation for the selected DAC channel:
 934:Drivers/STM32L4xx_HAL_Driver/Inc/stm32l4xx_ll_dac.h ****   *         triangle mode and amplitude.
 935:Drivers/STM32L4xx_HAL_Driver/Inc/stm32l4xx_ll_dac.h ****   * @rmtoll CR       MAMP1          LL_DAC_GetWaveTriangleAmplitude\n
 936:Drivers/STM32L4xx_HAL_Driver/Inc/stm32l4xx_ll_dac.h ****   *         CR       MAMP2          LL_DAC_GetWaveTriangleAmplitude
 937:Drivers/STM32L4xx_HAL_Driver/Inc/stm32l4xx_ll_dac.h ****   * @param  DACx DAC instance
 938:Drivers/STM32L4xx_HAL_Driver/Inc/stm32l4xx_ll_dac.h ****   * @param  DAC_Channel This parameter can be one of the following values:
 939:Drivers/STM32L4xx_HAL_Driver/Inc/stm32l4xx_ll_dac.h ****   *         @arg @ref LL_DAC_CHANNEL_1
 940:Drivers/STM32L4xx_HAL_Driver/Inc/stm32l4xx_ll_dac.h ****   *         @arg @ref LL_DAC_CHANNEL_2 (1)
 941:Drivers/STM32L4xx_HAL_Driver/Inc/stm32l4xx_ll_dac.h ****   *
 942:Drivers/STM32L4xx_HAL_Driver/Inc/stm32l4xx_ll_dac.h ****   *         (1) On this STM32 series, parameter not available on all devices.
 943:Drivers/STM32L4xx_HAL_Driver/Inc/stm32l4xx_ll_dac.h ****   *             Refer to device datasheet for channels availability.
 944:Drivers/STM32L4xx_HAL_Driver/Inc/stm32l4xx_ll_dac.h ****   * @retval Returned value can be one of the following values:
 945:Drivers/STM32L4xx_HAL_Driver/Inc/stm32l4xx_ll_dac.h ****   *         @arg @ref LL_DAC_TRIANGLE_AMPLITUDE_1
 946:Drivers/STM32L4xx_HAL_Driver/Inc/stm32l4xx_ll_dac.h ****   *         @arg @ref LL_DAC_TRIANGLE_AMPLITUDE_3
 947:Drivers/STM32L4xx_HAL_Driver/Inc/stm32l4xx_ll_dac.h ****   *         @arg @ref LL_DAC_TRIANGLE_AMPLITUDE_7
 948:Drivers/STM32L4xx_HAL_Driver/Inc/stm32l4xx_ll_dac.h ****   *         @arg @ref LL_DAC_TRIANGLE_AMPLITUDE_15
 949:Drivers/STM32L4xx_HAL_Driver/Inc/stm32l4xx_ll_dac.h ****   *         @arg @ref LL_DAC_TRIANGLE_AMPLITUDE_31
 950:Drivers/STM32L4xx_HAL_Driver/Inc/stm32l4xx_ll_dac.h ****   *         @arg @ref LL_DAC_TRIANGLE_AMPLITUDE_63
 951:Drivers/STM32L4xx_HAL_Driver/Inc/stm32l4xx_ll_dac.h ****   *         @arg @ref LL_DAC_TRIANGLE_AMPLITUDE_127
 952:Drivers/STM32L4xx_HAL_Driver/Inc/stm32l4xx_ll_dac.h ****   *         @arg @ref LL_DAC_TRIANGLE_AMPLITUDE_255
 953:Drivers/STM32L4xx_HAL_Driver/Inc/stm32l4xx_ll_dac.h ****   *         @arg @ref LL_DAC_TRIANGLE_AMPLITUDE_511
 954:Drivers/STM32L4xx_HAL_Driver/Inc/stm32l4xx_ll_dac.h ****   *         @arg @ref LL_DAC_TRIANGLE_AMPLITUDE_1023
 955:Drivers/STM32L4xx_HAL_Driver/Inc/stm32l4xx_ll_dac.h ****   *         @arg @ref LL_DAC_TRIANGLE_AMPLITUDE_2047
 956:Drivers/STM32L4xx_HAL_Driver/Inc/stm32l4xx_ll_dac.h ****   *         @arg @ref LL_DAC_TRIANGLE_AMPLITUDE_4095
 957:Drivers/STM32L4xx_HAL_Driver/Inc/stm32l4xx_ll_dac.h ****   */
 958:Drivers/STM32L4xx_HAL_Driver/Inc/stm32l4xx_ll_dac.h **** __STATIC_INLINE uint32_t LL_DAC_GetWaveTriangleAmplitude(DAC_TypeDef *DACx, uint32_t DAC_Channel)
 959:Drivers/STM32L4xx_HAL_Driver/Inc/stm32l4xx_ll_dac.h **** {
 960:Drivers/STM32L4xx_HAL_Driver/Inc/stm32l4xx_ll_dac.h ****   return (uint32_t)(READ_BIT(DACx->CR, DAC_CR_MAMP1 << (DAC_Channel & DAC_CR_CHX_BITOFFSET_MASK))
 961:Drivers/STM32L4xx_HAL_Driver/Inc/stm32l4xx_ll_dac.h ****                     >> (DAC_Channel & DAC_CR_CHX_BITOFFSET_MASK)
 962:Drivers/STM32L4xx_HAL_Driver/Inc/stm32l4xx_ll_dac.h ****                    );
 963:Drivers/STM32L4xx_HAL_Driver/Inc/stm32l4xx_ll_dac.h **** }
 964:Drivers/STM32L4xx_HAL_Driver/Inc/stm32l4xx_ll_dac.h **** 
 965:Drivers/STM32L4xx_HAL_Driver/Inc/stm32l4xx_ll_dac.h **** /**
 966:Drivers/STM32L4xx_HAL_Driver/Inc/stm32l4xx_ll_dac.h ****   * @brief  Set the output for the selected DAC channel.
 967:Drivers/STM32L4xx_HAL_Driver/Inc/stm32l4xx_ll_dac.h ****   * @note   This function set several features:
 968:Drivers/STM32L4xx_HAL_Driver/Inc/stm32l4xx_ll_dac.h ****   *         - mode normal or sample-and-hold
 969:Drivers/STM32L4xx_HAL_Driver/Inc/stm32l4xx_ll_dac.h ****   *         - buffer
 970:Drivers/STM32L4xx_HAL_Driver/Inc/stm32l4xx_ll_dac.h ****   *         - connection to GPIO or internal path.
ARM GAS  C:\Users\ep_ygh\AppData\Local\Temp\ccVL2nhg.s 			page 20


 971:Drivers/STM32L4xx_HAL_Driver/Inc/stm32l4xx_ll_dac.h ****   *         These features can also be set individually using
 972:Drivers/STM32L4xx_HAL_Driver/Inc/stm32l4xx_ll_dac.h ****   *         dedicated functions:
 973:Drivers/STM32L4xx_HAL_Driver/Inc/stm32l4xx_ll_dac.h ****   *         - @ref LL_DAC_SetOutputBuffer()
 974:Drivers/STM32L4xx_HAL_Driver/Inc/stm32l4xx_ll_dac.h ****   *         - @ref LL_DAC_SetOutputMode()
 975:Drivers/STM32L4xx_HAL_Driver/Inc/stm32l4xx_ll_dac.h ****   *         - @ref LL_DAC_SetOutputConnection()
 976:Drivers/STM32L4xx_HAL_Driver/Inc/stm32l4xx_ll_dac.h ****   * @note   On this STM32 series, output connection depends on output mode
 977:Drivers/STM32L4xx_HAL_Driver/Inc/stm32l4xx_ll_dac.h ****   *         (normal or sample and hold) and output buffer state.
 978:Drivers/STM32L4xx_HAL_Driver/Inc/stm32l4xx_ll_dac.h ****   *         - if output connection is set to internal path and output buffer
 979:Drivers/STM32L4xx_HAL_Driver/Inc/stm32l4xx_ll_dac.h ****   *           is enabled (whatever output mode):
 980:Drivers/STM32L4xx_HAL_Driver/Inc/stm32l4xx_ll_dac.h ****   *           output connection is also connected to GPIO pin
 981:Drivers/STM32L4xx_HAL_Driver/Inc/stm32l4xx_ll_dac.h ****   *           (both connections to GPIO pin and internal path).
 982:Drivers/STM32L4xx_HAL_Driver/Inc/stm32l4xx_ll_dac.h ****   *         - if output connection is set to GPIO pin, output buffer
 983:Drivers/STM32L4xx_HAL_Driver/Inc/stm32l4xx_ll_dac.h ****   *           is disabled, output mode set to sample and hold:
 984:Drivers/STM32L4xx_HAL_Driver/Inc/stm32l4xx_ll_dac.h ****   *           output connection is also connected to internal path
 985:Drivers/STM32L4xx_HAL_Driver/Inc/stm32l4xx_ll_dac.h ****   *           (both connections to GPIO pin and internal path).
 986:Drivers/STM32L4xx_HAL_Driver/Inc/stm32l4xx_ll_dac.h ****   * @note   Mode sample-and-hold requires an external capacitor
 987:Drivers/STM32L4xx_HAL_Driver/Inc/stm32l4xx_ll_dac.h ****   *         to be connected between DAC channel output and ground.
 988:Drivers/STM32L4xx_HAL_Driver/Inc/stm32l4xx_ll_dac.h ****   *         Capacitor value depends on load on DAC channel output and
 989:Drivers/STM32L4xx_HAL_Driver/Inc/stm32l4xx_ll_dac.h ****   *         sample-and-hold timings configured.
 990:Drivers/STM32L4xx_HAL_Driver/Inc/stm32l4xx_ll_dac.h ****   *         As indication, capacitor typical value is 100nF
 991:Drivers/STM32L4xx_HAL_Driver/Inc/stm32l4xx_ll_dac.h ****   *         (refer to device datasheet, parameter "CSH").
 992:Drivers/STM32L4xx_HAL_Driver/Inc/stm32l4xx_ll_dac.h ****   * @rmtoll CR       MODE1          LL_DAC_ConfigOutput\n
 993:Drivers/STM32L4xx_HAL_Driver/Inc/stm32l4xx_ll_dac.h ****   *         CR       MODE2          LL_DAC_ConfigOutput
 994:Drivers/STM32L4xx_HAL_Driver/Inc/stm32l4xx_ll_dac.h ****   * @param  DACx DAC instance
 995:Drivers/STM32L4xx_HAL_Driver/Inc/stm32l4xx_ll_dac.h ****   * @param  DAC_Channel This parameter can be one of the following values:
 996:Drivers/STM32L4xx_HAL_Driver/Inc/stm32l4xx_ll_dac.h ****   *         @arg @ref LL_DAC_CHANNEL_1
 997:Drivers/STM32L4xx_HAL_Driver/Inc/stm32l4xx_ll_dac.h ****   *         @arg @ref LL_DAC_CHANNEL_2 (1)
 998:Drivers/STM32L4xx_HAL_Driver/Inc/stm32l4xx_ll_dac.h ****   *
 999:Drivers/STM32L4xx_HAL_Driver/Inc/stm32l4xx_ll_dac.h ****   *         (1) On this STM32 series, parameter not available on all devices.
1000:Drivers/STM32L4xx_HAL_Driver/Inc/stm32l4xx_ll_dac.h ****   *             Refer to device datasheet for channels availability.
1001:Drivers/STM32L4xx_HAL_Driver/Inc/stm32l4xx_ll_dac.h ****   * @param  OutputMode This parameter can be one of the following values:
1002:Drivers/STM32L4xx_HAL_Driver/Inc/stm32l4xx_ll_dac.h ****   *         @arg @ref LL_DAC_OUTPUT_MODE_NORMAL
1003:Drivers/STM32L4xx_HAL_Driver/Inc/stm32l4xx_ll_dac.h ****   *         @arg @ref LL_DAC_OUTPUT_MODE_SAMPLE_AND_HOLD
1004:Drivers/STM32L4xx_HAL_Driver/Inc/stm32l4xx_ll_dac.h ****   * @param  OutputBuffer This parameter can be one of the following values:
1005:Drivers/STM32L4xx_HAL_Driver/Inc/stm32l4xx_ll_dac.h ****   *         @arg @ref LL_DAC_OUTPUT_BUFFER_ENABLE
1006:Drivers/STM32L4xx_HAL_Driver/Inc/stm32l4xx_ll_dac.h ****   *         @arg @ref LL_DAC_OUTPUT_BUFFER_DISABLE
1007:Drivers/STM32L4xx_HAL_Driver/Inc/stm32l4xx_ll_dac.h ****   * @param  OutputConnection This parameter can be one of the following values:
1008:Drivers/STM32L4xx_HAL_Driver/Inc/stm32l4xx_ll_dac.h ****   *         @arg @ref LL_DAC_OUTPUT_CONNECT_GPIO
1009:Drivers/STM32L4xx_HAL_Driver/Inc/stm32l4xx_ll_dac.h ****   *         @arg @ref LL_DAC_OUTPUT_CONNECT_INTERNAL
1010:Drivers/STM32L4xx_HAL_Driver/Inc/stm32l4xx_ll_dac.h ****   * @retval None
1011:Drivers/STM32L4xx_HAL_Driver/Inc/stm32l4xx_ll_dac.h ****   */
1012:Drivers/STM32L4xx_HAL_Driver/Inc/stm32l4xx_ll_dac.h **** __STATIC_INLINE void LL_DAC_ConfigOutput(DAC_TypeDef *DACx, uint32_t DAC_Channel, uint32_t OutputMo
1013:Drivers/STM32L4xx_HAL_Driver/Inc/stm32l4xx_ll_dac.h ****                                          uint32_t OutputBuffer, uint32_t OutputConnection)
1014:Drivers/STM32L4xx_HAL_Driver/Inc/stm32l4xx_ll_dac.h **** {
1015:Drivers/STM32L4xx_HAL_Driver/Inc/stm32l4xx_ll_dac.h ****   MODIFY_REG(DACx->MCR,
1016:Drivers/STM32L4xx_HAL_Driver/Inc/stm32l4xx_ll_dac.h ****              (DAC_MCR_MODE1_2 | DAC_MCR_MODE1_1 | DAC_MCR_MODE1_0) << (DAC_Channel & DAC_CR_CHX_BIT
1017:Drivers/STM32L4xx_HAL_Driver/Inc/stm32l4xx_ll_dac.h ****              (OutputMode | OutputBuffer | OutputConnection) << (DAC_Channel & DAC_CR_CHX_BITOFFSET_
1018:Drivers/STM32L4xx_HAL_Driver/Inc/stm32l4xx_ll_dac.h **** }
1019:Drivers/STM32L4xx_HAL_Driver/Inc/stm32l4xx_ll_dac.h **** 
1020:Drivers/STM32L4xx_HAL_Driver/Inc/stm32l4xx_ll_dac.h **** /**
1021:Drivers/STM32L4xx_HAL_Driver/Inc/stm32l4xx_ll_dac.h ****   * @brief  Set the output mode normal or sample-and-hold
1022:Drivers/STM32L4xx_HAL_Driver/Inc/stm32l4xx_ll_dac.h ****   *         for the selected DAC channel.
1023:Drivers/STM32L4xx_HAL_Driver/Inc/stm32l4xx_ll_dac.h ****   * @note   Mode sample-and-hold requires an external capacitor
1024:Drivers/STM32L4xx_HAL_Driver/Inc/stm32l4xx_ll_dac.h ****   *         to be connected between DAC channel output and ground.
1025:Drivers/STM32L4xx_HAL_Driver/Inc/stm32l4xx_ll_dac.h ****   *         Capacitor value depends on load on DAC channel output and
1026:Drivers/STM32L4xx_HAL_Driver/Inc/stm32l4xx_ll_dac.h ****   *         sample-and-hold timings configured.
1027:Drivers/STM32L4xx_HAL_Driver/Inc/stm32l4xx_ll_dac.h ****   *         As indication, capacitor typical value is 100nF
ARM GAS  C:\Users\ep_ygh\AppData\Local\Temp\ccVL2nhg.s 			page 21


1028:Drivers/STM32L4xx_HAL_Driver/Inc/stm32l4xx_ll_dac.h ****   *         (refer to device datasheet, parameter "CSH").
1029:Drivers/STM32L4xx_HAL_Driver/Inc/stm32l4xx_ll_dac.h ****   * @rmtoll CR       MODE1          LL_DAC_SetOutputMode\n
1030:Drivers/STM32L4xx_HAL_Driver/Inc/stm32l4xx_ll_dac.h ****   *         CR       MODE2          LL_DAC_SetOutputMode
1031:Drivers/STM32L4xx_HAL_Driver/Inc/stm32l4xx_ll_dac.h ****   * @param  DACx DAC instance
1032:Drivers/STM32L4xx_HAL_Driver/Inc/stm32l4xx_ll_dac.h ****   * @param  DAC_Channel This parameter can be one of the following values:
1033:Drivers/STM32L4xx_HAL_Driver/Inc/stm32l4xx_ll_dac.h ****   *         @arg @ref LL_DAC_CHANNEL_1
1034:Drivers/STM32L4xx_HAL_Driver/Inc/stm32l4xx_ll_dac.h ****   *         @arg @ref LL_DAC_CHANNEL_2 (1)
1035:Drivers/STM32L4xx_HAL_Driver/Inc/stm32l4xx_ll_dac.h ****   *
1036:Drivers/STM32L4xx_HAL_Driver/Inc/stm32l4xx_ll_dac.h ****   *         (1) On this STM32 series, parameter not available on all devices.
1037:Drivers/STM32L4xx_HAL_Driver/Inc/stm32l4xx_ll_dac.h ****   *             Refer to device datasheet for channels availability.
1038:Drivers/STM32L4xx_HAL_Driver/Inc/stm32l4xx_ll_dac.h ****   * @param  OutputMode This parameter can be one of the following values:
1039:Drivers/STM32L4xx_HAL_Driver/Inc/stm32l4xx_ll_dac.h ****   *         @arg @ref LL_DAC_OUTPUT_MODE_NORMAL
1040:Drivers/STM32L4xx_HAL_Driver/Inc/stm32l4xx_ll_dac.h ****   *         @arg @ref LL_DAC_OUTPUT_MODE_SAMPLE_AND_HOLD
1041:Drivers/STM32L4xx_HAL_Driver/Inc/stm32l4xx_ll_dac.h ****   * @retval None
1042:Drivers/STM32L4xx_HAL_Driver/Inc/stm32l4xx_ll_dac.h ****   */
1043:Drivers/STM32L4xx_HAL_Driver/Inc/stm32l4xx_ll_dac.h **** __STATIC_INLINE void LL_DAC_SetOutputMode(DAC_TypeDef *DACx, uint32_t DAC_Channel, uint32_t OutputM
1044:Drivers/STM32L4xx_HAL_Driver/Inc/stm32l4xx_ll_dac.h **** {
1045:Drivers/STM32L4xx_HAL_Driver/Inc/stm32l4xx_ll_dac.h ****   MODIFY_REG(DACx->MCR,
1046:Drivers/STM32L4xx_HAL_Driver/Inc/stm32l4xx_ll_dac.h ****              (uint32_t)DAC_MCR_MODE1_2 << (DAC_Channel & DAC_CR_CHX_BITOFFSET_MASK),
1047:Drivers/STM32L4xx_HAL_Driver/Inc/stm32l4xx_ll_dac.h ****              OutputMode << (DAC_Channel & DAC_CR_CHX_BITOFFSET_MASK));
1048:Drivers/STM32L4xx_HAL_Driver/Inc/stm32l4xx_ll_dac.h **** }
1049:Drivers/STM32L4xx_HAL_Driver/Inc/stm32l4xx_ll_dac.h **** 
1050:Drivers/STM32L4xx_HAL_Driver/Inc/stm32l4xx_ll_dac.h **** /**
1051:Drivers/STM32L4xx_HAL_Driver/Inc/stm32l4xx_ll_dac.h ****   * @brief  Get the output mode normal or sample-and-hold for the selected DAC channel.
1052:Drivers/STM32L4xx_HAL_Driver/Inc/stm32l4xx_ll_dac.h ****   * @rmtoll CR       MODE1          LL_DAC_GetOutputMode\n
1053:Drivers/STM32L4xx_HAL_Driver/Inc/stm32l4xx_ll_dac.h ****   *         CR       MODE2          LL_DAC_GetOutputMode
1054:Drivers/STM32L4xx_HAL_Driver/Inc/stm32l4xx_ll_dac.h ****   * @param  DACx DAC instance
1055:Drivers/STM32L4xx_HAL_Driver/Inc/stm32l4xx_ll_dac.h ****   * @param  DAC_Channel This parameter can be one of the following values:
1056:Drivers/STM32L4xx_HAL_Driver/Inc/stm32l4xx_ll_dac.h ****   *         @arg @ref LL_DAC_CHANNEL_1
1057:Drivers/STM32L4xx_HAL_Driver/Inc/stm32l4xx_ll_dac.h ****   *         @arg @ref LL_DAC_CHANNEL_2 (1)
1058:Drivers/STM32L4xx_HAL_Driver/Inc/stm32l4xx_ll_dac.h ****   *
1059:Drivers/STM32L4xx_HAL_Driver/Inc/stm32l4xx_ll_dac.h ****   *         (1) On this STM32 series, parameter not available on all devices.
1060:Drivers/STM32L4xx_HAL_Driver/Inc/stm32l4xx_ll_dac.h ****   *             Refer to device datasheet for channels availability.
1061:Drivers/STM32L4xx_HAL_Driver/Inc/stm32l4xx_ll_dac.h ****   * @retval Returned value can be one of the following values:
1062:Drivers/STM32L4xx_HAL_Driver/Inc/stm32l4xx_ll_dac.h ****   *         @arg @ref LL_DAC_OUTPUT_MODE_NORMAL
1063:Drivers/STM32L4xx_HAL_Driver/Inc/stm32l4xx_ll_dac.h ****   *         @arg @ref LL_DAC_OUTPUT_MODE_SAMPLE_AND_HOLD
1064:Drivers/STM32L4xx_HAL_Driver/Inc/stm32l4xx_ll_dac.h ****   */
1065:Drivers/STM32L4xx_HAL_Driver/Inc/stm32l4xx_ll_dac.h **** __STATIC_INLINE uint32_t LL_DAC_GetOutputMode(DAC_TypeDef *DACx, uint32_t DAC_Channel)
1066:Drivers/STM32L4xx_HAL_Driver/Inc/stm32l4xx_ll_dac.h **** {
1067:Drivers/STM32L4xx_HAL_Driver/Inc/stm32l4xx_ll_dac.h ****   return (uint32_t)(READ_BIT(DACx->MCR, (uint32_t)DAC_MCR_MODE1_2 << (DAC_Channel & DAC_CR_CHX_BITO
1068:Drivers/STM32L4xx_HAL_Driver/Inc/stm32l4xx_ll_dac.h ****                     >> (DAC_Channel & DAC_CR_CHX_BITOFFSET_MASK)
1069:Drivers/STM32L4xx_HAL_Driver/Inc/stm32l4xx_ll_dac.h ****                    );
1070:Drivers/STM32L4xx_HAL_Driver/Inc/stm32l4xx_ll_dac.h **** }
1071:Drivers/STM32L4xx_HAL_Driver/Inc/stm32l4xx_ll_dac.h **** 
1072:Drivers/STM32L4xx_HAL_Driver/Inc/stm32l4xx_ll_dac.h **** /**
1073:Drivers/STM32L4xx_HAL_Driver/Inc/stm32l4xx_ll_dac.h ****   * @brief  Set the output buffer for the selected DAC channel.
1074:Drivers/STM32L4xx_HAL_Driver/Inc/stm32l4xx_ll_dac.h ****   * @note   On this STM32 series, when buffer is enabled, its offset can be
1075:Drivers/STM32L4xx_HAL_Driver/Inc/stm32l4xx_ll_dac.h ****   *         trimmed: factory calibration default values can be
1076:Drivers/STM32L4xx_HAL_Driver/Inc/stm32l4xx_ll_dac.h ****   *         replaced by user trimming values, using function
1077:Drivers/STM32L4xx_HAL_Driver/Inc/stm32l4xx_ll_dac.h ****   *         @ref LL_DAC_SetTrimmingValue().
1078:Drivers/STM32L4xx_HAL_Driver/Inc/stm32l4xx_ll_dac.h ****   * @rmtoll CR       MODE1          LL_DAC_SetOutputBuffer\n
1079:Drivers/STM32L4xx_HAL_Driver/Inc/stm32l4xx_ll_dac.h ****   *         CR       MODE2          LL_DAC_SetOutputBuffer
1080:Drivers/STM32L4xx_HAL_Driver/Inc/stm32l4xx_ll_dac.h ****   * @param  DACx DAC instance
1081:Drivers/STM32L4xx_HAL_Driver/Inc/stm32l4xx_ll_dac.h ****   * @param  DAC_Channel This parameter can be one of the following values:
1082:Drivers/STM32L4xx_HAL_Driver/Inc/stm32l4xx_ll_dac.h ****   *         @arg @ref LL_DAC_CHANNEL_1
1083:Drivers/STM32L4xx_HAL_Driver/Inc/stm32l4xx_ll_dac.h ****   *         @arg @ref LL_DAC_CHANNEL_2 (1)
1084:Drivers/STM32L4xx_HAL_Driver/Inc/stm32l4xx_ll_dac.h ****   *
ARM GAS  C:\Users\ep_ygh\AppData\Local\Temp\ccVL2nhg.s 			page 22


1085:Drivers/STM32L4xx_HAL_Driver/Inc/stm32l4xx_ll_dac.h ****   *         (1) On this STM32 series, parameter not available on all devices.
1086:Drivers/STM32L4xx_HAL_Driver/Inc/stm32l4xx_ll_dac.h ****   *             Refer to device datasheet for channels availability.
1087:Drivers/STM32L4xx_HAL_Driver/Inc/stm32l4xx_ll_dac.h ****   * @param  OutputBuffer This parameter can be one of the following values:
1088:Drivers/STM32L4xx_HAL_Driver/Inc/stm32l4xx_ll_dac.h ****   *         @arg @ref LL_DAC_OUTPUT_BUFFER_ENABLE
1089:Drivers/STM32L4xx_HAL_Driver/Inc/stm32l4xx_ll_dac.h ****   *         @arg @ref LL_DAC_OUTPUT_BUFFER_DISABLE
1090:Drivers/STM32L4xx_HAL_Driver/Inc/stm32l4xx_ll_dac.h ****   * @retval None
1091:Drivers/STM32L4xx_HAL_Driver/Inc/stm32l4xx_ll_dac.h ****   */
1092:Drivers/STM32L4xx_HAL_Driver/Inc/stm32l4xx_ll_dac.h **** __STATIC_INLINE void LL_DAC_SetOutputBuffer(DAC_TypeDef *DACx, uint32_t DAC_Channel, uint32_t Outpu
1093:Drivers/STM32L4xx_HAL_Driver/Inc/stm32l4xx_ll_dac.h **** {
1094:Drivers/STM32L4xx_HAL_Driver/Inc/stm32l4xx_ll_dac.h ****   MODIFY_REG(DACx->MCR,
1095:Drivers/STM32L4xx_HAL_Driver/Inc/stm32l4xx_ll_dac.h ****              (uint32_t)DAC_MCR_MODE1_1 << (DAC_Channel & DAC_CR_CHX_BITOFFSET_MASK),
1096:Drivers/STM32L4xx_HAL_Driver/Inc/stm32l4xx_ll_dac.h ****              OutputBuffer << (DAC_Channel & DAC_CR_CHX_BITOFFSET_MASK));
1097:Drivers/STM32L4xx_HAL_Driver/Inc/stm32l4xx_ll_dac.h **** }
1098:Drivers/STM32L4xx_HAL_Driver/Inc/stm32l4xx_ll_dac.h **** 
1099:Drivers/STM32L4xx_HAL_Driver/Inc/stm32l4xx_ll_dac.h **** /**
1100:Drivers/STM32L4xx_HAL_Driver/Inc/stm32l4xx_ll_dac.h ****   * @brief  Get the output buffer state for the selected DAC channel.
1101:Drivers/STM32L4xx_HAL_Driver/Inc/stm32l4xx_ll_dac.h ****   * @rmtoll CR       MODE1          LL_DAC_GetOutputBuffer\n
1102:Drivers/STM32L4xx_HAL_Driver/Inc/stm32l4xx_ll_dac.h ****   *         CR       MODE2          LL_DAC_GetOutputBuffer
1103:Drivers/STM32L4xx_HAL_Driver/Inc/stm32l4xx_ll_dac.h ****   * @param  DACx DAC instance
1104:Drivers/STM32L4xx_HAL_Driver/Inc/stm32l4xx_ll_dac.h ****   * @param  DAC_Channel This parameter can be one of the following values:
1105:Drivers/STM32L4xx_HAL_Driver/Inc/stm32l4xx_ll_dac.h ****   *         @arg @ref LL_DAC_CHANNEL_1
1106:Drivers/STM32L4xx_HAL_Driver/Inc/stm32l4xx_ll_dac.h ****   *         @arg @ref LL_DAC_CHANNEL_2 (1)
1107:Drivers/STM32L4xx_HAL_Driver/Inc/stm32l4xx_ll_dac.h ****   *
1108:Drivers/STM32L4xx_HAL_Driver/Inc/stm32l4xx_ll_dac.h ****   *         (1) On this STM32 series, parameter not available on all devices.
1109:Drivers/STM32L4xx_HAL_Driver/Inc/stm32l4xx_ll_dac.h ****   *             Refer to device datasheet for channels availability.
1110:Drivers/STM32L4xx_HAL_Driver/Inc/stm32l4xx_ll_dac.h ****   * @retval Returned value can be one of the following values:
1111:Drivers/STM32L4xx_HAL_Driver/Inc/stm32l4xx_ll_dac.h ****   *         @arg @ref LL_DAC_OUTPUT_BUFFER_ENABLE
1112:Drivers/STM32L4xx_HAL_Driver/Inc/stm32l4xx_ll_dac.h ****   *         @arg @ref LL_DAC_OUTPUT_BUFFER_DISABLE
1113:Drivers/STM32L4xx_HAL_Driver/Inc/stm32l4xx_ll_dac.h ****   */
1114:Drivers/STM32L4xx_HAL_Driver/Inc/stm32l4xx_ll_dac.h **** __STATIC_INLINE uint32_t LL_DAC_GetOutputBuffer(DAC_TypeDef *DACx, uint32_t DAC_Channel)
1115:Drivers/STM32L4xx_HAL_Driver/Inc/stm32l4xx_ll_dac.h **** {
1116:Drivers/STM32L4xx_HAL_Driver/Inc/stm32l4xx_ll_dac.h ****   return (uint32_t)(READ_BIT(DACx->MCR, (uint32_t)DAC_MCR_MODE1_1 << (DAC_Channel & DAC_CR_CHX_BITO
1117:Drivers/STM32L4xx_HAL_Driver/Inc/stm32l4xx_ll_dac.h ****                     >> (DAC_Channel & DAC_CR_CHX_BITOFFSET_MASK)
1118:Drivers/STM32L4xx_HAL_Driver/Inc/stm32l4xx_ll_dac.h ****                    );
1119:Drivers/STM32L4xx_HAL_Driver/Inc/stm32l4xx_ll_dac.h **** }
1120:Drivers/STM32L4xx_HAL_Driver/Inc/stm32l4xx_ll_dac.h **** 
1121:Drivers/STM32L4xx_HAL_Driver/Inc/stm32l4xx_ll_dac.h **** /**
1122:Drivers/STM32L4xx_HAL_Driver/Inc/stm32l4xx_ll_dac.h ****   * @brief  Set the output connection for the selected DAC channel.
1123:Drivers/STM32L4xx_HAL_Driver/Inc/stm32l4xx_ll_dac.h ****   * @note   On this STM32 series, output connection depends on output mode (normal or
1124:Drivers/STM32L4xx_HAL_Driver/Inc/stm32l4xx_ll_dac.h ****   *         sample and hold) and output buffer state.
1125:Drivers/STM32L4xx_HAL_Driver/Inc/stm32l4xx_ll_dac.h ****   *         - if output connection is set to internal path and output buffer
1126:Drivers/STM32L4xx_HAL_Driver/Inc/stm32l4xx_ll_dac.h ****   *           is enabled (whatever output mode):
1127:Drivers/STM32L4xx_HAL_Driver/Inc/stm32l4xx_ll_dac.h ****   *           output connection is also connected to GPIO pin
1128:Drivers/STM32L4xx_HAL_Driver/Inc/stm32l4xx_ll_dac.h ****   *           (both connections to GPIO pin and internal path).
1129:Drivers/STM32L4xx_HAL_Driver/Inc/stm32l4xx_ll_dac.h ****   *         - if output connection is set to GPIO pin, output buffer
1130:Drivers/STM32L4xx_HAL_Driver/Inc/stm32l4xx_ll_dac.h ****   *           is disabled, output mode set to sample and hold:
1131:Drivers/STM32L4xx_HAL_Driver/Inc/stm32l4xx_ll_dac.h ****   *           output connection is also connected to internal path
1132:Drivers/STM32L4xx_HAL_Driver/Inc/stm32l4xx_ll_dac.h ****   *           (both connections to GPIO pin and internal path).
1133:Drivers/STM32L4xx_HAL_Driver/Inc/stm32l4xx_ll_dac.h ****   * @rmtoll CR       MODE1          LL_DAC_SetOutputConnection\n
1134:Drivers/STM32L4xx_HAL_Driver/Inc/stm32l4xx_ll_dac.h ****   *         CR       MODE2          LL_DAC_SetOutputConnection
1135:Drivers/STM32L4xx_HAL_Driver/Inc/stm32l4xx_ll_dac.h ****   * @param  DACx DAC instance
1136:Drivers/STM32L4xx_HAL_Driver/Inc/stm32l4xx_ll_dac.h ****   * @param  DAC_Channel This parameter can be one of the following values:
1137:Drivers/STM32L4xx_HAL_Driver/Inc/stm32l4xx_ll_dac.h ****   *         @arg @ref LL_DAC_CHANNEL_1
1138:Drivers/STM32L4xx_HAL_Driver/Inc/stm32l4xx_ll_dac.h ****   *         @arg @ref LL_DAC_CHANNEL_2 (1)
1139:Drivers/STM32L4xx_HAL_Driver/Inc/stm32l4xx_ll_dac.h ****   *
1140:Drivers/STM32L4xx_HAL_Driver/Inc/stm32l4xx_ll_dac.h ****   *         (1) On this STM32 series, parameter not available on all devices.
1141:Drivers/STM32L4xx_HAL_Driver/Inc/stm32l4xx_ll_dac.h ****   *             Refer to device datasheet for channels availability.
ARM GAS  C:\Users\ep_ygh\AppData\Local\Temp\ccVL2nhg.s 			page 23


1142:Drivers/STM32L4xx_HAL_Driver/Inc/stm32l4xx_ll_dac.h ****   * @param  OutputConnection This parameter can be one of the following values:
1143:Drivers/STM32L4xx_HAL_Driver/Inc/stm32l4xx_ll_dac.h ****   *         @arg @ref LL_DAC_OUTPUT_CONNECT_GPIO
1144:Drivers/STM32L4xx_HAL_Driver/Inc/stm32l4xx_ll_dac.h ****   *         @arg @ref LL_DAC_OUTPUT_CONNECT_INTERNAL
1145:Drivers/STM32L4xx_HAL_Driver/Inc/stm32l4xx_ll_dac.h ****   * @retval None
1146:Drivers/STM32L4xx_HAL_Driver/Inc/stm32l4xx_ll_dac.h ****   */
1147:Drivers/STM32L4xx_HAL_Driver/Inc/stm32l4xx_ll_dac.h **** __STATIC_INLINE void LL_DAC_SetOutputConnection(DAC_TypeDef *DACx, uint32_t DAC_Channel, uint32_t O
1148:Drivers/STM32L4xx_HAL_Driver/Inc/stm32l4xx_ll_dac.h **** {
1149:Drivers/STM32L4xx_HAL_Driver/Inc/stm32l4xx_ll_dac.h ****   MODIFY_REG(DACx->MCR,
1150:Drivers/STM32L4xx_HAL_Driver/Inc/stm32l4xx_ll_dac.h ****              (uint32_t)DAC_MCR_MODE1_0 << (DAC_Channel & DAC_CR_CHX_BITOFFSET_MASK),
1151:Drivers/STM32L4xx_HAL_Driver/Inc/stm32l4xx_ll_dac.h ****              OutputConnection << (DAC_Channel & DAC_CR_CHX_BITOFFSET_MASK));
1152:Drivers/STM32L4xx_HAL_Driver/Inc/stm32l4xx_ll_dac.h **** }
1153:Drivers/STM32L4xx_HAL_Driver/Inc/stm32l4xx_ll_dac.h **** 
1154:Drivers/STM32L4xx_HAL_Driver/Inc/stm32l4xx_ll_dac.h **** /**
1155:Drivers/STM32L4xx_HAL_Driver/Inc/stm32l4xx_ll_dac.h ****   * @brief  Get the output connection for the selected DAC channel.
1156:Drivers/STM32L4xx_HAL_Driver/Inc/stm32l4xx_ll_dac.h ****   * @note   On this STM32 series, output connection depends on output mode (normal or
1157:Drivers/STM32L4xx_HAL_Driver/Inc/stm32l4xx_ll_dac.h ****   *         sample and hold) and output buffer state.
1158:Drivers/STM32L4xx_HAL_Driver/Inc/stm32l4xx_ll_dac.h ****   *         - if output connection is set to internal path and output buffer
1159:Drivers/STM32L4xx_HAL_Driver/Inc/stm32l4xx_ll_dac.h ****   *           is enabled (whatever output mode):
1160:Drivers/STM32L4xx_HAL_Driver/Inc/stm32l4xx_ll_dac.h ****   *           output connection is also connected to GPIO pin
1161:Drivers/STM32L4xx_HAL_Driver/Inc/stm32l4xx_ll_dac.h ****   *           (both connections to GPIO pin and internal path).
1162:Drivers/STM32L4xx_HAL_Driver/Inc/stm32l4xx_ll_dac.h ****   *         - if output connection is set to GPIO pin, output buffer
1163:Drivers/STM32L4xx_HAL_Driver/Inc/stm32l4xx_ll_dac.h ****   *           is disabled, output mode set to sample and hold:
1164:Drivers/STM32L4xx_HAL_Driver/Inc/stm32l4xx_ll_dac.h ****   *           output connection is also connected to internal path
1165:Drivers/STM32L4xx_HAL_Driver/Inc/stm32l4xx_ll_dac.h ****   *           (both connections to GPIO pin and internal path).
1166:Drivers/STM32L4xx_HAL_Driver/Inc/stm32l4xx_ll_dac.h ****   * @rmtoll CR       MODE1          LL_DAC_GetOutputConnection\n
1167:Drivers/STM32L4xx_HAL_Driver/Inc/stm32l4xx_ll_dac.h ****   *         CR       MODE2          LL_DAC_GetOutputConnection
1168:Drivers/STM32L4xx_HAL_Driver/Inc/stm32l4xx_ll_dac.h ****   * @param  DACx DAC instance
1169:Drivers/STM32L4xx_HAL_Driver/Inc/stm32l4xx_ll_dac.h ****   * @param  DAC_Channel This parameter can be one of the following values:
1170:Drivers/STM32L4xx_HAL_Driver/Inc/stm32l4xx_ll_dac.h ****   *         @arg @ref LL_DAC_CHANNEL_1
1171:Drivers/STM32L4xx_HAL_Driver/Inc/stm32l4xx_ll_dac.h ****   *         @arg @ref LL_DAC_CHANNEL_2 (1)
1172:Drivers/STM32L4xx_HAL_Driver/Inc/stm32l4xx_ll_dac.h ****   *
1173:Drivers/STM32L4xx_HAL_Driver/Inc/stm32l4xx_ll_dac.h ****   *         (1) On this STM32 series, parameter not available on all devices.
1174:Drivers/STM32L4xx_HAL_Driver/Inc/stm32l4xx_ll_dac.h ****   *             Refer to device datasheet for channels availability.
1175:Drivers/STM32L4xx_HAL_Driver/Inc/stm32l4xx_ll_dac.h ****   * @retval Returned value can be one of the following values:
1176:Drivers/STM32L4xx_HAL_Driver/Inc/stm32l4xx_ll_dac.h ****   *         @arg @ref LL_DAC_OUTPUT_CONNECT_GPIO
1177:Drivers/STM32L4xx_HAL_Driver/Inc/stm32l4xx_ll_dac.h ****   *         @arg @ref LL_DAC_OUTPUT_CONNECT_INTERNAL
1178:Drivers/STM32L4xx_HAL_Driver/Inc/stm32l4xx_ll_dac.h ****   */
1179:Drivers/STM32L4xx_HAL_Driver/Inc/stm32l4xx_ll_dac.h **** __STATIC_INLINE uint32_t LL_DAC_GetOutputConnection(DAC_TypeDef *DACx, uint32_t DAC_Channel)
1180:Drivers/STM32L4xx_HAL_Driver/Inc/stm32l4xx_ll_dac.h **** {
1181:Drivers/STM32L4xx_HAL_Driver/Inc/stm32l4xx_ll_dac.h ****   return (uint32_t)(READ_BIT(DACx->MCR, (uint32_t)DAC_MCR_MODE1_0 << (DAC_Channel & DAC_CR_CHX_BITO
1182:Drivers/STM32L4xx_HAL_Driver/Inc/stm32l4xx_ll_dac.h ****                     >> (DAC_Channel & DAC_CR_CHX_BITOFFSET_MASK)
1183:Drivers/STM32L4xx_HAL_Driver/Inc/stm32l4xx_ll_dac.h ****                    );
1184:Drivers/STM32L4xx_HAL_Driver/Inc/stm32l4xx_ll_dac.h **** }
1185:Drivers/STM32L4xx_HAL_Driver/Inc/stm32l4xx_ll_dac.h **** 
1186:Drivers/STM32L4xx_HAL_Driver/Inc/stm32l4xx_ll_dac.h **** /**
1187:Drivers/STM32L4xx_HAL_Driver/Inc/stm32l4xx_ll_dac.h ****   * @brief  Set the sample-and-hold timing for the selected DAC channel:
1188:Drivers/STM32L4xx_HAL_Driver/Inc/stm32l4xx_ll_dac.h ****   *         sample time
1189:Drivers/STM32L4xx_HAL_Driver/Inc/stm32l4xx_ll_dac.h ****   * @note   Sample time must be set when DAC channel is disabled
1190:Drivers/STM32L4xx_HAL_Driver/Inc/stm32l4xx_ll_dac.h ****   *         or during DAC operation when DAC channel flag BWSTx is reset,
1191:Drivers/STM32L4xx_HAL_Driver/Inc/stm32l4xx_ll_dac.h ****   *         otherwise the setting is ignored.
1192:Drivers/STM32L4xx_HAL_Driver/Inc/stm32l4xx_ll_dac.h ****   *         Check BWSTx flag state using function "LL_DAC_IsActiveFlag_BWSTx()".
1193:Drivers/STM32L4xx_HAL_Driver/Inc/stm32l4xx_ll_dac.h ****   * @rmtoll SHSR1    TSAMPLE1       LL_DAC_SetSampleAndHoldSampleTime\n
1194:Drivers/STM32L4xx_HAL_Driver/Inc/stm32l4xx_ll_dac.h ****   *         SHSR2    TSAMPLE2       LL_DAC_SetSampleAndHoldSampleTime
1195:Drivers/STM32L4xx_HAL_Driver/Inc/stm32l4xx_ll_dac.h ****   * @param  DACx DAC instance
1196:Drivers/STM32L4xx_HAL_Driver/Inc/stm32l4xx_ll_dac.h ****   * @param  DAC_Channel This parameter can be one of the following values:
1197:Drivers/STM32L4xx_HAL_Driver/Inc/stm32l4xx_ll_dac.h ****   *         @arg @ref LL_DAC_CHANNEL_1
1198:Drivers/STM32L4xx_HAL_Driver/Inc/stm32l4xx_ll_dac.h ****   *         @arg @ref LL_DAC_CHANNEL_2 (1)
ARM GAS  C:\Users\ep_ygh\AppData\Local\Temp\ccVL2nhg.s 			page 24


1199:Drivers/STM32L4xx_HAL_Driver/Inc/stm32l4xx_ll_dac.h ****   *
1200:Drivers/STM32L4xx_HAL_Driver/Inc/stm32l4xx_ll_dac.h ****   *         (1) On this STM32 series, parameter not available on all devices.
1201:Drivers/STM32L4xx_HAL_Driver/Inc/stm32l4xx_ll_dac.h ****   *             Refer to device datasheet for channels availability.
1202:Drivers/STM32L4xx_HAL_Driver/Inc/stm32l4xx_ll_dac.h ****   * @param  SampleTime Value between Min_Data=0x000 and Max_Data=0x3FF
1203:Drivers/STM32L4xx_HAL_Driver/Inc/stm32l4xx_ll_dac.h ****   * @retval None
1204:Drivers/STM32L4xx_HAL_Driver/Inc/stm32l4xx_ll_dac.h ****   */
1205:Drivers/STM32L4xx_HAL_Driver/Inc/stm32l4xx_ll_dac.h **** __STATIC_INLINE void LL_DAC_SetSampleAndHoldSampleTime(DAC_TypeDef *DACx, uint32_t DAC_Channel, uin
1206:Drivers/STM32L4xx_HAL_Driver/Inc/stm32l4xx_ll_dac.h **** {
1207:Drivers/STM32L4xx_HAL_Driver/Inc/stm32l4xx_ll_dac.h ****   __IO uint32_t *preg = __DAC_PTR_REG_OFFSET(DACx->SHSR1, (DAC_Channel >> DAC_REG_SHSRX_REGOFFSET_B
1208:Drivers/STM32L4xx_HAL_Driver/Inc/stm32l4xx_ll_dac.h **** 
1209:Drivers/STM32L4xx_HAL_Driver/Inc/stm32l4xx_ll_dac.h ****   MODIFY_REG(*preg,
1210:Drivers/STM32L4xx_HAL_Driver/Inc/stm32l4xx_ll_dac.h ****              DAC_SHSR1_TSAMPLE1,
1211:Drivers/STM32L4xx_HAL_Driver/Inc/stm32l4xx_ll_dac.h ****              SampleTime);
1212:Drivers/STM32L4xx_HAL_Driver/Inc/stm32l4xx_ll_dac.h **** }
1213:Drivers/STM32L4xx_HAL_Driver/Inc/stm32l4xx_ll_dac.h **** 
1214:Drivers/STM32L4xx_HAL_Driver/Inc/stm32l4xx_ll_dac.h **** /**
1215:Drivers/STM32L4xx_HAL_Driver/Inc/stm32l4xx_ll_dac.h ****   * @brief  Get the sample-and-hold timing for the selected DAC channel:
1216:Drivers/STM32L4xx_HAL_Driver/Inc/stm32l4xx_ll_dac.h ****   *         sample time
1217:Drivers/STM32L4xx_HAL_Driver/Inc/stm32l4xx_ll_dac.h ****   * @rmtoll SHSR1    TSAMPLE1       LL_DAC_GetSampleAndHoldSampleTime\n
1218:Drivers/STM32L4xx_HAL_Driver/Inc/stm32l4xx_ll_dac.h ****   *         SHSR2    TSAMPLE2       LL_DAC_GetSampleAndHoldSampleTime
1219:Drivers/STM32L4xx_HAL_Driver/Inc/stm32l4xx_ll_dac.h ****   * @param  DACx DAC instance
1220:Drivers/STM32L4xx_HAL_Driver/Inc/stm32l4xx_ll_dac.h ****   * @param  DAC_Channel This parameter can be one of the following values:
1221:Drivers/STM32L4xx_HAL_Driver/Inc/stm32l4xx_ll_dac.h ****   *         @arg @ref LL_DAC_CHANNEL_1
1222:Drivers/STM32L4xx_HAL_Driver/Inc/stm32l4xx_ll_dac.h ****   *         @arg @ref LL_DAC_CHANNEL_2 (1)
1223:Drivers/STM32L4xx_HAL_Driver/Inc/stm32l4xx_ll_dac.h ****   *
1224:Drivers/STM32L4xx_HAL_Driver/Inc/stm32l4xx_ll_dac.h ****   *         (1) On this STM32 series, parameter not available on all devices.
1225:Drivers/STM32L4xx_HAL_Driver/Inc/stm32l4xx_ll_dac.h ****   *             Refer to device datasheet for channels availability.
1226:Drivers/STM32L4xx_HAL_Driver/Inc/stm32l4xx_ll_dac.h ****   * @retval Value between Min_Data=0x000 and Max_Data=0x3FF
1227:Drivers/STM32L4xx_HAL_Driver/Inc/stm32l4xx_ll_dac.h ****   */
1228:Drivers/STM32L4xx_HAL_Driver/Inc/stm32l4xx_ll_dac.h **** __STATIC_INLINE uint32_t LL_DAC_GetSampleAndHoldSampleTime(DAC_TypeDef *DACx, uint32_t DAC_Channel)
1229:Drivers/STM32L4xx_HAL_Driver/Inc/stm32l4xx_ll_dac.h **** {
1230:Drivers/STM32L4xx_HAL_Driver/Inc/stm32l4xx_ll_dac.h ****   __IO uint32_t const *preg = __DAC_PTR_REG_OFFSET(DACx->SHSR1, (DAC_Channel >> DAC_REG_SHSRX_REGOF
1231:Drivers/STM32L4xx_HAL_Driver/Inc/stm32l4xx_ll_dac.h **** 
1232:Drivers/STM32L4xx_HAL_Driver/Inc/stm32l4xx_ll_dac.h ****   return (uint32_t) READ_BIT(*preg, DAC_SHSR1_TSAMPLE1);
1233:Drivers/STM32L4xx_HAL_Driver/Inc/stm32l4xx_ll_dac.h **** }
1234:Drivers/STM32L4xx_HAL_Driver/Inc/stm32l4xx_ll_dac.h **** 
1235:Drivers/STM32L4xx_HAL_Driver/Inc/stm32l4xx_ll_dac.h **** /**
1236:Drivers/STM32L4xx_HAL_Driver/Inc/stm32l4xx_ll_dac.h ****   * @brief  Set the sample-and-hold timing for the selected DAC channel:
1237:Drivers/STM32L4xx_HAL_Driver/Inc/stm32l4xx_ll_dac.h ****   *         hold time
1238:Drivers/STM32L4xx_HAL_Driver/Inc/stm32l4xx_ll_dac.h ****   * @rmtoll SHHR     THOLD1         LL_DAC_SetSampleAndHoldHoldTime\n
1239:Drivers/STM32L4xx_HAL_Driver/Inc/stm32l4xx_ll_dac.h ****   *         SHHR     THOLD2         LL_DAC_SetSampleAndHoldHoldTime
1240:Drivers/STM32L4xx_HAL_Driver/Inc/stm32l4xx_ll_dac.h ****   * @param  DACx DAC instance
1241:Drivers/STM32L4xx_HAL_Driver/Inc/stm32l4xx_ll_dac.h ****   * @param  DAC_Channel This parameter can be one of the following values:
1242:Drivers/STM32L4xx_HAL_Driver/Inc/stm32l4xx_ll_dac.h ****   *         @arg @ref LL_DAC_CHANNEL_1
1243:Drivers/STM32L4xx_HAL_Driver/Inc/stm32l4xx_ll_dac.h ****   *         @arg @ref LL_DAC_CHANNEL_2 (1)
1244:Drivers/STM32L4xx_HAL_Driver/Inc/stm32l4xx_ll_dac.h ****   *
1245:Drivers/STM32L4xx_HAL_Driver/Inc/stm32l4xx_ll_dac.h ****   *         (1) On this STM32 series, parameter not available on all devices.
1246:Drivers/STM32L4xx_HAL_Driver/Inc/stm32l4xx_ll_dac.h ****   *             Refer to device datasheet for channels availability.
1247:Drivers/STM32L4xx_HAL_Driver/Inc/stm32l4xx_ll_dac.h ****   * @param  HoldTime Value between Min_Data=0x000 and Max_Data=0x3FF
1248:Drivers/STM32L4xx_HAL_Driver/Inc/stm32l4xx_ll_dac.h ****   * @retval None
1249:Drivers/STM32L4xx_HAL_Driver/Inc/stm32l4xx_ll_dac.h ****   */
1250:Drivers/STM32L4xx_HAL_Driver/Inc/stm32l4xx_ll_dac.h **** __STATIC_INLINE void LL_DAC_SetSampleAndHoldHoldTime(DAC_TypeDef *DACx, uint32_t DAC_Channel, uint3
1251:Drivers/STM32L4xx_HAL_Driver/Inc/stm32l4xx_ll_dac.h **** {
1252:Drivers/STM32L4xx_HAL_Driver/Inc/stm32l4xx_ll_dac.h ****   MODIFY_REG(DACx->SHHR,
1253:Drivers/STM32L4xx_HAL_Driver/Inc/stm32l4xx_ll_dac.h ****              DAC_SHHR_THOLD1 << (DAC_Channel & DAC_CR_CHX_BITOFFSET_MASK),
1254:Drivers/STM32L4xx_HAL_Driver/Inc/stm32l4xx_ll_dac.h ****              HoldTime << (DAC_Channel & DAC_CR_CHX_BITOFFSET_MASK));
1255:Drivers/STM32L4xx_HAL_Driver/Inc/stm32l4xx_ll_dac.h **** }
ARM GAS  C:\Users\ep_ygh\AppData\Local\Temp\ccVL2nhg.s 			page 25


1256:Drivers/STM32L4xx_HAL_Driver/Inc/stm32l4xx_ll_dac.h **** 
1257:Drivers/STM32L4xx_HAL_Driver/Inc/stm32l4xx_ll_dac.h **** /**
1258:Drivers/STM32L4xx_HAL_Driver/Inc/stm32l4xx_ll_dac.h ****   * @brief  Get the sample-and-hold timing for the selected DAC channel:
1259:Drivers/STM32L4xx_HAL_Driver/Inc/stm32l4xx_ll_dac.h ****   *         hold time
1260:Drivers/STM32L4xx_HAL_Driver/Inc/stm32l4xx_ll_dac.h ****   * @rmtoll SHHR     THOLD1         LL_DAC_GetSampleAndHoldHoldTime\n
1261:Drivers/STM32L4xx_HAL_Driver/Inc/stm32l4xx_ll_dac.h ****   *         SHHR     THOLD2         LL_DAC_GetSampleAndHoldHoldTime
1262:Drivers/STM32L4xx_HAL_Driver/Inc/stm32l4xx_ll_dac.h ****   * @param  DACx DAC instance
1263:Drivers/STM32L4xx_HAL_Driver/Inc/stm32l4xx_ll_dac.h ****   * @param  DAC_Channel This parameter can be one of the following values:
1264:Drivers/STM32L4xx_HAL_Driver/Inc/stm32l4xx_ll_dac.h ****   *         @arg @ref LL_DAC_CHANNEL_1
1265:Drivers/STM32L4xx_HAL_Driver/Inc/stm32l4xx_ll_dac.h ****   *         @arg @ref LL_DAC_CHANNEL_2 (1)
1266:Drivers/STM32L4xx_HAL_Driver/Inc/stm32l4xx_ll_dac.h ****   *
1267:Drivers/STM32L4xx_HAL_Driver/Inc/stm32l4xx_ll_dac.h ****   *         (1) On this STM32 series, parameter not available on all devices.
1268:Drivers/STM32L4xx_HAL_Driver/Inc/stm32l4xx_ll_dac.h ****   *             Refer to device datasheet for channels availability.
1269:Drivers/STM32L4xx_HAL_Driver/Inc/stm32l4xx_ll_dac.h ****   * @retval Value between Min_Data=0x000 and Max_Data=0x3FF
1270:Drivers/STM32L4xx_HAL_Driver/Inc/stm32l4xx_ll_dac.h ****   */
1271:Drivers/STM32L4xx_HAL_Driver/Inc/stm32l4xx_ll_dac.h **** __STATIC_INLINE uint32_t LL_DAC_GetSampleAndHoldHoldTime(DAC_TypeDef *DACx, uint32_t DAC_Channel)
1272:Drivers/STM32L4xx_HAL_Driver/Inc/stm32l4xx_ll_dac.h **** {
1273:Drivers/STM32L4xx_HAL_Driver/Inc/stm32l4xx_ll_dac.h ****   return (uint32_t)(READ_BIT(DACx->SHHR, DAC_SHHR_THOLD1 << (DAC_Channel & DAC_CR_CHX_BITOFFSET_MAS
1274:Drivers/STM32L4xx_HAL_Driver/Inc/stm32l4xx_ll_dac.h ****                     >> (DAC_Channel & DAC_CR_CHX_BITOFFSET_MASK)
1275:Drivers/STM32L4xx_HAL_Driver/Inc/stm32l4xx_ll_dac.h ****                    );
1276:Drivers/STM32L4xx_HAL_Driver/Inc/stm32l4xx_ll_dac.h **** }
1277:Drivers/STM32L4xx_HAL_Driver/Inc/stm32l4xx_ll_dac.h **** 
1278:Drivers/STM32L4xx_HAL_Driver/Inc/stm32l4xx_ll_dac.h **** /**
1279:Drivers/STM32L4xx_HAL_Driver/Inc/stm32l4xx_ll_dac.h ****   * @brief  Set the sample-and-hold timing for the selected DAC channel:
1280:Drivers/STM32L4xx_HAL_Driver/Inc/stm32l4xx_ll_dac.h ****   *         refresh time
1281:Drivers/STM32L4xx_HAL_Driver/Inc/stm32l4xx_ll_dac.h ****   * @rmtoll SHRR     TREFRESH1      LL_DAC_SetSampleAndHoldRefreshTime\n
1282:Drivers/STM32L4xx_HAL_Driver/Inc/stm32l4xx_ll_dac.h ****   *         SHRR     TREFRESH2      LL_DAC_SetSampleAndHoldRefreshTime
1283:Drivers/STM32L4xx_HAL_Driver/Inc/stm32l4xx_ll_dac.h ****   * @param  DACx DAC instance
1284:Drivers/STM32L4xx_HAL_Driver/Inc/stm32l4xx_ll_dac.h ****   * @param  DAC_Channel This parameter can be one of the following values:
1285:Drivers/STM32L4xx_HAL_Driver/Inc/stm32l4xx_ll_dac.h ****   *         @arg @ref LL_DAC_CHANNEL_1
1286:Drivers/STM32L4xx_HAL_Driver/Inc/stm32l4xx_ll_dac.h ****   *         @arg @ref LL_DAC_CHANNEL_2 (1)
1287:Drivers/STM32L4xx_HAL_Driver/Inc/stm32l4xx_ll_dac.h ****   *
1288:Drivers/STM32L4xx_HAL_Driver/Inc/stm32l4xx_ll_dac.h ****   *         (1) On this STM32 series, parameter not available on all devices.
1289:Drivers/STM32L4xx_HAL_Driver/Inc/stm32l4xx_ll_dac.h ****   *             Refer to device datasheet for channels availability.
1290:Drivers/STM32L4xx_HAL_Driver/Inc/stm32l4xx_ll_dac.h ****   * @param  RefreshTime Value between Min_Data=0x00 and Max_Data=0xFF
1291:Drivers/STM32L4xx_HAL_Driver/Inc/stm32l4xx_ll_dac.h ****   * @retval None
1292:Drivers/STM32L4xx_HAL_Driver/Inc/stm32l4xx_ll_dac.h ****   */
1293:Drivers/STM32L4xx_HAL_Driver/Inc/stm32l4xx_ll_dac.h **** __STATIC_INLINE void LL_DAC_SetSampleAndHoldRefreshTime(DAC_TypeDef *DACx, uint32_t DAC_Channel, ui
1294:Drivers/STM32L4xx_HAL_Driver/Inc/stm32l4xx_ll_dac.h **** {
1295:Drivers/STM32L4xx_HAL_Driver/Inc/stm32l4xx_ll_dac.h ****   MODIFY_REG(DACx->SHRR,
1296:Drivers/STM32L4xx_HAL_Driver/Inc/stm32l4xx_ll_dac.h ****              DAC_SHRR_TREFRESH1 << (DAC_Channel & DAC_CR_CHX_BITOFFSET_MASK),
1297:Drivers/STM32L4xx_HAL_Driver/Inc/stm32l4xx_ll_dac.h ****              RefreshTime << (DAC_Channel & DAC_CR_CHX_BITOFFSET_MASK));
1298:Drivers/STM32L4xx_HAL_Driver/Inc/stm32l4xx_ll_dac.h **** }
1299:Drivers/STM32L4xx_HAL_Driver/Inc/stm32l4xx_ll_dac.h **** 
1300:Drivers/STM32L4xx_HAL_Driver/Inc/stm32l4xx_ll_dac.h **** /**
1301:Drivers/STM32L4xx_HAL_Driver/Inc/stm32l4xx_ll_dac.h ****   * @brief  Get the sample-and-hold timing for the selected DAC channel:
1302:Drivers/STM32L4xx_HAL_Driver/Inc/stm32l4xx_ll_dac.h ****   *         refresh time
1303:Drivers/STM32L4xx_HAL_Driver/Inc/stm32l4xx_ll_dac.h ****   * @rmtoll SHRR     TREFRESH1      LL_DAC_GetSampleAndHoldRefreshTime\n
1304:Drivers/STM32L4xx_HAL_Driver/Inc/stm32l4xx_ll_dac.h ****   *         SHRR     TREFRESH2      LL_DAC_GetSampleAndHoldRefreshTime
1305:Drivers/STM32L4xx_HAL_Driver/Inc/stm32l4xx_ll_dac.h ****   * @param  DACx DAC instance
1306:Drivers/STM32L4xx_HAL_Driver/Inc/stm32l4xx_ll_dac.h ****   * @param  DAC_Channel This parameter can be one of the following values:
1307:Drivers/STM32L4xx_HAL_Driver/Inc/stm32l4xx_ll_dac.h ****   *         @arg @ref LL_DAC_CHANNEL_1
1308:Drivers/STM32L4xx_HAL_Driver/Inc/stm32l4xx_ll_dac.h ****   *         @arg @ref LL_DAC_CHANNEL_2 (1)
1309:Drivers/STM32L4xx_HAL_Driver/Inc/stm32l4xx_ll_dac.h ****   *
1310:Drivers/STM32L4xx_HAL_Driver/Inc/stm32l4xx_ll_dac.h ****   *         (1) On this STM32 series, parameter not available on all devices.
1311:Drivers/STM32L4xx_HAL_Driver/Inc/stm32l4xx_ll_dac.h ****   *             Refer to device datasheet for channels availability.
1312:Drivers/STM32L4xx_HAL_Driver/Inc/stm32l4xx_ll_dac.h ****   * @retval Value between Min_Data=0x00 and Max_Data=0xFF
ARM GAS  C:\Users\ep_ygh\AppData\Local\Temp\ccVL2nhg.s 			page 26


1313:Drivers/STM32L4xx_HAL_Driver/Inc/stm32l4xx_ll_dac.h ****   */
1314:Drivers/STM32L4xx_HAL_Driver/Inc/stm32l4xx_ll_dac.h **** __STATIC_INLINE uint32_t LL_DAC_GetSampleAndHoldRefreshTime(DAC_TypeDef *DACx, uint32_t DAC_Channel
1315:Drivers/STM32L4xx_HAL_Driver/Inc/stm32l4xx_ll_dac.h **** {
1316:Drivers/STM32L4xx_HAL_Driver/Inc/stm32l4xx_ll_dac.h ****   return (uint32_t)(READ_BIT(DACx->SHRR, DAC_SHRR_TREFRESH1 << (DAC_Channel & DAC_CR_CHX_BITOFFSET_
1317:Drivers/STM32L4xx_HAL_Driver/Inc/stm32l4xx_ll_dac.h ****                     >> (DAC_Channel & DAC_CR_CHX_BITOFFSET_MASK)
1318:Drivers/STM32L4xx_HAL_Driver/Inc/stm32l4xx_ll_dac.h ****                    );
1319:Drivers/STM32L4xx_HAL_Driver/Inc/stm32l4xx_ll_dac.h **** }
1320:Drivers/STM32L4xx_HAL_Driver/Inc/stm32l4xx_ll_dac.h **** 
1321:Drivers/STM32L4xx_HAL_Driver/Inc/stm32l4xx_ll_dac.h **** /**
1322:Drivers/STM32L4xx_HAL_Driver/Inc/stm32l4xx_ll_dac.h ****   * @}
1323:Drivers/STM32L4xx_HAL_Driver/Inc/stm32l4xx_ll_dac.h ****   */
1324:Drivers/STM32L4xx_HAL_Driver/Inc/stm32l4xx_ll_dac.h **** 
1325:Drivers/STM32L4xx_HAL_Driver/Inc/stm32l4xx_ll_dac.h **** /** @defgroup DAC_LL_EF_DMA_Management DMA Management
1326:Drivers/STM32L4xx_HAL_Driver/Inc/stm32l4xx_ll_dac.h ****   * @{
1327:Drivers/STM32L4xx_HAL_Driver/Inc/stm32l4xx_ll_dac.h ****   */
1328:Drivers/STM32L4xx_HAL_Driver/Inc/stm32l4xx_ll_dac.h **** 
1329:Drivers/STM32L4xx_HAL_Driver/Inc/stm32l4xx_ll_dac.h **** /**
1330:Drivers/STM32L4xx_HAL_Driver/Inc/stm32l4xx_ll_dac.h ****   * @brief  Enable DAC DMA transfer request of the selected channel.
1331:Drivers/STM32L4xx_HAL_Driver/Inc/stm32l4xx_ll_dac.h ****   * @note   To configure DMA source address (peripheral address),
1332:Drivers/STM32L4xx_HAL_Driver/Inc/stm32l4xx_ll_dac.h ****   *         use function @ref LL_DAC_DMA_GetRegAddr().
1333:Drivers/STM32L4xx_HAL_Driver/Inc/stm32l4xx_ll_dac.h ****   * @rmtoll CR       DMAEN1         LL_DAC_EnableDMAReq\n
1334:Drivers/STM32L4xx_HAL_Driver/Inc/stm32l4xx_ll_dac.h ****   *         CR       DMAEN2         LL_DAC_EnableDMAReq
1335:Drivers/STM32L4xx_HAL_Driver/Inc/stm32l4xx_ll_dac.h ****   * @param  DACx DAC instance
1336:Drivers/STM32L4xx_HAL_Driver/Inc/stm32l4xx_ll_dac.h ****   * @param  DAC_Channel This parameter can be one of the following values:
1337:Drivers/STM32L4xx_HAL_Driver/Inc/stm32l4xx_ll_dac.h ****   *         @arg @ref LL_DAC_CHANNEL_1
1338:Drivers/STM32L4xx_HAL_Driver/Inc/stm32l4xx_ll_dac.h ****   *         @arg @ref LL_DAC_CHANNEL_2 (1)
1339:Drivers/STM32L4xx_HAL_Driver/Inc/stm32l4xx_ll_dac.h ****   *
1340:Drivers/STM32L4xx_HAL_Driver/Inc/stm32l4xx_ll_dac.h ****   *         (1) On this STM32 series, parameter not available on all devices.
1341:Drivers/STM32L4xx_HAL_Driver/Inc/stm32l4xx_ll_dac.h ****   *             Refer to device datasheet for channels availability.
1342:Drivers/STM32L4xx_HAL_Driver/Inc/stm32l4xx_ll_dac.h ****   * @retval None
1343:Drivers/STM32L4xx_HAL_Driver/Inc/stm32l4xx_ll_dac.h ****   */
1344:Drivers/STM32L4xx_HAL_Driver/Inc/stm32l4xx_ll_dac.h **** __STATIC_INLINE void LL_DAC_EnableDMAReq(DAC_TypeDef *DACx, uint32_t DAC_Channel)
1345:Drivers/STM32L4xx_HAL_Driver/Inc/stm32l4xx_ll_dac.h **** {
1346:Drivers/STM32L4xx_HAL_Driver/Inc/stm32l4xx_ll_dac.h ****   SET_BIT(DACx->CR,
1347:Drivers/STM32L4xx_HAL_Driver/Inc/stm32l4xx_ll_dac.h ****           DAC_CR_DMAEN1 << (DAC_Channel & DAC_CR_CHX_BITOFFSET_MASK));
1348:Drivers/STM32L4xx_HAL_Driver/Inc/stm32l4xx_ll_dac.h **** }
1349:Drivers/STM32L4xx_HAL_Driver/Inc/stm32l4xx_ll_dac.h **** 
1350:Drivers/STM32L4xx_HAL_Driver/Inc/stm32l4xx_ll_dac.h **** /**
1351:Drivers/STM32L4xx_HAL_Driver/Inc/stm32l4xx_ll_dac.h ****   * @brief  Disable DAC DMA transfer request of the selected channel.
1352:Drivers/STM32L4xx_HAL_Driver/Inc/stm32l4xx_ll_dac.h ****   * @note   To configure DMA source address (peripheral address),
1353:Drivers/STM32L4xx_HAL_Driver/Inc/stm32l4xx_ll_dac.h ****   *         use function @ref LL_DAC_DMA_GetRegAddr().
1354:Drivers/STM32L4xx_HAL_Driver/Inc/stm32l4xx_ll_dac.h ****   * @rmtoll CR       DMAEN1         LL_DAC_DisableDMAReq\n
1355:Drivers/STM32L4xx_HAL_Driver/Inc/stm32l4xx_ll_dac.h ****   *         CR       DMAEN2         LL_DAC_DisableDMAReq
1356:Drivers/STM32L4xx_HAL_Driver/Inc/stm32l4xx_ll_dac.h ****   * @param  DACx DAC instance
1357:Drivers/STM32L4xx_HAL_Driver/Inc/stm32l4xx_ll_dac.h ****   * @param  DAC_Channel This parameter can be one of the following values:
1358:Drivers/STM32L4xx_HAL_Driver/Inc/stm32l4xx_ll_dac.h ****   *         @arg @ref LL_DAC_CHANNEL_1
1359:Drivers/STM32L4xx_HAL_Driver/Inc/stm32l4xx_ll_dac.h ****   *         @arg @ref LL_DAC_CHANNEL_2 (1)
1360:Drivers/STM32L4xx_HAL_Driver/Inc/stm32l4xx_ll_dac.h ****   *
1361:Drivers/STM32L4xx_HAL_Driver/Inc/stm32l4xx_ll_dac.h ****   *         (1) On this STM32 series, parameter not available on all devices.
1362:Drivers/STM32L4xx_HAL_Driver/Inc/stm32l4xx_ll_dac.h ****   *             Refer to device datasheet for channels availability.
1363:Drivers/STM32L4xx_HAL_Driver/Inc/stm32l4xx_ll_dac.h ****   * @retval None
1364:Drivers/STM32L4xx_HAL_Driver/Inc/stm32l4xx_ll_dac.h ****   */
1365:Drivers/STM32L4xx_HAL_Driver/Inc/stm32l4xx_ll_dac.h **** __STATIC_INLINE void LL_DAC_DisableDMAReq(DAC_TypeDef *DACx, uint32_t DAC_Channel)
1366:Drivers/STM32L4xx_HAL_Driver/Inc/stm32l4xx_ll_dac.h **** {
1367:Drivers/STM32L4xx_HAL_Driver/Inc/stm32l4xx_ll_dac.h ****   CLEAR_BIT(DACx->CR,
1368:Drivers/STM32L4xx_HAL_Driver/Inc/stm32l4xx_ll_dac.h ****             DAC_CR_DMAEN1 << (DAC_Channel & DAC_CR_CHX_BITOFFSET_MASK));
1369:Drivers/STM32L4xx_HAL_Driver/Inc/stm32l4xx_ll_dac.h **** }
ARM GAS  C:\Users\ep_ygh\AppData\Local\Temp\ccVL2nhg.s 			page 27


1370:Drivers/STM32L4xx_HAL_Driver/Inc/stm32l4xx_ll_dac.h **** 
1371:Drivers/STM32L4xx_HAL_Driver/Inc/stm32l4xx_ll_dac.h **** /**
1372:Drivers/STM32L4xx_HAL_Driver/Inc/stm32l4xx_ll_dac.h ****   * @brief  Get DAC DMA transfer request state of the selected channel.
1373:Drivers/STM32L4xx_HAL_Driver/Inc/stm32l4xx_ll_dac.h ****   *         (0: DAC DMA transfer request is disabled, 1: DAC DMA transfer request is enabled)
1374:Drivers/STM32L4xx_HAL_Driver/Inc/stm32l4xx_ll_dac.h ****   * @rmtoll CR       DMAEN1         LL_DAC_IsDMAReqEnabled\n
1375:Drivers/STM32L4xx_HAL_Driver/Inc/stm32l4xx_ll_dac.h ****   *         CR       DMAEN2         LL_DAC_IsDMAReqEnabled
1376:Drivers/STM32L4xx_HAL_Driver/Inc/stm32l4xx_ll_dac.h ****   * @param  DACx DAC instance
1377:Drivers/STM32L4xx_HAL_Driver/Inc/stm32l4xx_ll_dac.h ****   * @param  DAC_Channel This parameter can be one of the following values:
1378:Drivers/STM32L4xx_HAL_Driver/Inc/stm32l4xx_ll_dac.h ****   *         @arg @ref LL_DAC_CHANNEL_1
1379:Drivers/STM32L4xx_HAL_Driver/Inc/stm32l4xx_ll_dac.h ****   *         @arg @ref LL_DAC_CHANNEL_2 (1)
1380:Drivers/STM32L4xx_HAL_Driver/Inc/stm32l4xx_ll_dac.h ****   *
1381:Drivers/STM32L4xx_HAL_Driver/Inc/stm32l4xx_ll_dac.h ****   *         (1) On this STM32 series, parameter not available on all devices.
1382:Drivers/STM32L4xx_HAL_Driver/Inc/stm32l4xx_ll_dac.h ****   *             Refer to device datasheet for channels availability.
1383:Drivers/STM32L4xx_HAL_Driver/Inc/stm32l4xx_ll_dac.h ****   * @retval State of bit (1 or 0).
1384:Drivers/STM32L4xx_HAL_Driver/Inc/stm32l4xx_ll_dac.h ****   */
1385:Drivers/STM32L4xx_HAL_Driver/Inc/stm32l4xx_ll_dac.h **** __STATIC_INLINE uint32_t LL_DAC_IsDMAReqEnabled(DAC_TypeDef *DACx, uint32_t DAC_Channel)
1386:Drivers/STM32L4xx_HAL_Driver/Inc/stm32l4xx_ll_dac.h **** {
1387:Drivers/STM32L4xx_HAL_Driver/Inc/stm32l4xx_ll_dac.h ****   return ((READ_BIT(DACx->CR,
1388:Drivers/STM32L4xx_HAL_Driver/Inc/stm32l4xx_ll_dac.h ****                    DAC_CR_DMAEN1 << (DAC_Channel & DAC_CR_CHX_BITOFFSET_MASK))
1389:Drivers/STM32L4xx_HAL_Driver/Inc/stm32l4xx_ll_dac.h ****            == (DAC_CR_DMAEN1 << (DAC_Channel & DAC_CR_CHX_BITOFFSET_MASK))) ? 1UL : 0UL);
1390:Drivers/STM32L4xx_HAL_Driver/Inc/stm32l4xx_ll_dac.h **** }
1391:Drivers/STM32L4xx_HAL_Driver/Inc/stm32l4xx_ll_dac.h **** 
1392:Drivers/STM32L4xx_HAL_Driver/Inc/stm32l4xx_ll_dac.h **** /**
1393:Drivers/STM32L4xx_HAL_Driver/Inc/stm32l4xx_ll_dac.h ****   * @brief  Function to help to configure DMA transfer to DAC: retrieve the
1394:Drivers/STM32L4xx_HAL_Driver/Inc/stm32l4xx_ll_dac.h ****   *         DAC register address from DAC instance and a list of DAC registers
1395:Drivers/STM32L4xx_HAL_Driver/Inc/stm32l4xx_ll_dac.h ****   *         intended to be used (most commonly) with DMA transfer.
1396:Drivers/STM32L4xx_HAL_Driver/Inc/stm32l4xx_ll_dac.h ****   * @note   These DAC registers are data holding registers:
1397:Drivers/STM32L4xx_HAL_Driver/Inc/stm32l4xx_ll_dac.h ****   *         when DAC conversion is requested, DAC generates a DMA transfer
1398:Drivers/STM32L4xx_HAL_Driver/Inc/stm32l4xx_ll_dac.h ****   *         request to have data available in DAC data holding registers.
1399:Drivers/STM32L4xx_HAL_Driver/Inc/stm32l4xx_ll_dac.h ****   * @note   This macro is intended to be used with LL DMA driver, refer to
1400:Drivers/STM32L4xx_HAL_Driver/Inc/stm32l4xx_ll_dac.h ****   *         function "LL_DMA_ConfigAddresses()".
1401:Drivers/STM32L4xx_HAL_Driver/Inc/stm32l4xx_ll_dac.h ****   *         Example:
1402:Drivers/STM32L4xx_HAL_Driver/Inc/stm32l4xx_ll_dac.h ****   *           LL_DMA_ConfigAddresses(DMA1,
1403:Drivers/STM32L4xx_HAL_Driver/Inc/stm32l4xx_ll_dac.h ****   *                                  LL_DMA_CHANNEL_1,
1404:Drivers/STM32L4xx_HAL_Driver/Inc/stm32l4xx_ll_dac.h ****   *                                  (uint32_t)&< array or variable >,
1405:Drivers/STM32L4xx_HAL_Driver/Inc/stm32l4xx_ll_dac.h ****   *                                  LL_DAC_DMA_GetRegAddr(DAC1, LL_DAC_CHANNEL_1, LL_DAC_DMA_REG_D
1406:Drivers/STM32L4xx_HAL_Driver/Inc/stm32l4xx_ll_dac.h ****   *                                  LL_DMA_DIRECTION_MEMORY_TO_PERIPH);
1407:Drivers/STM32L4xx_HAL_Driver/Inc/stm32l4xx_ll_dac.h ****   * @rmtoll DHR12R1  DACC1DHR       LL_DAC_DMA_GetRegAddr\n
1408:Drivers/STM32L4xx_HAL_Driver/Inc/stm32l4xx_ll_dac.h ****   *         DHR12L1  DACC1DHR       LL_DAC_DMA_GetRegAddr\n
1409:Drivers/STM32L4xx_HAL_Driver/Inc/stm32l4xx_ll_dac.h ****   *         DHR8R1   DACC1DHR       LL_DAC_DMA_GetRegAddr\n
1410:Drivers/STM32L4xx_HAL_Driver/Inc/stm32l4xx_ll_dac.h ****   *         DHR12R2  DACC2DHR       LL_DAC_DMA_GetRegAddr\n
1411:Drivers/STM32L4xx_HAL_Driver/Inc/stm32l4xx_ll_dac.h ****   *         DHR12L2  DACC2DHR       LL_DAC_DMA_GetRegAddr\n
1412:Drivers/STM32L4xx_HAL_Driver/Inc/stm32l4xx_ll_dac.h ****   *         DHR8R2   DACC2DHR       LL_DAC_DMA_GetRegAddr
1413:Drivers/STM32L4xx_HAL_Driver/Inc/stm32l4xx_ll_dac.h ****   * @param  DACx DAC instance
1414:Drivers/STM32L4xx_HAL_Driver/Inc/stm32l4xx_ll_dac.h ****   * @param  DAC_Channel This parameter can be one of the following values:
1415:Drivers/STM32L4xx_HAL_Driver/Inc/stm32l4xx_ll_dac.h ****   *         @arg @ref LL_DAC_CHANNEL_1
1416:Drivers/STM32L4xx_HAL_Driver/Inc/stm32l4xx_ll_dac.h ****   *         @arg @ref LL_DAC_CHANNEL_2 (1)
1417:Drivers/STM32L4xx_HAL_Driver/Inc/stm32l4xx_ll_dac.h ****   *
1418:Drivers/STM32L4xx_HAL_Driver/Inc/stm32l4xx_ll_dac.h ****   *         (1) On this STM32 series, parameter not available on all devices.
1419:Drivers/STM32L4xx_HAL_Driver/Inc/stm32l4xx_ll_dac.h ****   *             Refer to device datasheet for channels availability.
1420:Drivers/STM32L4xx_HAL_Driver/Inc/stm32l4xx_ll_dac.h ****   * @param  Register This parameter can be one of the following values:
1421:Drivers/STM32L4xx_HAL_Driver/Inc/stm32l4xx_ll_dac.h ****   *         @arg @ref LL_DAC_DMA_REG_DATA_12BITS_RIGHT_ALIGNED
1422:Drivers/STM32L4xx_HAL_Driver/Inc/stm32l4xx_ll_dac.h ****   *         @arg @ref LL_DAC_DMA_REG_DATA_12BITS_LEFT_ALIGNED
1423:Drivers/STM32L4xx_HAL_Driver/Inc/stm32l4xx_ll_dac.h ****   *         @arg @ref LL_DAC_DMA_REG_DATA_8BITS_RIGHT_ALIGNED
1424:Drivers/STM32L4xx_HAL_Driver/Inc/stm32l4xx_ll_dac.h ****   * @retval DAC register address
1425:Drivers/STM32L4xx_HAL_Driver/Inc/stm32l4xx_ll_dac.h ****   */
1426:Drivers/STM32L4xx_HAL_Driver/Inc/stm32l4xx_ll_dac.h **** __STATIC_INLINE uint32_t LL_DAC_DMA_GetRegAddr(DAC_TypeDef *DACx, uint32_t DAC_Channel, uint32_t Re
ARM GAS  C:\Users\ep_ygh\AppData\Local\Temp\ccVL2nhg.s 			page 28


1427:Drivers/STM32L4xx_HAL_Driver/Inc/stm32l4xx_ll_dac.h **** {
1428:Drivers/STM32L4xx_HAL_Driver/Inc/stm32l4xx_ll_dac.h ****   /* Retrieve address of register DHR12Rx, DHR12Lx or DHR8Rx depending on     */
1429:Drivers/STM32L4xx_HAL_Driver/Inc/stm32l4xx_ll_dac.h ****   /* DAC channel selected.                                                    */
1430:Drivers/STM32L4xx_HAL_Driver/Inc/stm32l4xx_ll_dac.h ****   return ((uint32_t)(__DAC_PTR_REG_OFFSET((DACx)->DHR12R1,
1431:Drivers/STM32L4xx_HAL_Driver/Inc/stm32l4xx_ll_dac.h ****                                           ((DAC_Channel >> (Register & 0x1FUL)) & DAC_REG_DHR_REGOF
1432:Drivers/STM32L4xx_HAL_Driver/Inc/stm32l4xx_ll_dac.h **** }
1433:Drivers/STM32L4xx_HAL_Driver/Inc/stm32l4xx_ll_dac.h **** /**
1434:Drivers/STM32L4xx_HAL_Driver/Inc/stm32l4xx_ll_dac.h ****   * @}
1435:Drivers/STM32L4xx_HAL_Driver/Inc/stm32l4xx_ll_dac.h ****   */
1436:Drivers/STM32L4xx_HAL_Driver/Inc/stm32l4xx_ll_dac.h **** 
1437:Drivers/STM32L4xx_HAL_Driver/Inc/stm32l4xx_ll_dac.h **** /** @defgroup DAC_LL_EF_Operation Operation on DAC channels
1438:Drivers/STM32L4xx_HAL_Driver/Inc/stm32l4xx_ll_dac.h ****   * @{
1439:Drivers/STM32L4xx_HAL_Driver/Inc/stm32l4xx_ll_dac.h ****   */
1440:Drivers/STM32L4xx_HAL_Driver/Inc/stm32l4xx_ll_dac.h **** 
1441:Drivers/STM32L4xx_HAL_Driver/Inc/stm32l4xx_ll_dac.h **** /**
1442:Drivers/STM32L4xx_HAL_Driver/Inc/stm32l4xx_ll_dac.h ****   * @brief  Enable DAC selected channel.
1443:Drivers/STM32L4xx_HAL_Driver/Inc/stm32l4xx_ll_dac.h ****   * @rmtoll CR       EN1            LL_DAC_Enable\n
1444:Drivers/STM32L4xx_HAL_Driver/Inc/stm32l4xx_ll_dac.h ****   *         CR       EN2            LL_DAC_Enable
1445:Drivers/STM32L4xx_HAL_Driver/Inc/stm32l4xx_ll_dac.h ****   * @note   After enable from off state, DAC channel requires a delay
1446:Drivers/STM32L4xx_HAL_Driver/Inc/stm32l4xx_ll_dac.h ****   *         for output voltage to reach accuracy +/- 1 LSB.
1447:Drivers/STM32L4xx_HAL_Driver/Inc/stm32l4xx_ll_dac.h ****   *         Refer to device datasheet, parameter "tWAKEUP".
1448:Drivers/STM32L4xx_HAL_Driver/Inc/stm32l4xx_ll_dac.h ****   * @param  DACx DAC instance
1449:Drivers/STM32L4xx_HAL_Driver/Inc/stm32l4xx_ll_dac.h ****   * @param  DAC_Channel This parameter can be one of the following values:
1450:Drivers/STM32L4xx_HAL_Driver/Inc/stm32l4xx_ll_dac.h ****   *         @arg @ref LL_DAC_CHANNEL_1
1451:Drivers/STM32L4xx_HAL_Driver/Inc/stm32l4xx_ll_dac.h ****   *         @arg @ref LL_DAC_CHANNEL_2 (1)
1452:Drivers/STM32L4xx_HAL_Driver/Inc/stm32l4xx_ll_dac.h ****   *
1453:Drivers/STM32L4xx_HAL_Driver/Inc/stm32l4xx_ll_dac.h ****   *         (1) On this STM32 series, parameter not available on all devices.
1454:Drivers/STM32L4xx_HAL_Driver/Inc/stm32l4xx_ll_dac.h ****   *             Refer to device datasheet for channels availability.
1455:Drivers/STM32L4xx_HAL_Driver/Inc/stm32l4xx_ll_dac.h ****   * @retval None
1456:Drivers/STM32L4xx_HAL_Driver/Inc/stm32l4xx_ll_dac.h ****   */
1457:Drivers/STM32L4xx_HAL_Driver/Inc/stm32l4xx_ll_dac.h **** __STATIC_INLINE void LL_DAC_Enable(DAC_TypeDef *DACx, uint32_t DAC_Channel)
1458:Drivers/STM32L4xx_HAL_Driver/Inc/stm32l4xx_ll_dac.h **** {
1459:Drivers/STM32L4xx_HAL_Driver/Inc/stm32l4xx_ll_dac.h ****   SET_BIT(DACx->CR,
  47              		.loc 2 1459 3 view .LVU3
  48 0002 0A4C     		ldr	r4, .L4
  49              	.LBE15:
  50              	.LBE14:
  51              		.loc 1 67 11 view .LVU4
  52 0004 0146     		mov	r1, r0
  56:Src/dac_ui.c  **** #ifdef NULL_PTR_CHECK_DAC_UI
  53              		.loc 1 56 1 view .LVU5
  54 0006 0546     		mov	r5, r0
  55              		.loc 1 67 11 view .LVU6
  56 0008 40F2D170 		movw	r0, #2001
  57              	.LVL1:
  58              		.loc 1 67 11 view .LVU7
  59 000c FFF7FEFF 		bl	RI_GetPtrReg
  60              	.LVL2:
  68:Src/dac_ui.c  ****     LL_DAC_Enable(DAC1, LL_DAC_CHANNEL_1);
  61              		.loc 1 68 5 is_stmt 1 view .LVU8
  62              	.LBB17:
  63              	.LBI14:
1457:Drivers/STM32L4xx_HAL_Driver/Inc/stm32l4xx_ll_dac.h **** {
  64              		.loc 2 1457 22 view .LVU9
  65              	.LBB16:
  66              		.loc 2 1459 3 view .LVU10
  67 0010 2368     		ldr	r3, [r4]
ARM GAS  C:\Users\ep_ygh\AppData\Local\Temp\ccVL2nhg.s 			page 29


  68 0012 43F00103 		orr	r3, r3, #1
  69 0016 2360     		str	r3, [r4]
  70              	.LVL3:
  71              		.loc 2 1459 3 is_stmt 0 view .LVU11
  72              	.LBE16:
  73              	.LBE17:
  69:Src/dac_ui.c  **** #ifdef NULL_PTR_CHECK_DAC_UI
  70:Src/dac_ui.c  ****   }
  71:Src/dac_ui.c  ****   #endif
  72:Src/dac_ui.c  **** #ifdef NULL_PTR_CHECK_DAC_UI
  73:Src/dac_ui.c  ****   if (MC_NULL == pHandle)
  74:Src/dac_ui.c  ****   {
  75:Src/dac_ui.c  ****     /* Nothing to do */
  76:Src/dac_ui.c  ****   }
  77:Src/dac_ui.c  ****   else
  78:Src/dac_ui.c  ****   {
  79:Src/dac_ui.c  **** #endif
  80:Src/dac_ui.c  ****     /* Enable DAC Channel2 */
  81:Src/dac_ui.c  ****     /* By default send Ib motor 1 */
  82:Src/dac_ui.c  ****     (void)RI_GetPtrReg((MC_REG_I_B + 0x1U), (void *)&pHandle->ptrDataCh[DAC_CH2]); //cstat !MISRAC2
  74              		.loc 1 82 5 is_stmt 1 view .LVU12
  75              		.loc 1 82 11 is_stmt 0 view .LVU13
  76 0018 291D     		adds	r1, r5, #4
  77 001a 40F61100 		movw	r0, #2065
  78 001e FFF7FEFF 		bl	RI_GetPtrReg
  79              	.LVL4:
  83:Src/dac_ui.c  ****     LL_DAC_Enable(DAC1, LL_DAC_CHANNEL_2);
  80              		.loc 1 83 5 is_stmt 1 view .LVU14
  81              	.LBB18:
  82              	.LBI18:
1457:Drivers/STM32L4xx_HAL_Driver/Inc/stm32l4xx_ll_dac.h **** {
  83              		.loc 2 1457 22 view .LVU15
  84              	.LBB19:
  85              		.loc 2 1459 3 view .LVU16
  86 0022 2368     		ldr	r3, [r4]
  87 0024 43F48033 		orr	r3, r3, #65536
  88 0028 2360     		str	r3, [r4]
  89              	.LVL5:
  90              		.loc 2 1459 3 is_stmt 0 view .LVU17
  91              	.LBE19:
  92              	.LBE18:
  84:Src/dac_ui.c  **** #ifdef NULL_PTR_CHECK_DAC_UI
  85:Src/dac_ui.c  ****   }
  86:Src/dac_ui.c  **** #endif
  87:Src/dac_ui.c  **** 
  88:Src/dac_ui.c  **** }
  93              		.loc 1 88 1 view .LVU18
  94 002a 38BD     		pop	{r3, r4, r5, pc}
  95              	.LVL6:
  96              	.L5:
  97              		.loc 1 88 1 view .LVU19
  98              		.align	2
  99              	.L4:
 100 002c 00740040 		.word	1073771520
 101              		.cfi_endproc
 102              	.LFE1088:
 104              		.section	.text.DAC_Exec,"ax",%progbits
ARM GAS  C:\Users\ep_ygh\AppData\Local\Temp\ccVL2nhg.s 			page 30


 105              		.align	1
 106              		.p2align 2,,3
 107              		.weak	DAC_Exec
 108              		.syntax unified
 109              		.thumb
 110              		.thumb_func
 112              	DAC_Exec:
 113              	.LVL7:
 114              	.LFB1089:
  89:Src/dac_ui.c  **** 
  90:Src/dac_ui.c  **** /**
  91:Src/dac_ui.c  ****   * @brief  This method is used to update the DAC outputs. The selected
  92:Src/dac_ui.c  ****   *         variables will be provided in the related output channels.
  93:Src/dac_ui.c  ****   * @param  pHandle pointer on related component instance.
  94:Src/dac_ui.c  ****   */
  95:Src/dac_ui.c  **** 
  96:Src/dac_ui.c  **** __weak void DAC_Exec(DAC_Handle_t *pHandle)
  97:Src/dac_ui.c  **** {
 115              		.loc 1 97 1 is_stmt 1 view -0
 116              		.cfi_startproc
 117              		@ args = 0, pretend = 0, frame = 0
 118              		@ frame_needed = 0, uses_anonymous_args = 0
 119              		@ link register save eliminated.
  98:Src/dac_ui.c  **** #ifdef NULL_PTR_CHECK_DAC_UI
  99:Src/dac_ui.c  ****   if (MC_NULL == pHandle)
 100:Src/dac_ui.c  ****   {
 101:Src/dac_ui.c  ****     /* Nothing to do */
 102:Src/dac_ui.c  ****   }
 103:Src/dac_ui.c  ****   else
 104:Src/dac_ui.c  ****   {
 105:Src/dac_ui.c  **** #endif
 106:Src/dac_ui.c  ****     uint32_t temp1;
 120              		.loc 1 106 5 view .LVU21
 107:Src/dac_ui.c  ****     temp1 = DACOFF + (uint32_t)*((uint16_t*) pHandle->ptrDataCh[DAC_CH1]); //cstat !MISRAC2012-Rule
 121              		.loc 1 107 5 view .LVU22
 108:Src/dac_ui.c  ****     LL_DAC_ConvertData12LeftAligned(DAC1, LL_DAC_CHANNEL_1, temp1);
 122              		.loc 1 108 5 view .LVU23
 123              	.LBB20:
 124              	.LBI20:
1460:Drivers/STM32L4xx_HAL_Driver/Inc/stm32l4xx_ll_dac.h ****           DAC_CR_EN1 << (DAC_Channel & DAC_CR_CHX_BITOFFSET_MASK));
1461:Drivers/STM32L4xx_HAL_Driver/Inc/stm32l4xx_ll_dac.h **** }
1462:Drivers/STM32L4xx_HAL_Driver/Inc/stm32l4xx_ll_dac.h **** 
1463:Drivers/STM32L4xx_HAL_Driver/Inc/stm32l4xx_ll_dac.h **** /**
1464:Drivers/STM32L4xx_HAL_Driver/Inc/stm32l4xx_ll_dac.h ****   * @brief  Disable DAC selected channel.
1465:Drivers/STM32L4xx_HAL_Driver/Inc/stm32l4xx_ll_dac.h ****   * @rmtoll CR       EN1            LL_DAC_Disable\n
1466:Drivers/STM32L4xx_HAL_Driver/Inc/stm32l4xx_ll_dac.h ****   *         CR       EN2            LL_DAC_Disable
1467:Drivers/STM32L4xx_HAL_Driver/Inc/stm32l4xx_ll_dac.h ****   * @param  DACx DAC instance
1468:Drivers/STM32L4xx_HAL_Driver/Inc/stm32l4xx_ll_dac.h ****   * @param  DAC_Channel This parameter can be one of the following values:
1469:Drivers/STM32L4xx_HAL_Driver/Inc/stm32l4xx_ll_dac.h ****   *         @arg @ref LL_DAC_CHANNEL_1
1470:Drivers/STM32L4xx_HAL_Driver/Inc/stm32l4xx_ll_dac.h ****   *         @arg @ref LL_DAC_CHANNEL_2 (1)
1471:Drivers/STM32L4xx_HAL_Driver/Inc/stm32l4xx_ll_dac.h ****   *
1472:Drivers/STM32L4xx_HAL_Driver/Inc/stm32l4xx_ll_dac.h ****   *         (1) On this STM32 series, parameter not available on all devices.
1473:Drivers/STM32L4xx_HAL_Driver/Inc/stm32l4xx_ll_dac.h ****   *             Refer to device datasheet for channels availability.
1474:Drivers/STM32L4xx_HAL_Driver/Inc/stm32l4xx_ll_dac.h ****   * @retval None
1475:Drivers/STM32L4xx_HAL_Driver/Inc/stm32l4xx_ll_dac.h ****   */
1476:Drivers/STM32L4xx_HAL_Driver/Inc/stm32l4xx_ll_dac.h **** __STATIC_INLINE void LL_DAC_Disable(DAC_TypeDef *DACx, uint32_t DAC_Channel)
1477:Drivers/STM32L4xx_HAL_Driver/Inc/stm32l4xx_ll_dac.h **** {
ARM GAS  C:\Users\ep_ygh\AppData\Local\Temp\ccVL2nhg.s 			page 31


1478:Drivers/STM32L4xx_HAL_Driver/Inc/stm32l4xx_ll_dac.h ****   CLEAR_BIT(DACx->CR,
1479:Drivers/STM32L4xx_HAL_Driver/Inc/stm32l4xx_ll_dac.h ****             DAC_CR_EN1 << (DAC_Channel & DAC_CR_CHX_BITOFFSET_MASK));
1480:Drivers/STM32L4xx_HAL_Driver/Inc/stm32l4xx_ll_dac.h **** }
1481:Drivers/STM32L4xx_HAL_Driver/Inc/stm32l4xx_ll_dac.h **** 
1482:Drivers/STM32L4xx_HAL_Driver/Inc/stm32l4xx_ll_dac.h **** /**
1483:Drivers/STM32L4xx_HAL_Driver/Inc/stm32l4xx_ll_dac.h ****   * @brief  Get DAC enable state of the selected channel.
1484:Drivers/STM32L4xx_HAL_Driver/Inc/stm32l4xx_ll_dac.h ****   *         (0: DAC channel is disabled, 1: DAC channel is enabled)
1485:Drivers/STM32L4xx_HAL_Driver/Inc/stm32l4xx_ll_dac.h ****   * @rmtoll CR       EN1            LL_DAC_IsEnabled\n
1486:Drivers/STM32L4xx_HAL_Driver/Inc/stm32l4xx_ll_dac.h ****   *         CR       EN2            LL_DAC_IsEnabled
1487:Drivers/STM32L4xx_HAL_Driver/Inc/stm32l4xx_ll_dac.h ****   * @param  DACx DAC instance
1488:Drivers/STM32L4xx_HAL_Driver/Inc/stm32l4xx_ll_dac.h ****   * @param  DAC_Channel This parameter can be one of the following values:
1489:Drivers/STM32L4xx_HAL_Driver/Inc/stm32l4xx_ll_dac.h ****   *         @arg @ref LL_DAC_CHANNEL_1
1490:Drivers/STM32L4xx_HAL_Driver/Inc/stm32l4xx_ll_dac.h ****   *         @arg @ref LL_DAC_CHANNEL_2 (1)
1491:Drivers/STM32L4xx_HAL_Driver/Inc/stm32l4xx_ll_dac.h ****   *
1492:Drivers/STM32L4xx_HAL_Driver/Inc/stm32l4xx_ll_dac.h ****   *         (1) On this STM32 series, parameter not available on all devices.
1493:Drivers/STM32L4xx_HAL_Driver/Inc/stm32l4xx_ll_dac.h ****   *             Refer to device datasheet for channels availability.
1494:Drivers/STM32L4xx_HAL_Driver/Inc/stm32l4xx_ll_dac.h ****   * @retval State of bit (1 or 0).
1495:Drivers/STM32L4xx_HAL_Driver/Inc/stm32l4xx_ll_dac.h ****   */
1496:Drivers/STM32L4xx_HAL_Driver/Inc/stm32l4xx_ll_dac.h **** __STATIC_INLINE uint32_t LL_DAC_IsEnabled(DAC_TypeDef *DACx, uint32_t DAC_Channel)
1497:Drivers/STM32L4xx_HAL_Driver/Inc/stm32l4xx_ll_dac.h **** {
1498:Drivers/STM32L4xx_HAL_Driver/Inc/stm32l4xx_ll_dac.h ****   return ((READ_BIT(DACx->CR,
1499:Drivers/STM32L4xx_HAL_Driver/Inc/stm32l4xx_ll_dac.h ****                    DAC_CR_EN1 << (DAC_Channel & DAC_CR_CHX_BITOFFSET_MASK))
1500:Drivers/STM32L4xx_HAL_Driver/Inc/stm32l4xx_ll_dac.h ****            == (DAC_CR_EN1 << (DAC_Channel & DAC_CR_CHX_BITOFFSET_MASK))) ? 1UL : 0UL);
1501:Drivers/STM32L4xx_HAL_Driver/Inc/stm32l4xx_ll_dac.h **** }
1502:Drivers/STM32L4xx_HAL_Driver/Inc/stm32l4xx_ll_dac.h **** 
1503:Drivers/STM32L4xx_HAL_Driver/Inc/stm32l4xx_ll_dac.h **** /**
1504:Drivers/STM32L4xx_HAL_Driver/Inc/stm32l4xx_ll_dac.h ****   * @brief  Enable DAC trigger of the selected channel.
1505:Drivers/STM32L4xx_HAL_Driver/Inc/stm32l4xx_ll_dac.h ****   * @note   - If DAC trigger is disabled, DAC conversion is performed
1506:Drivers/STM32L4xx_HAL_Driver/Inc/stm32l4xx_ll_dac.h ****   *           automatically once the data holding register is updated,
1507:Drivers/STM32L4xx_HAL_Driver/Inc/stm32l4xx_ll_dac.h ****   *           using functions "LL_DAC_ConvertData{8; 12}{Right; Left} Aligned()":
1508:Drivers/STM32L4xx_HAL_Driver/Inc/stm32l4xx_ll_dac.h ****   *           @ref LL_DAC_ConvertData12RightAligned(), ...
1509:Drivers/STM32L4xx_HAL_Driver/Inc/stm32l4xx_ll_dac.h ****   *         - If DAC trigger is enabled, DAC conversion is performed
1510:Drivers/STM32L4xx_HAL_Driver/Inc/stm32l4xx_ll_dac.h ****   *           only when a hardware of software trigger event is occurring.
1511:Drivers/STM32L4xx_HAL_Driver/Inc/stm32l4xx_ll_dac.h ****   *           Select trigger source using
1512:Drivers/STM32L4xx_HAL_Driver/Inc/stm32l4xx_ll_dac.h ****   *           function @ref LL_DAC_SetTriggerSource().
1513:Drivers/STM32L4xx_HAL_Driver/Inc/stm32l4xx_ll_dac.h ****   * @rmtoll CR       TEN1           LL_DAC_EnableTrigger\n
1514:Drivers/STM32L4xx_HAL_Driver/Inc/stm32l4xx_ll_dac.h ****   *         CR       TEN2           LL_DAC_EnableTrigger
1515:Drivers/STM32L4xx_HAL_Driver/Inc/stm32l4xx_ll_dac.h ****   * @param  DACx DAC instance
1516:Drivers/STM32L4xx_HAL_Driver/Inc/stm32l4xx_ll_dac.h ****   * @param  DAC_Channel This parameter can be one of the following values:
1517:Drivers/STM32L4xx_HAL_Driver/Inc/stm32l4xx_ll_dac.h ****   *         @arg @ref LL_DAC_CHANNEL_1
1518:Drivers/STM32L4xx_HAL_Driver/Inc/stm32l4xx_ll_dac.h ****   *         @arg @ref LL_DAC_CHANNEL_2 (1)
1519:Drivers/STM32L4xx_HAL_Driver/Inc/stm32l4xx_ll_dac.h ****   *
1520:Drivers/STM32L4xx_HAL_Driver/Inc/stm32l4xx_ll_dac.h ****   *         (1) On this STM32 series, parameter not available on all devices.
1521:Drivers/STM32L4xx_HAL_Driver/Inc/stm32l4xx_ll_dac.h ****   *             Refer to device datasheet for channels availability.
1522:Drivers/STM32L4xx_HAL_Driver/Inc/stm32l4xx_ll_dac.h ****   * @retval None
1523:Drivers/STM32L4xx_HAL_Driver/Inc/stm32l4xx_ll_dac.h ****   */
1524:Drivers/STM32L4xx_HAL_Driver/Inc/stm32l4xx_ll_dac.h **** __STATIC_INLINE void LL_DAC_EnableTrigger(DAC_TypeDef *DACx, uint32_t DAC_Channel)
1525:Drivers/STM32L4xx_HAL_Driver/Inc/stm32l4xx_ll_dac.h **** {
1526:Drivers/STM32L4xx_HAL_Driver/Inc/stm32l4xx_ll_dac.h ****   SET_BIT(DACx->CR,
1527:Drivers/STM32L4xx_HAL_Driver/Inc/stm32l4xx_ll_dac.h ****           DAC_CR_TEN1 << (DAC_Channel & DAC_CR_CHX_BITOFFSET_MASK));
1528:Drivers/STM32L4xx_HAL_Driver/Inc/stm32l4xx_ll_dac.h **** }
1529:Drivers/STM32L4xx_HAL_Driver/Inc/stm32l4xx_ll_dac.h **** 
1530:Drivers/STM32L4xx_HAL_Driver/Inc/stm32l4xx_ll_dac.h **** /**
1531:Drivers/STM32L4xx_HAL_Driver/Inc/stm32l4xx_ll_dac.h ****   * @brief  Disable DAC trigger of the selected channel.
1532:Drivers/STM32L4xx_HAL_Driver/Inc/stm32l4xx_ll_dac.h ****   * @rmtoll CR       TEN1           LL_DAC_DisableTrigger\n
1533:Drivers/STM32L4xx_HAL_Driver/Inc/stm32l4xx_ll_dac.h ****   *         CR       TEN2           LL_DAC_DisableTrigger
1534:Drivers/STM32L4xx_HAL_Driver/Inc/stm32l4xx_ll_dac.h ****   * @param  DACx DAC instance
ARM GAS  C:\Users\ep_ygh\AppData\Local\Temp\ccVL2nhg.s 			page 32


1535:Drivers/STM32L4xx_HAL_Driver/Inc/stm32l4xx_ll_dac.h ****   * @param  DAC_Channel This parameter can be one of the following values:
1536:Drivers/STM32L4xx_HAL_Driver/Inc/stm32l4xx_ll_dac.h ****   *         @arg @ref LL_DAC_CHANNEL_1
1537:Drivers/STM32L4xx_HAL_Driver/Inc/stm32l4xx_ll_dac.h ****   *         @arg @ref LL_DAC_CHANNEL_2 (1)
1538:Drivers/STM32L4xx_HAL_Driver/Inc/stm32l4xx_ll_dac.h ****   *
1539:Drivers/STM32L4xx_HAL_Driver/Inc/stm32l4xx_ll_dac.h ****   *         (1) On this STM32 series, parameter not available on all devices.
1540:Drivers/STM32L4xx_HAL_Driver/Inc/stm32l4xx_ll_dac.h ****   *             Refer to device datasheet for channels availability.
1541:Drivers/STM32L4xx_HAL_Driver/Inc/stm32l4xx_ll_dac.h ****   * @retval None
1542:Drivers/STM32L4xx_HAL_Driver/Inc/stm32l4xx_ll_dac.h ****   */
1543:Drivers/STM32L4xx_HAL_Driver/Inc/stm32l4xx_ll_dac.h **** __STATIC_INLINE void LL_DAC_DisableTrigger(DAC_TypeDef *DACx, uint32_t DAC_Channel)
1544:Drivers/STM32L4xx_HAL_Driver/Inc/stm32l4xx_ll_dac.h **** {
1545:Drivers/STM32L4xx_HAL_Driver/Inc/stm32l4xx_ll_dac.h ****   CLEAR_BIT(DACx->CR,
1546:Drivers/STM32L4xx_HAL_Driver/Inc/stm32l4xx_ll_dac.h ****             DAC_CR_TEN1 << (DAC_Channel & DAC_CR_CHX_BITOFFSET_MASK));
1547:Drivers/STM32L4xx_HAL_Driver/Inc/stm32l4xx_ll_dac.h **** }
1548:Drivers/STM32L4xx_HAL_Driver/Inc/stm32l4xx_ll_dac.h **** 
1549:Drivers/STM32L4xx_HAL_Driver/Inc/stm32l4xx_ll_dac.h **** /**
1550:Drivers/STM32L4xx_HAL_Driver/Inc/stm32l4xx_ll_dac.h ****   * @brief  Get DAC trigger state of the selected channel.
1551:Drivers/STM32L4xx_HAL_Driver/Inc/stm32l4xx_ll_dac.h ****   *         (0: DAC trigger is disabled, 1: DAC trigger is enabled)
1552:Drivers/STM32L4xx_HAL_Driver/Inc/stm32l4xx_ll_dac.h ****   * @rmtoll CR       TEN1           LL_DAC_IsTriggerEnabled\n
1553:Drivers/STM32L4xx_HAL_Driver/Inc/stm32l4xx_ll_dac.h ****   *         CR       TEN2           LL_DAC_IsTriggerEnabled
1554:Drivers/STM32L4xx_HAL_Driver/Inc/stm32l4xx_ll_dac.h ****   * @param  DACx DAC instance
1555:Drivers/STM32L4xx_HAL_Driver/Inc/stm32l4xx_ll_dac.h ****   * @param  DAC_Channel This parameter can be one of the following values:
1556:Drivers/STM32L4xx_HAL_Driver/Inc/stm32l4xx_ll_dac.h ****   *         @arg @ref LL_DAC_CHANNEL_1
1557:Drivers/STM32L4xx_HAL_Driver/Inc/stm32l4xx_ll_dac.h ****   *         @arg @ref LL_DAC_CHANNEL_2 (1)
1558:Drivers/STM32L4xx_HAL_Driver/Inc/stm32l4xx_ll_dac.h ****   *
1559:Drivers/STM32L4xx_HAL_Driver/Inc/stm32l4xx_ll_dac.h ****   *         (1) On this STM32 series, parameter not available on all devices.
1560:Drivers/STM32L4xx_HAL_Driver/Inc/stm32l4xx_ll_dac.h ****   *             Refer to device datasheet for channels availability.
1561:Drivers/STM32L4xx_HAL_Driver/Inc/stm32l4xx_ll_dac.h ****   * @retval State of bit (1 or 0).
1562:Drivers/STM32L4xx_HAL_Driver/Inc/stm32l4xx_ll_dac.h ****   */
1563:Drivers/STM32L4xx_HAL_Driver/Inc/stm32l4xx_ll_dac.h **** __STATIC_INLINE uint32_t LL_DAC_IsTriggerEnabled(DAC_TypeDef *DACx, uint32_t DAC_Channel)
1564:Drivers/STM32L4xx_HAL_Driver/Inc/stm32l4xx_ll_dac.h **** {
1565:Drivers/STM32L4xx_HAL_Driver/Inc/stm32l4xx_ll_dac.h ****   return ((READ_BIT(DACx->CR,
1566:Drivers/STM32L4xx_HAL_Driver/Inc/stm32l4xx_ll_dac.h ****                    DAC_CR_TEN1 << (DAC_Channel & DAC_CR_CHX_BITOFFSET_MASK))
1567:Drivers/STM32L4xx_HAL_Driver/Inc/stm32l4xx_ll_dac.h ****            == (DAC_CR_TEN1 << (DAC_Channel & DAC_CR_CHX_BITOFFSET_MASK))) ? 1UL : 0UL);
1568:Drivers/STM32L4xx_HAL_Driver/Inc/stm32l4xx_ll_dac.h **** }
1569:Drivers/STM32L4xx_HAL_Driver/Inc/stm32l4xx_ll_dac.h **** 
1570:Drivers/STM32L4xx_HAL_Driver/Inc/stm32l4xx_ll_dac.h **** /**
1571:Drivers/STM32L4xx_HAL_Driver/Inc/stm32l4xx_ll_dac.h ****   * @brief  Trig DAC conversion by software for the selected DAC channel.
1572:Drivers/STM32L4xx_HAL_Driver/Inc/stm32l4xx_ll_dac.h ****   * @note   Preliminarily, DAC trigger must be set to software trigger
1573:Drivers/STM32L4xx_HAL_Driver/Inc/stm32l4xx_ll_dac.h ****   *         using function
1574:Drivers/STM32L4xx_HAL_Driver/Inc/stm32l4xx_ll_dac.h ****   *           @ref LL_DAC_Init()
1575:Drivers/STM32L4xx_HAL_Driver/Inc/stm32l4xx_ll_dac.h ****   *           @ref LL_DAC_SetTriggerSource()
1576:Drivers/STM32L4xx_HAL_Driver/Inc/stm32l4xx_ll_dac.h ****   *         with parameter "LL_DAC_TRIGGER_SOFTWARE".
1577:Drivers/STM32L4xx_HAL_Driver/Inc/stm32l4xx_ll_dac.h ****   *         and DAC trigger must be enabled using
1578:Drivers/STM32L4xx_HAL_Driver/Inc/stm32l4xx_ll_dac.h ****   *         function @ref LL_DAC_EnableTrigger().
1579:Drivers/STM32L4xx_HAL_Driver/Inc/stm32l4xx_ll_dac.h ****   * @note   For devices featuring DAC with 2 channels: this function
1580:Drivers/STM32L4xx_HAL_Driver/Inc/stm32l4xx_ll_dac.h ****   *         can perform a SW start of both DAC channels simultaneously.
1581:Drivers/STM32L4xx_HAL_Driver/Inc/stm32l4xx_ll_dac.h ****   *         Two channels can be selected as parameter.
1582:Drivers/STM32L4xx_HAL_Driver/Inc/stm32l4xx_ll_dac.h ****   *         Example: (LL_DAC_CHANNEL_1 | LL_DAC_CHANNEL_2)
1583:Drivers/STM32L4xx_HAL_Driver/Inc/stm32l4xx_ll_dac.h ****   * @rmtoll SWTRIGR  SWTRIG1        LL_DAC_TrigSWConversion\n
1584:Drivers/STM32L4xx_HAL_Driver/Inc/stm32l4xx_ll_dac.h ****   *         SWTRIGR  SWTRIG2        LL_DAC_TrigSWConversion
1585:Drivers/STM32L4xx_HAL_Driver/Inc/stm32l4xx_ll_dac.h ****   * @param  DACx DAC instance
1586:Drivers/STM32L4xx_HAL_Driver/Inc/stm32l4xx_ll_dac.h ****   * @param  DAC_Channel  This parameter can a combination of the following values:
1587:Drivers/STM32L4xx_HAL_Driver/Inc/stm32l4xx_ll_dac.h ****   *         @arg @ref LL_DAC_CHANNEL_1
1588:Drivers/STM32L4xx_HAL_Driver/Inc/stm32l4xx_ll_dac.h ****   *         @arg @ref LL_DAC_CHANNEL_2 (1)
1589:Drivers/STM32L4xx_HAL_Driver/Inc/stm32l4xx_ll_dac.h ****   *
1590:Drivers/STM32L4xx_HAL_Driver/Inc/stm32l4xx_ll_dac.h ****   *         (1) On this STM32 series, parameter not available on all devices.
1591:Drivers/STM32L4xx_HAL_Driver/Inc/stm32l4xx_ll_dac.h ****   *             Refer to device datasheet for channels availability.
ARM GAS  C:\Users\ep_ygh\AppData\Local\Temp\ccVL2nhg.s 			page 33


1592:Drivers/STM32L4xx_HAL_Driver/Inc/stm32l4xx_ll_dac.h ****   * @retval None
1593:Drivers/STM32L4xx_HAL_Driver/Inc/stm32l4xx_ll_dac.h ****   */
1594:Drivers/STM32L4xx_HAL_Driver/Inc/stm32l4xx_ll_dac.h **** __STATIC_INLINE void LL_DAC_TrigSWConversion(DAC_TypeDef *DACx, uint32_t DAC_Channel)
1595:Drivers/STM32L4xx_HAL_Driver/Inc/stm32l4xx_ll_dac.h **** {
1596:Drivers/STM32L4xx_HAL_Driver/Inc/stm32l4xx_ll_dac.h ****   SET_BIT(DACx->SWTRIGR,
1597:Drivers/STM32L4xx_HAL_Driver/Inc/stm32l4xx_ll_dac.h ****           (DAC_Channel & DAC_SWTR_CHX_MASK));
1598:Drivers/STM32L4xx_HAL_Driver/Inc/stm32l4xx_ll_dac.h **** }
1599:Drivers/STM32L4xx_HAL_Driver/Inc/stm32l4xx_ll_dac.h **** 
1600:Drivers/STM32L4xx_HAL_Driver/Inc/stm32l4xx_ll_dac.h **** /**
1601:Drivers/STM32L4xx_HAL_Driver/Inc/stm32l4xx_ll_dac.h ****   * @brief  Set the data to be loaded in the data holding register
1602:Drivers/STM32L4xx_HAL_Driver/Inc/stm32l4xx_ll_dac.h ****   *         in format 12 bits left alignment (LSB aligned on bit 0),
1603:Drivers/STM32L4xx_HAL_Driver/Inc/stm32l4xx_ll_dac.h ****   *         for the selected DAC channel.
1604:Drivers/STM32L4xx_HAL_Driver/Inc/stm32l4xx_ll_dac.h ****   * @rmtoll DHR12R1  DACC1DHR       LL_DAC_ConvertData12RightAligned\n
1605:Drivers/STM32L4xx_HAL_Driver/Inc/stm32l4xx_ll_dac.h ****   *         DHR12R2  DACC2DHR       LL_DAC_ConvertData12RightAligned
1606:Drivers/STM32L4xx_HAL_Driver/Inc/stm32l4xx_ll_dac.h ****   * @param  DACx DAC instance
1607:Drivers/STM32L4xx_HAL_Driver/Inc/stm32l4xx_ll_dac.h ****   * @param  DAC_Channel This parameter can be one of the following values:
1608:Drivers/STM32L4xx_HAL_Driver/Inc/stm32l4xx_ll_dac.h ****   *         @arg @ref LL_DAC_CHANNEL_1
1609:Drivers/STM32L4xx_HAL_Driver/Inc/stm32l4xx_ll_dac.h ****   *         @arg @ref LL_DAC_CHANNEL_2 (1)
1610:Drivers/STM32L4xx_HAL_Driver/Inc/stm32l4xx_ll_dac.h ****   *
1611:Drivers/STM32L4xx_HAL_Driver/Inc/stm32l4xx_ll_dac.h ****   *         (1) On this STM32 series, parameter not available on all devices.
1612:Drivers/STM32L4xx_HAL_Driver/Inc/stm32l4xx_ll_dac.h ****   *             Refer to device datasheet for channels availability.
1613:Drivers/STM32L4xx_HAL_Driver/Inc/stm32l4xx_ll_dac.h ****   * @param  Data Value between Min_Data=0x000 and Max_Data=0xFFF
1614:Drivers/STM32L4xx_HAL_Driver/Inc/stm32l4xx_ll_dac.h ****   * @retval None
1615:Drivers/STM32L4xx_HAL_Driver/Inc/stm32l4xx_ll_dac.h ****   */
1616:Drivers/STM32L4xx_HAL_Driver/Inc/stm32l4xx_ll_dac.h **** __STATIC_INLINE void LL_DAC_ConvertData12RightAligned(DAC_TypeDef *DACx, uint32_t DAC_Channel, uint
1617:Drivers/STM32L4xx_HAL_Driver/Inc/stm32l4xx_ll_dac.h **** {
1618:Drivers/STM32L4xx_HAL_Driver/Inc/stm32l4xx_ll_dac.h ****   __IO uint32_t *preg = __DAC_PTR_REG_OFFSET(DACx->DHR12R1, (DAC_Channel >> DAC_REG_DHR12RX_REGOFFS
1619:Drivers/STM32L4xx_HAL_Driver/Inc/stm32l4xx_ll_dac.h **** 
1620:Drivers/STM32L4xx_HAL_Driver/Inc/stm32l4xx_ll_dac.h ****   MODIFY_REG(*preg,
1621:Drivers/STM32L4xx_HAL_Driver/Inc/stm32l4xx_ll_dac.h ****              DAC_DHR12R1_DACC1DHR,
1622:Drivers/STM32L4xx_HAL_Driver/Inc/stm32l4xx_ll_dac.h ****              Data);
1623:Drivers/STM32L4xx_HAL_Driver/Inc/stm32l4xx_ll_dac.h **** }
1624:Drivers/STM32L4xx_HAL_Driver/Inc/stm32l4xx_ll_dac.h **** 
1625:Drivers/STM32L4xx_HAL_Driver/Inc/stm32l4xx_ll_dac.h **** /**
1626:Drivers/STM32L4xx_HAL_Driver/Inc/stm32l4xx_ll_dac.h ****   * @brief  Set the data to be loaded in the data holding register
1627:Drivers/STM32L4xx_HAL_Driver/Inc/stm32l4xx_ll_dac.h ****   *         in format 12 bits left alignment (MSB aligned on bit 15),
1628:Drivers/STM32L4xx_HAL_Driver/Inc/stm32l4xx_ll_dac.h ****   *         for the selected DAC channel.
1629:Drivers/STM32L4xx_HAL_Driver/Inc/stm32l4xx_ll_dac.h ****   * @rmtoll DHR12L1  DACC1DHR       LL_DAC_ConvertData12LeftAligned\n
1630:Drivers/STM32L4xx_HAL_Driver/Inc/stm32l4xx_ll_dac.h ****   *         DHR12L2  DACC2DHR       LL_DAC_ConvertData12LeftAligned
1631:Drivers/STM32L4xx_HAL_Driver/Inc/stm32l4xx_ll_dac.h ****   * @param  DACx DAC instance
1632:Drivers/STM32L4xx_HAL_Driver/Inc/stm32l4xx_ll_dac.h ****   * @param  DAC_Channel This parameter can be one of the following values:
1633:Drivers/STM32L4xx_HAL_Driver/Inc/stm32l4xx_ll_dac.h ****   *         @arg @ref LL_DAC_CHANNEL_1
1634:Drivers/STM32L4xx_HAL_Driver/Inc/stm32l4xx_ll_dac.h ****   *         @arg @ref LL_DAC_CHANNEL_2 (1)
1635:Drivers/STM32L4xx_HAL_Driver/Inc/stm32l4xx_ll_dac.h ****   *
1636:Drivers/STM32L4xx_HAL_Driver/Inc/stm32l4xx_ll_dac.h ****   *         (1) On this STM32 series, parameter not available on all devices.
1637:Drivers/STM32L4xx_HAL_Driver/Inc/stm32l4xx_ll_dac.h ****   *             Refer to device datasheet for channels availability.
1638:Drivers/STM32L4xx_HAL_Driver/Inc/stm32l4xx_ll_dac.h ****   * @param  Data Value between Min_Data=0x000 and Max_Data=0xFFF
1639:Drivers/STM32L4xx_HAL_Driver/Inc/stm32l4xx_ll_dac.h ****   * @retval None
1640:Drivers/STM32L4xx_HAL_Driver/Inc/stm32l4xx_ll_dac.h ****   */
1641:Drivers/STM32L4xx_HAL_Driver/Inc/stm32l4xx_ll_dac.h **** __STATIC_INLINE void LL_DAC_ConvertData12LeftAligned(DAC_TypeDef *DACx, uint32_t DAC_Channel, uint3
 125              		.loc 2 1641 22 view .LVU24
 126              	.LBB21:
1642:Drivers/STM32L4xx_HAL_Driver/Inc/stm32l4xx_ll_dac.h **** {
1643:Drivers/STM32L4xx_HAL_Driver/Inc/stm32l4xx_ll_dac.h ****   __IO uint32_t *preg = __DAC_PTR_REG_OFFSET(DACx->DHR12R1, (DAC_Channel >> DAC_REG_DHR12LX_REGOFFS
 127              		.loc 2 1643 3 view .LVU25
 128              	.LBE21:
 129              	.LBE20:
ARM GAS  C:\Users\ep_ygh\AppData\Local\Temp\ccVL2nhg.s 			page 34


  97:Src/dac_ui.c  **** #ifdef NULL_PTR_CHECK_DAC_UI
 130              		.loc 1 97 1 is_stmt 0 view .LVU26
 131 0000 30B4     		push	{r4, r5}
 132              	.LCFI1:
 133              		.cfi_def_cfa_offset 8
 134              		.cfi_offset 4, -8
 135              		.cfi_offset 5, -4
 107:Src/dac_ui.c  ****     LL_DAC_ConvertData12LeftAligned(DAC1, LL_DAC_CHANNEL_1, temp1);
 136              		.loc 1 107 32 view .LVU27
 137 0002 0368     		ldr	r3, [r0]
 138              	.LBB27:
 139              	.LBB22:
 140              		.loc 2 1643 25 view .LVU28
 141 0004 0D4C     		ldr	r4, .L8
 142              	.LVL8:
1644:Drivers/STM32L4xx_HAL_Driver/Inc/stm32l4xx_ll_dac.h **** 
1645:Drivers/STM32L4xx_HAL_Driver/Inc/stm32l4xx_ll_dac.h ****   MODIFY_REG(*preg,
 143              		.loc 2 1645 3 is_stmt 1 view .LVU29
 144              	.LBE22:
 145              	.LBE27:
 107:Src/dac_ui.c  ****     LL_DAC_ConvertData12LeftAligned(DAC1, LL_DAC_CHANNEL_1, temp1);
 146              		.loc 1 107 22 is_stmt 0 view .LVU30
 147 0006 1A88     		ldrh	r2, [r3]
 148              	.LBB28:
 149              	.LBB23:
 150              		.loc 2 1645 3 view .LVU31
 151 0008 6168     		ldr	r1, [r4, #4]
 152 000a 0D4D     		ldr	r5, .L8+4
 153              	.LBE23:
 154              	.LBE28:
 109:Src/dac_ui.c  ****     LL_DAC_TrigSWConversion(DAC1, LL_DAC_CHANNEL_1);
 110:Src/dac_ui.c  ****     uint32_t temp2;
 111:Src/dac_ui.c  ****     temp2 = DACOFF + (uint32_t)*((uint16_t*) pHandle->ptrDataCh[DAC_CH2]); //cstat !MISRAC2012-Rule
 155              		.loc 1 111 32 view .LVU32
 156 000c 4368     		ldr	r3, [r0, #4]
 157              	.LBB29:
 158              	.LBB24:
 159              		.loc 2 1645 3 view .LVU33
 160 000e 2940     		ands	r1, r1, r5
 161              	.LBE24:
 162              	.LBE29:
 107:Src/dac_ui.c  ****     LL_DAC_ConvertData12LeftAligned(DAC1, LL_DAC_CHANNEL_1, temp1);
 163              		.loc 1 107 11 view .LVU34
 164 0010 02F50042 		add	r2, r2, #32768
 165              	.LBB30:
 166              	.LBB25:
 167              		.loc 2 1645 3 view .LVU35
 168 0014 0A43     		orrs	r2, r2, r1
 169              	.LBE25:
 170              	.LBE30:
 171              	.LBB31:
 172              	.LBB32:
1596:Drivers/STM32L4xx_HAL_Driver/Inc/stm32l4xx_ll_dac.h ****           (DAC_Channel & DAC_SWTR_CHX_MASK));
 173              		.loc 2 1596 3 view .LVU36
 174 0016 0B49     		ldr	r1, .L8+8
 175              	.LBE32:
 176              	.LBE31:
ARM GAS  C:\Users\ep_ygh\AppData\Local\Temp\ccVL2nhg.s 			page 35


 177              	.LBB35:
 178              	.LBB26:
 179              		.loc 2 1645 3 view .LVU37
 180 0018 6260     		str	r2, [r4, #4]
 181              	.LVL9:
 182              		.loc 2 1645 3 view .LVU38
 183              	.LBE26:
 184              	.LBE35:
 109:Src/dac_ui.c  ****     LL_DAC_TrigSWConversion(DAC1, LL_DAC_CHANNEL_1);
 185              		.loc 1 109 5 is_stmt 1 view .LVU39
 186              	.LBB36:
 187              	.LBI31:
1594:Drivers/STM32L4xx_HAL_Driver/Inc/stm32l4xx_ll_dac.h **** {
 188              		.loc 2 1594 22 view .LVU40
 189              	.LBB33:
1596:Drivers/STM32L4xx_HAL_Driver/Inc/stm32l4xx_ll_dac.h ****           (DAC_Channel & DAC_SWTR_CHX_MASK));
 190              		.loc 2 1596 3 view .LVU41
 191 001a 4868     		ldr	r0, [r1, #4]
 192              	.LVL10:
1596:Drivers/STM32L4xx_HAL_Driver/Inc/stm32l4xx_ll_dac.h ****           (DAC_Channel & DAC_SWTR_CHX_MASK));
 193              		.loc 2 1596 3 is_stmt 0 view .LVU42
 194              	.LBE33:
 195              	.LBE36:
 196              		.loc 1 111 22 view .LVU43
 197 001c 1B88     		ldrh	r3, [r3]
 198              	.LBB37:
 199              	.LBB34:
1596:Drivers/STM32L4xx_HAL_Driver/Inc/stm32l4xx_ll_dac.h ****           (DAC_Channel & DAC_SWTR_CHX_MASK));
 200              		.loc 2 1596 3 view .LVU44
 201 001e 40F00100 		orr	r0, r0, #1
 202 0022 4860     		str	r0, [r1, #4]
 203              	.LVL11:
1596:Drivers/STM32L4xx_HAL_Driver/Inc/stm32l4xx_ll_dac.h ****           (DAC_Channel & DAC_SWTR_CHX_MASK));
 204              		.loc 2 1596 3 view .LVU45
 205              	.LBE34:
 206              	.LBE37:
 110:Src/dac_ui.c  ****     temp2 = DACOFF + (uint32_t)*((uint16_t*) pHandle->ptrDataCh[DAC_CH2]); //cstat !MISRAC2012-Rule
 207              		.loc 1 110 5 is_stmt 1 view .LVU46
 208              		.loc 1 111 5 view .LVU47
 112:Src/dac_ui.c  ****     LL_DAC_ConvertData12LeftAligned(DAC1, LL_DAC_CHANNEL_2, temp2);
 209              		.loc 1 112 5 view .LVU48
 210              	.LBB38:
 211              	.LBI38:
1641:Drivers/STM32L4xx_HAL_Driver/Inc/stm32l4xx_ll_dac.h **** {
 212              		.loc 2 1641 22 view .LVU49
 213              	.LBB39:
1643:Drivers/STM32L4xx_HAL_Driver/Inc/stm32l4xx_ll_dac.h **** 
 214              		.loc 2 1643 3 view .LVU50
 215              		.loc 2 1645 3 view .LVU51
 216 0024 2269     		ldr	r2, [r4, #16]
 217              	.LBE39:
 218              	.LBE38:
 111:Src/dac_ui.c  ****     LL_DAC_ConvertData12LeftAligned(DAC1, LL_DAC_CHANNEL_2, temp2);
 219              		.loc 1 111 11 is_stmt 0 view .LVU52
 220 0026 03F50043 		add	r3, r3, #32768
 221              	.LBB41:
 222              	.LBB40:
ARM GAS  C:\Users\ep_ygh\AppData\Local\Temp\ccVL2nhg.s 			page 36


 223              		.loc 2 1645 3 view .LVU53
 224 002a 2A40     		ands	r2, r2, r5
 225 002c 1343     		orrs	r3, r3, r2
 226 002e 2361     		str	r3, [r4, #16]
 227              	.LVL12:
 228              		.loc 2 1645 3 view .LVU54
 229              	.LBE40:
 230              	.LBE41:
 113:Src/dac_ui.c  ****     LL_DAC_TrigSWConversion(DAC1, LL_DAC_CHANNEL_2);
 231              		.loc 1 113 5 is_stmt 1 view .LVU55
 232              	.LBB42:
 233              	.LBI42:
1594:Drivers/STM32L4xx_HAL_Driver/Inc/stm32l4xx_ll_dac.h **** {
 234              		.loc 2 1594 22 view .LVU56
 235              	.LBB43:
1596:Drivers/STM32L4xx_HAL_Driver/Inc/stm32l4xx_ll_dac.h ****           (DAC_Channel & DAC_SWTR_CHX_MASK));
 236              		.loc 2 1596 3 view .LVU57
 237 0030 4B68     		ldr	r3, [r1, #4]
 238 0032 43F00203 		orr	r3, r3, #2
 239              	.LBE43:
 240              	.LBE42:
 114:Src/dac_ui.c  **** #ifdef NULL_PTR_CHECK_DAC_UI
 115:Src/dac_ui.c  ****   }
 116:Src/dac_ui.c  **** #endif
 117:Src/dac_ui.c  **** }
 241              		.loc 1 117 1 is_stmt 0 view .LVU58
 242 0036 30BC     		pop	{r4, r5}
 243              	.LCFI2:
 244              		.cfi_restore 5
 245              		.cfi_restore 4
 246              		.cfi_def_cfa_offset 0
 247              	.LBB45:
 248              	.LBB44:
1596:Drivers/STM32L4xx_HAL_Driver/Inc/stm32l4xx_ll_dac.h ****           (DAC_Channel & DAC_SWTR_CHX_MASK));
 249              		.loc 2 1596 3 view .LVU59
 250 0038 4B60     		str	r3, [r1, #4]
 251              	.LVL13:
1596:Drivers/STM32L4xx_HAL_Driver/Inc/stm32l4xx_ll_dac.h ****           (DAC_Channel & DAC_SWTR_CHX_MASK));
 252              		.loc 2 1596 3 view .LVU60
 253              	.LBE44:
 254              	.LBE45:
 255              		.loc 1 117 1 view .LVU61
 256 003a 7047     		bx	lr
 257              	.L9:
 258              		.align	2
 259              	.L8:
 260 003c 08740040 		.word	1073771528
 261 0040 0F00FFFF 		.word	-65521
 262 0044 00740040 		.word	1073771520
 263              		.cfi_endproc
 264              	.LFE1089:
 266              		.section	.text.DAC_SetChannelConfig,"ax",%progbits
 267              		.align	1
 268              		.p2align 2,,3
 269              		.weak	DAC_SetChannelConfig
 270              		.syntax unified
 271              		.thumb
ARM GAS  C:\Users\ep_ygh\AppData\Local\Temp\ccVL2nhg.s 			page 37


 272              		.thumb_func
 274              	DAC_SetChannelConfig:
 275              	.LVL14:
 276              	.LFB1090:
 118:Src/dac_ui.c  **** 
 119:Src/dac_ui.c  **** /**
 120:Src/dac_ui.c  ****   * @brief  Set up the DAC outputs. The selected
 121:Src/dac_ui.c  ****   *         variables will be provided in the related output channels after next
 122:Src/dac_ui.c  ****   *         DACExec.
 123:Src/dac_ui.c  ****   * @param  user interface handle.
 124:Src/dac_ui.c  ****   * @param  bChannel the DAC channel to be programmed. It must be one of the
 125:Src/dac_ui.c  ****   *         exported channels Ex. DAC_CH1.
 126:Src/dac_ui.c  ****   * @param  regID the variables to be provided in out through the selected
 127:Src/dac_ui.c  ****   *         channel. It must be one of the exported UI register Ex.
 128:Src/dac_ui.c  ****   *         MC_PROTOCOL_REG_I_A.
 129:Src/dac_ui.c  ****   */
 130:Src/dac_ui.c  **** __weak void DAC_SetChannelConfig(DAC_Handle_t *pHandle, DAC_Channel_t bChannel, uint16_t regID)
 131:Src/dac_ui.c  **** {
 277              		.loc 1 131 1 is_stmt 1 view -0
 278              		.cfi_startproc
 279              		@ args = 0, pretend = 0, frame = 0
 280              		@ frame_needed = 0, uses_anonymous_args = 0
 281              		@ link register save eliminated.
 132:Src/dac_ui.c  **** #ifdef NULL_PTR_CHECK_DAC_UI
 133:Src/dac_ui.c  ****   if (MC_NULL == pHandle)
 134:Src/dac_ui.c  ****   {
 135:Src/dac_ui.c  ****     /* Nothing to do */
 136:Src/dac_ui.c  ****   }
 137:Src/dac_ui.c  ****   else
 138:Src/dac_ui.c  ****   {
 139:Src/dac_ui.c  **** #endif
 140:Src/dac_ui.c  ****     pHandle->dataCh[bChannel] = regID;
 282              		.loc 1 140 5 view .LVU63
 283              		.loc 1 140 31 is_stmt 0 view .LVU64
 284 0000 0B1D     		adds	r3, r1, #4
 141:Src/dac_ui.c  ****     (void)RI_GetPtrReg(regID, (void *)&pHandle->ptrDataCh[bChannel]); //cstat !MISRAC2012-Rule-11.5
 285              		.loc 1 141 11 view .LVU65
 286 0002 00EB8101 		add	r1, r0, r1, lsl #2
 287              	.LVL15:
 140:Src/dac_ui.c  ****     (void)RI_GetPtrReg(regID, (void *)&pHandle->ptrDataCh[bChannel]); //cstat !MISRAC2012-Rule-11.5
 288              		.loc 1 140 31 view .LVU66
 289 0006 20F81320 		strh	r2, [r0, r3, lsl #1]	@ movhi
 290              		.loc 1 141 5 is_stmt 1 view .LVU67
 291              		.loc 1 141 11 is_stmt 0 view .LVU68
 292 000a 1046     		mov	r0, r2
 293              	.LVL16:
 294              		.loc 1 141 11 view .LVU69
 295 000c FFF7FEBF 		b	RI_GetPtrReg
 296              	.LVL17:
 297              		.loc 1 141 11 view .LVU70
 298              		.cfi_endproc
 299              	.LFE1090:
 301              		.section	.text.DAC_GetChannelConfig,"ax",%progbits
 302              		.align	1
 303              		.p2align 2,,3
 304              		.global	DAC_GetChannelConfig
 305              		.syntax unified
ARM GAS  C:\Users\ep_ygh\AppData\Local\Temp\ccVL2nhg.s 			page 38


 306              		.thumb
 307              		.thumb_func
 309              	DAC_GetChannelConfig:
 310              	.LVL18:
 311              	.LFB1091:
 142:Src/dac_ui.c  **** #ifdef NULL_PTR_CHECK_DAC_UI
 143:Src/dac_ui.c  ****   }
 144:Src/dac_ui.c  **** #endif
 145:Src/dac_ui.c  **** }
 146:Src/dac_ui.c  **** 
 147:Src/dac_ui.c  **** uint16_t DAC_GetChannelConfig(DAC_Handle_t *pHandle, DAC_Channel_t bChannel)
 148:Src/dac_ui.c  **** {
 312              		.loc 1 148 1 is_stmt 1 view -0
 313              		.cfi_startproc
 314              		@ args = 0, pretend = 0, frame = 0
 315              		@ frame_needed = 0, uses_anonymous_args = 0
 316              		@ link register save eliminated.
 149:Src/dac_ui.c  **** #ifdef NULL_PTR_CHECK_DAC_UI
 150:Src/dac_ui.c  ****   return ((NULL == pHandle) ? 0U : pHandle->dataCh[bChannel]);
 151:Src/dac_ui.c  **** #else
 152:Src/dac_ui.c  ****   return (pHandle->dataCh[bChannel]);
 317              		.loc 1 152 3 view .LVU72
 318              		.loc 1 152 26 is_stmt 0 view .LVU73
 319 0000 0431     		adds	r1, r1, #4
 320              	.LVL19:
 153:Src/dac_ui.c  **** #endif
 154:Src/dac_ui.c  **** }
 321              		.loc 1 154 1 view .LVU74
 322 0002 30F81100 		ldrh	r0, [r0, r1, lsl #1]
 323              	.LVL20:
 324              		.loc 1 154 1 view .LVU75
 325 0006 7047     		bx	lr
 326              		.cfi_endproc
 327              	.LFE1091:
 329              		.global	DAC_Handle
 330              		.section	.bss.DAC_Handle,"aw",%nobits
 331              		.align	2
 334              	DAC_Handle:
 335 0000 00000000 		.space	12
 335      00000000 
 335      00000000 
 336              		.text
 337              	.Letext0:
 338              		.file 3 "c:\\programdata\\chocolatey\\lib\\gcc-arm-embedded\\tools\\gcc-arm-none-eabi-10.3-2021.10
 339              		.file 4 "c:\\programdata\\chocolatey\\lib\\gcc-arm-embedded\\tools\\gcc-arm-none-eabi-10.3-2021.10
 340              		.file 5 "Drivers/CMSIS/Device/ST/STM32L4xx/Include/stm32l476xx.h"
 341              		.file 6 "Drivers/STM32L4xx_HAL_Driver/Inc/stm32l4xx_ll_tim.h"
 342              		.file 7 "Drivers/STM32L4xx_HAL_Driver/Inc/stm32l4xx_ll_dma.h"
 343              		.file 8 "Inc/dac_ui.h"
 344              		.file 9 "Inc/register_interface.h"
ARM GAS  C:\Users\ep_ygh\AppData\Local\Temp\ccVL2nhg.s 			page 39

