ARM GAS  C:\Users\ep_ygh\AppData\Local\Temp\ccgiOIRg.s 			page 1


   1              		.cpu cortex-m4
   2              		.arch armv7e-m
   3              		.fpu fpv4-sp-d16
   4              		.eabi_attribute 27, 1
   5              		.eabi_attribute 28, 1
   6              		.eabi_attribute 20, 1
   7              		.eabi_attribute 21, 1
   8              		.eabi_attribute 23, 3
   9              		.eabi_attribute 24, 1
  10              		.eabi_attribute 25, 1
  11              		.eabi_attribute 26, 1
  12              		.eabi_attribute 30, 2
  13              		.eabi_attribute 34, 1
  14              		.eabi_attribute 18, 4
  15              		.file	"enc_align_ctrl.c"
  16              		.text
  17              	.Ltext0:
  18              		.cfi_sections	.debug_frame
  19              		.section	.text.EAC_Init,"ax",%progbits
  20              		.align	1
  21              		.p2align 2,,3
  22              		.weak	EAC_Init
  23              		.syntax unified
  24              		.thumb
  25              		.thumb_func
  27              	EAC_Init:
  28              	.LVL0:
  29              	.LFB1088:
  30              		.file 1 "MCSDK_v6.2.1-Full/MotorControl/MCSDK/MCLib/Any/Src/enc_align_ctrl.c"
   1:MCSDK_v6.2.1-Full/MotorControl/MCSDK/MCLib/Any/Src/enc_align_ctrl.c **** /**
   2:MCSDK_v6.2.1-Full/MotorControl/MCSDK/MCLib/Any/Src/enc_align_ctrl.c ****   ******************************************************************************
   3:MCSDK_v6.2.1-Full/MotorControl/MCSDK/MCLib/Any/Src/enc_align_ctrl.c ****   * @file    enc_align_ctrl.c
   4:MCSDK_v6.2.1-Full/MotorControl/MCSDK/MCLib/Any/Src/enc_align_ctrl.c ****   * @author  Motor Control SDK Team, ST Microelectronics
   5:MCSDK_v6.2.1-Full/MotorControl/MCSDK/MCLib/Any/Src/enc_align_ctrl.c ****   * @brief   This file provides firmware functions that implement the features
   6:MCSDK_v6.2.1-Full/MotorControl/MCSDK/MCLib/Any/Src/enc_align_ctrl.c ****   *          of the Encoder Alignment Control component of the Motor Control SDK.
   7:MCSDK_v6.2.1-Full/MotorControl/MCSDK/MCLib/Any/Src/enc_align_ctrl.c ****   ******************************************************************************
   8:MCSDK_v6.2.1-Full/MotorControl/MCSDK/MCLib/Any/Src/enc_align_ctrl.c ****   * @attention
   9:MCSDK_v6.2.1-Full/MotorControl/MCSDK/MCLib/Any/Src/enc_align_ctrl.c ****   *
  10:MCSDK_v6.2.1-Full/MotorControl/MCSDK/MCLib/Any/Src/enc_align_ctrl.c ****   * <h2><center>&copy; Copyright (c) 2023 STMicroelectronics.
  11:MCSDK_v6.2.1-Full/MotorControl/MCSDK/MCLib/Any/Src/enc_align_ctrl.c ****   * All rights reserved.</center></h2>
  12:MCSDK_v6.2.1-Full/MotorControl/MCSDK/MCLib/Any/Src/enc_align_ctrl.c ****   *
  13:MCSDK_v6.2.1-Full/MotorControl/MCSDK/MCLib/Any/Src/enc_align_ctrl.c ****   * This software component is licensed by ST under Ultimate Liberty license
  14:MCSDK_v6.2.1-Full/MotorControl/MCSDK/MCLib/Any/Src/enc_align_ctrl.c ****   * SLA0044, the "License"; You may not use this file except in compliance with
  15:MCSDK_v6.2.1-Full/MotorControl/MCSDK/MCLib/Any/Src/enc_align_ctrl.c ****   * the License. You may obtain a copy of the License at:
  16:MCSDK_v6.2.1-Full/MotorControl/MCSDK/MCLib/Any/Src/enc_align_ctrl.c ****   *                             www.st.com/SLA0044
  17:MCSDK_v6.2.1-Full/MotorControl/MCSDK/MCLib/Any/Src/enc_align_ctrl.c ****   *
  18:MCSDK_v6.2.1-Full/MotorControl/MCSDK/MCLib/Any/Src/enc_align_ctrl.c ****   ******************************************************************************
  19:MCSDK_v6.2.1-Full/MotorControl/MCSDK/MCLib/Any/Src/enc_align_ctrl.c ****   * @ingroup EncAlignCtrl
  20:MCSDK_v6.2.1-Full/MotorControl/MCSDK/MCLib/Any/Src/enc_align_ctrl.c ****   */
  21:MCSDK_v6.2.1-Full/MotorControl/MCSDK/MCLib/Any/Src/enc_align_ctrl.c **** 
  22:MCSDK_v6.2.1-Full/MotorControl/MCSDK/MCLib/Any/Src/enc_align_ctrl.c **** /* Includes ------------------------------------------------------------------*/
  23:MCSDK_v6.2.1-Full/MotorControl/MCSDK/MCLib/Any/Src/enc_align_ctrl.c **** #include "enc_align_ctrl.h"
  24:MCSDK_v6.2.1-Full/MotorControl/MCSDK/MCLib/Any/Src/enc_align_ctrl.c **** #include "mc_type.h"
  25:MCSDK_v6.2.1-Full/MotorControl/MCSDK/MCLib/Any/Src/enc_align_ctrl.c **** 
  26:MCSDK_v6.2.1-Full/MotorControl/MCSDK/MCLib/Any/Src/enc_align_ctrl.c **** /** @addtogroup MCSDK
  27:MCSDK_v6.2.1-Full/MotorControl/MCSDK/MCLib/Any/Src/enc_align_ctrl.c ****   * @{
  28:MCSDK_v6.2.1-Full/MotorControl/MCSDK/MCLib/Any/Src/enc_align_ctrl.c ****   */
ARM GAS  C:\Users\ep_ygh\AppData\Local\Temp\ccgiOIRg.s 			page 2


  29:MCSDK_v6.2.1-Full/MotorControl/MCSDK/MCLib/Any/Src/enc_align_ctrl.c **** 
  30:MCSDK_v6.2.1-Full/MotorControl/MCSDK/MCLib/Any/Src/enc_align_ctrl.c **** /** @defgroup EncAlignCtrl Encoder Alignment Controller
  31:MCSDK_v6.2.1-Full/MotorControl/MCSDK/MCLib/Any/Src/enc_align_ctrl.c ****   * @brief Encoder Alignment Controller component of the Motor Control SDK
  32:MCSDK_v6.2.1-Full/MotorControl/MCSDK/MCLib/Any/Src/enc_align_ctrl.c ****   *
  33:MCSDK_v6.2.1-Full/MotorControl/MCSDK/MCLib/Any/Src/enc_align_ctrl.c ****   * Initial encoder calibration which comprises a rotor alignment in a given position
  34:MCSDK_v6.2.1-Full/MotorControl/MCSDK/MCLib/Any/Src/enc_align_ctrl.c ****   * necessary to make the information coming from a quadrature encoder absolute.
  35:MCSDK_v6.2.1-Full/MotorControl/MCSDK/MCLib/Any/Src/enc_align_ctrl.c ****   * @{
  36:MCSDK_v6.2.1-Full/MotorControl/MCSDK/MCLib/Any/Src/enc_align_ctrl.c ****   */
  37:MCSDK_v6.2.1-Full/MotorControl/MCSDK/MCLib/Any/Src/enc_align_ctrl.c **** 
  38:MCSDK_v6.2.1-Full/MotorControl/MCSDK/MCLib/Any/Src/enc_align_ctrl.c **** /**
  39:MCSDK_v6.2.1-Full/MotorControl/MCSDK/MCLib/Any/Src/enc_align_ctrl.c ****   * @brief  It initializes the handle
  40:MCSDK_v6.2.1-Full/MotorControl/MCSDK/MCLib/Any/Src/enc_align_ctrl.c ****   * @param  pHandle: handler of the current instance of the EncAlignCtrl component.
  41:MCSDK_v6.2.1-Full/MotorControl/MCSDK/MCLib/Any/Src/enc_align_ctrl.c ****   * @param  pSTC: Pointer to Speed and Torque Controller structure used by the EAC.
  42:MCSDK_v6.2.1-Full/MotorControl/MCSDK/MCLib/Any/Src/enc_align_ctrl.c ****   * @param  pVSS: Pointer to Virtual Speed Sensor structure used by the EAC.
  43:MCSDK_v6.2.1-Full/MotorControl/MCSDK/MCLib/Any/Src/enc_align_ctrl.c ****   * @param  pENC: Pointer to ENCoder structure used by the EAC.
  44:MCSDK_v6.2.1-Full/MotorControl/MCSDK/MCLib/Any/Src/enc_align_ctrl.c ****   */
  45:MCSDK_v6.2.1-Full/MotorControl/MCSDK/MCLib/Any/Src/enc_align_ctrl.c **** __weak void EAC_Init(EncAlign_Handle_t *pHandle, SpeednTorqCtrl_Handle_t *pSTC, VirtualSpeedSensor_
  46:MCSDK_v6.2.1-Full/MotorControl/MCSDK/MCLib/Any/Src/enc_align_ctrl.c ****                      ENCODER_Handle_t *pENC)
  47:MCSDK_v6.2.1-Full/MotorControl/MCSDK/MCLib/Any/Src/enc_align_ctrl.c **** {
  31              		.loc 1 47 1 view -0
  32              		.cfi_startproc
  33              		@ args = 0, pretend = 0, frame = 0
  34              		@ frame_needed = 0, uses_anonymous_args = 0
  35              		@ link register save eliminated.
  48:MCSDK_v6.2.1-Full/MotorControl/MCSDK/MCLib/Any/Src/enc_align_ctrl.c **** #ifdef NULL_PTR_CHECK_ENC_ALI_CTRL
  49:MCSDK_v6.2.1-Full/MotorControl/MCSDK/MCLib/Any/Src/enc_align_ctrl.c ****   if (NULL == pHandle)
  50:MCSDK_v6.2.1-Full/MotorControl/MCSDK/MCLib/Any/Src/enc_align_ctrl.c ****   {
  51:MCSDK_v6.2.1-Full/MotorControl/MCSDK/MCLib/Any/Src/enc_align_ctrl.c ****     /* Nothing to do */
  52:MCSDK_v6.2.1-Full/MotorControl/MCSDK/MCLib/Any/Src/enc_align_ctrl.c ****   }
  53:MCSDK_v6.2.1-Full/MotorControl/MCSDK/MCLib/Any/Src/enc_align_ctrl.c ****   else
  54:MCSDK_v6.2.1-Full/MotorControl/MCSDK/MCLib/Any/Src/enc_align_ctrl.c ****   {
  55:MCSDK_v6.2.1-Full/MotorControl/MCSDK/MCLib/Any/Src/enc_align_ctrl.c **** #endif
  56:MCSDK_v6.2.1-Full/MotorControl/MCSDK/MCLib/Any/Src/enc_align_ctrl.c ****     pHandle->pSTC = pSTC;
  36              		.loc 1 56 5 view .LVU1
  57:MCSDK_v6.2.1-Full/MotorControl/MCSDK/MCLib/Any/Src/enc_align_ctrl.c ****     pHandle->pVSS = pVSS;
  58:MCSDK_v6.2.1-Full/MotorControl/MCSDK/MCLib/Any/Src/enc_align_ctrl.c ****     pHandle->pENC = pENC;
  59:MCSDK_v6.2.1-Full/MotorControl/MCSDK/MCLib/Any/Src/enc_align_ctrl.c ****     pHandle->EncAligned = false;
  37              		.loc 1 59 25 is_stmt 0 view .LVU2
  38 0000 4FF0000C 		mov	ip, #0
  57:MCSDK_v6.2.1-Full/MotorControl/MCSDK/MCLib/Any/Src/enc_align_ctrl.c ****     pHandle->pVSS = pVSS;
  39              		.loc 1 57 19 view .LVU3
  40 0004 C0E90012 		strd	r1, r2, [r0]
  58:MCSDK_v6.2.1-Full/MotorControl/MCSDK/MCLib/Any/Src/enc_align_ctrl.c ****     pHandle->EncAligned = false;
  41              		.loc 1 58 5 is_stmt 1 view .LVU4
  58:MCSDK_v6.2.1-Full/MotorControl/MCSDK/MCLib/Any/Src/enc_align_ctrl.c ****     pHandle->EncAligned = false;
  42              		.loc 1 58 19 is_stmt 0 view .LVU5
  43 0008 8360     		str	r3, [r0, #8]
  44              		.loc 1 59 5 is_stmt 1 view .LVU6
  60:MCSDK_v6.2.1-Full/MotorControl/MCSDK/MCLib/Any/Src/enc_align_ctrl.c ****     pHandle->EncRestart = false;
  45              		.loc 1 60 5 view .LVU7
  59:MCSDK_v6.2.1-Full/MotorControl/MCSDK/MCLib/Any/Src/enc_align_ctrl.c ****     pHandle->EncRestart = false;
  46              		.loc 1 59 25 is_stmt 0 view .LVU8
  47 000a A0F80EC0 		strh	ip, [r0, #14]	@ movhi
  61:MCSDK_v6.2.1-Full/MotorControl/MCSDK/MCLib/Any/Src/enc_align_ctrl.c **** #ifdef NULL_PTR_CHECK_ENC_ALI_CTRL
  62:MCSDK_v6.2.1-Full/MotorControl/MCSDK/MCLib/Any/Src/enc_align_ctrl.c ****   }
  63:MCSDK_v6.2.1-Full/MotorControl/MCSDK/MCLib/Any/Src/enc_align_ctrl.c **** #endif
  64:MCSDK_v6.2.1-Full/MotorControl/MCSDK/MCLib/Any/Src/enc_align_ctrl.c **** }
ARM GAS  C:\Users\ep_ygh\AppData\Local\Temp\ccgiOIRg.s 			page 3


  48              		.loc 1 64 1 view .LVU9
  49 000e 7047     		bx	lr
  50              		.cfi_endproc
  51              	.LFE1088:
  53              		.section	.text.EAC_StartAlignment,"ax",%progbits
  54              		.align	1
  55              		.p2align 2,,3
  56              		.weak	EAC_StartAlignment
  57              		.syntax unified
  58              		.thumb
  59              		.thumb_func
  61              	EAC_StartAlignment:
  62              	.LVL1:
  63              	.LFB1089:
  65:MCSDK_v6.2.1-Full/MotorControl/MCSDK/MCLib/Any/Src/enc_align_ctrl.c **** 
  66:MCSDK_v6.2.1-Full/MotorControl/MCSDK/MCLib/Any/Src/enc_align_ctrl.c **** /**
  67:MCSDK_v6.2.1-Full/MotorControl/MCSDK/MCLib/Any/Src/enc_align_ctrl.c ****   * @brief  It starts the encoder alignment procedure.
  68:MCSDK_v6.2.1-Full/MotorControl/MCSDK/MCLib/Any/Src/enc_align_ctrl.c ****   * It configures the VSS (Virtual Speed Sensor) with the required angle and sets the
  69:MCSDK_v6.2.1-Full/MotorControl/MCSDK/MCLib/Any/Src/enc_align_ctrl.c ****   * STC (Speed and Torque Controller) to execute the required torque ramp.
  70:MCSDK_v6.2.1-Full/MotorControl/MCSDK/MCLib/Any/Src/enc_align_ctrl.c ****   * @param  pHandle: handler of the current instance of the EncAlignCtrl component.
  71:MCSDK_v6.2.1-Full/MotorControl/MCSDK/MCLib/Any/Src/enc_align_ctrl.c ****   */
  72:MCSDK_v6.2.1-Full/MotorControl/MCSDK/MCLib/Any/Src/enc_align_ctrl.c **** __weak void EAC_StartAlignment(EncAlign_Handle_t *pHandle)
  73:MCSDK_v6.2.1-Full/MotorControl/MCSDK/MCLib/Any/Src/enc_align_ctrl.c **** {
  64              		.loc 1 73 1 is_stmt 1 view -0
  65              		.cfi_startproc
  66              		@ args = 0, pretend = 0, frame = 0
  67              		@ frame_needed = 0, uses_anonymous_args = 0
  74:MCSDK_v6.2.1-Full/MotorControl/MCSDK/MCLib/Any/Src/enc_align_ctrl.c **** #ifdef NULL_PTR_CHECK_ENC_ALI_CTRL
  75:MCSDK_v6.2.1-Full/MotorControl/MCSDK/MCLib/Any/Src/enc_align_ctrl.c ****   if (NULL == pHandle)
  76:MCSDK_v6.2.1-Full/MotorControl/MCSDK/MCLib/Any/Src/enc_align_ctrl.c ****   {
  77:MCSDK_v6.2.1-Full/MotorControl/MCSDK/MCLib/Any/Src/enc_align_ctrl.c ****     /* Nothing to do */
  78:MCSDK_v6.2.1-Full/MotorControl/MCSDK/MCLib/Any/Src/enc_align_ctrl.c ****   }
  79:MCSDK_v6.2.1-Full/MotorControl/MCSDK/MCLib/Any/Src/enc_align_ctrl.c ****   else
  80:MCSDK_v6.2.1-Full/MotorControl/MCSDK/MCLib/Any/Src/enc_align_ctrl.c ****   {
  81:MCSDK_v6.2.1-Full/MotorControl/MCSDK/MCLib/Any/Src/enc_align_ctrl.c **** #endif
  82:MCSDK_v6.2.1-Full/MotorControl/MCSDK/MCLib/Any/Src/enc_align_ctrl.c ****     uint32_t wAux;
  68              		.loc 1 82 5 view .LVU11
  83:MCSDK_v6.2.1-Full/MotorControl/MCSDK/MCLib/Any/Src/enc_align_ctrl.c **** 
  84:MCSDK_v6.2.1-Full/MotorControl/MCSDK/MCLib/Any/Src/enc_align_ctrl.c ****     /* Set pVSS mechanical speed to zero */
  85:MCSDK_v6.2.1-Full/MotorControl/MCSDK/MCLib/Any/Src/enc_align_ctrl.c ****     VSS_SetMecAcceleration(pHandle->pVSS, 0, 0U);
  69              		.loc 1 85 5 view .LVU12
  73:MCSDK_v6.2.1-Full/MotorControl/MCSDK/MCLib/Any/Src/enc_align_ctrl.c **** #ifdef NULL_PTR_CHECK_ENC_ALI_CTRL
  70              		.loc 1 73 1 is_stmt 0 view .LVU13
  71 0000 10B5     		push	{r4, lr}
  72              	.LCFI0:
  73              		.cfi_def_cfa_offset 8
  74              		.cfi_offset 4, -8
  75              		.cfi_offset 14, -4
  76              		.loc 1 85 5 view .LVU14
  77 0002 0022     		movs	r2, #0
  73:MCSDK_v6.2.1-Full/MotorControl/MCSDK/MCLib/Any/Src/enc_align_ctrl.c **** #ifdef NULL_PTR_CHECK_ENC_ALI_CTRL
  78              		.loc 1 73 1 view .LVU15
  79 0004 0446     		mov	r4, r0
  80              		.loc 1 85 5 view .LVU16
  81 0006 1146     		mov	r1, r2
  82 0008 4068     		ldr	r0, [r0, #4]
  83              	.LVL2:
ARM GAS  C:\Users\ep_ygh\AppData\Local\Temp\ccgiOIRg.s 			page 4


  84              		.loc 1 85 5 view .LVU17
  85 000a FFF7FEFF 		bl	VSS_SetMecAcceleration
  86              	.LVL3:
  86:MCSDK_v6.2.1-Full/MotorControl/MCSDK/MCLib/Any/Src/enc_align_ctrl.c **** 
  87:MCSDK_v6.2.1-Full/MotorControl/MCSDK/MCLib/Any/Src/enc_align_ctrl.c ****     /* Set pVSS mechanical angle */
  88:MCSDK_v6.2.1-Full/MotorControl/MCSDK/MCLib/Any/Src/enc_align_ctrl.c ****     VSS_SetMecAngle(pHandle->pVSS, pHandle->hElAngle);
  87              		.loc 1 88 5 is_stmt 1 view .LVU18
  88 000e B4F91410 		ldrsh	r1, [r4, #20]
  89 0012 6068     		ldr	r0, [r4, #4]
  90 0014 FFF7FEFF 		bl	VSS_SetMecAngle
  91              	.LVL4:
  89:MCSDK_v6.2.1-Full/MotorControl/MCSDK/MCLib/Any/Src/enc_align_ctrl.c **** 
  90:MCSDK_v6.2.1-Full/MotorControl/MCSDK/MCLib/Any/Src/enc_align_ctrl.c ****     /* Set pSTC in MCM_TORQUE_MODE */
  91:MCSDK_v6.2.1-Full/MotorControl/MCSDK/MCLib/Any/Src/enc_align_ctrl.c ****     STC_SetControlMode(pHandle->pSTC, MCM_TORQUE_MODE);
  92              		.loc 1 91 5 view .LVU19
  93 0018 2068     		ldr	r0, [r4]
  94 001a 0421     		movs	r1, #4
  95 001c FFF7FEFF 		bl	STC_SetControlMode
  96              	.LVL5:
  92:MCSDK_v6.2.1-Full/MotorControl/MCSDK/MCLib/Any/Src/enc_align_ctrl.c **** 
  93:MCSDK_v6.2.1-Full/MotorControl/MCSDK/MCLib/Any/Src/enc_align_ctrl.c ****     /* Set starting torque to Zero */
  94:MCSDK_v6.2.1-Full/MotorControl/MCSDK/MCLib/Any/Src/enc_align_ctrl.c ****     (void)STC_ExecRamp(pHandle->pSTC, 0, 0U);
  97              		.loc 1 94 5 view .LVU20
  98              		.loc 1 94 11 is_stmt 0 view .LVU21
  99 0020 0022     		movs	r2, #0
 100 0022 1146     		mov	r1, r2
 101 0024 2068     		ldr	r0, [r4]
 102 0026 FFF7FEFF 		bl	STC_ExecRamp
 103              	.LVL6:
  95:MCSDK_v6.2.1-Full/MotorControl/MCSDK/MCLib/Any/Src/enc_align_ctrl.c **** 
  96:MCSDK_v6.2.1-Full/MotorControl/MCSDK/MCLib/Any/Src/enc_align_ctrl.c ****     /* Execute the torque ramp */
  97:MCSDK_v6.2.1-Full/MotorControl/MCSDK/MCLib/Any/Src/enc_align_ctrl.c ****     (void)STC_ExecRamp(pHandle->pSTC, pHandle->hFinalTorque, (uint32_t)pHandle->hDurationms);
 104              		.loc 1 97 5 is_stmt 1 view .LVU22
 105              		.loc 1 97 11 is_stmt 0 view .LVU23
 106 002a E28A     		ldrh	r2, [r4, #22]
 107 002c B4F91210 		ldrsh	r1, [r4, #18]
 108 0030 2068     		ldr	r0, [r4]
 109 0032 FFF7FEFF 		bl	STC_ExecRamp
 110              	.LVL7:
  98:MCSDK_v6.2.1-Full/MotorControl/MCSDK/MCLib/Any/Src/enc_align_ctrl.c ****     /* Compute hRemainingTicks, the number of thick of alignment phase */
  99:MCSDK_v6.2.1-Full/MotorControl/MCSDK/MCLib/Any/Src/enc_align_ctrl.c ****     wAux = ((uint32_t)pHandle->hDurationms) * ((uint32_t)pHandle->hEACFrequencyHz);
 111              		.loc 1 99 5 is_stmt 1 view .LVU24
 112              		.loc 1 99 13 is_stmt 0 view .LVU25
 113 0036 E38A     		ldrh	r3, [r4, #22]
 114              		.loc 1 99 48 view .LVU26
 115 0038 218A     		ldrh	r1, [r4, #16]
 100:MCSDK_v6.2.1-Full/MotorControl/MCSDK/MCLib/Any/Src/enc_align_ctrl.c ****     wAux /= 1000U;
 116              		.loc 1 100 10 view .LVU27
 117 003a 044A     		ldr	r2, .L5
  99:MCSDK_v6.2.1-Full/MotorControl/MCSDK/MCLib/Any/Src/enc_align_ctrl.c ****     wAux /= 1000U;
 118              		.loc 1 99 10 view .LVU28
 119 003c 01FB03F3 		mul	r3, r1, r3
 120              	.LVL8:
 121              		.loc 1 100 5 is_stmt 1 view .LVU29
 101:MCSDK_v6.2.1-Full/MotorControl/MCSDK/MCLib/Any/Src/enc_align_ctrl.c ****     pHandle->hRemainingTicks = (uint16_t)wAux;
 122              		.loc 1 101 5 view .LVU30
 102:MCSDK_v6.2.1-Full/MotorControl/MCSDK/MCLib/Any/Src/enc_align_ctrl.c ****     pHandle->hRemainingTicks++;
ARM GAS  C:\Users\ep_ygh\AppData\Local\Temp\ccgiOIRg.s 			page 5


 123              		.loc 1 102 5 view .LVU31
 100:MCSDK_v6.2.1-Full/MotorControl/MCSDK/MCLib/Any/Src/enc_align_ctrl.c ****     pHandle->hRemainingTicks = (uint16_t)wAux;
 124              		.loc 1 100 10 is_stmt 0 view .LVU32
 125 0040 A2FB0323 		umull	r2, r3, r2, r3
 126              	.LVL9:
 100:MCSDK_v6.2.1-Full/MotorControl/MCSDK/MCLib/Any/Src/enc_align_ctrl.c ****     pHandle->hRemainingTicks = (uint16_t)wAux;
 127              		.loc 1 100 10 view .LVU33
 128 0044 9B09     		lsrs	r3, r3, #6
 129              		.loc 1 102 29 view .LVU34
 130 0046 0133     		adds	r3, r3, #1
 131 0048 A381     		strh	r3, [r4, #12]	@ movhi
 103:MCSDK_v6.2.1-Full/MotorControl/MCSDK/MCLib/Any/Src/enc_align_ctrl.c **** #ifdef NULL_PTR_CHECK_ENC_ALI_CTRL
 104:MCSDK_v6.2.1-Full/MotorControl/MCSDK/MCLib/Any/Src/enc_align_ctrl.c ****   }
 105:MCSDK_v6.2.1-Full/MotorControl/MCSDK/MCLib/Any/Src/enc_align_ctrl.c **** #endif
 106:MCSDK_v6.2.1-Full/MotorControl/MCSDK/MCLib/Any/Src/enc_align_ctrl.c **** }
 132              		.loc 1 106 1 view .LVU35
 133 004a 10BD     		pop	{r4, pc}
 134              	.LVL10:
 135              	.L6:
 136              		.loc 1 106 1 view .LVU36
 137              		.align	2
 138              	.L5:
 139 004c D34D6210 		.word	274877907
 140              		.cfi_endproc
 141              	.LFE1089:
 143              		.section	.text.EAC_Exec,"ax",%progbits
 144              		.align	1
 145              		.p2align 2,,3
 146              		.weak	EAC_Exec
 147              		.syntax unified
 148              		.thumb
 149              		.thumb_func
 151              	EAC_Exec:
 152              	.LVL11:
 153              	.LFB1090:
 107:MCSDK_v6.2.1-Full/MotorControl/MCSDK/MCLib/Any/Src/enc_align_ctrl.c **** 
 108:MCSDK_v6.2.1-Full/MotorControl/MCSDK/MCLib/Any/Src/enc_align_ctrl.c **** /**
 109:MCSDK_v6.2.1-Full/MotorControl/MCSDK/MCLib/Any/Src/enc_align_ctrl.c ****   * @brief  It executes the encoder alignment controller and must be called with a
 110:MCSDK_v6.2.1-Full/MotorControl/MCSDK/MCLib/Any/Src/enc_align_ctrl.c ****   *         frequency equal to the one settled in the parameters
 111:MCSDK_v6.2.1-Full/MotorControl/MCSDK/MCLib/Any/Src/enc_align_ctrl.c ****   *         hEACFrequencyHz. Calling this method the EAC is able to verify
 112:MCSDK_v6.2.1-Full/MotorControl/MCSDK/MCLib/Any/Src/enc_align_ctrl.c ****   *         if the alignment duration has been finished. At the end of alignment
 113:MCSDK_v6.2.1-Full/MotorControl/MCSDK/MCLib/Any/Src/enc_align_ctrl.c ****   *         the encoder is set to the defined mechanical angle.
 114:MCSDK_v6.2.1-Full/MotorControl/MCSDK/MCLib/Any/Src/enc_align_ctrl.c ****   *         Note: STC and VSS are not called by EAC_Exec.
 115:MCSDK_v6.2.1-Full/MotorControl/MCSDK/MCLib/Any/Src/enc_align_ctrl.c ****   * @param  pHandle: handler of the current instance of the EncAlignCtrl component.
 116:MCSDK_v6.2.1-Full/MotorControl/MCSDK/MCLib/Any/Src/enc_align_ctrl.c ****   * @retval bool It returns true when the programmed alignment has been
 117:MCSDK_v6.2.1-Full/MotorControl/MCSDK/MCLib/Any/Src/enc_align_ctrl.c ****   *         completed.
 118:MCSDK_v6.2.1-Full/MotorControl/MCSDK/MCLib/Any/Src/enc_align_ctrl.c ****   */
 119:MCSDK_v6.2.1-Full/MotorControl/MCSDK/MCLib/Any/Src/enc_align_ctrl.c **** __weak bool EAC_Exec(EncAlign_Handle_t *pHandle)
 120:MCSDK_v6.2.1-Full/MotorControl/MCSDK/MCLib/Any/Src/enc_align_ctrl.c **** {
 154              		.loc 1 120 1 is_stmt 1 view -0
 155              		.cfi_startproc
 156              		@ args = 0, pretend = 0, frame = 0
 157              		@ frame_needed = 0, uses_anonymous_args = 0
 121:MCSDK_v6.2.1-Full/MotorControl/MCSDK/MCLib/Any/Src/enc_align_ctrl.c ****   bool retVal = true;
 158              		.loc 1 121 3 view .LVU38
 122:MCSDK_v6.2.1-Full/MotorControl/MCSDK/MCLib/Any/Src/enc_align_ctrl.c **** #ifdef NULL_PTR_CHECK_ENC_ALI_CTRL
 123:MCSDK_v6.2.1-Full/MotorControl/MCSDK/MCLib/Any/Src/enc_align_ctrl.c ****   if (NULL == pHandle)
ARM GAS  C:\Users\ep_ygh\AppData\Local\Temp\ccgiOIRg.s 			page 6


 124:MCSDK_v6.2.1-Full/MotorControl/MCSDK/MCLib/Any/Src/enc_align_ctrl.c ****   {
 125:MCSDK_v6.2.1-Full/MotorControl/MCSDK/MCLib/Any/Src/enc_align_ctrl.c ****     retVal = false;
 126:MCSDK_v6.2.1-Full/MotorControl/MCSDK/MCLib/Any/Src/enc_align_ctrl.c ****   }
 127:MCSDK_v6.2.1-Full/MotorControl/MCSDK/MCLib/Any/Src/enc_align_ctrl.c ****   else
 128:MCSDK_v6.2.1-Full/MotorControl/MCSDK/MCLib/Any/Src/enc_align_ctrl.c ****   {
 129:MCSDK_v6.2.1-Full/MotorControl/MCSDK/MCLib/Any/Src/enc_align_ctrl.c **** #endif
 130:MCSDK_v6.2.1-Full/MotorControl/MCSDK/MCLib/Any/Src/enc_align_ctrl.c ****     if (pHandle->hRemainingTicks > 0U)
 159              		.loc 1 130 5 view .LVU39
 160              		.loc 1 130 16 is_stmt 0 view .LVU40
 161 0000 8389     		ldrh	r3, [r0, #12]
 162              		.loc 1 130 8 view .LVU41
 163 0002 3BB1     		cbz	r3, .L9
 131:MCSDK_v6.2.1-Full/MotorControl/MCSDK/MCLib/Any/Src/enc_align_ctrl.c ****     {
 132:MCSDK_v6.2.1-Full/MotorControl/MCSDK/MCLib/Any/Src/enc_align_ctrl.c ****       pHandle->hRemainingTicks--;
 164              		.loc 1 132 7 is_stmt 1 view .LVU42
 165              		.loc 1 132 31 is_stmt 0 view .LVU43
 166 0004 013B     		subs	r3, r3, #1
 167 0006 9BB2     		uxth	r3, r3
 120:MCSDK_v6.2.1-Full/MotorControl/MCSDK/MCLib/Any/Src/enc_align_ctrl.c ****   bool retVal = true;
 168              		.loc 1 120 1 view .LVU44
 169 0008 10B5     		push	{r4, lr}
 170              	.LCFI1:
 171              		.cfi_def_cfa_offset 8
 172              		.cfi_offset 4, -8
 173              		.cfi_offset 14, -4
 174 000a 0446     		mov	r4, r0
 175              		.loc 1 132 31 view .LVU45
 176 000c 8381     		strh	r3, [r0, #12]	@ movhi
 133:MCSDK_v6.2.1-Full/MotorControl/MCSDK/MCLib/Any/Src/enc_align_ctrl.c **** 
 134:MCSDK_v6.2.1-Full/MotorControl/MCSDK/MCLib/Any/Src/enc_align_ctrl.c ****       if (0U == pHandle->hRemainingTicks)
 177              		.loc 1 134 7 is_stmt 1 view .LVU46
 178              		.loc 1 134 10 is_stmt 0 view .LVU47
 179 000e 1BB1     		cbz	r3, .L15
 135:MCSDK_v6.2.1-Full/MotorControl/MCSDK/MCLib/Any/Src/enc_align_ctrl.c ****       {
 136:MCSDK_v6.2.1-Full/MotorControl/MCSDK/MCLib/Any/Src/enc_align_ctrl.c ****         /* At the end of Alignment procedure, we set the encoder mechanical angle to the alignement
 137:MCSDK_v6.2.1-Full/MotorControl/MCSDK/MCLib/Any/Src/enc_align_ctrl.c ****         ENC_SetMecAngle(pHandle->pENC, pHandle->hElAngle / ((int16_t)pHandle->bElToMecRatio));
 138:MCSDK_v6.2.1-Full/MotorControl/MCSDK/MCLib/Any/Src/enc_align_ctrl.c ****         pHandle->EncAligned = true;
 139:MCSDK_v6.2.1-Full/MotorControl/MCSDK/MCLib/Any/Src/enc_align_ctrl.c ****         retVal = true;
 140:MCSDK_v6.2.1-Full/MotorControl/MCSDK/MCLib/Any/Src/enc_align_ctrl.c ****       }
 141:MCSDK_v6.2.1-Full/MotorControl/MCSDK/MCLib/Any/Src/enc_align_ctrl.c ****       else
 142:MCSDK_v6.2.1-Full/MotorControl/MCSDK/MCLib/Any/Src/enc_align_ctrl.c ****       {
 143:MCSDK_v6.2.1-Full/MotorControl/MCSDK/MCLib/Any/Src/enc_align_ctrl.c ****         retVal = false;
 180              		.loc 1 143 16 view .LVU48
 181 0010 0020     		movs	r0, #0
 182              	.LVL12:
 144:MCSDK_v6.2.1-Full/MotorControl/MCSDK/MCLib/Any/Src/enc_align_ctrl.c ****       }
 145:MCSDK_v6.2.1-Full/MotorControl/MCSDK/MCLib/Any/Src/enc_align_ctrl.c ****     }
 146:MCSDK_v6.2.1-Full/MotorControl/MCSDK/MCLib/Any/Src/enc_align_ctrl.c ****     else
 147:MCSDK_v6.2.1-Full/MotorControl/MCSDK/MCLib/Any/Src/enc_align_ctrl.c ****     {
 148:MCSDK_v6.2.1-Full/MotorControl/MCSDK/MCLib/Any/Src/enc_align_ctrl.c ****       /* Nothing to do */
 149:MCSDK_v6.2.1-Full/MotorControl/MCSDK/MCLib/Any/Src/enc_align_ctrl.c ****     }
 183              		.loc 1 149 5 is_stmt 1 view .LVU49
 150:MCSDK_v6.2.1-Full/MotorControl/MCSDK/MCLib/Any/Src/enc_align_ctrl.c **** #ifdef NULL_PTR_CHECK_ENC_ALI_CTRL
 151:MCSDK_v6.2.1-Full/MotorControl/MCSDK/MCLib/Any/Src/enc_align_ctrl.c ****   }
 152:MCSDK_v6.2.1-Full/MotorControl/MCSDK/MCLib/Any/Src/enc_align_ctrl.c **** #endif
 153:MCSDK_v6.2.1-Full/MotorControl/MCSDK/MCLib/Any/Src/enc_align_ctrl.c **** 
 154:MCSDK_v6.2.1-Full/MotorControl/MCSDK/MCLib/Any/Src/enc_align_ctrl.c ****   return (retVal);
ARM GAS  C:\Users\ep_ygh\AppData\Local\Temp\ccgiOIRg.s 			page 7


 184              		.loc 1 154 3 view .LVU50
 155:MCSDK_v6.2.1-Full/MotorControl/MCSDK/MCLib/Any/Src/enc_align_ctrl.c **** }
 185              		.loc 1 155 1 is_stmt 0 view .LVU51
 186 0012 10BD     		pop	{r4, pc}
 187              	.LVL13:
 188              	.L9:
 189              	.LCFI2:
 190              		.cfi_def_cfa_offset 0
 191              		.cfi_restore 4
 192              		.cfi_restore 14
 121:MCSDK_v6.2.1-Full/MotorControl/MCSDK/MCLib/Any/Src/enc_align_ctrl.c **** #ifdef NULL_PTR_CHECK_ENC_ALI_CTRL
 193              		.loc 1 121 8 view .LVU52
 194 0014 0120     		movs	r0, #1
 195              	.LVL14:
 149:MCSDK_v6.2.1-Full/MotorControl/MCSDK/MCLib/Any/Src/enc_align_ctrl.c **** #ifdef NULL_PTR_CHECK_ENC_ALI_CTRL
 196              		.loc 1 149 5 is_stmt 1 view .LVU53
 154:MCSDK_v6.2.1-Full/MotorControl/MCSDK/MCLib/Any/Src/enc_align_ctrl.c **** }
 197              		.loc 1 154 3 view .LVU54
 198              		.loc 1 155 1 is_stmt 0 view .LVU55
 199 0016 7047     		bx	lr
 200              	.LVL15:
 201              	.L15:
 202              	.LCFI3:
 203              		.cfi_def_cfa_offset 8
 204              		.cfi_offset 4, -8
 205              		.cfi_offset 14, -4
 137:MCSDK_v6.2.1-Full/MotorControl/MCSDK/MCLib/Any/Src/enc_align_ctrl.c ****         pHandle->EncAligned = true;
 206              		.loc 1 137 9 is_stmt 1 view .LVU56
 137:MCSDK_v6.2.1-Full/MotorControl/MCSDK/MCLib/Any/Src/enc_align_ctrl.c ****         pHandle->EncAligned = true;
 207              		.loc 1 137 61 is_stmt 0 view .LVU57
 208 0018 037E     		ldrb	r3, [r0, #24]	@ zero_extendqisi2
 137:MCSDK_v6.2.1-Full/MotorControl/MCSDK/MCLib/Any/Src/enc_align_ctrl.c ****         pHandle->EncAligned = true;
 209              		.loc 1 137 47 view .LVU58
 210 001a B0F91410 		ldrsh	r1, [r0, #20]
 137:MCSDK_v6.2.1-Full/MotorControl/MCSDK/MCLib/Any/Src/enc_align_ctrl.c ****         pHandle->EncAligned = true;
 211              		.loc 1 137 9 view .LVU59
 212 001e 8068     		ldr	r0, [r0, #8]
 213              	.LVL16:
 137:MCSDK_v6.2.1-Full/MotorControl/MCSDK/MCLib/Any/Src/enc_align_ctrl.c ****         pHandle->EncAligned = true;
 214              		.loc 1 137 9 view .LVU60
 215 0020 91FBF3F1 		sdiv	r1, r1, r3
 216 0024 FFF7FEFF 		bl	ENC_SetMecAngle
 217              	.LVL17:
 138:MCSDK_v6.2.1-Full/MotorControl/MCSDK/MCLib/Any/Src/enc_align_ctrl.c ****         retVal = true;
 218              		.loc 1 138 9 is_stmt 1 view .LVU61
 138:MCSDK_v6.2.1-Full/MotorControl/MCSDK/MCLib/Any/Src/enc_align_ctrl.c ****         retVal = true;
 219              		.loc 1 138 29 is_stmt 0 view .LVU62
 220 0028 0120     		movs	r0, #1
 221 002a A073     		strb	r0, [r4, #14]
 139:MCSDK_v6.2.1-Full/MotorControl/MCSDK/MCLib/Any/Src/enc_align_ctrl.c ****       }
 222              		.loc 1 139 9 is_stmt 1 view .LVU63
 223              	.LVL18:
 149:MCSDK_v6.2.1-Full/MotorControl/MCSDK/MCLib/Any/Src/enc_align_ctrl.c **** #ifdef NULL_PTR_CHECK_ENC_ALI_CTRL
 224              		.loc 1 149 5 view .LVU64
 154:MCSDK_v6.2.1-Full/MotorControl/MCSDK/MCLib/Any/Src/enc_align_ctrl.c **** }
 225              		.loc 1 154 3 view .LVU65
 226              		.loc 1 155 1 is_stmt 0 view .LVU66
ARM GAS  C:\Users\ep_ygh\AppData\Local\Temp\ccgiOIRg.s 			page 8


 227 002c 10BD     		pop	{r4, pc}
 228              		.loc 1 155 1 view .LVU67
 229              		.cfi_endproc
 230              	.LFE1090:
 232 002e 00BF     		.section	.text.EAC_IsAligned,"ax",%progbits
 233              		.align	1
 234              		.p2align 2,,3
 235              		.weak	EAC_IsAligned
 236              		.syntax unified
 237              		.thumb
 238              		.thumb_func
 240              	EAC_IsAligned:
 241              	.LVL19:
 242              	.LFB1091:
 156:MCSDK_v6.2.1-Full/MotorControl/MCSDK/MCLib/Any/Src/enc_align_ctrl.c **** 
 157:MCSDK_v6.2.1-Full/MotorControl/MCSDK/MCLib/Any/Src/enc_align_ctrl.c **** /**
 158:MCSDK_v6.2.1-Full/MotorControl/MCSDK/MCLib/Any/Src/enc_align_ctrl.c ****   * @brief  It returns true if the encoder has been aligned at least
 159:MCSDK_v6.2.1-Full/MotorControl/MCSDK/MCLib/Any/Src/enc_align_ctrl.c ****   *         one time, false if hasn't been never aligned.
 160:MCSDK_v6.2.1-Full/MotorControl/MCSDK/MCLib/Any/Src/enc_align_ctrl.c ****   * @param  pHandle: handler of the current instance of the EncAlignCtrl component.
 161:MCSDK_v6.2.1-Full/MotorControl/MCSDK/MCLib/Any/Src/enc_align_ctrl.c ****   * @retval bool Encoder Aligned flag
 162:MCSDK_v6.2.1-Full/MotorControl/MCSDK/MCLib/Any/Src/enc_align_ctrl.c ****   */
 163:MCSDK_v6.2.1-Full/MotorControl/MCSDK/MCLib/Any/Src/enc_align_ctrl.c **** __weak bool EAC_IsAligned(EncAlign_Handle_t *pHandle) //cstat !MISRAC2012-Rule-8.13
 164:MCSDK_v6.2.1-Full/MotorControl/MCSDK/MCLib/Any/Src/enc_align_ctrl.c **** {
 243              		.loc 1 164 1 is_stmt 1 view -0
 244              		.cfi_startproc
 245              		@ args = 0, pretend = 0, frame = 0
 246              		@ frame_needed = 0, uses_anonymous_args = 0
 247              		@ link register save eliminated.
 165:MCSDK_v6.2.1-Full/MotorControl/MCSDK/MCLib/Any/Src/enc_align_ctrl.c **** #ifdef NULL_PTR_CHECK_ENC_ALI_CTRL
 166:MCSDK_v6.2.1-Full/MotorControl/MCSDK/MCLib/Any/Src/enc_align_ctrl.c ****   return ((NULL == pHandle) ? false : pHandle->EncAligned);
 167:MCSDK_v6.2.1-Full/MotorControl/MCSDK/MCLib/Any/Src/enc_align_ctrl.c **** #else
 168:MCSDK_v6.2.1-Full/MotorControl/MCSDK/MCLib/Any/Src/enc_align_ctrl.c ****   return (pHandle->EncAligned);
 248              		.loc 1 168 3 view .LVU69
 169:MCSDK_v6.2.1-Full/MotorControl/MCSDK/MCLib/Any/Src/enc_align_ctrl.c **** #endif
 170:MCSDK_v6.2.1-Full/MotorControl/MCSDK/MCLib/Any/Src/enc_align_ctrl.c **** }
 249              		.loc 1 170 1 is_stmt 0 view .LVU70
 250 0000 807B     		ldrb	r0, [r0, #14]	@ zero_extendqisi2
 251              	.LVL20:
 252              		.loc 1 170 1 view .LVU71
 253 0002 7047     		bx	lr
 254              		.cfi_endproc
 255              	.LFE1091:
 257              		.section	.text.EAC_SetRestartState,"ax",%progbits
 258              		.align	1
 259              		.p2align 2,,3
 260              		.weak	EAC_SetRestartState
 261              		.syntax unified
 262              		.thumb
 263              		.thumb_func
 265              	EAC_SetRestartState:
 266              	.LVL21:
 267              	.LFB1092:
 171:MCSDK_v6.2.1-Full/MotorControl/MCSDK/MCLib/Any/Src/enc_align_ctrl.c **** 
 172:MCSDK_v6.2.1-Full/MotorControl/MCSDK/MCLib/Any/Src/enc_align_ctrl.c **** /**
 173:MCSDK_v6.2.1-Full/MotorControl/MCSDK/MCLib/Any/Src/enc_align_ctrl.c ****   * @brief  It sets handler ENCrestart variable according to restart parameter
 174:MCSDK_v6.2.1-Full/MotorControl/MCSDK/MCLib/Any/Src/enc_align_ctrl.c ****   * @param  pHandle: handler of the current instance of the EncAlignCtrl component.
 175:MCSDK_v6.2.1-Full/MotorControl/MCSDK/MCLib/Any/Src/enc_align_ctrl.c ****   * @param  restart: Equal to true if a restart is programmed else false.
ARM GAS  C:\Users\ep_ygh\AppData\Local\Temp\ccgiOIRg.s 			page 9


 176:MCSDK_v6.2.1-Full/MotorControl/MCSDK/MCLib/Any/Src/enc_align_ctrl.c ****   */
 177:MCSDK_v6.2.1-Full/MotorControl/MCSDK/MCLib/Any/Src/enc_align_ctrl.c **** __weak void EAC_SetRestartState(EncAlign_Handle_t *pHandle, bool restart)
 178:MCSDK_v6.2.1-Full/MotorControl/MCSDK/MCLib/Any/Src/enc_align_ctrl.c **** {
 268              		.loc 1 178 1 is_stmt 1 view -0
 269              		.cfi_startproc
 270              		@ args = 0, pretend = 0, frame = 0
 271              		@ frame_needed = 0, uses_anonymous_args = 0
 272              		@ link register save eliminated.
 179:MCSDK_v6.2.1-Full/MotorControl/MCSDK/MCLib/Any/Src/enc_align_ctrl.c **** #ifdef NULL_PTR_CHECK_ENC_ALI_CTRL
 180:MCSDK_v6.2.1-Full/MotorControl/MCSDK/MCLib/Any/Src/enc_align_ctrl.c ****   if (NULL  == pHandle)
 181:MCSDK_v6.2.1-Full/MotorControl/MCSDK/MCLib/Any/Src/enc_align_ctrl.c ****   {
 182:MCSDK_v6.2.1-Full/MotorControl/MCSDK/MCLib/Any/Src/enc_align_ctrl.c ****     /* Nothing to do */
 183:MCSDK_v6.2.1-Full/MotorControl/MCSDK/MCLib/Any/Src/enc_align_ctrl.c ****   }
 184:MCSDK_v6.2.1-Full/MotorControl/MCSDK/MCLib/Any/Src/enc_align_ctrl.c ****   else
 185:MCSDK_v6.2.1-Full/MotorControl/MCSDK/MCLib/Any/Src/enc_align_ctrl.c ****   {
 186:MCSDK_v6.2.1-Full/MotorControl/MCSDK/MCLib/Any/Src/enc_align_ctrl.c **** #endif
 187:MCSDK_v6.2.1-Full/MotorControl/MCSDK/MCLib/Any/Src/enc_align_ctrl.c ****     pHandle->EncRestart = restart;
 273              		.loc 1 187 5 view .LVU73
 274              		.loc 1 187 25 is_stmt 0 view .LVU74
 275 0000 C173     		strb	r1, [r0, #15]
 188:MCSDK_v6.2.1-Full/MotorControl/MCSDK/MCLib/Any/Src/enc_align_ctrl.c **** #ifdef NULL_PTR_CHECK_ENC_ALI_CTRL
 189:MCSDK_v6.2.1-Full/MotorControl/MCSDK/MCLib/Any/Src/enc_align_ctrl.c ****   }
 190:MCSDK_v6.2.1-Full/MotorControl/MCSDK/MCLib/Any/Src/enc_align_ctrl.c **** #endif
 191:MCSDK_v6.2.1-Full/MotorControl/MCSDK/MCLib/Any/Src/enc_align_ctrl.c **** }
 276              		.loc 1 191 1 view .LVU75
 277 0002 7047     		bx	lr
 278              		.cfi_endproc
 279              	.LFE1092:
 281              		.section	.text.EAC_GetRestartState,"ax",%progbits
 282              		.align	1
 283              		.p2align 2,,3
 284              		.weak	EAC_GetRestartState
 285              		.syntax unified
 286              		.thumb
 287              		.thumb_func
 289              	EAC_GetRestartState:
 290              	.LVL22:
 291              	.LFB1093:
 192:MCSDK_v6.2.1-Full/MotorControl/MCSDK/MCLib/Any/Src/enc_align_ctrl.c **** 
 193:MCSDK_v6.2.1-Full/MotorControl/MCSDK/MCLib/Any/Src/enc_align_ctrl.c **** /**
 194:MCSDK_v6.2.1-Full/MotorControl/MCSDK/MCLib/Any/Src/enc_align_ctrl.c ****   * @brief  Returns true if a restart after an encoder alignment has been requested.
 195:MCSDK_v6.2.1-Full/MotorControl/MCSDK/MCLib/Any/Src/enc_align_ctrl.c ****   * @param  pHandle: handler of the current instance of the EncAlignCtrl component.
 196:MCSDK_v6.2.1-Full/MotorControl/MCSDK/MCLib/Any/Src/enc_align_ctrl.c ****   * @retval bool Encoder Alignment restart order flag
 197:MCSDK_v6.2.1-Full/MotorControl/MCSDK/MCLib/Any/Src/enc_align_ctrl.c ****   */
 198:MCSDK_v6.2.1-Full/MotorControl/MCSDK/MCLib/Any/Src/enc_align_ctrl.c **** __weak bool EAC_GetRestartState(EncAlign_Handle_t *pHandle) //cstat !MISRAC2012-Rule-8.13
 199:MCSDK_v6.2.1-Full/MotorControl/MCSDK/MCLib/Any/Src/enc_align_ctrl.c **** {
 292              		.loc 1 199 1 is_stmt 1 view -0
 293              		.cfi_startproc
 294              		@ args = 0, pretend = 0, frame = 0
 295              		@ frame_needed = 0, uses_anonymous_args = 0
 296              		@ link register save eliminated.
 200:MCSDK_v6.2.1-Full/MotorControl/MCSDK/MCLib/Any/Src/enc_align_ctrl.c **** #ifdef NULL_PTR_CHECK_ENC_ALI_CTRL
 201:MCSDK_v6.2.1-Full/MotorControl/MCSDK/MCLib/Any/Src/enc_align_ctrl.c ****   return ((NULL == pHandle) ? false : pHandle->EncRestart);
 202:MCSDK_v6.2.1-Full/MotorControl/MCSDK/MCLib/Any/Src/enc_align_ctrl.c **** #else
 203:MCSDK_v6.2.1-Full/MotorControl/MCSDK/MCLib/Any/Src/enc_align_ctrl.c ****   return (pHandle->EncRestart);
 297              		.loc 1 203 3 view .LVU77
 204:MCSDK_v6.2.1-Full/MotorControl/MCSDK/MCLib/Any/Src/enc_align_ctrl.c **** #endif
ARM GAS  C:\Users\ep_ygh\AppData\Local\Temp\ccgiOIRg.s 			page 10


 205:MCSDK_v6.2.1-Full/MotorControl/MCSDK/MCLib/Any/Src/enc_align_ctrl.c **** }
 298              		.loc 1 205 1 is_stmt 0 view .LVU78
 299 0000 C07B     		ldrb	r0, [r0, #15]	@ zero_extendqisi2
 300              	.LVL23:
 301              		.loc 1 205 1 view .LVU79
 302 0002 7047     		bx	lr
 303              		.cfi_endproc
 304              	.LFE1093:
 306              		.text
 307              	.Letext0:
 308              		.file 2 "c:\\programdata\\chocolatey\\lib\\gcc-arm-embedded\\tools\\gcc-arm-none-eabi-10.3-2021.10
 309              		.file 3 "c:\\programdata\\chocolatey\\lib\\gcc-arm-embedded\\tools\\gcc-arm-none-eabi-10.3-2021.10
 310              		.file 4 "Drivers/CMSIS/Device/ST/STM32L4xx/Include/stm32l476xx.h"
 311              		.file 5 "Drivers/STM32L4xx_HAL_Driver/Inc/stm32l4xx_ll_tim.h"
 312              		.file 6 "Drivers/STM32L4xx_HAL_Driver/Inc/stm32l4xx_ll_dma.h"
 313              		.file 7 "Inc/mc_type.h"
 314              		.file 8 "MCSDK_v6.2.1-Full/MotorControl/MCSDK/MCLib/Any/Inc/pid_regulator.h"
 315              		.file 9 "MCSDK_v6.2.1-Full/MotorControl/MCSDK/MCLib/Any/Inc/speed_pos_fdbk.h"
 316              		.file 10 "MCSDK_v6.2.1-Full/MotorControl/MCSDK/MCLib/Any/Inc/speed_torq_ctrl.h"
 317              		.file 11 "MCSDK_v6.2.1-Full/MotorControl/MCSDK/MCLib/Any/Inc/virtual_speed_sensor.h"
 318              		.file 12 "MCSDK_v6.2.1-Full/MotorControl/MCSDK/MCLib/Any/Inc/encoder_speed_pos_fdbk.h"
 319              		.file 13 "MCSDK_v6.2.1-Full/MotorControl/MCSDK/MCLib/Any/Inc/enc_align_ctrl.h"
ARM GAS  C:\Users\ep_ygh\AppData\Local\Temp\ccgiOIRg.s 			page 11

