ARM GAS  C:\Users\ep_ygh\AppData\Local\Temp\ccgAlmok.s 			page 1


   1              		.cpu cortex-m4
   2              		.arch armv7e-m
   3              		.fpu fpv4-sp-d16
   4              		.eabi_attribute 27, 1
   5              		.eabi_attribute 28, 1
   6              		.eabi_attribute 20, 1
   7              		.eabi_attribute 21, 1
   8              		.eabi_attribute 23, 3
   9              		.eabi_attribute 24, 1
  10              		.eabi_attribute 25, 1
  11              		.eabi_attribute 26, 1
  12              		.eabi_attribute 30, 2
  13              		.eabi_attribute 34, 1
  14              		.eabi_attribute 18, 4
  15              		.file	"main.c"
  16              		.section	.rodata.str1.4,"aMS",%progbits,1
  17              		.align	2
  18              	.LC0:
  19 0000 6D656469 		.ascii	"mediumFrequency\000"
  19      756D4672 
  19      65717565 
  19      6E637900 
  20              		.align	2
  21              	.LC2:
  22 0010 73616665 		.ascii	"safety\000"
  22      747900
  23              		.text
  24              	.Ltext0:
  25              		.cfi_sections	.debug_frame
  26              		.section	.text.startMediumFrequencyTask,"ax",%progbits
  27              		.align	1
  28              		.p2align 2,,3
  29              		.weak	startMediumFrequencyTask
  30              		.syntax unified
  31              		.thumb
  32              		.thumb_func
  34              	startMediumFrequencyTask:
  35              	.LFB1105:
  36              		.file 1 "Src/main.c"
   1:Src/main.c    **** /* USER CODE BEGIN Header */
   2:Src/main.c    **** /**
   3:Src/main.c    ****   ******************************************************************************
   4:Src/main.c    ****   * @file           : main.c
   5:Src/main.c    ****   * @brief          : Main program body
   6:Src/main.c    ****   ******************************************************************************
   7:Src/main.c    ****   * @attention
   8:Src/main.c    ****   *
   9:Src/main.c    ****   * Copyright (c) 2024 STMicroelectronics.
  10:Src/main.c    ****   * All rights reserved.
  11:Src/main.c    ****   *
  12:Src/main.c    ****   * This software is licensed under terms that can be found in the LICENSE file
  13:Src/main.c    ****   * in the root directory of this software component.
  14:Src/main.c    ****   * If no LICENSE file comes with this software, it is provided AS-IS.
  15:Src/main.c    ****   *
  16:Src/main.c    ****   ******************************************************************************
  17:Src/main.c    ****   */
  18:Src/main.c    **** /* USER CODE END Header */
ARM GAS  C:\Users\ep_ygh\AppData\Local\Temp\ccgAlmok.s 			page 2


  19:Src/main.c    **** /* Includes ------------------------------------------------------------------*/
  20:Src/main.c    **** #include "main.h"
  21:Src/main.c    **** #include "cmsis_os.h"
  22:Src/main.c    **** 
  23:Src/main.c    **** /* Private includes ----------------------------------------------------------*/
  24:Src/main.c    **** /* USER CODE BEGIN Includes */
  25:Src/main.c    **** 
  26:Src/main.c    **** /* USER CODE END Includes */
  27:Src/main.c    **** 
  28:Src/main.c    **** /* Private typedef -----------------------------------------------------------*/
  29:Src/main.c    **** /* USER CODE BEGIN PTD */
  30:Src/main.c    **** 
  31:Src/main.c    **** /* USER CODE END PTD */
  32:Src/main.c    **** 
  33:Src/main.c    **** /* Private define ------------------------------------------------------------*/
  34:Src/main.c    **** /* USER CODE BEGIN PD */
  35:Src/main.c    **** 
  36:Src/main.c    **** /* USER CODE END PD */
  37:Src/main.c    **** 
  38:Src/main.c    **** /* Private macro -------------------------------------------------------------*/
  39:Src/main.c    **** /* USER CODE BEGIN PM */
  40:Src/main.c    **** 
  41:Src/main.c    **** /* USER CODE END PM */
  42:Src/main.c    **** 
  43:Src/main.c    **** /* Private variables ---------------------------------------------------------*/
  44:Src/main.c    **** ADC_HandleTypeDef hadc1;
  45:Src/main.c    **** 
  46:Src/main.c    **** DAC_HandleTypeDef hdac1;
  47:Src/main.c    **** 
  48:Src/main.c    **** TIM_HandleTypeDef htim1;
  49:Src/main.c    **** TIM_HandleTypeDef htim3;
  50:Src/main.c    **** 
  51:Src/main.c    **** UART_HandleTypeDef huart2;
  52:Src/main.c    **** DMA_HandleTypeDef hdma_usart2_rx;
  53:Src/main.c    **** DMA_HandleTypeDef hdma_usart2_tx;
  54:Src/main.c    **** 
  55:Src/main.c    **** osThreadId mediumFrequencyHandle;
  56:Src/main.c    **** osThreadId safetyHandle;
  57:Src/main.c    **** /* USER CODE BEGIN PV */
  58:Src/main.c    **** 
  59:Src/main.c    **** /* USER CODE END PV */
  60:Src/main.c    **** 
  61:Src/main.c    **** /* Private function prototypes -----------------------------------------------*/
  62:Src/main.c    **** void SystemClock_Config(void);
  63:Src/main.c    **** static void MX_GPIO_Init(void);
  64:Src/main.c    **** static void MX_DMA_Init(void);
  65:Src/main.c    **** static void MX_ADC1_Init(void);
  66:Src/main.c    **** static void MX_DAC1_Init(void);
  67:Src/main.c    **** static void MX_TIM1_Init(void);
  68:Src/main.c    **** static void MX_TIM3_Init(void);
  69:Src/main.c    **** static void MX_USART2_UART_Init(void);
  70:Src/main.c    **** void startMediumFrequencyTask(void const * argument);
  71:Src/main.c    **** extern void StartSafetyTask(void const * argument);
  72:Src/main.c    **** 
  73:Src/main.c    **** static void MX_NVIC_Init(void);
  74:Src/main.c    **** /* USER CODE BEGIN PFP */
  75:Src/main.c    **** 
ARM GAS  C:\Users\ep_ygh\AppData\Local\Temp\ccgAlmok.s 			page 3


  76:Src/main.c    **** /* USER CODE END PFP */
  77:Src/main.c    **** 
  78:Src/main.c    **** /* Private user code ---------------------------------------------------------*/
  79:Src/main.c    **** /* USER CODE BEGIN 0 */
  80:Src/main.c    **** 
  81:Src/main.c    **** /* USER CODE END 0 */
  82:Src/main.c    **** 
  83:Src/main.c    **** /**
  84:Src/main.c    ****   * @brief  The application entry point.
  85:Src/main.c    ****   * @retval int
  86:Src/main.c    ****   */
  87:Src/main.c    **** int main(void)
  88:Src/main.c    **** {
  89:Src/main.c    **** 
  90:Src/main.c    ****   /* USER CODE BEGIN 1 */
  91:Src/main.c    **** 
  92:Src/main.c    ****   /* USER CODE END 1 */
  93:Src/main.c    **** 
  94:Src/main.c    ****   /* MCU Configuration--------------------------------------------------------*/
  95:Src/main.c    **** 
  96:Src/main.c    ****   /* Reset of all peripherals, Initializes the Flash interface and the Systick. */
  97:Src/main.c    ****   HAL_Init();
  98:Src/main.c    **** 
  99:Src/main.c    ****   /* USER CODE BEGIN Init */
 100:Src/main.c    **** 
 101:Src/main.c    ****   /* USER CODE END Init */
 102:Src/main.c    **** 
 103:Src/main.c    ****   /* Configure the system clock */
 104:Src/main.c    ****   SystemClock_Config();
 105:Src/main.c    **** 
 106:Src/main.c    ****   /* USER CODE BEGIN SysInit */
 107:Src/main.c    **** 
 108:Src/main.c    ****   /* USER CODE END SysInit */
 109:Src/main.c    **** 
 110:Src/main.c    ****   /* Initialize all configured peripherals */
 111:Src/main.c    ****   MX_GPIO_Init();
 112:Src/main.c    ****   MX_DMA_Init();
 113:Src/main.c    ****   MX_ADC1_Init();
 114:Src/main.c    ****   MX_DAC1_Init();
 115:Src/main.c    ****   MX_TIM1_Init();
 116:Src/main.c    ****   MX_TIM3_Init();
 117:Src/main.c    ****   MX_USART2_UART_Init();
 118:Src/main.c    ****   MX_MotorControl_Init();
 119:Src/main.c    **** 
 120:Src/main.c    ****   /* Initialize interrupts */
 121:Src/main.c    ****   MX_NVIC_Init();
 122:Src/main.c    ****   /* USER CODE BEGIN 2 */
 123:Src/main.c    **** 
 124:Src/main.c    ****   /* USER CODE END 2 */
 125:Src/main.c    **** 
 126:Src/main.c    ****   /* USER CODE BEGIN RTOS_MUTEX */
 127:Src/main.c    ****   /* add mutexes, ... */
 128:Src/main.c    ****   /* USER CODE END RTOS_MUTEX */
 129:Src/main.c    **** 
 130:Src/main.c    ****   /* USER CODE BEGIN RTOS_SEMAPHORES */
 131:Src/main.c    ****   /* add semaphores, ... */
 132:Src/main.c    ****   /* USER CODE END RTOS_SEMAPHORES */
ARM GAS  C:\Users\ep_ygh\AppData\Local\Temp\ccgAlmok.s 			page 4


 133:Src/main.c    **** 
 134:Src/main.c    ****   /* USER CODE BEGIN RTOS_TIMERS */
 135:Src/main.c    ****   /* start timers, add new ones, ... */
 136:Src/main.c    ****   /* USER CODE END RTOS_TIMERS */
 137:Src/main.c    **** 
 138:Src/main.c    ****   /* USER CODE BEGIN RTOS_QUEUES */
 139:Src/main.c    ****   /* add queues, ... */
 140:Src/main.c    ****   /* USER CODE END RTOS_QUEUES */
 141:Src/main.c    **** 
 142:Src/main.c    ****   /* Create the thread(s) */
 143:Src/main.c    ****   /* definition and creation of mediumFrequency */
 144:Src/main.c    ****   osThreadDef(mediumFrequency, startMediumFrequencyTask, osPriorityNormal, 0, 128);
 145:Src/main.c    ****   mediumFrequencyHandle = osThreadCreate(osThread(mediumFrequency), NULL);
 146:Src/main.c    **** 
 147:Src/main.c    ****   /* definition and creation of safety */
 148:Src/main.c    ****   osThreadDef(safety, StartSafetyTask, osPriorityAboveNormal, 0, 128);
 149:Src/main.c    ****   safetyHandle = osThreadCreate(osThread(safety), NULL);
 150:Src/main.c    **** 
 151:Src/main.c    ****   /* USER CODE BEGIN RTOS_THREADS */
 152:Src/main.c    ****   /* add threads, ... */
 153:Src/main.c    ****   /* USER CODE END RTOS_THREADS */
 154:Src/main.c    **** 
 155:Src/main.c    ****   /* Start scheduler */
 156:Src/main.c    ****   osKernelStart();
 157:Src/main.c    **** 
 158:Src/main.c    ****   /* We should never get here as control is now taken by the scheduler */
 159:Src/main.c    **** 
 160:Src/main.c    ****   /* Infinite loop */
 161:Src/main.c    ****   /* USER CODE BEGIN WHILE */
 162:Src/main.c    ****   while (1)
 163:Src/main.c    ****   {
 164:Src/main.c    ****     /* USER CODE END WHILE */
 165:Src/main.c    **** 
 166:Src/main.c    ****     /* USER CODE BEGIN 3 */
 167:Src/main.c    ****   }
 168:Src/main.c    ****   /* USER CODE END 3 */
 169:Src/main.c    **** }
 170:Src/main.c    **** 
 171:Src/main.c    **** /**
 172:Src/main.c    ****   * @brief System Clock Configuration
 173:Src/main.c    ****   * @retval None
 174:Src/main.c    ****   */
 175:Src/main.c    **** void SystemClock_Config(void)
 176:Src/main.c    **** {
 177:Src/main.c    ****   RCC_OscInitTypeDef RCC_OscInitStruct = {0};
 178:Src/main.c    ****   RCC_ClkInitTypeDef RCC_ClkInitStruct = {0};
 179:Src/main.c    **** 
 180:Src/main.c    ****   /** Configure the main internal regulator output voltage
 181:Src/main.c    ****   */
 182:Src/main.c    ****   if (HAL_PWREx_ControlVoltageScaling(PWR_REGULATOR_VOLTAGE_SCALE1) != HAL_OK)
 183:Src/main.c    ****   {
 184:Src/main.c    ****     Error_Handler();
 185:Src/main.c    ****   }
 186:Src/main.c    **** 
 187:Src/main.c    ****   /** Initializes the RCC Oscillators according to the specified parameters
 188:Src/main.c    ****   * in the RCC_OscInitTypeDef structure.
 189:Src/main.c    ****   */
ARM GAS  C:\Users\ep_ygh\AppData\Local\Temp\ccgAlmok.s 			page 5


 190:Src/main.c    ****   RCC_OscInitStruct.OscillatorType = RCC_OSCILLATORTYPE_HSI;
 191:Src/main.c    ****   RCC_OscInitStruct.HSIState = RCC_HSI_ON;
 192:Src/main.c    ****   RCC_OscInitStruct.HSICalibrationValue = RCC_HSICALIBRATION_DEFAULT;
 193:Src/main.c    ****   RCC_OscInitStruct.PLL.PLLState = RCC_PLL_ON;
 194:Src/main.c    ****   RCC_OscInitStruct.PLL.PLLSource = RCC_PLLSOURCE_HSI;
 195:Src/main.c    ****   RCC_OscInitStruct.PLL.PLLM = 2;
 196:Src/main.c    ****   RCC_OscInitStruct.PLL.PLLN = 20;
 197:Src/main.c    ****   RCC_OscInitStruct.PLL.PLLP = RCC_PLLP_DIV7;
 198:Src/main.c    ****   RCC_OscInitStruct.PLL.PLLQ = RCC_PLLQ_DIV2;
 199:Src/main.c    ****   RCC_OscInitStruct.PLL.PLLR = RCC_PLLR_DIV2;
 200:Src/main.c    ****   if (HAL_RCC_OscConfig(&RCC_OscInitStruct) != HAL_OK)
 201:Src/main.c    ****   {
 202:Src/main.c    ****     Error_Handler();
 203:Src/main.c    ****   }
 204:Src/main.c    **** 
 205:Src/main.c    ****   /** Initializes the CPU, AHB and APB buses clocks
 206:Src/main.c    ****   */
 207:Src/main.c    ****   RCC_ClkInitStruct.ClockType = RCC_CLOCKTYPE_HCLK|RCC_CLOCKTYPE_SYSCLK
 208:Src/main.c    ****                               |RCC_CLOCKTYPE_PCLK1|RCC_CLOCKTYPE_PCLK2;
 209:Src/main.c    ****   RCC_ClkInitStruct.SYSCLKSource = RCC_SYSCLKSOURCE_PLLCLK;
 210:Src/main.c    ****   RCC_ClkInitStruct.AHBCLKDivider = RCC_SYSCLK_DIV1;
 211:Src/main.c    ****   RCC_ClkInitStruct.APB1CLKDivider = RCC_HCLK_DIV1;
 212:Src/main.c    ****   RCC_ClkInitStruct.APB2CLKDivider = RCC_HCLK_DIV1;
 213:Src/main.c    **** 
 214:Src/main.c    ****   if (HAL_RCC_ClockConfig(&RCC_ClkInitStruct, FLASH_LATENCY_4) != HAL_OK)
 215:Src/main.c    ****   {
 216:Src/main.c    ****     Error_Handler();
 217:Src/main.c    ****   }
 218:Src/main.c    **** }
 219:Src/main.c    **** 
 220:Src/main.c    **** /**
 221:Src/main.c    ****   * @brief NVIC Configuration.
 222:Src/main.c    ****   * @retval None
 223:Src/main.c    ****   */
 224:Src/main.c    **** static void MX_NVIC_Init(void)
 225:Src/main.c    **** {
 226:Src/main.c    ****   /* USART2_IRQn interrupt configuration */
 227:Src/main.c    ****   HAL_NVIC_SetPriority(USART2_IRQn, 8, 0);
 228:Src/main.c    ****   HAL_NVIC_EnableIRQ(USART2_IRQn);
 229:Src/main.c    ****   /* DMA1_Channel6_IRQn interrupt configuration */
 230:Src/main.c    ****   HAL_NVIC_SetPriority(DMA1_Channel6_IRQn, 8, 0);
 231:Src/main.c    ****   HAL_NVIC_EnableIRQ(DMA1_Channel6_IRQn);
 232:Src/main.c    ****   /* TIM1_BRK_TIM15_IRQn interrupt configuration */
 233:Src/main.c    ****   HAL_NVIC_SetPriority(TIM1_BRK_TIM15_IRQn, 9, 0);
 234:Src/main.c    ****   HAL_NVIC_EnableIRQ(TIM1_BRK_TIM15_IRQn);
 235:Src/main.c    ****   /* TIM1_UP_TIM16_IRQn interrupt configuration */
 236:Src/main.c    ****   HAL_NVIC_SetPriority(TIM1_UP_TIM16_IRQn, 5, 0);
 237:Src/main.c    ****   HAL_NVIC_EnableIRQ(TIM1_UP_TIM16_IRQn);
 238:Src/main.c    ****   /* ADC1_2_IRQn interrupt configuration */
 239:Src/main.c    ****   HAL_NVIC_SetPriority(ADC1_2_IRQn, 7, 0);
 240:Src/main.c    ****   HAL_NVIC_EnableIRQ(ADC1_2_IRQn);
 241:Src/main.c    ****   /* TIM3_IRQn interrupt configuration */
 242:Src/main.c    ****   HAL_NVIC_SetPriority(TIM3_IRQn, 8, 0);
 243:Src/main.c    ****   HAL_NVIC_EnableIRQ(TIM3_IRQn);
 244:Src/main.c    ****   /* EXTI15_10_IRQn interrupt configuration */
 245:Src/main.c    ****   HAL_NVIC_SetPriority(EXTI15_10_IRQn, 8, 0);
 246:Src/main.c    ****   HAL_NVIC_EnableIRQ(EXTI15_10_IRQn);
ARM GAS  C:\Users\ep_ygh\AppData\Local\Temp\ccgAlmok.s 			page 6


 247:Src/main.c    **** }
 248:Src/main.c    **** 
 249:Src/main.c    **** /**
 250:Src/main.c    ****   * @brief ADC1 Initialization Function
 251:Src/main.c    ****   * @param None
 252:Src/main.c    ****   * @retval None
 253:Src/main.c    ****   */
 254:Src/main.c    **** static void MX_ADC1_Init(void)
 255:Src/main.c    **** {
 256:Src/main.c    **** 
 257:Src/main.c    ****   /* USER CODE BEGIN ADC1_Init 0 */
 258:Src/main.c    **** 
 259:Src/main.c    ****   /* USER CODE END ADC1_Init 0 */
 260:Src/main.c    **** 
 261:Src/main.c    ****   ADC_MultiModeTypeDef multimode = {0};
 262:Src/main.c    ****   ADC_InjectionConfTypeDef sConfigInjected = {0};
 263:Src/main.c    ****   ADC_ChannelConfTypeDef sConfig = {0};
 264:Src/main.c    **** 
 265:Src/main.c    ****   /* USER CODE BEGIN ADC1_Init 1 */
 266:Src/main.c    **** 
 267:Src/main.c    ****   /* USER CODE END ADC1_Init 1 */
 268:Src/main.c    **** 
 269:Src/main.c    ****   /** Common config
 270:Src/main.c    ****   */
 271:Src/main.c    ****   hadc1.Instance = ADC1;
 272:Src/main.c    ****   hadc1.Init.ClockPrescaler = ADC_CLOCK_ASYNC_DIV1;
 273:Src/main.c    ****   hadc1.Init.Resolution = ADC_RESOLUTION_12B;
 274:Src/main.c    ****   hadc1.Init.DataAlign = ADC_DATAALIGN_LEFT;
 275:Src/main.c    ****   hadc1.Init.ScanConvMode = ADC_SCAN_ENABLE;
 276:Src/main.c    ****   hadc1.Init.EOCSelection = ADC_EOC_SINGLE_CONV;
 277:Src/main.c    ****   hadc1.Init.LowPowerAutoWait = DISABLE;
 278:Src/main.c    ****   hadc1.Init.ContinuousConvMode = DISABLE;
 279:Src/main.c    ****   hadc1.Init.NbrOfConversion = 2;
 280:Src/main.c    ****   hadc1.Init.DiscontinuousConvMode = DISABLE;
 281:Src/main.c    ****   hadc1.Init.ExternalTrigConv = ADC_SOFTWARE_START;
 282:Src/main.c    ****   hadc1.Init.ExternalTrigConvEdge = ADC_EXTERNALTRIGCONVEDGE_NONE;
 283:Src/main.c    ****   hadc1.Init.DMAContinuousRequests = DISABLE;
 284:Src/main.c    ****   hadc1.Init.Overrun = ADC_OVR_DATA_PRESERVED;
 285:Src/main.c    ****   hadc1.Init.OversamplingMode = DISABLE;
 286:Src/main.c    ****   if (HAL_ADC_Init(&hadc1) != HAL_OK)
 287:Src/main.c    ****   {
 288:Src/main.c    ****     Error_Handler();
 289:Src/main.c    ****   }
 290:Src/main.c    **** 
 291:Src/main.c    ****   /** Configure the ADC multi-mode
 292:Src/main.c    ****   */
 293:Src/main.c    ****   multimode.Mode = ADC_MODE_INDEPENDENT;
 294:Src/main.c    ****   if (HAL_ADCEx_MultiModeConfigChannel(&hadc1, &multimode) != HAL_OK)
 295:Src/main.c    ****   {
 296:Src/main.c    ****     Error_Handler();
 297:Src/main.c    ****   }
 298:Src/main.c    **** 
 299:Src/main.c    ****   /** Disable Injected Queue
 300:Src/main.c    ****   */
 301:Src/main.c    ****   HAL_ADCEx_DisableInjectedQueue(&hadc1);
 302:Src/main.c    **** 
 303:Src/main.c    ****   /** Configure Injected Channel
ARM GAS  C:\Users\ep_ygh\AppData\Local\Temp\ccgAlmok.s 			page 7


 304:Src/main.c    ****   */
 305:Src/main.c    ****   sConfigInjected.InjectedChannel = ADC_CHANNEL_6;
 306:Src/main.c    ****   sConfigInjected.InjectedRank = ADC_INJECTED_RANK_1;
 307:Src/main.c    ****   sConfigInjected.InjectedSamplingTime = ADC_SAMPLETIME_12CYCLES_5;
 308:Src/main.c    ****   sConfigInjected.InjectedSingleDiff = ADC_SINGLE_ENDED;
 309:Src/main.c    ****   sConfigInjected.InjectedOffsetNumber = ADC_OFFSET_NONE;
 310:Src/main.c    ****   sConfigInjected.InjectedOffset = 0;
 311:Src/main.c    ****   sConfigInjected.InjectedNbrOfConversion = 3;
 312:Src/main.c    ****   sConfigInjected.InjectedDiscontinuousConvMode = DISABLE;
 313:Src/main.c    ****   sConfigInjected.AutoInjectedConv = DISABLE;
 314:Src/main.c    ****   sConfigInjected.QueueInjectedContext = DISABLE;
 315:Src/main.c    ****   sConfigInjected.ExternalTrigInjecConv = ADC_EXTERNALTRIGINJEC_T1_TRGO;
 316:Src/main.c    ****   sConfigInjected.ExternalTrigInjecConvEdge = ADC_EXTERNALTRIGINJECCONV_EDGE_RISING;
 317:Src/main.c    ****   sConfigInjected.InjecOversamplingMode = DISABLE;
 318:Src/main.c    ****   if (HAL_ADCEx_InjectedConfigChannel(&hadc1, &sConfigInjected) != HAL_OK)
 319:Src/main.c    ****   {
 320:Src/main.c    ****     Error_Handler();
 321:Src/main.c    ****   }
 322:Src/main.c    **** 
 323:Src/main.c    ****   /** Configure Injected Channel
 324:Src/main.c    ****   */
 325:Src/main.c    ****   sConfigInjected.InjectedChannel = ADC_CHANNEL_16;
 326:Src/main.c    ****   sConfigInjected.InjectedRank = ADC_INJECTED_RANK_2;
 327:Src/main.c    ****   if (HAL_ADCEx_InjectedConfigChannel(&hadc1, &sConfigInjected) != HAL_OK)
 328:Src/main.c    ****   {
 329:Src/main.c    ****     Error_Handler();
 330:Src/main.c    ****   }
 331:Src/main.c    **** 
 332:Src/main.c    ****   /** Configure Injected Channel
 333:Src/main.c    ****   */
 334:Src/main.c    ****   sConfigInjected.InjectedChannel = ADC_CHANNEL_15;
 335:Src/main.c    ****   sConfigInjected.InjectedRank = ADC_INJECTED_RANK_3;
 336:Src/main.c    ****   if (HAL_ADCEx_InjectedConfigChannel(&hadc1, &sConfigInjected) != HAL_OK)
 337:Src/main.c    ****   {
 338:Src/main.c    ****     Error_Handler();
 339:Src/main.c    ****   }
 340:Src/main.c    **** 
 341:Src/main.c    ****   /** Configure Regular Channel
 342:Src/main.c    ****   */
 343:Src/main.c    ****   sConfig.Channel = ADC_CHANNEL_5;
 344:Src/main.c    ****   sConfig.Rank = ADC_REGULAR_RANK_1;
 345:Src/main.c    ****   sConfig.SamplingTime = ADC_SAMPLETIME_92CYCLES_5;
 346:Src/main.c    ****   sConfig.SingleDiff = ADC_SINGLE_ENDED;
 347:Src/main.c    ****   sConfig.OffsetNumber = ADC_OFFSET_NONE;
 348:Src/main.c    ****   sConfig.Offset = 0;
 349:Src/main.c    ****   if (HAL_ADC_ConfigChannel(&hadc1, &sConfig) != HAL_OK)
 350:Src/main.c    ****   {
 351:Src/main.c    ****     Error_Handler();
 352:Src/main.c    ****   }
 353:Src/main.c    **** 
 354:Src/main.c    ****   /** Configure Regular Channel
 355:Src/main.c    ****   */
 356:Src/main.c    ****   sConfig.Channel = ADC_CHANNEL_13;
 357:Src/main.c    ****   sConfig.Rank = ADC_REGULAR_RANK_2;
 358:Src/main.c    ****   if (HAL_ADC_ConfigChannel(&hadc1, &sConfig) != HAL_OK)
 359:Src/main.c    ****   {
 360:Src/main.c    ****     Error_Handler();
ARM GAS  C:\Users\ep_ygh\AppData\Local\Temp\ccgAlmok.s 			page 8


 361:Src/main.c    ****   }
 362:Src/main.c    ****   /* USER CODE BEGIN ADC1_Init 2 */
 363:Src/main.c    **** 
 364:Src/main.c    ****   /* USER CODE END ADC1_Init 2 */
 365:Src/main.c    **** 
 366:Src/main.c    **** }
 367:Src/main.c    **** 
 368:Src/main.c    **** /**
 369:Src/main.c    ****   * @brief DAC1 Initialization Function
 370:Src/main.c    ****   * @param None
 371:Src/main.c    ****   * @retval None
 372:Src/main.c    ****   */
 373:Src/main.c    **** static void MX_DAC1_Init(void)
 374:Src/main.c    **** {
 375:Src/main.c    **** 
 376:Src/main.c    ****   /* USER CODE BEGIN DAC1_Init 0 */
 377:Src/main.c    **** 
 378:Src/main.c    ****   /* USER CODE END DAC1_Init 0 */
 379:Src/main.c    **** 
 380:Src/main.c    ****   DAC_ChannelConfTypeDef sConfig = {0};
 381:Src/main.c    **** 
 382:Src/main.c    ****   /* USER CODE BEGIN DAC1_Init 1 */
 383:Src/main.c    **** 
 384:Src/main.c    ****   /* USER CODE END DAC1_Init 1 */
 385:Src/main.c    **** 
 386:Src/main.c    ****   /** DAC Initialization
 387:Src/main.c    ****   */
 388:Src/main.c    ****   hdac1.Instance = DAC1;
 389:Src/main.c    ****   if (HAL_DAC_Init(&hdac1) != HAL_OK)
 390:Src/main.c    ****   {
 391:Src/main.c    ****     Error_Handler();
 392:Src/main.c    ****   }
 393:Src/main.c    **** 
 394:Src/main.c    ****   /** DAC channel OUT1 config
 395:Src/main.c    ****   */
 396:Src/main.c    ****   sConfig.DAC_SampleAndHold = DAC_SAMPLEANDHOLD_DISABLE;
 397:Src/main.c    ****   sConfig.DAC_Trigger = DAC_TRIGGER_SOFTWARE;
 398:Src/main.c    ****   sConfig.DAC_OutputBuffer = DAC_OUTPUTBUFFER_DISABLE;
 399:Src/main.c    ****   sConfig.DAC_ConnectOnChipPeripheral = DAC_CHIPCONNECT_DISABLE;
 400:Src/main.c    ****   sConfig.DAC_UserTrimming = DAC_TRIMMING_FACTORY;
 401:Src/main.c    ****   if (HAL_DAC_ConfigChannel(&hdac1, &sConfig, DAC_CHANNEL_1) != HAL_OK)
 402:Src/main.c    ****   {
 403:Src/main.c    ****     Error_Handler();
 404:Src/main.c    ****   }
 405:Src/main.c    **** 
 406:Src/main.c    ****   /** DAC channel OUT2 config
 407:Src/main.c    ****   */
 408:Src/main.c    ****   if (HAL_DAC_ConfigChannel(&hdac1, &sConfig, DAC_CHANNEL_2) != HAL_OK)
 409:Src/main.c    ****   {
 410:Src/main.c    ****     Error_Handler();
 411:Src/main.c    ****   }
 412:Src/main.c    ****   /* USER CODE BEGIN DAC1_Init 2 */
 413:Src/main.c    **** 
 414:Src/main.c    ****   /* USER CODE END DAC1_Init 2 */
 415:Src/main.c    **** 
 416:Src/main.c    **** }
 417:Src/main.c    **** 
ARM GAS  C:\Users\ep_ygh\AppData\Local\Temp\ccgAlmok.s 			page 9


 418:Src/main.c    **** /**
 419:Src/main.c    ****   * @brief TIM1 Initialization Function
 420:Src/main.c    ****   * @param None
 421:Src/main.c    ****   * @retval None
 422:Src/main.c    ****   */
 423:Src/main.c    **** static void MX_TIM1_Init(void)
 424:Src/main.c    **** {
 425:Src/main.c    **** 
 426:Src/main.c    ****   /* USER CODE BEGIN TIM1_Init 0 */
 427:Src/main.c    **** 
 428:Src/main.c    ****   /* USER CODE END TIM1_Init 0 */
 429:Src/main.c    **** 
 430:Src/main.c    ****   TIM_SlaveConfigTypeDef sSlaveConfig = {0};
 431:Src/main.c    ****   TIM_MasterConfigTypeDef sMasterConfig = {0};
 432:Src/main.c    ****   TIMEx_BreakInputConfigTypeDef sBreakInputConfig = {0};
 433:Src/main.c    ****   TIM_OC_InitTypeDef sConfigOC = {0};
 434:Src/main.c    ****   TIM_BreakDeadTimeConfigTypeDef sBreakDeadTimeConfig = {0};
 435:Src/main.c    **** 
 436:Src/main.c    ****   /* USER CODE BEGIN TIM1_Init 1 */
 437:Src/main.c    **** 
 438:Src/main.c    ****   /* USER CODE END TIM1_Init 1 */
 439:Src/main.c    ****   htim1.Instance = TIM1;
 440:Src/main.c    ****   htim1.Init.Prescaler = ((TIM_CLOCK_DIVIDER) - 1);
 441:Src/main.c    ****   htim1.Init.CounterMode = TIM_COUNTERMODE_CENTERALIGNED1;
 442:Src/main.c    ****   htim1.Init.Period = ((PWM_PERIOD_CYCLES) / 2);
 443:Src/main.c    ****   htim1.Init.ClockDivision = TIM_CLOCKDIVISION_DIV2;
 444:Src/main.c    ****   htim1.Init.RepetitionCounter = (REP_COUNTER);
 445:Src/main.c    ****   htim1.Init.AutoReloadPreload = TIM_AUTORELOAD_PRELOAD_DISABLE;
 446:Src/main.c    ****   if (HAL_TIM_Base_Init(&htim1) != HAL_OK)
 447:Src/main.c    ****   {
 448:Src/main.c    ****     Error_Handler();
 449:Src/main.c    ****   }
 450:Src/main.c    ****   if (HAL_TIM_PWM_Init(&htim1) != HAL_OK)
 451:Src/main.c    ****   {
 452:Src/main.c    ****     Error_Handler();
 453:Src/main.c    ****   }
 454:Src/main.c    ****   sSlaveConfig.SlaveMode = TIM_SLAVEMODE_TRIGGER;
 455:Src/main.c    ****   sSlaveConfig.InputTrigger = TIM_TS_ITR1;
 456:Src/main.c    ****   if (HAL_TIM_SlaveConfigSynchro(&htim1, &sSlaveConfig) != HAL_OK)
 457:Src/main.c    ****   {
 458:Src/main.c    ****     Error_Handler();
 459:Src/main.c    ****   }
 460:Src/main.c    ****   sMasterConfig.MasterOutputTrigger = TIM_TRGO_OC4REF;
 461:Src/main.c    ****   sMasterConfig.MasterOutputTrigger2 = TIM_TRGO2_RESET;
 462:Src/main.c    ****   sMasterConfig.MasterSlaveMode = TIM_MASTERSLAVEMODE_DISABLE;
 463:Src/main.c    ****   if (HAL_TIMEx_MasterConfigSynchronization(&htim1, &sMasterConfig) != HAL_OK)
 464:Src/main.c    ****   {
 465:Src/main.c    ****     Error_Handler();
 466:Src/main.c    ****   }
 467:Src/main.c    ****   sBreakInputConfig.Source = TIM_BREAKINPUTSOURCE_BKIN;
 468:Src/main.c    ****   sBreakInputConfig.Enable = TIM_BREAKINPUTSOURCE_ENABLE;
 469:Src/main.c    ****   sBreakInputConfig.Polarity = TIM_BREAKINPUTSOURCE_POLARITY_LOW;
 470:Src/main.c    ****   if (HAL_TIMEx_ConfigBreakInput(&htim1, TIM_BREAKINPUT_BRK, &sBreakInputConfig) != HAL_OK)
 471:Src/main.c    ****   {
 472:Src/main.c    ****     Error_Handler();
 473:Src/main.c    ****   }
 474:Src/main.c    ****   sConfigOC.OCMode = TIM_OCMODE_PWM1;
ARM GAS  C:\Users\ep_ygh\AppData\Local\Temp\ccgAlmok.s 			page 10


 475:Src/main.c    ****   sConfigOC.Pulse = ((PWM_PERIOD_CYCLES) / 4);
 476:Src/main.c    ****   sConfigOC.OCPolarity = TIM_OCPOLARITY_HIGH;
 477:Src/main.c    ****   sConfigOC.OCNPolarity = TIM_OCNPOLARITY_HIGH;
 478:Src/main.c    ****   sConfigOC.OCFastMode = TIM_OCFAST_DISABLE;
 479:Src/main.c    ****   sConfigOC.OCIdleState = TIM_OCIDLESTATE_RESET;
 480:Src/main.c    ****   sConfigOC.OCNIdleState = TIM_OCNIDLESTATE_RESET;
 481:Src/main.c    ****   if (HAL_TIM_PWM_ConfigChannel(&htim1, &sConfigOC, TIM_CHANNEL_1) != HAL_OK)
 482:Src/main.c    ****   {
 483:Src/main.c    ****     Error_Handler();
 484:Src/main.c    ****   }
 485:Src/main.c    ****   if (HAL_TIM_PWM_ConfigChannel(&htim1, &sConfigOC, TIM_CHANNEL_2) != HAL_OK)
 486:Src/main.c    ****   {
 487:Src/main.c    ****     Error_Handler();
 488:Src/main.c    ****   }
 489:Src/main.c    ****   if (HAL_TIM_PWM_ConfigChannel(&htim1, &sConfigOC, TIM_CHANNEL_3) != HAL_OK)
 490:Src/main.c    ****   {
 491:Src/main.c    ****     Error_Handler();
 492:Src/main.c    ****   }
 493:Src/main.c    ****   sConfigOC.OCMode = TIM_OCMODE_PWM2;
 494:Src/main.c    ****   sConfigOC.Pulse = (((PWM_PERIOD_CYCLES) / 2) - (HTMIN));
 495:Src/main.c    ****   if (HAL_TIM_PWM_ConfigChannel(&htim1, &sConfigOC, TIM_CHANNEL_4) != HAL_OK)
 496:Src/main.c    ****   {
 497:Src/main.c    ****     Error_Handler();
 498:Src/main.c    ****   }
 499:Src/main.c    ****   sBreakDeadTimeConfig.OffStateRunMode = TIM_OSSR_ENABLE;
 500:Src/main.c    ****   sBreakDeadTimeConfig.OffStateIDLEMode = TIM_OSSI_ENABLE;
 501:Src/main.c    ****   sBreakDeadTimeConfig.LockLevel = TIM_LOCKLEVEL_OFF;
 502:Src/main.c    ****   sBreakDeadTimeConfig.DeadTime = 0;
 503:Src/main.c    ****   sBreakDeadTimeConfig.BreakState = TIM_BREAK_ENABLE;
 504:Src/main.c    ****   sBreakDeadTimeConfig.BreakPolarity = TIM_BREAKPOLARITY_HIGH;
 505:Src/main.c    ****   sBreakDeadTimeConfig.BreakFilter = 3;
 506:Src/main.c    ****   sBreakDeadTimeConfig.Break2State = TIM_BREAK2_DISABLE;
 507:Src/main.c    ****   sBreakDeadTimeConfig.Break2Polarity = TIM_BREAK2POLARITY_HIGH;
 508:Src/main.c    ****   sBreakDeadTimeConfig.Break2Filter = 3;
 509:Src/main.c    ****   sBreakDeadTimeConfig.AutomaticOutput = TIM_AUTOMATICOUTPUT_DISABLE;
 510:Src/main.c    ****   if (HAL_TIMEx_ConfigBreakDeadTime(&htim1, &sBreakDeadTimeConfig) != HAL_OK)
 511:Src/main.c    ****   {
 512:Src/main.c    ****     Error_Handler();
 513:Src/main.c    ****   }
 514:Src/main.c    ****   /* USER CODE BEGIN TIM1_Init 2 */
 515:Src/main.c    **** 
 516:Src/main.c    ****   /* USER CODE END TIM1_Init 2 */
 517:Src/main.c    ****   HAL_TIM_MspPostInit(&htim1);
 518:Src/main.c    **** 
 519:Src/main.c    **** }
 520:Src/main.c    **** 
 521:Src/main.c    **** /**
 522:Src/main.c    ****   * @brief TIM3 Initialization Function
 523:Src/main.c    ****   * @param None
 524:Src/main.c    ****   * @retval None
 525:Src/main.c    ****   */
 526:Src/main.c    **** static void MX_TIM3_Init(void)
 527:Src/main.c    **** {
 528:Src/main.c    **** 
 529:Src/main.c    ****   /* USER CODE BEGIN TIM3_Init 0 */
 530:Src/main.c    **** 
 531:Src/main.c    ****   /* USER CODE END TIM3_Init 0 */
ARM GAS  C:\Users\ep_ygh\AppData\Local\Temp\ccgAlmok.s 			page 11


 532:Src/main.c    **** 
 533:Src/main.c    ****   TIM_Encoder_InitTypeDef sConfig = {0};
 534:Src/main.c    ****   TIM_MasterConfigTypeDef sMasterConfig = {0};
 535:Src/main.c    **** 
 536:Src/main.c    ****   /* USER CODE BEGIN TIM3_Init 1 */
 537:Src/main.c    **** 
 538:Src/main.c    ****   /* USER CODE END TIM3_Init 1 */
 539:Src/main.c    ****   htim3.Instance = TIM3;
 540:Src/main.c    ****   htim3.Init.Prescaler = 0;
 541:Src/main.c    ****   htim3.Init.CounterMode = TIM_COUNTERMODE_UP;
 542:Src/main.c    ****   htim3.Init.Period = M1_PULSE_NBR;
 543:Src/main.c    ****   htim3.Init.ClockDivision = TIM_CLOCKDIVISION_DIV1;
 544:Src/main.c    ****   htim3.Init.AutoReloadPreload = TIM_AUTORELOAD_PRELOAD_DISABLE;
 545:Src/main.c    ****   sConfig.EncoderMode = TIM_ENCODERMODE_TI12;
 546:Src/main.c    ****   sConfig.IC1Polarity = TIM_ICPOLARITY_RISING;
 547:Src/main.c    ****   sConfig.IC1Selection = TIM_ICSELECTION_DIRECTTI;
 548:Src/main.c    ****   sConfig.IC1Prescaler = TIM_ICPSC_DIV1;
 549:Src/main.c    ****   sConfig.IC1Filter = M1_ENC_IC_FILTER;
 550:Src/main.c    ****   sConfig.IC2Polarity = TIM_ICPOLARITY_RISING;
 551:Src/main.c    ****   sConfig.IC2Selection = TIM_ICSELECTION_DIRECTTI;
 552:Src/main.c    ****   sConfig.IC2Prescaler = TIM_ICPSC_DIV1;
 553:Src/main.c    ****   sConfig.IC2Filter = M1_ENC_IC_FILTER;
 554:Src/main.c    ****   if (HAL_TIM_Encoder_Init(&htim3, &sConfig) != HAL_OK)
 555:Src/main.c    ****   {
 556:Src/main.c    ****     Error_Handler();
 557:Src/main.c    ****   }
 558:Src/main.c    ****   sMasterConfig.MasterOutputTrigger = TIM_TRGO_RESET;
 559:Src/main.c    ****   sMasterConfig.MasterSlaveMode = TIM_MASTERSLAVEMODE_DISABLE;
 560:Src/main.c    ****   if (HAL_TIMEx_MasterConfigSynchronization(&htim3, &sMasterConfig) != HAL_OK)
 561:Src/main.c    ****   {
 562:Src/main.c    ****     Error_Handler();
 563:Src/main.c    ****   }
 564:Src/main.c    ****   /* USER CODE BEGIN TIM3_Init 2 */
 565:Src/main.c    **** 
 566:Src/main.c    ****   /* USER CODE END TIM3_Init 2 */
 567:Src/main.c    **** 
 568:Src/main.c    **** }
 569:Src/main.c    **** 
 570:Src/main.c    **** /**
 571:Src/main.c    ****   * @brief USART2 Initialization Function
 572:Src/main.c    ****   * @param None
 573:Src/main.c    ****   * @retval None
 574:Src/main.c    ****   */
 575:Src/main.c    **** static void MX_USART2_UART_Init(void)
 576:Src/main.c    **** {
 577:Src/main.c    **** 
 578:Src/main.c    ****   /* USER CODE BEGIN USART2_Init 0 */
 579:Src/main.c    **** 
 580:Src/main.c    ****   /* USER CODE END USART2_Init 0 */
 581:Src/main.c    **** 
 582:Src/main.c    ****   /* USER CODE BEGIN USART2_Init 1 */
 583:Src/main.c    **** 
 584:Src/main.c    ****   /* USER CODE END USART2_Init 1 */
 585:Src/main.c    ****   huart2.Instance = USART2;
 586:Src/main.c    ****   huart2.Init.BaudRate = 1843200;
 587:Src/main.c    ****   huart2.Init.WordLength = UART_WORDLENGTH_8B;
 588:Src/main.c    ****   huart2.Init.StopBits = UART_STOPBITS_1;
ARM GAS  C:\Users\ep_ygh\AppData\Local\Temp\ccgAlmok.s 			page 12


 589:Src/main.c    ****   huart2.Init.Parity = UART_PARITY_NONE;
 590:Src/main.c    ****   huart2.Init.Mode = UART_MODE_TX_RX;
 591:Src/main.c    ****   huart2.Init.HwFlowCtl = UART_HWCONTROL_NONE;
 592:Src/main.c    ****   huart2.Init.OverSampling = UART_OVERSAMPLING_16;
 593:Src/main.c    ****   huart2.Init.OneBitSampling = UART_ONE_BIT_SAMPLE_DISABLE;
 594:Src/main.c    ****   huart2.AdvancedInit.AdvFeatureInit = UART_ADVFEATURE_NO_INIT;
 595:Src/main.c    ****   if (HAL_UART_Init(&huart2) != HAL_OK)
 596:Src/main.c    ****   {
 597:Src/main.c    ****     Error_Handler();
 598:Src/main.c    ****   }
 599:Src/main.c    ****   /* USER CODE BEGIN USART2_Init 2 */
 600:Src/main.c    **** 
 601:Src/main.c    ****   /* USER CODE END USART2_Init 2 */
 602:Src/main.c    **** 
 603:Src/main.c    **** }
 604:Src/main.c    **** 
 605:Src/main.c    **** /**
 606:Src/main.c    ****   * Enable DMA controller clock
 607:Src/main.c    ****   */
 608:Src/main.c    **** static void MX_DMA_Init(void)
 609:Src/main.c    **** {
 610:Src/main.c    **** 
 611:Src/main.c    ****   /* DMA controller clock enable */
 612:Src/main.c    ****   __HAL_RCC_DMA1_CLK_ENABLE();
 613:Src/main.c    **** 
 614:Src/main.c    **** }
 615:Src/main.c    **** 
 616:Src/main.c    **** /**
 617:Src/main.c    ****   * @brief GPIO Initialization Function
 618:Src/main.c    ****   * @param None
 619:Src/main.c    ****   * @retval None
 620:Src/main.c    ****   */
 621:Src/main.c    **** static void MX_GPIO_Init(void)
 622:Src/main.c    **** {
 623:Src/main.c    ****   GPIO_InitTypeDef GPIO_InitStruct = {0};
 624:Src/main.c    **** /* USER CODE BEGIN MX_GPIO_Init_1 */
 625:Src/main.c    **** /* USER CODE END MX_GPIO_Init_1 */
 626:Src/main.c    **** 
 627:Src/main.c    ****   /* GPIO Ports Clock Enable */
 628:Src/main.c    ****   __HAL_RCC_GPIOC_CLK_ENABLE();
 629:Src/main.c    ****   __HAL_RCC_GPIOA_CLK_ENABLE();
 630:Src/main.c    ****   __HAL_RCC_GPIOB_CLK_ENABLE();
 631:Src/main.c    **** 
 632:Src/main.c    ****   /*Configure GPIO pin Output Level */
 633:Src/main.c    ****   HAL_GPIO_WritePin(GPIOB, M1_PWM_EN_U_Pin|M1_PWM_EN_V_Pin|M1_PWM_EN_W_Pin, GPIO_PIN_RESET);
 634:Src/main.c    **** 
 635:Src/main.c    ****   /*Configure GPIO pin : Start_Stop_Pin */
 636:Src/main.c    ****   GPIO_InitStruct.Pin = Start_Stop_Pin;
 637:Src/main.c    ****   GPIO_InitStruct.Mode = GPIO_MODE_IT_FALLING;
 638:Src/main.c    ****   GPIO_InitStruct.Pull = GPIO_NOPULL;
 639:Src/main.c    ****   HAL_GPIO_Init(Start_Stop_GPIO_Port, &GPIO_InitStruct);
 640:Src/main.c    **** 
 641:Src/main.c    ****   /*Configure GPIO pins : M1_PWM_EN_U_Pin M1_PWM_EN_V_Pin M1_PWM_EN_W_Pin */
 642:Src/main.c    ****   GPIO_InitStruct.Pin = M1_PWM_EN_U_Pin|M1_PWM_EN_V_Pin|M1_PWM_EN_W_Pin;
 643:Src/main.c    ****   GPIO_InitStruct.Mode = GPIO_MODE_OUTPUT_PP;
 644:Src/main.c    ****   GPIO_InitStruct.Pull = GPIO_PULLDOWN;
 645:Src/main.c    ****   GPIO_InitStruct.Speed = GPIO_SPEED_FREQ_HIGH;
ARM GAS  C:\Users\ep_ygh\AppData\Local\Temp\ccgAlmok.s 			page 13


 646:Src/main.c    ****   HAL_GPIO_Init(GPIOB, &GPIO_InitStruct);
 647:Src/main.c    **** 
 648:Src/main.c    **** /* USER CODE BEGIN MX_GPIO_Init_2 */
 649:Src/main.c    **** /* USER CODE END MX_GPIO_Init_2 */
 650:Src/main.c    **** }
 651:Src/main.c    **** 
 652:Src/main.c    **** /* USER CODE BEGIN 4 */
 653:Src/main.c    **** 
 654:Src/main.c    **** /* USER CODE END 4 */
 655:Src/main.c    **** 
 656:Src/main.c    **** /* USER CODE BEGIN Header_startMediumFrequencyTask */
 657:Src/main.c    **** /**
 658:Src/main.c    ****   * @brief  Function implementing the mediumFrequency thread.
 659:Src/main.c    ****   * @param  argument: Not used
 660:Src/main.c    ****   * @retval None
 661:Src/main.c    ****   */
 662:Src/main.c    **** /* USER CODE END Header_startMediumFrequencyTask */
 663:Src/main.c    **** __weak void startMediumFrequencyTask(void const * argument)
 664:Src/main.c    **** {
  37              		.loc 1 664 1 view -0
  38              		.cfi_startproc
  39              		@ args = 0, pretend = 0, frame = 0
  40              		@ frame_needed = 0, uses_anonymous_args = 0
  41              	.LVL0:
  42              		.loc 1 664 1 is_stmt 0 view .LVU1
  43 0000 08B5     		push	{r3, lr}
  44              	.LCFI0:
  45              		.cfi_def_cfa_offset 8
  46              		.cfi_offset 3, -8
  47              		.cfi_offset 14, -4
  48              	.LVL1:
  49              	.L2:
 665:Src/main.c    ****   /* USER CODE BEGIN 5 */
 666:Src/main.c    ****   /* Infinite loop */
 667:Src/main.c    ****   for(;;)
  50              		.loc 1 667 3 is_stmt 1 discriminator 1 view .LVU2
 668:Src/main.c    ****   {
 669:Src/main.c    ****     osDelay(1);
  51              		.loc 1 669 5 discriminator 1 view .LVU3
  52 0002 0120     		movs	r0, #1
  53 0004 FFF7FEFF 		bl	osDelay
  54              	.LVL2:
 667:Src/main.c    ****   {
  55              		.loc 1 667 8 discriminator 1 view .LVU4
  56 0008 FBE7     		b	.L2
  57              		.cfi_endproc
  58              	.LFE1105:
  60 000a 00BF     		.section	.text.SystemClock_Config,"ax",%progbits
  61              		.align	1
  62              		.p2align 2,,3
  63              		.global	SystemClock_Config
  64              		.syntax unified
  65              		.thumb
  66              		.thumb_func
  68              	SystemClock_Config:
  69              	.LFB1096:
 176:Src/main.c    ****   RCC_OscInitTypeDef RCC_OscInitStruct = {0};
ARM GAS  C:\Users\ep_ygh\AppData\Local\Temp\ccgAlmok.s 			page 14


  70              		.loc 1 176 1 view -0
  71              		.cfi_startproc
  72              		@ args = 0, pretend = 0, frame = 96
  73              		@ frame_needed = 0, uses_anonymous_args = 0
 177:Src/main.c    ****   RCC_ClkInitTypeDef RCC_ClkInitStruct = {0};
  74              		.loc 1 177 3 view .LVU6
 176:Src/main.c    ****   RCC_OscInitTypeDef RCC_OscInitStruct = {0};
  75              		.loc 1 176 1 is_stmt 0 view .LVU7
  76 0000 00B5     		push	{lr}
  77              	.LCFI1:
  78              		.cfi_def_cfa_offset 4
  79              		.cfi_offset 14, -4
  80 0002 99B0     		sub	sp, sp, #100
  81              	.LCFI2:
  82              		.cfi_def_cfa_offset 104
 177:Src/main.c    ****   RCC_ClkInitTypeDef RCC_ClkInitStruct = {0};
  83              		.loc 1 177 22 view .LVU8
  84 0004 4422     		movs	r2, #68
  85 0006 0021     		movs	r1, #0
  86 0008 06A8     		add	r0, sp, #24
  87 000a FFF7FEFF 		bl	memset
  88              	.LVL3:
 178:Src/main.c    **** 
  89              		.loc 1 178 3 is_stmt 1 view .LVU9
 178:Src/main.c    **** 
  90              		.loc 1 178 22 is_stmt 0 view .LVU10
  91 000e 0023     		movs	r3, #0
 182:Src/main.c    ****   {
  92              		.loc 1 182 7 view .LVU11
  93 0010 4FF40070 		mov	r0, #512
 178:Src/main.c    **** 
  94              		.loc 1 178 22 view .LVU12
  95 0014 CDE90033 		strd	r3, r3, [sp]
  96 0018 CDE90233 		strd	r3, r3, [sp, #8]
  97 001c 0493     		str	r3, [sp, #16]
 182:Src/main.c    ****   {
  98              		.loc 1 182 3 is_stmt 1 view .LVU13
 182:Src/main.c    ****   {
  99              		.loc 1 182 7 is_stmt 0 view .LVU14
 100 001e FFF7FEFF 		bl	HAL_PWREx_ControlVoltageScaling
 101              	.LVL4:
 182:Src/main.c    ****   {
 102              		.loc 1 182 6 view .LVU15
 103 0022 08B1     		cbz	r0, .L6
 184:Src/main.c    ****   }
 104              		.loc 1 184 5 is_stmt 1 view .LVU16
 105              	.LBB111:
 106              	.LBI111:
 670:Src/main.c    ****   }
 671:Src/main.c    ****   /* USER CODE END 5 */
 672:Src/main.c    **** }
 673:Src/main.c    **** 
 674:Src/main.c    **** /**
 675:Src/main.c    ****   * @brief  Period elapsed callback in non blocking mode
 676:Src/main.c    ****   * @note   This function is called  when TIM6 interrupt took place, inside
 677:Src/main.c    ****   * HAL_TIM_IRQHandler(). It makes a direct call to HAL_IncTick() to increment
 678:Src/main.c    ****   * a global variable "uwTick" used as application time base.
ARM GAS  C:\Users\ep_ygh\AppData\Local\Temp\ccgAlmok.s 			page 15


 679:Src/main.c    ****   * @param  htim : TIM handle
 680:Src/main.c    ****   * @retval None
 681:Src/main.c    ****   */
 682:Src/main.c    **** void HAL_TIM_PeriodElapsedCallback(TIM_HandleTypeDef *htim)
 683:Src/main.c    **** {
 684:Src/main.c    ****   /* USER CODE BEGIN Callback 0 */
 685:Src/main.c    **** 
 686:Src/main.c    ****   /* USER CODE END Callback 0 */
 687:Src/main.c    ****   if (htim->Instance == TIM6) {
 688:Src/main.c    ****     HAL_IncTick();
 689:Src/main.c    ****   }
 690:Src/main.c    ****   /* USER CODE BEGIN Callback 1 */
 691:Src/main.c    **** 
 692:Src/main.c    ****   /* USER CODE END Callback 1 */
 693:Src/main.c    **** }
 694:Src/main.c    **** 
 695:Src/main.c    **** /**
 696:Src/main.c    ****   * @brief  This function is executed in case of error occurrence.
 697:Src/main.c    ****   * @retval None
 698:Src/main.c    ****   */
 699:Src/main.c    **** void Error_Handler(void)
 107              		.loc 1 699 6 view .LVU17
 108              	.LBE111:
 700:Src/main.c    **** {
 701:Src/main.c    ****   /* USER CODE BEGIN Error_Handler_Debug */
 702:Src/main.c    ****   /* User can add his own implementation to report the HAL error return state */
 703:Src/main.c    ****   __disable_irq();
 109              		.loc 1 703 3 view .LVU18
 110              	.LBB114:
 111              	.LBB112:
 112              	.LBI112:
 113              		.file 2 "Drivers/CMSIS/Include/cmsis_gcc.h"
   1:Drivers/CMSIS/Include/cmsis_gcc.h **** /**************************************************************************//**
   2:Drivers/CMSIS/Include/cmsis_gcc.h ****  * @file     cmsis_gcc.h
   3:Drivers/CMSIS/Include/cmsis_gcc.h ****  * @brief    CMSIS compiler GCC header file
   4:Drivers/CMSIS/Include/cmsis_gcc.h ****  * @version  V5.2.0
   5:Drivers/CMSIS/Include/cmsis_gcc.h ****  * @date     08. May 2019
   6:Drivers/CMSIS/Include/cmsis_gcc.h ****  ******************************************************************************/
   7:Drivers/CMSIS/Include/cmsis_gcc.h **** /*
   8:Drivers/CMSIS/Include/cmsis_gcc.h ****  * Copyright (c) 2009-2019 Arm Limited. All rights reserved.
   9:Drivers/CMSIS/Include/cmsis_gcc.h ****  *
  10:Drivers/CMSIS/Include/cmsis_gcc.h ****  * SPDX-License-Identifier: Apache-2.0
  11:Drivers/CMSIS/Include/cmsis_gcc.h ****  *
  12:Drivers/CMSIS/Include/cmsis_gcc.h ****  * Licensed under the Apache License, Version 2.0 (the License); you may
  13:Drivers/CMSIS/Include/cmsis_gcc.h ****  * not use this file except in compliance with the License.
  14:Drivers/CMSIS/Include/cmsis_gcc.h ****  * You may obtain a copy of the License at
  15:Drivers/CMSIS/Include/cmsis_gcc.h ****  *
  16:Drivers/CMSIS/Include/cmsis_gcc.h ****  * www.apache.org/licenses/LICENSE-2.0
  17:Drivers/CMSIS/Include/cmsis_gcc.h ****  *
  18:Drivers/CMSIS/Include/cmsis_gcc.h ****  * Unless required by applicable law or agreed to in writing, software
  19:Drivers/CMSIS/Include/cmsis_gcc.h ****  * distributed under the License is distributed on an AS IS BASIS, WITHOUT
  20:Drivers/CMSIS/Include/cmsis_gcc.h ****  * WARRANTIES OR CONDITIONS OF ANY KIND, either express or implied.
  21:Drivers/CMSIS/Include/cmsis_gcc.h ****  * See the License for the specific language governing permissions and
  22:Drivers/CMSIS/Include/cmsis_gcc.h ****  * limitations under the License.
  23:Drivers/CMSIS/Include/cmsis_gcc.h ****  */
  24:Drivers/CMSIS/Include/cmsis_gcc.h **** 
  25:Drivers/CMSIS/Include/cmsis_gcc.h **** #ifndef __CMSIS_GCC_H
ARM GAS  C:\Users\ep_ygh\AppData\Local\Temp\ccgAlmok.s 			page 16


  26:Drivers/CMSIS/Include/cmsis_gcc.h **** #define __CMSIS_GCC_H
  27:Drivers/CMSIS/Include/cmsis_gcc.h **** 
  28:Drivers/CMSIS/Include/cmsis_gcc.h **** /* ignore some GCC warnings */
  29:Drivers/CMSIS/Include/cmsis_gcc.h **** #pragma GCC diagnostic push
  30:Drivers/CMSIS/Include/cmsis_gcc.h **** #pragma GCC diagnostic ignored "-Wsign-conversion"
  31:Drivers/CMSIS/Include/cmsis_gcc.h **** #pragma GCC diagnostic ignored "-Wconversion"
  32:Drivers/CMSIS/Include/cmsis_gcc.h **** #pragma GCC diagnostic ignored "-Wunused-parameter"
  33:Drivers/CMSIS/Include/cmsis_gcc.h **** 
  34:Drivers/CMSIS/Include/cmsis_gcc.h **** /* Fallback for __has_builtin */
  35:Drivers/CMSIS/Include/cmsis_gcc.h **** #ifndef __has_builtin
  36:Drivers/CMSIS/Include/cmsis_gcc.h ****   #define __has_builtin(x) (0)
  37:Drivers/CMSIS/Include/cmsis_gcc.h **** #endif
  38:Drivers/CMSIS/Include/cmsis_gcc.h **** 
  39:Drivers/CMSIS/Include/cmsis_gcc.h **** /* CMSIS compiler specific defines */
  40:Drivers/CMSIS/Include/cmsis_gcc.h **** #ifndef   __ASM
  41:Drivers/CMSIS/Include/cmsis_gcc.h ****   #define __ASM                                  __asm
  42:Drivers/CMSIS/Include/cmsis_gcc.h **** #endif
  43:Drivers/CMSIS/Include/cmsis_gcc.h **** #ifndef   __INLINE
  44:Drivers/CMSIS/Include/cmsis_gcc.h ****   #define __INLINE                               inline
  45:Drivers/CMSIS/Include/cmsis_gcc.h **** #endif
  46:Drivers/CMSIS/Include/cmsis_gcc.h **** #ifndef   __STATIC_INLINE
  47:Drivers/CMSIS/Include/cmsis_gcc.h ****   #define __STATIC_INLINE                        static inline
  48:Drivers/CMSIS/Include/cmsis_gcc.h **** #endif
  49:Drivers/CMSIS/Include/cmsis_gcc.h **** #ifndef   __STATIC_FORCEINLINE                 
  50:Drivers/CMSIS/Include/cmsis_gcc.h ****   #define __STATIC_FORCEINLINE                   __attribute__((always_inline)) static inline
  51:Drivers/CMSIS/Include/cmsis_gcc.h **** #endif                                           
  52:Drivers/CMSIS/Include/cmsis_gcc.h **** #ifndef   __NO_RETURN
  53:Drivers/CMSIS/Include/cmsis_gcc.h ****   #define __NO_RETURN                            __attribute__((__noreturn__))
  54:Drivers/CMSIS/Include/cmsis_gcc.h **** #endif
  55:Drivers/CMSIS/Include/cmsis_gcc.h **** #ifndef   __USED
  56:Drivers/CMSIS/Include/cmsis_gcc.h ****   #define __USED                                 __attribute__((used))
  57:Drivers/CMSIS/Include/cmsis_gcc.h **** #endif
  58:Drivers/CMSIS/Include/cmsis_gcc.h **** #ifndef   __WEAK
  59:Drivers/CMSIS/Include/cmsis_gcc.h ****   #define __WEAK                                 __attribute__((weak))
  60:Drivers/CMSIS/Include/cmsis_gcc.h **** #endif
  61:Drivers/CMSIS/Include/cmsis_gcc.h **** #ifndef   __PACKED
  62:Drivers/CMSIS/Include/cmsis_gcc.h ****   #define __PACKED                               __attribute__((packed, aligned(1)))
  63:Drivers/CMSIS/Include/cmsis_gcc.h **** #endif
  64:Drivers/CMSIS/Include/cmsis_gcc.h **** #ifndef   __PACKED_STRUCT
  65:Drivers/CMSIS/Include/cmsis_gcc.h ****   #define __PACKED_STRUCT                        struct __attribute__((packed, aligned(1)))
  66:Drivers/CMSIS/Include/cmsis_gcc.h **** #endif
  67:Drivers/CMSIS/Include/cmsis_gcc.h **** #ifndef   __PACKED_UNION
  68:Drivers/CMSIS/Include/cmsis_gcc.h ****   #define __PACKED_UNION                         union __attribute__((packed, aligned(1)))
  69:Drivers/CMSIS/Include/cmsis_gcc.h **** #endif
  70:Drivers/CMSIS/Include/cmsis_gcc.h **** #ifndef   __UNALIGNED_UINT32        /* deprecated */
  71:Drivers/CMSIS/Include/cmsis_gcc.h ****   #pragma GCC diagnostic push
  72:Drivers/CMSIS/Include/cmsis_gcc.h ****   #pragma GCC diagnostic ignored "-Wpacked"
  73:Drivers/CMSIS/Include/cmsis_gcc.h ****   #pragma GCC diagnostic ignored "-Wattributes"
  74:Drivers/CMSIS/Include/cmsis_gcc.h ****   struct __attribute__((packed)) T_UINT32 { uint32_t v; };
  75:Drivers/CMSIS/Include/cmsis_gcc.h ****   #pragma GCC diagnostic pop
  76:Drivers/CMSIS/Include/cmsis_gcc.h ****   #define __UNALIGNED_UINT32(x)                  (((struct T_UINT32 *)(x))->v)
  77:Drivers/CMSIS/Include/cmsis_gcc.h **** #endif
  78:Drivers/CMSIS/Include/cmsis_gcc.h **** #ifndef   __UNALIGNED_UINT16_WRITE
  79:Drivers/CMSIS/Include/cmsis_gcc.h ****   #pragma GCC diagnostic push
  80:Drivers/CMSIS/Include/cmsis_gcc.h ****   #pragma GCC diagnostic ignored "-Wpacked"
  81:Drivers/CMSIS/Include/cmsis_gcc.h ****   #pragma GCC diagnostic ignored "-Wattributes"
  82:Drivers/CMSIS/Include/cmsis_gcc.h ****   __PACKED_STRUCT T_UINT16_WRITE { uint16_t v; };
ARM GAS  C:\Users\ep_ygh\AppData\Local\Temp\ccgAlmok.s 			page 17


  83:Drivers/CMSIS/Include/cmsis_gcc.h ****   #pragma GCC diagnostic pop
  84:Drivers/CMSIS/Include/cmsis_gcc.h ****   #define __UNALIGNED_UINT16_WRITE(addr, val)    (void)((((struct T_UINT16_WRITE *)(void *)(addr))-
  85:Drivers/CMSIS/Include/cmsis_gcc.h **** #endif
  86:Drivers/CMSIS/Include/cmsis_gcc.h **** #ifndef   __UNALIGNED_UINT16_READ
  87:Drivers/CMSIS/Include/cmsis_gcc.h ****   #pragma GCC diagnostic push
  88:Drivers/CMSIS/Include/cmsis_gcc.h ****   #pragma GCC diagnostic ignored "-Wpacked"
  89:Drivers/CMSIS/Include/cmsis_gcc.h ****   #pragma GCC diagnostic ignored "-Wattributes"
  90:Drivers/CMSIS/Include/cmsis_gcc.h ****   __PACKED_STRUCT T_UINT16_READ { uint16_t v; };
  91:Drivers/CMSIS/Include/cmsis_gcc.h ****   #pragma GCC diagnostic pop
  92:Drivers/CMSIS/Include/cmsis_gcc.h ****   #define __UNALIGNED_UINT16_READ(addr)          (((const struct T_UINT16_READ *)(const void *)(add
  93:Drivers/CMSIS/Include/cmsis_gcc.h **** #endif
  94:Drivers/CMSIS/Include/cmsis_gcc.h **** #ifndef   __UNALIGNED_UINT32_WRITE
  95:Drivers/CMSIS/Include/cmsis_gcc.h ****   #pragma GCC diagnostic push
  96:Drivers/CMSIS/Include/cmsis_gcc.h ****   #pragma GCC diagnostic ignored "-Wpacked"
  97:Drivers/CMSIS/Include/cmsis_gcc.h ****   #pragma GCC diagnostic ignored "-Wattributes"
  98:Drivers/CMSIS/Include/cmsis_gcc.h ****   __PACKED_STRUCT T_UINT32_WRITE { uint32_t v; };
  99:Drivers/CMSIS/Include/cmsis_gcc.h ****   #pragma GCC diagnostic pop
 100:Drivers/CMSIS/Include/cmsis_gcc.h ****   #define __UNALIGNED_UINT32_WRITE(addr, val)    (void)((((struct T_UINT32_WRITE *)(void *)(addr))-
 101:Drivers/CMSIS/Include/cmsis_gcc.h **** #endif
 102:Drivers/CMSIS/Include/cmsis_gcc.h **** #ifndef   __UNALIGNED_UINT32_READ
 103:Drivers/CMSIS/Include/cmsis_gcc.h ****   #pragma GCC diagnostic push
 104:Drivers/CMSIS/Include/cmsis_gcc.h ****   #pragma GCC diagnostic ignored "-Wpacked"
 105:Drivers/CMSIS/Include/cmsis_gcc.h ****   #pragma GCC diagnostic ignored "-Wattributes"
 106:Drivers/CMSIS/Include/cmsis_gcc.h ****   __PACKED_STRUCT T_UINT32_READ { uint32_t v; };
 107:Drivers/CMSIS/Include/cmsis_gcc.h ****   #pragma GCC diagnostic pop
 108:Drivers/CMSIS/Include/cmsis_gcc.h ****   #define __UNALIGNED_UINT32_READ(addr)          (((const struct T_UINT32_READ *)(const void *)(add
 109:Drivers/CMSIS/Include/cmsis_gcc.h **** #endif
 110:Drivers/CMSIS/Include/cmsis_gcc.h **** #ifndef   __ALIGNED
 111:Drivers/CMSIS/Include/cmsis_gcc.h ****   #define __ALIGNED(x)                           __attribute__((aligned(x)))
 112:Drivers/CMSIS/Include/cmsis_gcc.h **** #endif
 113:Drivers/CMSIS/Include/cmsis_gcc.h **** #ifndef   __RESTRICT
 114:Drivers/CMSIS/Include/cmsis_gcc.h ****   #define __RESTRICT                             __restrict
 115:Drivers/CMSIS/Include/cmsis_gcc.h **** #endif
 116:Drivers/CMSIS/Include/cmsis_gcc.h **** #ifndef   __COMPILER_BARRIER
 117:Drivers/CMSIS/Include/cmsis_gcc.h ****   #define __COMPILER_BARRIER()                   __ASM volatile("":::"memory")
 118:Drivers/CMSIS/Include/cmsis_gcc.h **** #endif
 119:Drivers/CMSIS/Include/cmsis_gcc.h **** 
 120:Drivers/CMSIS/Include/cmsis_gcc.h **** /* #########################  Startup and Lowlevel Init  ######################## */
 121:Drivers/CMSIS/Include/cmsis_gcc.h **** 
 122:Drivers/CMSIS/Include/cmsis_gcc.h **** #ifndef __PROGRAM_START
 123:Drivers/CMSIS/Include/cmsis_gcc.h **** 
 124:Drivers/CMSIS/Include/cmsis_gcc.h **** /**
 125:Drivers/CMSIS/Include/cmsis_gcc.h ****   \brief   Initializes data and bss sections
 126:Drivers/CMSIS/Include/cmsis_gcc.h ****   \details This default implementations initialized all data and additional bss
 127:Drivers/CMSIS/Include/cmsis_gcc.h ****            sections relying on .copy.table and .zero.table specified properly
 128:Drivers/CMSIS/Include/cmsis_gcc.h ****            in the used linker script.
 129:Drivers/CMSIS/Include/cmsis_gcc.h ****   
 130:Drivers/CMSIS/Include/cmsis_gcc.h ****  */
 131:Drivers/CMSIS/Include/cmsis_gcc.h **** __STATIC_FORCEINLINE __NO_RETURN void __cmsis_start(void)
 132:Drivers/CMSIS/Include/cmsis_gcc.h **** {
 133:Drivers/CMSIS/Include/cmsis_gcc.h ****   extern void _start(void) __NO_RETURN;
 134:Drivers/CMSIS/Include/cmsis_gcc.h ****   
 135:Drivers/CMSIS/Include/cmsis_gcc.h ****   typedef struct {
 136:Drivers/CMSIS/Include/cmsis_gcc.h ****     uint32_t const* src;
 137:Drivers/CMSIS/Include/cmsis_gcc.h ****     uint32_t* dest;
 138:Drivers/CMSIS/Include/cmsis_gcc.h ****     uint32_t  wlen;
 139:Drivers/CMSIS/Include/cmsis_gcc.h ****   } __copy_table_t;
ARM GAS  C:\Users\ep_ygh\AppData\Local\Temp\ccgAlmok.s 			page 18


 140:Drivers/CMSIS/Include/cmsis_gcc.h ****   
 141:Drivers/CMSIS/Include/cmsis_gcc.h ****   typedef struct {
 142:Drivers/CMSIS/Include/cmsis_gcc.h ****     uint32_t* dest;
 143:Drivers/CMSIS/Include/cmsis_gcc.h ****     uint32_t  wlen;
 144:Drivers/CMSIS/Include/cmsis_gcc.h ****   } __zero_table_t;
 145:Drivers/CMSIS/Include/cmsis_gcc.h ****   
 146:Drivers/CMSIS/Include/cmsis_gcc.h ****   extern const __copy_table_t __copy_table_start__;
 147:Drivers/CMSIS/Include/cmsis_gcc.h ****   extern const __copy_table_t __copy_table_end__;
 148:Drivers/CMSIS/Include/cmsis_gcc.h ****   extern const __zero_table_t __zero_table_start__;
 149:Drivers/CMSIS/Include/cmsis_gcc.h ****   extern const __zero_table_t __zero_table_end__;
 150:Drivers/CMSIS/Include/cmsis_gcc.h **** 
 151:Drivers/CMSIS/Include/cmsis_gcc.h ****   for (__copy_table_t const* pTable = &__copy_table_start__; pTable < &__copy_table_end__; ++pTable
 152:Drivers/CMSIS/Include/cmsis_gcc.h ****     for(uint32_t i=0u; i<pTable->wlen; ++i) {
 153:Drivers/CMSIS/Include/cmsis_gcc.h ****       pTable->dest[i] = pTable->src[i];
 154:Drivers/CMSIS/Include/cmsis_gcc.h ****     }
 155:Drivers/CMSIS/Include/cmsis_gcc.h ****   }
 156:Drivers/CMSIS/Include/cmsis_gcc.h ****  
 157:Drivers/CMSIS/Include/cmsis_gcc.h ****   for (__zero_table_t const* pTable = &__zero_table_start__; pTable < &__zero_table_end__; ++pTable
 158:Drivers/CMSIS/Include/cmsis_gcc.h ****     for(uint32_t i=0u; i<pTable->wlen; ++i) {
 159:Drivers/CMSIS/Include/cmsis_gcc.h ****       pTable->dest[i] = 0u;
 160:Drivers/CMSIS/Include/cmsis_gcc.h ****     }
 161:Drivers/CMSIS/Include/cmsis_gcc.h ****   }
 162:Drivers/CMSIS/Include/cmsis_gcc.h ****  
 163:Drivers/CMSIS/Include/cmsis_gcc.h ****   _start();
 164:Drivers/CMSIS/Include/cmsis_gcc.h **** }
 165:Drivers/CMSIS/Include/cmsis_gcc.h ****   
 166:Drivers/CMSIS/Include/cmsis_gcc.h **** #define __PROGRAM_START           __cmsis_start
 167:Drivers/CMSIS/Include/cmsis_gcc.h **** #endif
 168:Drivers/CMSIS/Include/cmsis_gcc.h **** 
 169:Drivers/CMSIS/Include/cmsis_gcc.h **** #ifndef __INITIAL_SP
 170:Drivers/CMSIS/Include/cmsis_gcc.h **** #define __INITIAL_SP              __StackTop
 171:Drivers/CMSIS/Include/cmsis_gcc.h **** #endif
 172:Drivers/CMSIS/Include/cmsis_gcc.h **** 
 173:Drivers/CMSIS/Include/cmsis_gcc.h **** #ifndef __STACK_LIMIT
 174:Drivers/CMSIS/Include/cmsis_gcc.h **** #define __STACK_LIMIT             __StackLimit
 175:Drivers/CMSIS/Include/cmsis_gcc.h **** #endif
 176:Drivers/CMSIS/Include/cmsis_gcc.h **** 
 177:Drivers/CMSIS/Include/cmsis_gcc.h **** #ifndef __VECTOR_TABLE
 178:Drivers/CMSIS/Include/cmsis_gcc.h **** #define __VECTOR_TABLE            __Vectors
 179:Drivers/CMSIS/Include/cmsis_gcc.h **** #endif
 180:Drivers/CMSIS/Include/cmsis_gcc.h **** 
 181:Drivers/CMSIS/Include/cmsis_gcc.h **** #ifndef __VECTOR_TABLE_ATTRIBUTE
 182:Drivers/CMSIS/Include/cmsis_gcc.h **** #define __VECTOR_TABLE_ATTRIBUTE  __attribute((used, section(".vectors")))
 183:Drivers/CMSIS/Include/cmsis_gcc.h **** #endif
 184:Drivers/CMSIS/Include/cmsis_gcc.h **** 
 185:Drivers/CMSIS/Include/cmsis_gcc.h **** /* ###########################  Core Function Access  ########################### */
 186:Drivers/CMSIS/Include/cmsis_gcc.h **** /** \ingroup  CMSIS_Core_FunctionInterface
 187:Drivers/CMSIS/Include/cmsis_gcc.h ****     \defgroup CMSIS_Core_RegAccFunctions CMSIS Core Register Access Functions
 188:Drivers/CMSIS/Include/cmsis_gcc.h ****   @{
 189:Drivers/CMSIS/Include/cmsis_gcc.h ****  */
 190:Drivers/CMSIS/Include/cmsis_gcc.h **** 
 191:Drivers/CMSIS/Include/cmsis_gcc.h **** /**
 192:Drivers/CMSIS/Include/cmsis_gcc.h ****   \brief   Enable IRQ Interrupts
 193:Drivers/CMSIS/Include/cmsis_gcc.h ****   \details Enables IRQ interrupts by clearing the I-bit in the CPSR.
 194:Drivers/CMSIS/Include/cmsis_gcc.h ****            Can only be executed in Privileged modes.
 195:Drivers/CMSIS/Include/cmsis_gcc.h ****  */
 196:Drivers/CMSIS/Include/cmsis_gcc.h **** __STATIC_FORCEINLINE void __enable_irq(void)
ARM GAS  C:\Users\ep_ygh\AppData\Local\Temp\ccgAlmok.s 			page 19


 197:Drivers/CMSIS/Include/cmsis_gcc.h **** {
 198:Drivers/CMSIS/Include/cmsis_gcc.h ****   __ASM volatile ("cpsie i" : : : "memory");
 199:Drivers/CMSIS/Include/cmsis_gcc.h **** }
 200:Drivers/CMSIS/Include/cmsis_gcc.h **** 
 201:Drivers/CMSIS/Include/cmsis_gcc.h **** 
 202:Drivers/CMSIS/Include/cmsis_gcc.h **** /**
 203:Drivers/CMSIS/Include/cmsis_gcc.h ****   \brief   Disable IRQ Interrupts
 204:Drivers/CMSIS/Include/cmsis_gcc.h ****   \details Disables IRQ interrupts by setting the I-bit in the CPSR.
 205:Drivers/CMSIS/Include/cmsis_gcc.h ****            Can only be executed in Privileged modes.
 206:Drivers/CMSIS/Include/cmsis_gcc.h ****  */
 207:Drivers/CMSIS/Include/cmsis_gcc.h **** __STATIC_FORCEINLINE void __disable_irq(void)
 114              		.loc 2 207 27 view .LVU19
 115              	.LBB113:
 208:Drivers/CMSIS/Include/cmsis_gcc.h **** {
 209:Drivers/CMSIS/Include/cmsis_gcc.h ****   __ASM volatile ("cpsid i" : : : "memory");
 116              		.loc 2 209 3 view .LVU20
 117              		.syntax unified
 118              	@ 209 "Drivers/CMSIS/Include/cmsis_gcc.h" 1
 119 0024 72B6     		cpsid i
 120              	@ 0 "" 2
 121              		.thumb
 122              		.syntax unified
 123              	.L7:
 124              	.LBE113:
 125              	.LBE112:
 126              	.LBE114:
 704:Src/main.c    ****   while (1)
 127              		.loc 1 704 3 view .LVU21
 705:Src/main.c    ****   {
 706:Src/main.c    ****   }
 128              		.loc 1 706 3 view .LVU22
 704:Src/main.c    ****   while (1)
 129              		.loc 1 704 9 view .LVU23
 704:Src/main.c    ****   while (1)
 130              		.loc 1 704 3 view .LVU24
 131              		.loc 1 706 3 view .LVU25
 704:Src/main.c    ****   while (1)
 132              		.loc 1 704 9 view .LVU26
 133 0026 FEE7     		b	.L7
 134              	.L6:
 190:Src/main.c    ****   RCC_OscInitStruct.HSIState = RCC_HSI_ON;
 135              		.loc 1 190 3 view .LVU27
 193:Src/main.c    ****   RCC_OscInitStruct.PLL.PLLSource = RCC_PLLSOURCE_HSI;
 136              		.loc 1 193 34 is_stmt 0 view .LVU28
 137 0028 9FED177B 		vldr.64	d7, .L13	@ int
 138 002c 8DED107B 		vstr.64	d7, [sp, #64]	@ int
 139 0030 9FED177B 		vldr.64	d7, .L13+8	@ int
 140 0034 8DED127B 		vstr.64	d7, [sp, #72]	@ int
 141 0038 9FED177B 		vldr.64	d7, .L13+16	@ int
 190:Src/main.c    ****   RCC_OscInitStruct.HSIState = RCC_HSI_ON;
 142              		.loc 1 190 36 view .LVU29
 143 003c 0223     		movs	r3, #2
 191:Src/main.c    ****   RCC_OscInitStruct.HSICalibrationValue = RCC_HSICALIBRATION_DEFAULT;
 144              		.loc 1 191 30 view .LVU30
 145 003e 4FF48071 		mov	r1, #256
 192:Src/main.c    ****   RCC_OscInitStruct.PLL.PLLState = RCC_PLL_ON;
 146              		.loc 1 192 41 view .LVU31
ARM GAS  C:\Users\ep_ygh\AppData\Local\Temp\ccgAlmok.s 			page 20


 147 0042 1022     		movs	r2, #16
 200:Src/main.c    ****   {
 148              		.loc 1 200 7 view .LVU32
 149 0044 06A8     		add	r0, sp, #24
 190:Src/main.c    ****   RCC_OscInitStruct.HSIState = RCC_HSI_ON;
 150              		.loc 1 190 36 view .LVU33
 151 0046 0693     		str	r3, [sp, #24]
 191:Src/main.c    ****   RCC_OscInitStruct.HSICalibrationValue = RCC_HSICALIBRATION_DEFAULT;
 152              		.loc 1 191 3 is_stmt 1 view .LVU34
 199:Src/main.c    ****   if (HAL_RCC_OscConfig(&RCC_OscInitStruct) != HAL_OK)
 153              		.loc 1 199 30 is_stmt 0 view .LVU35
 154 0048 1693     		str	r3, [sp, #88]
 193:Src/main.c    ****   RCC_OscInitStruct.PLL.PLLSource = RCC_PLLSOURCE_HSI;
 155              		.loc 1 193 34 view .LVU36
 156 004a 8DED147B 		vstr.64	d7, [sp, #80]	@ int
 191:Src/main.c    ****   RCC_OscInitStruct.HSICalibrationValue = RCC_HSICALIBRATION_DEFAULT;
 157              		.loc 1 191 30 view .LVU37
 158 004e 0991     		str	r1, [sp, #36]
 192:Src/main.c    ****   RCC_OscInitStruct.PLL.PLLState = RCC_PLL_ON;
 159              		.loc 1 192 3 is_stmt 1 view .LVU38
 192:Src/main.c    ****   RCC_OscInitStruct.PLL.PLLState = RCC_PLL_ON;
 160              		.loc 1 192 41 is_stmt 0 view .LVU39
 161 0050 0A92     		str	r2, [sp, #40]
 193:Src/main.c    ****   RCC_OscInitStruct.PLL.PLLSource = RCC_PLLSOURCE_HSI;
 162              		.loc 1 193 3 is_stmt 1 view .LVU40
 194:Src/main.c    ****   RCC_OscInitStruct.PLL.PLLM = 2;
 163              		.loc 1 194 3 view .LVU41
 195:Src/main.c    ****   RCC_OscInitStruct.PLL.PLLN = 20;
 164              		.loc 1 195 3 view .LVU42
 196:Src/main.c    ****   RCC_OscInitStruct.PLL.PLLP = RCC_PLLP_DIV7;
 165              		.loc 1 196 3 view .LVU43
 197:Src/main.c    ****   RCC_OscInitStruct.PLL.PLLQ = RCC_PLLQ_DIV2;
 166              		.loc 1 197 3 view .LVU44
 198:Src/main.c    ****   RCC_OscInitStruct.PLL.PLLR = RCC_PLLR_DIV2;
 167              		.loc 1 198 3 view .LVU45
 199:Src/main.c    ****   if (HAL_RCC_OscConfig(&RCC_OscInitStruct) != HAL_OK)
 168              		.loc 1 199 3 view .LVU46
 200:Src/main.c    ****   {
 169              		.loc 1 200 3 view .LVU47
 200:Src/main.c    ****   {
 170              		.loc 1 200 7 is_stmt 0 view .LVU48
 171 0052 FFF7FEFF 		bl	HAL_RCC_OscConfig
 172              	.LVL5:
 200:Src/main.c    ****   {
 173              		.loc 1 200 6 view .LVU49
 174 0056 0346     		mov	r3, r0
 175 0058 08B1     		cbz	r0, .L8
 202:Src/main.c    ****   }
 176              		.loc 1 202 5 is_stmt 1 view .LVU50
 177              	.LBB115:
 178              	.LBI115:
 699:Src/main.c    **** {
 179              		.loc 1 699 6 view .LVU51
 180              	.LBE115:
 703:Src/main.c    ****   while (1)
 181              		.loc 1 703 3 view .LVU52
 182              	.LBB118:
ARM GAS  C:\Users\ep_ygh\AppData\Local\Temp\ccgAlmok.s 			page 21


 183              	.LBB116:
 184              	.LBI116:
 207:Drivers/CMSIS/Include/cmsis_gcc.h **** {
 185              		.loc 2 207 27 view .LVU53
 186              	.LBB117:
 187              		.loc 2 209 3 view .LVU54
 188              		.syntax unified
 189              	@ 209 "Drivers/CMSIS/Include/cmsis_gcc.h" 1
 190 005a 72B6     		cpsid i
 191              	@ 0 "" 2
 192              		.thumb
 193              		.syntax unified
 194              	.L9:
 195              	.LBE117:
 196              	.LBE116:
 197              	.LBE118:
 704:Src/main.c    ****   {
 198              		.loc 1 704 3 view .LVU55
 199              		.loc 1 706 3 view .LVU56
 704:Src/main.c    ****   {
 200              		.loc 1 704 9 view .LVU57
 704:Src/main.c    ****   {
 201              		.loc 1 704 3 view .LVU58
 202              		.loc 1 706 3 view .LVU59
 704:Src/main.c    ****   {
 203              		.loc 1 704 9 view .LVU60
 204 005c FEE7     		b	.L9
 205              	.L8:
 207:Src/main.c    ****                               |RCC_CLOCKTYPE_PCLK1|RCC_CLOCKTYPE_PCLK2;
 206              		.loc 1 207 3 view .LVU61
 209:Src/main.c    ****   RCC_ClkInitStruct.AHBCLKDivider = RCC_SYSCLK_DIV1;
 207              		.loc 1 209 3 view .LVU62
 210:Src/main.c    ****   RCC_ClkInitStruct.APB1CLKDivider = RCC_HCLK_DIV1;
 208              		.loc 1 210 3 view .LVU63
 211:Src/main.c    ****   RCC_ClkInitStruct.APB2CLKDivider = RCC_HCLK_DIV1;
 209              		.loc 1 211 3 view .LVU64
 207:Src/main.c    ****                               |RCC_CLOCKTYPE_PCLK1|RCC_CLOCKTYPE_PCLK2;
 210              		.loc 1 207 31 is_stmt 0 view .LVU65
 211 005e 9FED107B 		vldr.64	d7, .L13+24	@ int
 212 0062 8DED007B 		vstr.64	d7, [sp]	@ int
 213 0066 9FED107B 		vldr.64	d7, .L13+32	@ int
 214:Src/main.c    ****   {
 214              		.loc 1 214 7 view .LVU66
 215 006a 0421     		movs	r1, #4
 216 006c 6846     		mov	r0, sp
 207:Src/main.c    ****                               |RCC_CLOCKTYPE_PCLK1|RCC_CLOCKTYPE_PCLK2;
 217              		.loc 1 207 31 view .LVU67
 218 006e 8DED027B 		vstr.64	d7, [sp, #8]	@ int
 212:Src/main.c    **** 
 219              		.loc 1 212 3 is_stmt 1 view .LVU68
 212:Src/main.c    **** 
 220              		.loc 1 212 36 is_stmt 0 view .LVU69
 221 0072 0493     		str	r3, [sp, #16]
 214:Src/main.c    ****   {
 222              		.loc 1 214 3 is_stmt 1 view .LVU70
 214:Src/main.c    ****   {
 223              		.loc 1 214 7 is_stmt 0 view .LVU71
ARM GAS  C:\Users\ep_ygh\AppData\Local\Temp\ccgAlmok.s 			page 22


 224 0074 FFF7FEFF 		bl	HAL_RCC_ClockConfig
 225              	.LVL6:
 214:Src/main.c    ****   {
 226              		.loc 1 214 6 view .LVU72
 227 0078 08B1     		cbz	r0, .L5
 216:Src/main.c    ****   }
 228              		.loc 1 216 5 is_stmt 1 view .LVU73
 229              	.LBB119:
 230              	.LBI119:
 699:Src/main.c    **** {
 231              		.loc 1 699 6 view .LVU74
 232              	.LBE119:
 703:Src/main.c    ****   while (1)
 233              		.loc 1 703 3 view .LVU75
 234              	.LBB122:
 235              	.LBB120:
 236              	.LBI120:
 207:Drivers/CMSIS/Include/cmsis_gcc.h **** {
 237              		.loc 2 207 27 view .LVU76
 238              	.LBB121:
 239              		.loc 2 209 3 view .LVU77
 240              		.syntax unified
 241              	@ 209 "Drivers/CMSIS/Include/cmsis_gcc.h" 1
 242 007a 72B6     		cpsid i
 243              	@ 0 "" 2
 244              		.thumb
 245              		.syntax unified
 246              	.L11:
 247              	.LBE121:
 248              	.LBE120:
 249              	.LBE122:
 704:Src/main.c    ****   {
 250              		.loc 1 704 3 view .LVU78
 251              		.loc 1 706 3 view .LVU79
 704:Src/main.c    ****   {
 252              		.loc 1 704 9 view .LVU80
 704:Src/main.c    ****   {
 253              		.loc 1 704 3 view .LVU81
 254              		.loc 1 706 3 view .LVU82
 704:Src/main.c    ****   {
 255              		.loc 1 704 9 view .LVU83
 256 007c FEE7     		b	.L11
 257              	.L5:
 218:Src/main.c    **** 
 258              		.loc 1 218 1 is_stmt 0 view .LVU84
 259 007e 19B0     		add	sp, sp, #100
 260              	.LCFI3:
 261              		.cfi_def_cfa_offset 4
 262              		@ sp needed
 263 0080 5DF804FB 		ldr	pc, [sp], #4
 264              	.L14:
 265 0084 AFF30080 		.align	3
 266              	.L13:
 267 0088 02000000 		.word	2
 268 008c 02000000 		.word	2
 269 0090 02000000 		.word	2
 270 0094 14000000 		.word	20
ARM GAS  C:\Users\ep_ygh\AppData\Local\Temp\ccgAlmok.s 			page 23


 271 0098 07000000 		.word	7
 272 009c 02000000 		.word	2
 273 00a0 0F000000 		.word	15
 274 00a4 03000000 		.word	3
 275 00a8 00000000 		.word	0
 276 00ac 00000000 		.word	0
 277              		.cfi_endproc
 278              	.LFE1096:
 280              		.section	.text.startup.main,"ax",%progbits
 281              		.align	1
 282              		.p2align 2,,3
 283              		.global	main
 284              		.syntax unified
 285              		.thumb
 286              		.thumb_func
 288              	main:
 289              	.LFB1095:
  88:Src/main.c    **** 
 290              		.loc 1 88 1 is_stmt 1 view -0
 291              		.cfi_startproc
 292              		@ Volatile: function does not return.
 293              		@ args = 0, pretend = 0, frame = 160
 294              		@ frame_needed = 0, uses_anonymous_args = 0
  97:Src/main.c    **** 
 295              		.loc 1 97 3 view .LVU86
  88:Src/main.c    **** 
 296              		.loc 1 88 1 is_stmt 0 view .LVU87
 297 0000 80B5     		push	{r7, lr}
 298              	.LCFI4:
 299              		.cfi_def_cfa_offset 8
 300              		.cfi_offset 7, -8
 301              		.cfi_offset 14, -4
 302              	.LBB211:
 303              	.LBB212:
 623:Src/main.c    **** /* USER CODE BEGIN MX_GPIO_Init_1 */
 304              		.loc 1 623 20 view .LVU88
 305 0002 0024     		movs	r4, #0
 306              	.LBE212:
 307              	.LBE211:
  88:Src/main.c    **** 
 308              		.loc 1 88 1 view .LVU89
 309 0004 A8B0     		sub	sp, sp, #160
 310              	.LCFI5:
 311              		.cfi_def_cfa_offset 168
  97:Src/main.c    **** 
 312              		.loc 1 97 3 view .LVU90
 313 0006 FFF7FEFF 		bl	HAL_Init
 314              	.LVL7:
 104:Src/main.c    **** 
 315              		.loc 1 104 3 is_stmt 1 view .LVU91
 316 000a FFF7FEFF 		bl	SystemClock_Config
 317              	.LVL8:
 111:Src/main.c    ****   MX_DMA_Init();
 318              		.loc 1 111 3 view .LVU92
 319              	.LBB221:
 320              	.LBI211:
 621:Src/main.c    **** {
ARM GAS  C:\Users\ep_ygh\AppData\Local\Temp\ccgAlmok.s 			page 24


 321              		.loc 1 621 13 view .LVU93
 322              	.LBB220:
 623:Src/main.c    **** /* USER CODE BEGIN MX_GPIO_Init_1 */
 323              		.loc 1 623 3 view .LVU94
 623:Src/main.c    **** /* USER CODE BEGIN MX_GPIO_Init_1 */
 324              		.loc 1 623 20 is_stmt 0 view .LVU95
 325 000e CDE91A44 		strd	r4, r4, [sp, #104]
 326 0012 CDE91C44 		strd	r4, r4, [sp, #112]
 327              	.LBB213:
 628:Src/main.c    ****   __HAL_RCC_GPIOA_CLK_ENABLE();
 328              		.loc 1 628 3 view .LVU96
 329 0016 AA4D     		ldr	r5, .L64+8
 330              	.LBE213:
 623:Src/main.c    **** /* USER CODE BEGIN MX_GPIO_Init_1 */
 331              		.loc 1 623 20 view .LVU97
 332 0018 1E94     		str	r4, [sp, #120]
 628:Src/main.c    ****   __HAL_RCC_GPIOA_CLK_ENABLE();
 333              		.loc 1 628 3 is_stmt 1 view .LVU98
 334              	.LBB214:
 628:Src/main.c    ****   __HAL_RCC_GPIOA_CLK_ENABLE();
 335              		.loc 1 628 3 view .LVU99
 628:Src/main.c    ****   __HAL_RCC_GPIOA_CLK_ENABLE();
 336              		.loc 1 628 3 view .LVU100
 337 001a EB6C     		ldr	r3, [r5, #76]
 338              	.LBE214:
 633:Src/main.c    **** 
 339              		.loc 1 633 3 is_stmt 0 view .LVU101
 340 001c A948     		ldr	r0, .L64+12
 341              	.LBB215:
 628:Src/main.c    ****   __HAL_RCC_GPIOA_CLK_ENABLE();
 342              		.loc 1 628 3 view .LVU102
 343 001e 43F00403 		orr	r3, r3, #4
 344 0022 EB64     		str	r3, [r5, #76]
 628:Src/main.c    ****   __HAL_RCC_GPIOA_CLK_ENABLE();
 345              		.loc 1 628 3 is_stmt 1 view .LVU103
 346 0024 EB6C     		ldr	r3, [r5, #76]
 347 0026 03F00403 		and	r3, r3, #4
 348 002a 0193     		str	r3, [sp, #4]
 628:Src/main.c    ****   __HAL_RCC_GPIOA_CLK_ENABLE();
 349              		.loc 1 628 3 view .LVU104
 350 002c 019B     		ldr	r3, [sp, #4]
 351              	.LBE215:
 628:Src/main.c    ****   __HAL_RCC_GPIOA_CLK_ENABLE();
 352              		.loc 1 628 3 view .LVU105
 629:Src/main.c    ****   __HAL_RCC_GPIOB_CLK_ENABLE();
 353              		.loc 1 629 3 view .LVU106
 354              	.LBB216:
 629:Src/main.c    ****   __HAL_RCC_GPIOB_CLK_ENABLE();
 355              		.loc 1 629 3 view .LVU107
 629:Src/main.c    ****   __HAL_RCC_GPIOB_CLK_ENABLE();
 356              		.loc 1 629 3 view .LVU108
 357 002e EB6C     		ldr	r3, [r5, #76]
 358 0030 43F00103 		orr	r3, r3, #1
 359 0034 EB64     		str	r3, [r5, #76]
 629:Src/main.c    ****   __HAL_RCC_GPIOB_CLK_ENABLE();
 360              		.loc 1 629 3 view .LVU109
 361 0036 EB6C     		ldr	r3, [r5, #76]
ARM GAS  C:\Users\ep_ygh\AppData\Local\Temp\ccgAlmok.s 			page 25


 362 0038 03F00103 		and	r3, r3, #1
 363 003c 0293     		str	r3, [sp, #8]
 629:Src/main.c    ****   __HAL_RCC_GPIOB_CLK_ENABLE();
 364              		.loc 1 629 3 view .LVU110
 365 003e 029B     		ldr	r3, [sp, #8]
 366              	.LBE216:
 629:Src/main.c    ****   __HAL_RCC_GPIOB_CLK_ENABLE();
 367              		.loc 1 629 3 view .LVU111
 630:Src/main.c    **** 
 368              		.loc 1 630 3 view .LVU112
 369              	.LBB217:
 630:Src/main.c    **** 
 370              		.loc 1 630 3 view .LVU113
 630:Src/main.c    **** 
 371              		.loc 1 630 3 view .LVU114
 372 0040 EB6C     		ldr	r3, [r5, #76]
 373 0042 43F00203 		orr	r3, r3, #2
 374 0046 EB64     		str	r3, [r5, #76]
 630:Src/main.c    **** 
 375              		.loc 1 630 3 view .LVU115
 376 0048 EB6C     		ldr	r3, [r5, #76]
 377 004a 03F00203 		and	r3, r3, #2
 378              	.LBE217:
 633:Src/main.c    **** 
 379              		.loc 1 633 3 is_stmt 0 view .LVU116
 380 004e 2246     		mov	r2, r4
 381              	.LBB218:
 630:Src/main.c    **** 
 382              		.loc 1 630 3 view .LVU117
 383 0050 0393     		str	r3, [sp, #12]
 630:Src/main.c    **** 
 384              		.loc 1 630 3 is_stmt 1 view .LVU118
 385              	.LBE218:
 633:Src/main.c    **** 
 386              		.loc 1 633 3 is_stmt 0 view .LVU119
 387 0052 4FF46041 		mov	r1, #57344
 388              	.LBB219:
 630:Src/main.c    **** 
 389              		.loc 1 630 3 view .LVU120
 390 0056 039B     		ldr	r3, [sp, #12]
 391              	.LBE219:
 630:Src/main.c    **** 
 392              		.loc 1 630 3 is_stmt 1 view .LVU121
 633:Src/main.c    **** 
 393              		.loc 1 633 3 view .LVU122
 394 0058 FFF7FEFF 		bl	HAL_GPIO_WritePin
 395              	.LVL9:
 636:Src/main.c    ****   GPIO_InitStruct.Mode = GPIO_MODE_IT_FALLING;
 396              		.loc 1 636 3 view .LVU123
 637:Src/main.c    ****   GPIO_InitStruct.Pull = GPIO_NOPULL;
 397              		.loc 1 637 3 view .LVU124
 636:Src/main.c    ****   GPIO_InitStruct.Mode = GPIO_MODE_IT_FALLING;
 398              		.loc 1 636 23 is_stmt 0 view .LVU125
 399 005c 4FF40052 		mov	r2, #8192
 400 0060 4FF40413 		mov	r3, #2162688
 639:Src/main.c    **** 
 401              		.loc 1 639 3 view .LVU126
ARM GAS  C:\Users\ep_ygh\AppData\Local\Temp\ccgAlmok.s 			page 26


 402 0064 9848     		ldr	r0, .L64+16
 638:Src/main.c    ****   HAL_GPIO_Init(Start_Stop_GPIO_Port, &GPIO_InitStruct);
 403              		.loc 1 638 24 view .LVU127
 404 0066 1C94     		str	r4, [sp, #112]
 639:Src/main.c    **** 
 405              		.loc 1 639 3 view .LVU128
 406 0068 1AA9     		add	r1, sp, #104
 636:Src/main.c    ****   GPIO_InitStruct.Mode = GPIO_MODE_IT_FALLING;
 407              		.loc 1 636 23 view .LVU129
 408 006a CDE91A23 		strd	r2, [sp, #104]
 638:Src/main.c    ****   HAL_GPIO_Init(Start_Stop_GPIO_Port, &GPIO_InitStruct);
 409              		.loc 1 638 3 is_stmt 1 view .LVU130
 639:Src/main.c    **** 
 410              		.loc 1 639 3 view .LVU131
 411 006e FFF7FEFF 		bl	HAL_GPIO_Init
 412              	.LVL10:
 642:Src/main.c    ****   GPIO_InitStruct.Mode = GPIO_MODE_OUTPUT_PP;
 413              		.loc 1 642 3 view .LVU132
 643:Src/main.c    ****   GPIO_InitStruct.Pull = GPIO_PULLDOWN;
 414              		.loc 1 643 3 view .LVU133
 644:Src/main.c    ****   GPIO_InitStruct.Speed = GPIO_SPEED_FREQ_HIGH;
 415              		.loc 1 644 3 view .LVU134
 645:Src/main.c    ****   HAL_GPIO_Init(GPIOB, &GPIO_InitStruct);
 416              		.loc 1 645 3 view .LVU135
 642:Src/main.c    ****   GPIO_InitStruct.Mode = GPIO_MODE_OUTPUT_PP;
 417              		.loc 1 642 23 is_stmt 0 view .LVU136
 418 0072 4FF46042 		mov	r2, #57344
 419 0076 0123     		movs	r3, #1
 420 0078 CDE91A23 		strd	r2, [sp, #104]
 646:Src/main.c    **** 
 421              		.loc 1 646 3 view .LVU137
 422 007c 9148     		ldr	r0, .L64+12
 642:Src/main.c    ****   GPIO_InitStruct.Mode = GPIO_MODE_OUTPUT_PP;
 423              		.loc 1 642 23 view .LVU138
 424 007e 0222     		movs	r2, #2
 425 0080 0223     		movs	r3, #2
 646:Src/main.c    **** 
 426              		.loc 1 646 3 view .LVU139
 427 0082 1AA9     		add	r1, sp, #104
 642:Src/main.c    ****   GPIO_InitStruct.Mode = GPIO_MODE_OUTPUT_PP;
 428              		.loc 1 642 23 view .LVU140
 429 0084 CDE91C23 		strd	r2, [sp, #112]
 646:Src/main.c    **** 
 430              		.loc 1 646 3 is_stmt 1 view .LVU141
 431 0088 FFF7FEFF 		bl	HAL_GPIO_Init
 432              	.LVL11:
 433              	.LBE220:
 434              	.LBE221:
 112:Src/main.c    ****   MX_ADC1_Init();
 435              		.loc 1 112 3 view .LVU142
 436              	.LBB222:
 437              	.LBI222:
 608:Src/main.c    **** {
 438              		.loc 1 608 13 view .LVU143
 439              	.LBE222:
 612:Src/main.c    **** 
 440              		.loc 1 612 3 view .LVU144
ARM GAS  C:\Users\ep_ygh\AppData\Local\Temp\ccgAlmok.s 			page 27


 441              	.LBB226:
 442              	.LBB223:
 612:Src/main.c    **** 
 443              		.loc 1 612 3 view .LVU145
 612:Src/main.c    **** 
 444              		.loc 1 612 3 view .LVU146
 445 008c AB6C     		ldr	r3, [r5, #72]
 446 008e 43F00103 		orr	r3, r3, #1
 447 0092 AB64     		str	r3, [r5, #72]
 612:Src/main.c    **** 
 448              		.loc 1 612 3 view .LVU147
 449 0094 AB6C     		ldr	r3, [r5, #72]
 450              	.LBE223:
 451              	.LBE226:
 452              	.LBB227:
 453              	.LBB228:
 271:Src/main.c    ****   hadc1.Init.ClockPrescaler = ADC_CLOCK_ASYNC_DIV1;
 454              		.loc 1 271 18 is_stmt 0 view .LVU148
 455 0096 8D4D     		ldr	r5, .L64+20
 261:Src/main.c    ****   ADC_InjectionConfTypeDef sConfigInjected = {0};
 456              		.loc 1 261 24 view .LVU149
 457 0098 0C94     		str	r4, [sp, #48]
 458              	.LBE228:
 459              	.LBE227:
 460              	.LBB272:
 461              	.LBB224:
 612:Src/main.c    **** 
 462              		.loc 1 612 3 view .LVU150
 463 009a 03F00103 		and	r3, r3, #1
 464 009e 0093     		str	r3, [sp]
 612:Src/main.c    **** 
 465              		.loc 1 612 3 is_stmt 1 view .LVU151
 466              	.LBE224:
 467              	.LBE272:
 468              	.LBB273:
 469              	.LBB257:
 262:Src/main.c    ****   ADC_ChannelConfTypeDef sConfig = {0};
 470              		.loc 1 262 28 is_stmt 0 view .LVU152
 471 00a0 3422     		movs	r2, #52
 472 00a2 2146     		mov	r1, r4
 473 00a4 1AA8     		add	r0, sp, #104
 261:Src/main.c    ****   ADC_InjectionConfTypeDef sConfigInjected = {0};
 474              		.loc 1 261 24 view .LVU153
 475 00a6 CDE90D44 		strd	r4, r4, [sp, #52]
 476              	.LBE257:
 477              	.LBE273:
 478              	.LBB274:
 479              	.LBB225:
 612:Src/main.c    **** 
 480              		.loc 1 612 3 view .LVU154
 481 00aa 009B     		ldr	r3, [sp]
 482              	.LBE225:
 483              	.LBE274:
 612:Src/main.c    **** 
 484              		.loc 1 612 3 is_stmt 1 view .LVU155
 113:Src/main.c    ****   MX_DAC1_Init();
 485              		.loc 1 113 3 view .LVU156
ARM GAS  C:\Users\ep_ygh\AppData\Local\Temp\ccgAlmok.s 			page 28


 486              	.LBB275:
 487              	.LBI227:
 254:Src/main.c    **** {
 488              		.loc 1 254 13 view .LVU157
 489              	.LBB258:
 261:Src/main.c    ****   ADC_InjectionConfTypeDef sConfigInjected = {0};
 490              		.loc 1 261 3 view .LVU158
 262:Src/main.c    ****   ADC_ChannelConfTypeDef sConfig = {0};
 491              		.loc 1 262 3 view .LVU159
 262:Src/main.c    ****   ADC_ChannelConfTypeDef sConfig = {0};
 492              		.loc 1 262 28 is_stmt 0 view .LVU160
 493 00ac FFF7FEFF 		bl	memset
 494              	.LVL12:
 263:Src/main.c    **** 
 495              		.loc 1 263 3 is_stmt 1 view .LVU161
 271:Src/main.c    ****   hadc1.Init.ClockPrescaler = ADC_CLOCK_ASYNC_DIV1;
 496              		.loc 1 271 18 is_stmt 0 view .LVU162
 497 00b0 874B     		ldr	r3, .L64+24
 498 00b2 2B60     		str	r3, [r5]
 275:Src/main.c    ****   hadc1.Init.EOCSelection = ADC_EOC_SINGLE_CONV;
 499              		.loc 1 275 27 view .LVU163
 500 00b4 4FF0200E 		mov	lr, #32
 501 00b8 0123     		movs	r3, #1
 502 00ba C5E903E3 		strd	lr, r3, [r5, #12]
 281:Src/main.c    ****   hadc1.Init.ExternalTrigConvEdge = ADC_EXTERNALTRIGCONVEDGE_NONE;
 503              		.loc 1 281 31 view .LVU164
 504 00be 0022     		movs	r2, #0
 505 00c0 0023     		movs	r3, #0
 263:Src/main.c    **** 
 506              		.loc 1 263 26 view .LVU165
 507 00c2 CDE91244 		strd	r4, r4, [sp, #72]
 508 00c6 CDE91444 		strd	r4, r4, [sp, #80]
 509 00ca CDE91644 		strd	r4, r4, [sp, #88]
 271:Src/main.c    ****   hadc1.Init.ClockPrescaler = ADC_CLOCK_ASYNC_DIV1;
 510              		.loc 1 271 3 is_stmt 1 view .LVU166
 272:Src/main.c    ****   hadc1.Init.Resolution = ADC_RESOLUTION_12B;
 511              		.loc 1 272 3 view .LVU167
 273:Src/main.c    ****   hadc1.Init.DataAlign = ADC_DATAALIGN_LEFT;
 512              		.loc 1 273 3 view .LVU168
 274:Src/main.c    ****   hadc1.Init.ScanConvMode = ADC_SCAN_ENABLE;
 513              		.loc 1 274 3 view .LVU169
 276:Src/main.c    ****   hadc1.Init.LowPowerAutoWait = DISABLE;
 514              		.loc 1 276 3 view .LVU170
 273:Src/main.c    ****   hadc1.Init.DataAlign = ADC_DATAALIGN_LEFT;
 515              		.loc 1 273 25 is_stmt 0 view .LVU171
 516 00ce C5E90144 		strd	r4, r4, [r5, #4]
 277:Src/main.c    ****   hadc1.Init.ContinuousConvMode = DISABLE;
 517              		.loc 1 277 31 view .LVU172
 518 00d2 2C83     		strh	r4, [r5, #24]	@ movhi
 280:Src/main.c    ****   hadc1.Init.ExternalTrigConv = ADC_SOFTWARE_START;
 519              		.loc 1 280 36 view .LVU173
 520 00d4 85F82040 		strb	r4, [r5, #32]
 283:Src/main.c    ****   hadc1.Init.Overrun = ADC_OVR_DATA_PRESERVED;
 521              		.loc 1 283 36 view .LVU174
 522 00d8 85F83040 		strb	r4, [r5, #48]
 284:Src/main.c    ****   hadc1.Init.OversamplingMode = DISABLE;
 523              		.loc 1 284 22 view .LVU175
ARM GAS  C:\Users\ep_ygh\AppData\Local\Temp\ccgAlmok.s 			page 29


 524 00dc 6C63     		str	r4, [r5, #52]
 285:Src/main.c    ****   if (HAL_ADC_Init(&hadc1) != HAL_OK)
 525              		.loc 1 285 31 view .LVU176
 526 00de 85F83840 		strb	r4, [r5, #56]
 279:Src/main.c    ****   hadc1.Init.DiscontinuousConvMode = DISABLE;
 527              		.loc 1 279 30 view .LVU177
 528 00e2 0226     		movs	r6, #2
 276:Src/main.c    ****   hadc1.Init.LowPowerAutoWait = DISABLE;
 529              		.loc 1 276 27 view .LVU178
 530 00e4 0424     		movs	r4, #4
 281:Src/main.c    ****   hadc1.Init.ExternalTrigConvEdge = ADC_EXTERNALTRIGCONVEDGE_NONE;
 531              		.loc 1 281 31 view .LVU179
 532 00e6 C5E90A23 		strd	r2, [r5, #40]
 286:Src/main.c    ****   {
 533              		.loc 1 286 7 view .LVU180
 534 00ea 2846     		mov	r0, r5
 276:Src/main.c    ****   hadc1.Init.LowPowerAutoWait = DISABLE;
 535              		.loc 1 276 27 view .LVU181
 536 00ec 6C61     		str	r4, [r5, #20]
 277:Src/main.c    ****   hadc1.Init.ContinuousConvMode = DISABLE;
 537              		.loc 1 277 3 is_stmt 1 view .LVU182
 278:Src/main.c    ****   hadc1.Init.NbrOfConversion = 2;
 538              		.loc 1 278 3 view .LVU183
 279:Src/main.c    ****   hadc1.Init.DiscontinuousConvMode = DISABLE;
 539              		.loc 1 279 3 view .LVU184
 279:Src/main.c    ****   hadc1.Init.DiscontinuousConvMode = DISABLE;
 540              		.loc 1 279 30 is_stmt 0 view .LVU185
 541 00ee EE61     		str	r6, [r5, #28]
 280:Src/main.c    ****   hadc1.Init.ExternalTrigConv = ADC_SOFTWARE_START;
 542              		.loc 1 280 3 is_stmt 1 view .LVU186
 281:Src/main.c    ****   hadc1.Init.ExternalTrigConvEdge = ADC_EXTERNALTRIGCONVEDGE_NONE;
 543              		.loc 1 281 3 view .LVU187
 282:Src/main.c    ****   hadc1.Init.DMAContinuousRequests = DISABLE;
 544              		.loc 1 282 3 view .LVU188
 283:Src/main.c    ****   hadc1.Init.Overrun = ADC_OVR_DATA_PRESERVED;
 545              		.loc 1 283 3 view .LVU189
 284:Src/main.c    ****   hadc1.Init.OversamplingMode = DISABLE;
 546              		.loc 1 284 3 view .LVU190
 285:Src/main.c    ****   if (HAL_ADC_Init(&hadc1) != HAL_OK)
 547              		.loc 1 285 3 view .LVU191
 286:Src/main.c    ****   {
 548              		.loc 1 286 3 view .LVU192
 286:Src/main.c    ****   {
 549              		.loc 1 286 7 is_stmt 0 view .LVU193
 550 00f0 FFF7FEFF 		bl	HAL_ADC_Init
 551              	.LVL13:
 286:Src/main.c    ****   {
 552              		.loc 1 286 6 view .LVU194
 553 00f4 08B1     		cbz	r0, .L16
 288:Src/main.c    ****   }
 554              		.loc 1 288 5 is_stmt 1 view .LVU195
 555              	.LBB229:
 556              	.LBI229:
 699:Src/main.c    **** {
 557              		.loc 1 699 6 view .LVU196
 558              	.LBE229:
 559              	.LBE258:
ARM GAS  C:\Users\ep_ygh\AppData\Local\Temp\ccgAlmok.s 			page 30


 560              	.LBE275:
 703:Src/main.c    ****   while (1)
 561              		.loc 1 703 3 view .LVU197
 562              	.LBB276:
 563              	.LBB259:
 564              	.LBB232:
 565              	.LBB230:
 566              	.LBI230:
 207:Drivers/CMSIS/Include/cmsis_gcc.h **** {
 567              		.loc 2 207 27 view .LVU198
 568              	.LBB231:
 569              		.loc 2 209 3 view .LVU199
 570              		.syntax unified
 571              	@ 209 "Drivers/CMSIS/Include/cmsis_gcc.h" 1
 572 00f6 72B6     		cpsid i
 573              	@ 0 "" 2
 574              		.thumb
 575              		.syntax unified
 576              	.L17:
 577              	.LBE231:
 578              	.LBE230:
 579              	.LBE232:
 580              	.LBE259:
 581              	.LBE276:
 704:Src/main.c    ****   {
 582              		.loc 1 704 3 view .LVU200
 583              		.loc 1 706 3 view .LVU201
 704:Src/main.c    ****   {
 584              		.loc 1 704 9 view .LVU202
 704:Src/main.c    ****   {
 585              		.loc 1 704 3 view .LVU203
 586              		.loc 1 706 3 view .LVU204
 704:Src/main.c    ****   {
 587              		.loc 1 704 9 view .LVU205
 588 00f8 FEE7     		b	.L17
 589              	.L16:
 590              	.LBB277:
 591              	.LBB260:
 293:Src/main.c    ****   if (HAL_ADCEx_MultiModeConfigChannel(&hadc1, &multimode) != HAL_OK)
 592              		.loc 1 293 3 view .LVU206
 293:Src/main.c    ****   if (HAL_ADCEx_MultiModeConfigChannel(&hadc1, &multimode) != HAL_OK)
 593              		.loc 1 293 18 is_stmt 0 view .LVU207
 594 00fa 0C90     		str	r0, [sp, #48]
 294:Src/main.c    ****   {
 595              		.loc 1 294 3 is_stmt 1 view .LVU208
 294:Src/main.c    ****   {
 596              		.loc 1 294 7 is_stmt 0 view .LVU209
 597 00fc 0CA9     		add	r1, sp, #48
 598 00fe 2846     		mov	r0, r5
 599 0100 FFF7FEFF 		bl	HAL_ADCEx_MultiModeConfigChannel
 600              	.LVL14:
 294:Src/main.c    ****   {
 601              		.loc 1 294 6 view .LVU210
 602 0104 0746     		mov	r7, r0
 603 0106 08B1     		cbz	r0, .L18
 296:Src/main.c    ****   }
 604              		.loc 1 296 5 is_stmt 1 view .LVU211
ARM GAS  C:\Users\ep_ygh\AppData\Local\Temp\ccgAlmok.s 			page 31


 605              	.LBB233:
 606              	.LBI233:
 699:Src/main.c    **** {
 607              		.loc 1 699 6 view .LVU212
 608              	.LBE233:
 609              	.LBE260:
 610              	.LBE277:
 703:Src/main.c    ****   while (1)
 611              		.loc 1 703 3 view .LVU213
 612              	.LBB278:
 613              	.LBB261:
 614              	.LBB236:
 615              	.LBB234:
 616              	.LBI234:
 207:Drivers/CMSIS/Include/cmsis_gcc.h **** {
 617              		.loc 2 207 27 view .LVU214
 618              	.LBB235:
 619              		.loc 2 209 3 view .LVU215
 620              		.syntax unified
 621              	@ 209 "Drivers/CMSIS/Include/cmsis_gcc.h" 1
 622 0108 72B6     		cpsid i
 623              	@ 0 "" 2
 624              		.thumb
 625              		.syntax unified
 626              	.L19:
 627              	.LBE235:
 628              	.LBE234:
 629              	.LBE236:
 630              	.LBE261:
 631              	.LBE278:
 704:Src/main.c    ****   {
 632              		.loc 1 704 3 view .LVU216
 633              		.loc 1 706 3 view .LVU217
 704:Src/main.c    ****   {
 634              		.loc 1 704 9 view .LVU218
 704:Src/main.c    ****   {
 635              		.loc 1 704 3 view .LVU219
 636              		.loc 1 706 3 view .LVU220
 704:Src/main.c    ****   {
 637              		.loc 1 704 9 view .LVU221
 638 010a FEE7     		b	.L19
 639              	.L18:
 640              	.LBB279:
 641              	.LBB262:
 301:Src/main.c    **** 
 642              		.loc 1 301 3 view .LVU222
 643 010c 2846     		mov	r0, r5
 644 010e FFF7FEFF 		bl	HAL_ADCEx_DisableInjectedQueue
 645              	.LVL15:
 305:Src/main.c    ****   sConfigInjected.InjectedRank = ADC_INJECTED_RANK_1;
 646              		.loc 1 305 3 view .LVU223
 307:Src/main.c    ****   sConfigInjected.InjectedSingleDiff = ADC_SINGLE_ENDED;
 647              		.loc 1 307 40 is_stmt 0 view .LVU224
 648 0112 1C96     		str	r6, [sp, #112]
 306:Src/main.c    ****   sConfigInjected.InjectedSamplingTime = ADC_SAMPLETIME_12CYCLES_5;
 649              		.loc 1 306 32 view .LVU225
 650 0114 6F4E     		ldr	r6, .L64+28
ARM GAS  C:\Users\ep_ygh\AppData\Local\Temp\ccgAlmok.s 			page 32


 312:Src/main.c    ****   sConfigInjected.AutoInjectedConv = DISABLE;
 651              		.loc 1 312 49 view .LVU226
 652 0116 ADF88470 		strh	r7, [sp, #132]	@ movhi
 306:Src/main.c    ****   sConfigInjected.InjectedSamplingTime = ADC_SAMPLETIME_12CYCLES_5;
 653              		.loc 1 306 32 view .LVU227
 654 011a 0823     		movs	r3, #8
 655 011c CDE91A63 		strd	r6, r3, [sp, #104]
 307:Src/main.c    ****   sConfigInjected.InjectedSingleDiff = ADC_SINGLE_ENDED;
 656              		.loc 1 307 3 is_stmt 1 view .LVU228
 308:Src/main.c    ****   sConfigInjected.InjectedOffsetNumber = ADC_OFFSET_NONE;
 657              		.loc 1 308 3 view .LVU229
 308:Src/main.c    ****   sConfigInjected.InjectedOffsetNumber = ADC_OFFSET_NONE;
 658              		.loc 1 308 38 is_stmt 0 view .LVU230
 659 0120 7F23     		movs	r3, #127
 660 0122 1D93     		str	r3, [sp, #116]
 309:Src/main.c    ****   sConfigInjected.InjectedOffset = 0;
 661              		.loc 1 309 3 is_stmt 1 view .LVU231
 310:Src/main.c    ****   sConfigInjected.InjectedNbrOfConversion = 3;
 662              		.loc 1 310 3 view .LVU232
 311:Src/main.c    ****   sConfigInjected.InjectedDiscontinuousConvMode = DISABLE;
 663              		.loc 1 311 3 view .LVU233
 311:Src/main.c    ****   sConfigInjected.InjectedDiscontinuousConvMode = DISABLE;
 664              		.loc 1 311 43 is_stmt 0 view .LVU234
 665 0124 0323     		movs	r3, #3
 666 0126 2093     		str	r3, [sp, #128]
 312:Src/main.c    ****   sConfigInjected.AutoInjectedConv = DISABLE;
 667              		.loc 1 312 3 is_stmt 1 view .LVU235
 313:Src/main.c    ****   sConfigInjected.QueueInjectedContext = DISABLE;
 668              		.loc 1 313 3 view .LVU236
 314:Src/main.c    ****   sConfigInjected.ExternalTrigInjecConv = ADC_EXTERNALTRIGINJEC_T1_TRGO;
 669              		.loc 1 314 3 view .LVU237
 315:Src/main.c    ****   sConfigInjected.ExternalTrigInjecConvEdge = ADC_EXTERNALTRIGINJECCONV_EDGE_RISING;
 670              		.loc 1 315 3 view .LVU238
 316:Src/main.c    ****   sConfigInjected.InjecOversamplingMode = DISABLE;
 671              		.loc 1 316 3 view .LVU239
 315:Src/main.c    ****   sConfigInjected.ExternalTrigInjecConvEdge = ADC_EXTERNALTRIGINJECCONV_EDGE_RISING;
 672              		.loc 1 315 41 is_stmt 0 view .LVU240
 673 0128 4022     		movs	r2, #64
 674 012a 4023     		movs	r3, #64
 318:Src/main.c    ****   {
 675              		.loc 1 318 7 view .LVU241
 676 012c 1AA9     		add	r1, sp, #104
 677 012e 2846     		mov	r0, r5
 310:Src/main.c    ****   sConfigInjected.InjectedNbrOfConversion = 3;
 678              		.loc 1 310 34 view .LVU242
 679 0130 CDE91E47 		strd	r4, r7, [sp, #120]
 315:Src/main.c    ****   sConfigInjected.ExternalTrigInjecConvEdge = ADC_EXTERNALTRIGINJECCONV_EDGE_RISING;
 680              		.loc 1 315 41 view .LVU243
 681 0134 CDE92223 		strd	r2, [sp, #136]
 317:Src/main.c    ****   if (HAL_ADCEx_InjectedConfigChannel(&hadc1, &sConfigInjected) != HAL_OK)
 682              		.loc 1 317 3 is_stmt 1 view .LVU244
 318:Src/main.c    ****   {
 683              		.loc 1 318 3 view .LVU245
 314:Src/main.c    ****   sConfigInjected.ExternalTrigInjecConv = ADC_EXTERNALTRIGINJEC_T1_TRGO;
 684              		.loc 1 314 40 is_stmt 0 view .LVU246
 685 0138 8DF88670 		strb	r7, [sp, #134]
 317:Src/main.c    ****   if (HAL_ADCEx_InjectedConfigChannel(&hadc1, &sConfigInjected) != HAL_OK)
ARM GAS  C:\Users\ep_ygh\AppData\Local\Temp\ccgAlmok.s 			page 33


 686              		.loc 1 317 41 view .LVU247
 687 013c 8DF89070 		strb	r7, [sp, #144]
 318:Src/main.c    ****   {
 688              		.loc 1 318 7 view .LVU248
 689 0140 FFF7FEFF 		bl	HAL_ADCEx_InjectedConfigChannel
 690              	.LVL16:
 318:Src/main.c    ****   {
 691              		.loc 1 318 6 view .LVU249
 692 0144 08B1     		cbz	r0, .L20
 320:Src/main.c    ****   }
 693              		.loc 1 320 5 is_stmt 1 view .LVU250
 694              	.LBB237:
 695              	.LBI237:
 699:Src/main.c    **** {
 696              		.loc 1 699 6 view .LVU251
 697              	.LBE237:
 698              	.LBE262:
 699              	.LBE279:
 703:Src/main.c    ****   while (1)
 700              		.loc 1 703 3 view .LVU252
 701              	.LBB280:
 702              	.LBB263:
 703              	.LBB240:
 704              	.LBB238:
 705              	.LBI238:
 207:Drivers/CMSIS/Include/cmsis_gcc.h **** {
 706              		.loc 2 207 27 view .LVU253
 707              	.LBB239:
 708              		.loc 2 209 3 view .LVU254
 709              		.syntax unified
 710              	@ 209 "Drivers/CMSIS/Include/cmsis_gcc.h" 1
 711 0146 72B6     		cpsid i
 712              	@ 0 "" 2
 713              		.thumb
 714              		.syntax unified
 715              	.L21:
 716              	.LBE239:
 717              	.LBE238:
 718              	.LBE240:
 719              	.LBE263:
 720              	.LBE280:
 704:Src/main.c    ****   {
 721              		.loc 1 704 3 view .LVU255
 722              		.loc 1 706 3 view .LVU256
 704:Src/main.c    ****   {
 723              		.loc 1 704 9 view .LVU257
 704:Src/main.c    ****   {
 724              		.loc 1 704 3 view .LVU258
 725              		.loc 1 706 3 view .LVU259
 704:Src/main.c    ****   {
 726              		.loc 1 704 9 view .LVU260
 727 0148 FEE7     		b	.L21
 728              	.L20:
 729              	.LBB281:
 730              	.LBB264:
 325:Src/main.c    ****   sConfigInjected.InjectedRank = ADC_INJECTED_RANK_2;
 731              		.loc 1 325 3 view .LVU261
ARM GAS  C:\Users\ep_ygh\AppData\Local\Temp\ccgAlmok.s 			page 34


 326:Src/main.c    ****   if (HAL_ADCEx_InjectedConfigChannel(&hadc1, &sConfigInjected) != HAL_OK)
 732              		.loc 1 326 3 view .LVU262
 325:Src/main.c    ****   sConfigInjected.InjectedRank = ADC_INJECTED_RANK_2;
 733              		.loc 1 325 35 is_stmt 0 view .LVU263
 734 014a 634A     		ldr	r2, .L64+32
 735 014c 4FF48773 		mov	r3, #270
 327:Src/main.c    ****   {
 736              		.loc 1 327 7 view .LVU264
 737 0150 1AA9     		add	r1, sp, #104
 738 0152 2846     		mov	r0, r5
 325:Src/main.c    ****   sConfigInjected.InjectedRank = ADC_INJECTED_RANK_2;
 739              		.loc 1 325 35 view .LVU265
 740 0154 CDE91A23 		strd	r2, [sp, #104]
 327:Src/main.c    ****   {
 741              		.loc 1 327 3 is_stmt 1 view .LVU266
 327:Src/main.c    ****   {
 742              		.loc 1 327 7 is_stmt 0 view .LVU267
 743 0158 FFF7FEFF 		bl	HAL_ADCEx_InjectedConfigChannel
 744              	.LVL17:
 327:Src/main.c    ****   {
 745              		.loc 1 327 6 view .LVU268
 746 015c 08B1     		cbz	r0, .L22
 329:Src/main.c    ****   }
 747              		.loc 1 329 5 is_stmt 1 view .LVU269
 748              	.LBB241:
 749              	.LBI241:
 699:Src/main.c    **** {
 750              		.loc 1 699 6 view .LVU270
 751              	.LBE241:
 752              	.LBE264:
 753              	.LBE281:
 703:Src/main.c    ****   while (1)
 754              		.loc 1 703 3 view .LVU271
 755              	.LBB282:
 756              	.LBB265:
 757              	.LBB244:
 758              	.LBB242:
 759              	.LBI242:
 207:Drivers/CMSIS/Include/cmsis_gcc.h **** {
 760              		.loc 2 207 27 view .LVU272
 761              	.LBB243:
 762              		.loc 2 209 3 view .LVU273
 763              		.syntax unified
 764              	@ 209 "Drivers/CMSIS/Include/cmsis_gcc.h" 1
 765 015e 72B6     		cpsid i
 766              	@ 0 "" 2
 767              		.thumb
 768              		.syntax unified
 769              	.L23:
 770              	.LBE243:
 771              	.LBE242:
 772              	.LBE244:
 773              	.LBE265:
 774              	.LBE282:
 704:Src/main.c    ****   {
 775              		.loc 1 704 3 view .LVU274
 776              		.loc 1 706 3 view .LVU275
ARM GAS  C:\Users\ep_ygh\AppData\Local\Temp\ccgAlmok.s 			page 35


 704:Src/main.c    ****   {
 777              		.loc 1 704 9 view .LVU276
 704:Src/main.c    ****   {
 778              		.loc 1 704 3 view .LVU277
 779              		.loc 1 706 3 view .LVU278
 704:Src/main.c    ****   {
 780              		.loc 1 704 9 view .LVU279
 781 0160 FEE7     		b	.L23
 782              	.L22:
 783              	.LBB283:
 784              	.LBB266:
 334:Src/main.c    ****   sConfigInjected.InjectedRank = ADC_INJECTED_RANK_3;
 785              		.loc 1 334 3 view .LVU280
 335:Src/main.c    ****   if (HAL_ADCEx_InjectedConfigChannel(&hadc1, &sConfigInjected) != HAL_OK)
 786              		.loc 1 335 3 view .LVU281
 334:Src/main.c    ****   sConfigInjected.InjectedRank = ADC_INJECTED_RANK_3;
 787              		.loc 1 334 35 is_stmt 0 view .LVU282
 788 0162 5E4A     		ldr	r2, .L64+36
 789 0164 4FF40573 		mov	r3, #532
 336:Src/main.c    ****   {
 790              		.loc 1 336 7 view .LVU283
 791 0168 1AA9     		add	r1, sp, #104
 792 016a 2846     		mov	r0, r5
 334:Src/main.c    ****   sConfigInjected.InjectedRank = ADC_INJECTED_RANK_3;
 793              		.loc 1 334 35 view .LVU284
 794 016c CDE91A23 		strd	r2, [sp, #104]
 336:Src/main.c    ****   {
 795              		.loc 1 336 3 is_stmt 1 view .LVU285
 336:Src/main.c    ****   {
 796              		.loc 1 336 7 is_stmt 0 view .LVU286
 797 0170 FFF7FEFF 		bl	HAL_ADCEx_InjectedConfigChannel
 798              	.LVL18:
 336:Src/main.c    ****   {
 799              		.loc 1 336 6 view .LVU287
 800 0174 08B1     		cbz	r0, .L24
 338:Src/main.c    ****   }
 801              		.loc 1 338 5 is_stmt 1 view .LVU288
 802              	.LBB245:
 803              	.LBI245:
 699:Src/main.c    **** {
 804              		.loc 1 699 6 view .LVU289
 805              	.LBE245:
 806              	.LBE266:
 807              	.LBE283:
 703:Src/main.c    ****   while (1)
 808              		.loc 1 703 3 view .LVU290
 809              	.LBB284:
 810              	.LBB267:
 811              	.LBB248:
 812              	.LBB246:
 813              	.LBI246:
 207:Drivers/CMSIS/Include/cmsis_gcc.h **** {
 814              		.loc 2 207 27 view .LVU291
 815              	.LBB247:
 816              		.loc 2 209 3 view .LVU292
 817              		.syntax unified
 818              	@ 209 "Drivers/CMSIS/Include/cmsis_gcc.h" 1
ARM GAS  C:\Users\ep_ygh\AppData\Local\Temp\ccgAlmok.s 			page 36


 819 0176 72B6     		cpsid i
 820              	@ 0 "" 2
 821              		.thumb
 822              		.syntax unified
 823              	.L25:
 824              	.LBE247:
 825              	.LBE246:
 826              	.LBE248:
 827              	.LBE267:
 828              	.LBE284:
 704:Src/main.c    ****   {
 829              		.loc 1 704 3 view .LVU293
 830              		.loc 1 706 3 view .LVU294
 704:Src/main.c    ****   {
 831              		.loc 1 704 9 view .LVU295
 704:Src/main.c    ****   {
 832              		.loc 1 704 3 view .LVU296
 833              		.loc 1 706 3 view .LVU297
 704:Src/main.c    ****   {
 834              		.loc 1 704 9 view .LVU298
 835 0178 FEE7     		b	.L25
 836              	.L24:
 837              	.LBB285:
 838              	.LBB268:
 343:Src/main.c    ****   sConfig.Rank = ADC_REGULAR_RANK_1;
 839              		.loc 1 343 3 view .LVU299
 344:Src/main.c    ****   sConfig.SamplingTime = ADC_SAMPLETIME_92CYCLES_5;
 840              		.loc 1 344 3 view .LVU300
 345:Src/main.c    ****   sConfig.SingleDiff = ADC_SINGLE_ENDED;
 841              		.loc 1 345 3 view .LVU301
 346:Src/main.c    ****   sConfig.OffsetNumber = ADC_OFFSET_NONE;
 842              		.loc 1 346 3 view .LVU302
 347:Src/main.c    ****   sConfig.Offset = 0;
 843              		.loc 1 347 3 view .LVU303
 348:Src/main.c    ****   if (HAL_ADC_ConfigChannel(&hadc1, &sConfig) != HAL_OK)
 844              		.loc 1 348 3 view .LVU304
 343:Src/main.c    ****   sConfig.Rank = ADC_REGULAR_RANK_1;
 845              		.loc 1 343 19 is_stmt 0 view .LVU305
 846 017a 4FA3     		adr	r3, .L64
 847 017c D3E90023 		ldrd	r2, [r3]
 848 0180 CDE91223 		strd	r2, [sp, #72]
 849 0184 0522     		movs	r2, #5
 850 0186 7F23     		movs	r3, #127
 851 0188 CDE91423 		strd	r2, [sp, #80]
 349:Src/main.c    ****   {
 852              		.loc 1 349 7 view .LVU306
 853 018c 12A9     		add	r1, sp, #72
 343:Src/main.c    ****   sConfig.Rank = ADC_REGULAR_RANK_1;
 854              		.loc 1 343 19 view .LVU307
 855 018e 0422     		movs	r2, #4
 856 0190 0023     		movs	r3, #0
 349:Src/main.c    ****   {
 857              		.loc 1 349 7 view .LVU308
 858 0192 2846     		mov	r0, r5
 343:Src/main.c    ****   sConfig.Rank = ADC_REGULAR_RANK_1;
 859              		.loc 1 343 19 view .LVU309
 860 0194 CDE91623 		strd	r2, [sp, #88]
ARM GAS  C:\Users\ep_ygh\AppData\Local\Temp\ccgAlmok.s 			page 37


 349:Src/main.c    ****   {
 861              		.loc 1 349 3 is_stmt 1 view .LVU310
 349:Src/main.c    ****   {
 862              		.loc 1 349 7 is_stmt 0 view .LVU311
 863 0198 FFF7FEFF 		bl	HAL_ADC_ConfigChannel
 864              	.LVL19:
 349:Src/main.c    ****   {
 865              		.loc 1 349 6 view .LVU312
 866 019c 08B1     		cbz	r0, .L26
 351:Src/main.c    ****   }
 867              		.loc 1 351 5 is_stmt 1 view .LVU313
 868              	.LBB249:
 869              	.LBI249:
 699:Src/main.c    **** {
 870              		.loc 1 699 6 view .LVU314
 871              	.LBE249:
 872              	.LBE268:
 873              	.LBE285:
 703:Src/main.c    ****   while (1)
 874              		.loc 1 703 3 view .LVU315
 875              	.LBB286:
 876              	.LBB269:
 877              	.LBB252:
 878              	.LBB250:
 879              	.LBI250:
 207:Drivers/CMSIS/Include/cmsis_gcc.h **** {
 880              		.loc 2 207 27 view .LVU316
 881              	.LBB251:
 882              		.loc 2 209 3 view .LVU317
 883              		.syntax unified
 884              	@ 209 "Drivers/CMSIS/Include/cmsis_gcc.h" 1
 885 019e 72B6     		cpsid i
 886              	@ 0 "" 2
 887              		.thumb
 888              		.syntax unified
 889              	.L27:
 890              	.LBE251:
 891              	.LBE250:
 892              	.LBE252:
 893              	.LBE269:
 894              	.LBE286:
 704:Src/main.c    ****   {
 895              		.loc 1 704 3 view .LVU318
 896              		.loc 1 706 3 view .LVU319
 704:Src/main.c    ****   {
 897              		.loc 1 704 9 view .LVU320
 704:Src/main.c    ****   {
 898              		.loc 1 704 3 view .LVU321
 899              		.loc 1 706 3 view .LVU322
 704:Src/main.c    ****   {
 900              		.loc 1 704 9 view .LVU323
 901 01a0 FEE7     		b	.L27
 902              	.L26:
 903              	.LBB287:
 904              	.LBB270:
 356:Src/main.c    ****   sConfig.Rank = ADC_REGULAR_RANK_2;
 905              		.loc 1 356 3 view .LVU324
ARM GAS  C:\Users\ep_ygh\AppData\Local\Temp\ccgAlmok.s 			page 38


 357:Src/main.c    ****   if (HAL_ADC_ConfigChannel(&hadc1, &sConfig) != HAL_OK)
 906              		.loc 1 357 3 view .LVU325
 356:Src/main.c    ****   sConfig.Rank = ADC_REGULAR_RANK_2;
 907              		.loc 1 356 19 is_stmt 0 view .LVU326
 908 01a2 4F4A     		ldr	r2, .L64+40
 909 01a4 0C23     		movs	r3, #12
 358:Src/main.c    ****   {
 910              		.loc 1 358 7 view .LVU327
 911 01a6 12A9     		add	r1, sp, #72
 912 01a8 2846     		mov	r0, r5
 356:Src/main.c    ****   sConfig.Rank = ADC_REGULAR_RANK_2;
 913              		.loc 1 356 19 view .LVU328
 914 01aa CDE91223 		strd	r2, [sp, #72]
 358:Src/main.c    ****   {
 915              		.loc 1 358 3 is_stmt 1 view .LVU329
 358:Src/main.c    ****   {
 916              		.loc 1 358 7 is_stmt 0 view .LVU330
 917 01ae FFF7FEFF 		bl	HAL_ADC_ConfigChannel
 918              	.LVL20:
 358:Src/main.c    ****   {
 919              		.loc 1 358 6 view .LVU331
 920 01b2 0146     		mov	r1, r0
 921 01b4 08B1     		cbz	r0, .L28
 360:Src/main.c    ****   }
 922              		.loc 1 360 5 is_stmt 1 view .LVU332
 923              	.LBB253:
 924              	.LBI253:
 699:Src/main.c    **** {
 925              		.loc 1 699 6 view .LVU333
 926              	.LBE253:
 927              	.LBE270:
 928              	.LBE287:
 703:Src/main.c    ****   while (1)
 929              		.loc 1 703 3 view .LVU334
 930              	.LBB288:
 931              	.LBB271:
 932              	.LBB256:
 933              	.LBB254:
 934              	.LBI254:
 207:Drivers/CMSIS/Include/cmsis_gcc.h **** {
 935              		.loc 2 207 27 view .LVU335
 936              	.LBB255:
 937              		.loc 2 209 3 view .LVU336
 938              		.syntax unified
 939              	@ 209 "Drivers/CMSIS/Include/cmsis_gcc.h" 1
 940 01b6 72B6     		cpsid i
 941              	@ 0 "" 2
 942              		.thumb
 943              		.syntax unified
 944              	.L29:
 945              	.LBE255:
 946              	.LBE254:
 947              	.LBE256:
 948              	.LBE271:
 949              	.LBE288:
 704:Src/main.c    ****   {
 950              		.loc 1 704 3 view .LVU337
ARM GAS  C:\Users\ep_ygh\AppData\Local\Temp\ccgAlmok.s 			page 39


 951              		.loc 1 706 3 view .LVU338
 704:Src/main.c    ****   {
 952              		.loc 1 704 9 view .LVU339
 704:Src/main.c    ****   {
 953              		.loc 1 704 3 view .LVU340
 954              		.loc 1 706 3 view .LVU341
 704:Src/main.c    ****   {
 955              		.loc 1 704 9 view .LVU342
 956 01b8 FEE7     		b	.L29
 957              	.L28:
 114:Src/main.c    ****   MX_TIM1_Init();
 958              		.loc 1 114 3 view .LVU343
 959              	.LBB289:
 960              	.LBI289:
 373:Src/main.c    **** {
 961              		.loc 1 373 13 view .LVU344
 962              	.LBB290:
 380:Src/main.c    **** 
 963              		.loc 1 380 3 view .LVU345
 388:Src/main.c    ****   if (HAL_DAC_Init(&hdac1) != HAL_OK)
 964              		.loc 1 388 18 is_stmt 0 view .LVU346
 965 01ba 4A4C     		ldr	r4, .L64+44
 380:Src/main.c    **** 
 966              		.loc 1 380 26 view .LVU347
 967 01bc 2422     		movs	r2, #36
 968 01be 1AA8     		add	r0, sp, #104
 969 01c0 FFF7FEFF 		bl	memset
 970              	.LVL21:
 388:Src/main.c    ****   if (HAL_DAC_Init(&hdac1) != HAL_OK)
 971              		.loc 1 388 3 is_stmt 1 view .LVU348
 388:Src/main.c    ****   if (HAL_DAC_Init(&hdac1) != HAL_OK)
 972              		.loc 1 388 18 is_stmt 0 view .LVU349
 973 01c4 484B     		ldr	r3, .L64+48
 974 01c6 2360     		str	r3, [r4]
 389:Src/main.c    ****   {
 975              		.loc 1 389 3 is_stmt 1 view .LVU350
 389:Src/main.c    ****   {
 976              		.loc 1 389 7 is_stmt 0 view .LVU351
 977 01c8 2046     		mov	r0, r4
 978 01ca FFF7FEFF 		bl	HAL_DAC_Init
 979              	.LVL22:
 389:Src/main.c    ****   {
 980              		.loc 1 389 6 view .LVU352
 981 01ce 0246     		mov	r2, r0
 982 01d0 08B1     		cbz	r0, .L30
 391:Src/main.c    ****   }
 983              		.loc 1 391 5 is_stmt 1 view .LVU353
 984              	.LBB291:
 985              	.LBI291:
 699:Src/main.c    **** {
 986              		.loc 1 699 6 view .LVU354
 987              	.LBE291:
 988              	.LBE290:
 989              	.LBE289:
 703:Src/main.c    ****   while (1)
 990              		.loc 1 703 3 view .LVU355
 991              	.LBB308:
ARM GAS  C:\Users\ep_ygh\AppData\Local\Temp\ccgAlmok.s 			page 40


 992              	.LBB303:
 993              	.LBB294:
 994              	.LBB292:
 995              	.LBI292:
 207:Drivers/CMSIS/Include/cmsis_gcc.h **** {
 996              		.loc 2 207 27 view .LVU356
 997              	.LBB293:
 998              		.loc 2 209 3 view .LVU357
 999              		.syntax unified
 1000              	@ 209 "Drivers/CMSIS/Include/cmsis_gcc.h" 1
 1001 01d2 72B6     		cpsid i
 1002              	@ 0 "" 2
 1003              		.thumb
 1004              		.syntax unified
 1005              	.L31:
 1006              	.LBE293:
 1007              	.LBE292:
 1008              	.LBE294:
 1009              	.LBE303:
 1010              	.LBE308:
 704:Src/main.c    ****   {
 1011              		.loc 1 704 3 view .LVU358
 1012              		.loc 1 706 3 view .LVU359
 704:Src/main.c    ****   {
 1013              		.loc 1 704 9 view .LVU360
 704:Src/main.c    ****   {
 1014              		.loc 1 704 3 view .LVU361
 1015              		.loc 1 706 3 view .LVU362
 704:Src/main.c    ****   {
 1016              		.loc 1 704 9 view .LVU363
 1017 01d4 FEE7     		b	.L31
 1018              	.L30:
 1019              	.LBB309:
 1020              	.LBB304:
 396:Src/main.c    ****   sConfig.DAC_Trigger = DAC_TRIGGER_SOFTWARE;
 1021              		.loc 1 396 3 view .LVU364
 397:Src/main.c    ****   sConfig.DAC_OutputBuffer = DAC_OUTPUTBUFFER_DISABLE;
 1022              		.loc 1 397 3 view .LVU365
 398:Src/main.c    ****   sConfig.DAC_ConnectOnChipPeripheral = DAC_CHIPCONNECT_DISABLE;
 1023              		.loc 1 398 3 view .LVU366
 399:Src/main.c    ****   sConfig.DAC_UserTrimming = DAC_TRIMMING_FACTORY;
 1024              		.loc 1 399 3 view .LVU367
 396:Src/main.c    ****   sConfig.DAC_Trigger = DAC_TRIGGER_SOFTWARE;
 1025              		.loc 1 396 29 is_stmt 0 view .LVU368
 1026 01d6 0026     		movs	r6, #0
 1027 01d8 3C27     		movs	r7, #60
 1028 01da CDE91A67 		strd	r6, [sp, #104]
 400:Src/main.c    ****   if (HAL_DAC_ConfigChannel(&hdac1, &sConfig, DAC_CHANNEL_1) != HAL_OK)
 1029              		.loc 1 400 28 view .LVU369
 1030 01de 1E90     		str	r0, [sp, #120]
 396:Src/main.c    ****   sConfig.DAC_Trigger = DAC_TRIGGER_SOFTWARE;
 1031              		.loc 1 396 29 view .LVU370
 1032 01e0 0226     		movs	r6, #2
 1033 01e2 0027     		movs	r7, #0
 401:Src/main.c    ****   {
 1034              		.loc 1 401 7 view .LVU371
 1035 01e4 1AA9     		add	r1, sp, #104
ARM GAS  C:\Users\ep_ygh\AppData\Local\Temp\ccgAlmok.s 			page 41


 1036 01e6 2046     		mov	r0, r4
 396:Src/main.c    ****   sConfig.DAC_Trigger = DAC_TRIGGER_SOFTWARE;
 1037              		.loc 1 396 29 view .LVU372
 1038 01e8 CDE91C67 		strd	r6, [sp, #112]
 400:Src/main.c    ****   if (HAL_DAC_ConfigChannel(&hdac1, &sConfig, DAC_CHANNEL_1) != HAL_OK)
 1039              		.loc 1 400 3 is_stmt 1 view .LVU373
 401:Src/main.c    ****   {
 1040              		.loc 1 401 3 view .LVU374
 401:Src/main.c    ****   {
 1041              		.loc 1 401 7 is_stmt 0 view .LVU375
 1042 01ec FFF7FEFF 		bl	HAL_DAC_ConfigChannel
 1043              	.LVL23:
 401:Src/main.c    ****   {
 1044              		.loc 1 401 6 view .LVU376
 1045 01f0 08B1     		cbz	r0, .L32
 403:Src/main.c    ****   }
 1046              		.loc 1 403 5 is_stmt 1 view .LVU377
 1047              	.LBB295:
 1048              	.LBI295:
 699:Src/main.c    **** {
 1049              		.loc 1 699 6 view .LVU378
 1050              	.LBE295:
 1051              	.LBE304:
 1052              	.LBE309:
 703:Src/main.c    ****   while (1)
 1053              		.loc 1 703 3 view .LVU379
 1054              	.LBB310:
 1055              	.LBB305:
 1056              	.LBB298:
 1057              	.LBB296:
 1058              	.LBI296:
 207:Drivers/CMSIS/Include/cmsis_gcc.h **** {
 1059              		.loc 2 207 27 view .LVU380
 1060              	.LBB297:
 1061              		.loc 2 209 3 view .LVU381
 1062              		.syntax unified
 1063              	@ 209 "Drivers/CMSIS/Include/cmsis_gcc.h" 1
 1064 01f2 72B6     		cpsid i
 1065              	@ 0 "" 2
 1066              		.thumb
 1067              		.syntax unified
 1068              	.L33:
 1069              	.LBE297:
 1070              	.LBE296:
 1071              	.LBE298:
 1072              	.LBE305:
 1073              	.LBE310:
 704:Src/main.c    ****   {
 1074              		.loc 1 704 3 view .LVU382
 1075              		.loc 1 706 3 view .LVU383
 704:Src/main.c    ****   {
 1076              		.loc 1 704 9 view .LVU384
 704:Src/main.c    ****   {
 1077              		.loc 1 704 3 view .LVU385
 1078              		.loc 1 706 3 view .LVU386
 704:Src/main.c    ****   {
 1079              		.loc 1 704 9 view .LVU387
ARM GAS  C:\Users\ep_ygh\AppData\Local\Temp\ccgAlmok.s 			page 42


 1080 01f4 FEE7     		b	.L33
 1081              	.L32:
 1082              	.LBB311:
 1083              	.LBB306:
 408:Src/main.c    ****   {
 1084              		.loc 1 408 3 view .LVU388
 408:Src/main.c    ****   {
 1085              		.loc 1 408 7 is_stmt 0 view .LVU389
 1086 01f6 1022     		movs	r2, #16
 1087 01f8 2046     		mov	r0, r4
 1088 01fa 1AA9     		add	r1, sp, #104
 1089 01fc FFF7FEFF 		bl	HAL_DAC_ConfigChannel
 1090              	.LVL24:
 408:Src/main.c    ****   {
 1091              		.loc 1 408 6 view .LVU390
 1092 0200 08B1     		cbz	r0, .L34
 410:Src/main.c    ****   }
 1093              		.loc 1 410 5 is_stmt 1 view .LVU391
 1094              	.LBB299:
 1095              	.LBI299:
 699:Src/main.c    **** {
 1096              		.loc 1 699 6 view .LVU392
 1097              	.LBE299:
 1098              	.LBE306:
 1099              	.LBE311:
 703:Src/main.c    ****   while (1)
 1100              		.loc 1 703 3 view .LVU393
 1101              	.LBB312:
 1102              	.LBB307:
 1103              	.LBB302:
 1104              	.LBB300:
 1105              	.LBI300:
 207:Drivers/CMSIS/Include/cmsis_gcc.h **** {
 1106              		.loc 2 207 27 view .LVU394
 1107              	.LBB301:
 1108              		.loc 2 209 3 view .LVU395
 1109              		.syntax unified
 1110              	@ 209 "Drivers/CMSIS/Include/cmsis_gcc.h" 1
 1111 0202 72B6     		cpsid i
 1112              	@ 0 "" 2
 1113              		.thumb
 1114              		.syntax unified
 1115              	.L35:
 1116              	.LBE301:
 1117              	.LBE300:
 1118              	.LBE302:
 1119              	.LBE307:
 1120              	.LBE312:
 704:Src/main.c    ****   {
 1121              		.loc 1 704 3 view .LVU396
 1122              		.loc 1 706 3 view .LVU397
 704:Src/main.c    ****   {
 1123              		.loc 1 704 9 view .LVU398
 704:Src/main.c    ****   {
 1124              		.loc 1 704 3 view .LVU399
 1125              		.loc 1 706 3 view .LVU400
 704:Src/main.c    ****   {
ARM GAS  C:\Users\ep_ygh\AppData\Local\Temp\ccgAlmok.s 			page 43


 1126              		.loc 1 704 9 view .LVU401
 1127 0204 FEE7     		b	.L35
 1128              	.L34:
 115:Src/main.c    ****   MX_TIM3_Init();
 1129              		.loc 1 115 3 view .LVU402
 1130              	.LBB313:
 1131              	.LBI313:
 423:Src/main.c    **** {
 1132              		.loc 1 423 13 view .LVU403
 1133              	.LBB314:
 430:Src/main.c    ****   TIM_MasterConfigTypeDef sMasterConfig = {0};
 1134              		.loc 1 430 3 view .LVU404
 430:Src/main.c    ****   TIM_MasterConfigTypeDef sMasterConfig = {0};
 1135              		.loc 1 430 26 is_stmt 0 view .LVU405
 1136 0206 0024     		movs	r4, #0
 439:Src/main.c    ****   htim1.Init.Prescaler = ((TIM_CLOCK_DIVIDER) - 1);
 1137              		.loc 1 439 18 view .LVU406
 1138 0208 384D     		ldr	r5, .L64+52
 430:Src/main.c    ****   TIM_MasterConfigTypeDef sMasterConfig = {0};
 1139              		.loc 1 430 26 view .LVU407
 1140 020a 1094     		str	r4, [sp, #64]
 431:Src/main.c    ****   TIMEx_BreakInputConfigTypeDef sBreakInputConfig = {0};
 1141              		.loc 1 431 3 is_stmt 1 view .LVU408
 434:Src/main.c    **** 
 1142              		.loc 1 434 34 is_stmt 0 view .LVU409
 1143 020c 2146     		mov	r1, r4
 1144 020e 2C22     		movs	r2, #44
 1145 0210 1AA8     		add	r0, sp, #104
 430:Src/main.c    ****   TIM_MasterConfigTypeDef sMasterConfig = {0};
 1146              		.loc 1 430 26 view .LVU410
 1147 0212 CDE90C44 		strd	r4, r4, [sp, #48]
 1148 0216 CDE90E44 		strd	r4, r4, [sp, #56]
 433:Src/main.c    ****   TIM_BreakDeadTimeConfigTypeDef sBreakDeadTimeConfig = {0};
 1149              		.loc 1 433 22 view .LVU411
 1150 021a CDE91244 		strd	r4, r4, [sp, #72]
 1151 021e CDE91444 		strd	r4, r4, [sp, #80]
 1152 0222 CDE91644 		strd	r4, r4, [sp, #88]
 431:Src/main.c    ****   TIMEx_BreakInputConfigTypeDef sBreakInputConfig = {0};
 1153              		.loc 1 431 27 view .LVU412
 1154 0226 CDE90544 		strd	r4, r4, [sp, #20]
 432:Src/main.c    ****   TIM_OC_InitTypeDef sConfigOC = {0};
 1155              		.loc 1 432 3 is_stmt 1 view .LVU413
 432:Src/main.c    ****   TIM_OC_InitTypeDef sConfigOC = {0};
 1156              		.loc 1 432 33 is_stmt 0 view .LVU414
 1157 022a CDE90944 		strd	r4, r4, [sp, #36]
 433:Src/main.c    ****   TIM_BreakDeadTimeConfigTypeDef sBreakDeadTimeConfig = {0};
 1158              		.loc 1 433 3 is_stmt 1 view .LVU415
 434:Src/main.c    **** 
 1159              		.loc 1 434 3 view .LVU416
 431:Src/main.c    ****   TIMEx_BreakInputConfigTypeDef sBreakInputConfig = {0};
 1160              		.loc 1 431 27 is_stmt 0 view .LVU417
 1161 022e 0494     		str	r4, [sp, #16]
 432:Src/main.c    ****   TIM_OC_InitTypeDef sConfigOC = {0};
 1162              		.loc 1 432 33 view .LVU418
 1163 0230 0894     		str	r4, [sp, #32]
 433:Src/main.c    ****   TIM_BreakDeadTimeConfigTypeDef sBreakDeadTimeConfig = {0};
 1164              		.loc 1 433 22 view .LVU419
ARM GAS  C:\Users\ep_ygh\AppData\Local\Temp\ccgAlmok.s 			page 44


 1165 0232 1894     		str	r4, [sp, #96]
 434:Src/main.c    **** 
 1166              		.loc 1 434 34 view .LVU420
 1167 0234 FFF7FEFF 		bl	memset
 1168              	.LVL25:
 439:Src/main.c    ****   htim1.Init.Prescaler = ((TIM_CLOCK_DIVIDER) - 1);
 1169              		.loc 1 439 3 is_stmt 1 view .LVU421
 439:Src/main.c    ****   htim1.Init.Prescaler = ((TIM_CLOCK_DIVIDER) - 1);
 1170              		.loc 1 439 18 is_stmt 0 view .LVU422
 1171 0238 2D4B     		ldr	r3, .L64+56
 440:Src/main.c    ****   htim1.Init.CounterMode = TIM_COUNTERMODE_CENTERALIGNED1;
 1172              		.loc 1 440 24 view .LVU423
 1173 023a 6C60     		str	r4, [r5, #4]
 445:Src/main.c    ****   if (HAL_TIM_Base_Init(&htim1) != HAL_OK)
 1174              		.loc 1 445 32 view .LVU424
 1175 023c AC61     		str	r4, [r5, #24]
 439:Src/main.c    ****   htim1.Init.Prescaler = ((TIM_CLOCK_DIVIDER) - 1);
 1176              		.loc 1 439 18 view .LVU425
 1177 023e 2B60     		str	r3, [r5]
 440:Src/main.c    ****   htim1.Init.CounterMode = TIM_COUNTERMODE_CENTERALIGNED1;
 1178              		.loc 1 440 3 is_stmt 1 view .LVU426
 441:Src/main.c    ****   htim1.Init.Period = ((PWM_PERIOD_CYCLES) / 2);
 1179              		.loc 1 441 3 view .LVU427
 442:Src/main.c    ****   htim1.Init.ClockDivision = TIM_CLOCKDIVISION_DIV2;
 1180              		.loc 1 442 21 is_stmt 0 view .LVU428
 1181 0240 2024     		movs	r4, #32
 1182 0242 40F6C413 		movw	r3, #2500
 1183 0246 C5E90243 		strd	r4, r3, [r5, #8]
 443:Src/main.c    ****   htim1.Init.RepetitionCounter = (REP_COUNTER);
 1184              		.loc 1 443 3 is_stmt 1 view .LVU429
 446:Src/main.c    ****   {
 1185              		.loc 1 446 7 is_stmt 0 view .LVU430
 1186 024a 2846     		mov	r0, r5
 444:Src/main.c    ****   htim1.Init.AutoReloadPreload = TIM_AUTORELOAD_PRELOAD_DISABLE;
 1187              		.loc 1 444 32 view .LVU431
 1188 024c 4FF48073 		mov	r3, #256
 1189 0250 0124     		movs	r4, #1
 1190 0252 C5E90434 		strd	r3, r4, [r5, #16]
 445:Src/main.c    ****   if (HAL_TIM_Base_Init(&htim1) != HAL_OK)
 1191              		.loc 1 445 3 is_stmt 1 view .LVU432
 446:Src/main.c    ****   {
 1192              		.loc 1 446 3 view .LVU433
 446:Src/main.c    ****   {
 1193              		.loc 1 446 7 is_stmt 0 view .LVU434
 1194 0256 FFF7FEFF 		bl	HAL_TIM_Base_Init
 1195              	.LVL26:
 446:Src/main.c    ****   {
 1196              		.loc 1 446 6 view .LVU435
 1197 025a 08B1     		cbz	r0, .L36
 448:Src/main.c    ****   }
 1198              		.loc 1 448 5 is_stmt 1 view .LVU436
 1199              	.LBB315:
 1200              	.LBI315:
 699:Src/main.c    **** {
 1201              		.loc 1 699 6 view .LVU437
 1202              	.LBE315:
 1203              	.LBE314:
ARM GAS  C:\Users\ep_ygh\AppData\Local\Temp\ccgAlmok.s 			page 45


 1204              	.LBE313:
 703:Src/main.c    ****   while (1)
 1205              		.loc 1 703 3 view .LVU438
 1206              	.LBB376:
 1207              	.LBB355:
 1208              	.LBB318:
 1209              	.LBB316:
 1210              	.LBI316:
 207:Drivers/CMSIS/Include/cmsis_gcc.h **** {
 1211              		.loc 2 207 27 view .LVU439
 1212              	.LBB317:
 1213              		.loc 2 209 3 view .LVU440
 1214              		.syntax unified
 1215              	@ 209 "Drivers/CMSIS/Include/cmsis_gcc.h" 1
 1216 025c 72B6     		cpsid i
 1217              	@ 0 "" 2
 1218              		.thumb
 1219              		.syntax unified
 1220              	.L37:
 1221              	.LBE317:
 1222              	.LBE316:
 1223              	.LBE318:
 1224              	.LBE355:
 1225              	.LBE376:
 704:Src/main.c    ****   {
 1226              		.loc 1 704 3 view .LVU441
 1227              		.loc 1 706 3 view .LVU442
 704:Src/main.c    ****   {
 1228              		.loc 1 704 9 view .LVU443
 704:Src/main.c    ****   {
 1229              		.loc 1 704 3 view .LVU444
 1230              		.loc 1 706 3 view .LVU445
 704:Src/main.c    ****   {
 1231              		.loc 1 704 9 view .LVU446
 1232 025e FEE7     		b	.L37
 1233              	.L36:
 1234              	.LBB377:
 1235              	.LBB356:
 450:Src/main.c    ****   {
 1236              		.loc 1 450 3 view .LVU447
 450:Src/main.c    ****   {
 1237              		.loc 1 450 7 is_stmt 0 view .LVU448
 1238 0260 2846     		mov	r0, r5
 1239 0262 FFF7FEFF 		bl	HAL_TIM_PWM_Init
 1240              	.LVL27:
 450:Src/main.c    ****   {
 1241              		.loc 1 450 6 view .LVU449
 1242 0266 08B1     		cbz	r0, .L38
 452:Src/main.c    ****   }
 1243              		.loc 1 452 5 is_stmt 1 view .LVU450
 1244              	.LBB319:
 1245              	.LBI319:
 699:Src/main.c    **** {
 1246              		.loc 1 699 6 view .LVU451
 1247              	.LBE319:
 1248              	.LBE356:
 1249              	.LBE377:
ARM GAS  C:\Users\ep_ygh\AppData\Local\Temp\ccgAlmok.s 			page 46


 703:Src/main.c    ****   while (1)
 1250              		.loc 1 703 3 view .LVU452
 1251              	.LBB378:
 1252              	.LBB357:
 1253              	.LBB322:
 1254              	.LBB320:
 1255              	.LBI320:
 207:Drivers/CMSIS/Include/cmsis_gcc.h **** {
 1256              		.loc 2 207 27 view .LVU453
 1257              	.LBB321:
 1258              		.loc 2 209 3 view .LVU454
 1259              		.syntax unified
 1260              	@ 209 "Drivers/CMSIS/Include/cmsis_gcc.h" 1
 1261 0268 72B6     		cpsid i
 1262              	@ 0 "" 2
 1263              		.thumb
 1264              		.syntax unified
 1265              	.L39:
 1266              	.LBE321:
 1267              	.LBE320:
 1268              	.LBE322:
 1269              	.LBE357:
 1270              	.LBE378:
 704:Src/main.c    ****   {
 1271              		.loc 1 704 3 view .LVU455
 1272              		.loc 1 706 3 view .LVU456
 704:Src/main.c    ****   {
 1273              		.loc 1 704 9 view .LVU457
 704:Src/main.c    ****   {
 1274              		.loc 1 704 3 view .LVU458
 1275              		.loc 1 706 3 view .LVU459
 704:Src/main.c    ****   {
 1276              		.loc 1 704 9 view .LVU460
 1277 026a FEE7     		b	.L39
 1278              	.L38:
 1279              	.LBB379:
 1280              	.LBB358:
 454:Src/main.c    ****   sSlaveConfig.InputTrigger = TIM_TS_ITR1;
 1281              		.loc 1 454 3 view .LVU461
 455:Src/main.c    ****   if (HAL_TIM_SlaveConfigSynchro(&htim1, &sSlaveConfig) != HAL_OK)
 1282              		.loc 1 455 3 view .LVU462
 454:Src/main.c    ****   sSlaveConfig.InputTrigger = TIM_TS_ITR1;
 1283              		.loc 1 454 26 is_stmt 0 view .LVU463
 1284 026c 0622     		movs	r2, #6
 1285 026e 1023     		movs	r3, #16
 456:Src/main.c    ****   {
 1286              		.loc 1 456 7 view .LVU464
 1287 0270 0CA9     		add	r1, sp, #48
 1288 0272 2846     		mov	r0, r5
 454:Src/main.c    ****   sSlaveConfig.InputTrigger = TIM_TS_ITR1;
 1289              		.loc 1 454 26 view .LVU465
 1290 0274 CDE90C23 		strd	r2, [sp, #48]
 456:Src/main.c    ****   {
 1291              		.loc 1 456 3 is_stmt 1 view .LVU466
 456:Src/main.c    ****   {
 1292              		.loc 1 456 7 is_stmt 0 view .LVU467
 1293 0278 FFF7FEFF 		bl	HAL_TIM_SlaveConfigSynchro
ARM GAS  C:\Users\ep_ygh\AppData\Local\Temp\ccgAlmok.s 			page 47


 1294              	.LVL28:
 456:Src/main.c    ****   {
 1295              		.loc 1 456 6 view .LVU468
 1296 027c 08B1     		cbz	r0, .L40
 458:Src/main.c    ****   }
 1297              		.loc 1 458 5 is_stmt 1 view .LVU469
 1298              	.LBB323:
 1299              	.LBI323:
 699:Src/main.c    **** {
 1300              		.loc 1 699 6 view .LVU470
 1301              	.LBE323:
 1302              	.LBE358:
 1303              	.LBE379:
 703:Src/main.c    ****   while (1)
 1304              		.loc 1 703 3 view .LVU471
 1305              	.LBB380:
 1306              	.LBB359:
 1307              	.LBB326:
 1308              	.LBB324:
 1309              	.LBI324:
 207:Drivers/CMSIS/Include/cmsis_gcc.h **** {
 1310              		.loc 2 207 27 view .LVU472
 1311              	.LBB325:
 1312              		.loc 2 209 3 view .LVU473
 1313              		.syntax unified
 1314              	@ 209 "Drivers/CMSIS/Include/cmsis_gcc.h" 1
 1315 027e 72B6     		cpsid i
 1316              	@ 0 "" 2
 1317              		.thumb
 1318              		.syntax unified
 1319              	.L41:
 1320              	.LBE325:
 1321              	.LBE324:
 1322              	.LBE326:
 1323              	.LBE359:
 1324              	.LBE380:
 704:Src/main.c    ****   {
 1325              		.loc 1 704 3 view .LVU474
 1326              		.loc 1 706 3 view .LVU475
 704:Src/main.c    ****   {
 1327              		.loc 1 704 9 view .LVU476
 704:Src/main.c    ****   {
 1328              		.loc 1 704 3 view .LVU477
 1329              		.loc 1 706 3 view .LVU478
 704:Src/main.c    ****   {
 1330              		.loc 1 704 9 view .LVU479
 1331 0280 FEE7     		b	.L41
 1332              	.L40:
 1333              	.LBB381:
 1334              	.LBB360:
 460:Src/main.c    ****   sMasterConfig.MasterOutputTrigger2 = TIM_TRGO2_RESET;
 1335              		.loc 1 460 3 view .LVU480
 461:Src/main.c    ****   sMasterConfig.MasterSlaveMode = TIM_MASTERSLAVEMODE_DISABLE;
 1336              		.loc 1 461 3 view .LVU481
 462:Src/main.c    ****   if (HAL_TIMEx_MasterConfigSynchronization(&htim1, &sMasterConfig) != HAL_OK)
 1337              		.loc 1 462 33 is_stmt 0 view .LVU482
 1338 0282 0690     		str	r0, [sp, #24]
ARM GAS  C:\Users\ep_ygh\AppData\Local\Temp\ccgAlmok.s 			page 48


 460:Src/main.c    ****   sMasterConfig.MasterOutputTrigger2 = TIM_TRGO2_RESET;
 1339              		.loc 1 460 37 view .LVU483
 1340 0284 7022     		movs	r2, #112
 1341 0286 0023     		movs	r3, #0
 463:Src/main.c    ****   {
 1342              		.loc 1 463 7 view .LVU484
 1343 0288 04A9     		add	r1, sp, #16
 1344 028a 2846     		mov	r0, r5
 460:Src/main.c    ****   sMasterConfig.MasterOutputTrigger2 = TIM_TRGO2_RESET;
 1345              		.loc 1 460 37 view .LVU485
 1346 028c CDE90423 		strd	r2, [sp, #16]
 462:Src/main.c    ****   if (HAL_TIMEx_MasterConfigSynchronization(&htim1, &sMasterConfig) != HAL_OK)
 1347              		.loc 1 462 3 is_stmt 1 view .LVU486
 463:Src/main.c    ****   {
 1348              		.loc 1 463 3 view .LVU487
 463:Src/main.c    ****   {
 1349              		.loc 1 463 7 is_stmt 0 view .LVU488
 1350 0290 FFF7FEFF 		bl	HAL_TIMEx_MasterConfigSynchronization
 1351              	.LVL29:
 463:Src/main.c    ****   {
 1352              		.loc 1 463 6 view .LVU489
 1353 0294 08B1     		cbz	r0, .L42
 465:Src/main.c    ****   }
 1354              		.loc 1 465 5 is_stmt 1 view .LVU490
 1355              	.LBB327:
 1356              	.LBI327:
 699:Src/main.c    **** {
 1357              		.loc 1 699 6 view .LVU491
 1358              	.LBE327:
 1359              	.LBE360:
 1360              	.LBE381:
 703:Src/main.c    ****   while (1)
 1361              		.loc 1 703 3 view .LVU492
 1362              	.LBB382:
 1363              	.LBB361:
 1364              	.LBB330:
 1365              	.LBB328:
 1366              	.LBI328:
 207:Drivers/CMSIS/Include/cmsis_gcc.h **** {
 1367              		.loc 2 207 27 view .LVU493
 1368              	.LBB329:
 1369              		.loc 2 209 3 view .LVU494
 1370              		.syntax unified
 1371              	@ 209 "Drivers/CMSIS/Include/cmsis_gcc.h" 1
 1372 0296 72B6     		cpsid i
 1373              	@ 0 "" 2
 1374              		.thumb
 1375              		.syntax unified
 1376              	.L43:
 1377              	.LBE329:
 1378              	.LBE328:
 1379              	.LBE330:
 1380              	.LBE361:
 1381              	.LBE382:
 704:Src/main.c    ****   {
 1382              		.loc 1 704 3 view .LVU495
 1383              		.loc 1 706 3 view .LVU496
ARM GAS  C:\Users\ep_ygh\AppData\Local\Temp\ccgAlmok.s 			page 49


 704:Src/main.c    ****   {
 1384              		.loc 1 704 9 view .LVU497
 704:Src/main.c    ****   {
 1385              		.loc 1 704 3 view .LVU498
 1386              		.loc 1 706 3 view .LVU499
 704:Src/main.c    ****   {
 1387              		.loc 1 704 9 view .LVU500
 1388 0298 FEE7     		b	.L43
 1389              	.L42:
 1390              	.LBB383:
 1391              	.LBB362:
 467:Src/main.c    ****   sBreakInputConfig.Enable = TIM_BREAKINPUTSOURCE_ENABLE;
 1392              		.loc 1 467 3 view .LVU501
 468:Src/main.c    ****   sBreakInputConfig.Polarity = TIM_BREAKINPUTSOURCE_POLARITY_LOW;
 1393              		.loc 1 468 3 view .LVU502
 470:Src/main.c    ****   {
 1394              		.loc 1 470 7 is_stmt 0 view .LVU503
 1395 029a 08AA     		add	r2, sp, #32
 1396 029c 2146     		mov	r1, r4
 1397 029e 2846     		mov	r0, r5
 467:Src/main.c    ****   sBreakInputConfig.Enable = TIM_BREAKINPUTSOURCE_ENABLE;
 1398              		.loc 1 467 28 view .LVU504
 1399 02a0 0126     		movs	r6, #1
 1400 02a2 0127     		movs	r7, #1
 1401 02a4 CDE90867 		strd	r6, [sp, #32]
 469:Src/main.c    ****   if (HAL_TIMEx_ConfigBreakInput(&htim1, TIM_BREAKINPUT_BRK, &sBreakInputConfig) != HAL_OK)
 1402              		.loc 1 469 3 is_stmt 1 view .LVU505
 470:Src/main.c    ****   {
 1403              		.loc 1 470 3 view .LVU506
 469:Src/main.c    ****   if (HAL_TIMEx_ConfigBreakInput(&htim1, TIM_BREAKINPUT_BRK, &sBreakInputConfig) != HAL_OK)
 1404              		.loc 1 469 30 is_stmt 0 view .LVU507
 1405 02a8 0A94     		str	r4, [sp, #40]
 470:Src/main.c    ****   {
 1406              		.loc 1 470 7 view .LVU508
 1407 02aa FFF7FEFF 		bl	HAL_TIMEx_ConfigBreakInput
 1408              	.LVL30:
 470:Src/main.c    ****   {
 1409              		.loc 1 470 6 view .LVU509
 1410 02ae 0246     		mov	r2, r0
 1411 02b0 00B3     		cbz	r0, .L44
 472:Src/main.c    ****   }
 1412              		.loc 1 472 5 is_stmt 1 view .LVU510
 1413              	.LBB331:
 1414              	.LBI331:
 699:Src/main.c    **** {
 1415              		.loc 1 699 6 view .LVU511
 1416              	.LBE331:
 1417              	.LBE362:
 1418              	.LBE383:
 703:Src/main.c    ****   while (1)
 1419              		.loc 1 703 3 view .LVU512
 1420              	.LBB384:
 1421              	.LBB363:
 1422              	.LBB334:
 1423              	.LBB332:
 1424              	.LBI332:
 207:Drivers/CMSIS/Include/cmsis_gcc.h **** {
ARM GAS  C:\Users\ep_ygh\AppData\Local\Temp\ccgAlmok.s 			page 50


 1425              		.loc 2 207 27 view .LVU513
 1426              	.LBB333:
 1427              		.loc 2 209 3 view .LVU514
 1428              		.syntax unified
 1429              	@ 209 "Drivers/CMSIS/Include/cmsis_gcc.h" 1
 1430 02b2 72B6     		cpsid i
 1431              	@ 0 "" 2
 1432              		.thumb
 1433              		.syntax unified
 1434              	.L45:
 1435              	.LBE333:
 1436              	.LBE332:
 1437              	.LBE334:
 1438              	.LBE363:
 1439              	.LBE384:
 704:Src/main.c    ****   {
 1440              		.loc 1 704 3 view .LVU515
 1441              		.loc 1 706 3 view .LVU516
 704:Src/main.c    ****   {
 1442              		.loc 1 704 9 view .LVU517
 704:Src/main.c    ****   {
 1443              		.loc 1 704 3 view .LVU518
 1444              		.loc 1 706 3 view .LVU519
 704:Src/main.c    ****   {
 1445              		.loc 1 704 9 view .LVU520
 1446 02b4 FEE7     		b	.L45
 1447              	.L65:
 1448 02b6 00BF     		.align	3
 1449              	.L64:
 1450 02b8 2000F014 		.word	351272992
 1451 02bc 06000000 		.word	6
 1452 02c0 00100240 		.word	1073876992
 1453 02c4 00040048 		.word	1207960576
 1454 02c8 00080048 		.word	1207961600
 1455 02cc 00000000 		.word	.LANCHOR0
 1456 02d0 00000450 		.word	1342439424
 1457 02d4 40002019 		.word	421527616
 1458 02d8 00002143 		.word	1126236160
 1459 02dc 0080F03E 		.word	1055948800
 1460 02e0 00209036 		.word	915415040
 1461 02e4 00000000 		.word	.LANCHOR1
 1462 02e8 00740040 		.word	1073771520
 1463 02ec 00000000 		.word	.LANCHOR2
 1464 02f0 002C0140 		.word	1073818624
 1465              	.L44:
 1466              	.LBB385:
 1467              	.LBB364:
 474:Src/main.c    ****   sConfigOC.Pulse = ((PWM_PERIOD_CYCLES) / 4);
 1468              		.loc 1 474 3 view .LVU521
 475:Src/main.c    ****   sConfigOC.OCPolarity = TIM_OCPOLARITY_HIGH;
 1469              		.loc 1 475 3 view .LVU522
 476:Src/main.c    ****   sConfigOC.OCNPolarity = TIM_OCNPOLARITY_HIGH;
 1470              		.loc 1 476 3 view .LVU523
 477:Src/main.c    ****   sConfigOC.OCFastMode = TIM_OCFAST_DISABLE;
 1471              		.loc 1 477 3 view .LVU524
 478:Src/main.c    ****   sConfigOC.OCIdleState = TIM_OCIDLESTATE_RESET;
 1472              		.loc 1 478 3 view .LVU525
ARM GAS  C:\Users\ep_ygh\AppData\Local\Temp\ccgAlmok.s 			page 51


 479:Src/main.c    ****   sConfigOC.OCNIdleState = TIM_OCNIDLESTATE_RESET;
 1473              		.loc 1 479 3 view .LVU526
 474:Src/main.c    ****   sConfigOC.Pulse = ((PWM_PERIOD_CYCLES) / 4);
 1474              		.loc 1 474 20 is_stmt 0 view .LVU527
 1475 02f4 40F2E241 		movw	r1, #1250
 480:Src/main.c    ****   if (HAL_TIM_PWM_ConfigChannel(&htim1, &sConfigOC, TIM_CHANNEL_1) != HAL_OK)
 1476              		.loc 1 480 26 view .LVU528
 1477 02f8 1890     		str	r0, [sp, #96]
 474:Src/main.c    ****   sConfigOC.Pulse = ((PWM_PERIOD_CYCLES) / 4);
 1478              		.loc 1 474 20 view .LVU529
 1479 02fa 6020     		movs	r0, #96
 1480 02fc CDE91201 		strd	r0, [sp, #72]
 1481 0300 0026     		movs	r6, #0
 1482 0302 0027     		movs	r7, #0
 481:Src/main.c    ****   {
 1483              		.loc 1 481 7 view .LVU530
 1484 0304 12A9     		add	r1, sp, #72
 1485 0306 2846     		mov	r0, r5
 474:Src/main.c    ****   sConfigOC.Pulse = ((PWM_PERIOD_CYCLES) / 4);
 1486              		.loc 1 474 20 view .LVU531
 1487 0308 CDE91467 		strd	r6, [sp, #80]
 1488 030c CDE91667 		strd	r6, [sp, #88]
 480:Src/main.c    ****   if (HAL_TIM_PWM_ConfigChannel(&htim1, &sConfigOC, TIM_CHANNEL_1) != HAL_OK)
 1489              		.loc 1 480 3 is_stmt 1 view .LVU532
 481:Src/main.c    ****   {
 1490              		.loc 1 481 3 view .LVU533
 481:Src/main.c    ****   {
 1491              		.loc 1 481 7 is_stmt 0 view .LVU534
 1492 0310 FFF7FEFF 		bl	HAL_TIM_PWM_ConfigChannel
 1493              	.LVL31:
 481:Src/main.c    ****   {
 1494              		.loc 1 481 6 view .LVU535
 1495 0314 08B1     		cbz	r0, .L46
 483:Src/main.c    ****   }
 1496              		.loc 1 483 5 is_stmt 1 view .LVU536
 1497              	.LBB335:
 1498              	.LBI335:
 699:Src/main.c    **** {
 1499              		.loc 1 699 6 view .LVU537
 1500              	.LBE335:
 1501              	.LBE364:
 1502              	.LBE385:
 703:Src/main.c    ****   while (1)
 1503              		.loc 1 703 3 view .LVU538
 1504              	.LBB386:
 1505              	.LBB365:
 1506              	.LBB338:
 1507              	.LBB336:
 1508              	.LBI336:
 207:Drivers/CMSIS/Include/cmsis_gcc.h **** {
 1509              		.loc 2 207 27 view .LVU539
 1510              	.LBB337:
 1511              		.loc 2 209 3 view .LVU540
 1512              		.syntax unified
 1513              	@ 209 "Drivers/CMSIS/Include/cmsis_gcc.h" 1
 1514 0316 72B6     		cpsid i
 1515              	@ 0 "" 2
ARM GAS  C:\Users\ep_ygh\AppData\Local\Temp\ccgAlmok.s 			page 52


 1516              		.thumb
 1517              		.syntax unified
 1518              	.L47:
 1519              	.LBE337:
 1520              	.LBE336:
 1521              	.LBE338:
 1522              	.LBE365:
 1523              	.LBE386:
 704:Src/main.c    ****   {
 1524              		.loc 1 704 3 view .LVU541
 1525              		.loc 1 706 3 view .LVU542
 704:Src/main.c    ****   {
 1526              		.loc 1 704 9 view .LVU543
 704:Src/main.c    ****   {
 1527              		.loc 1 704 3 view .LVU544
 1528              		.loc 1 706 3 view .LVU545
 704:Src/main.c    ****   {
 1529              		.loc 1 704 9 view .LVU546
 1530 0318 FEE7     		b	.L47
 1531              	.L46:
 1532              	.LBB387:
 1533              	.LBB366:
 485:Src/main.c    ****   {
 1534              		.loc 1 485 3 view .LVU547
 485:Src/main.c    ****   {
 1535              		.loc 1 485 7 is_stmt 0 view .LVU548
 1536 031a 0422     		movs	r2, #4
 1537 031c 12A9     		add	r1, sp, #72
 1538 031e 2846     		mov	r0, r5
 1539 0320 FFF7FEFF 		bl	HAL_TIM_PWM_ConfigChannel
 1540              	.LVL32:
 485:Src/main.c    ****   {
 1541              		.loc 1 485 6 view .LVU549
 1542 0324 08B1     		cbz	r0, .L48
 487:Src/main.c    ****   }
 1543              		.loc 1 487 5 is_stmt 1 view .LVU550
 1544              	.LBB339:
 1545              	.LBI339:
 699:Src/main.c    **** {
 1546              		.loc 1 699 6 view .LVU551
 1547              	.LBE339:
 1548              	.LBE366:
 1549              	.LBE387:
 703:Src/main.c    ****   while (1)
 1550              		.loc 1 703 3 view .LVU552
 1551              	.LBB388:
 1552              	.LBB367:
 1553              	.LBB342:
 1554              	.LBB340:
 1555              	.LBI340:
 207:Drivers/CMSIS/Include/cmsis_gcc.h **** {
 1556              		.loc 2 207 27 view .LVU553
 1557              	.LBB341:
 1558              		.loc 2 209 3 view .LVU554
 1559              		.syntax unified
 1560              	@ 209 "Drivers/CMSIS/Include/cmsis_gcc.h" 1
 1561 0326 72B6     		cpsid i
ARM GAS  C:\Users\ep_ygh\AppData\Local\Temp\ccgAlmok.s 			page 53


 1562              	@ 0 "" 2
 1563              		.thumb
 1564              		.syntax unified
 1565              	.L49:
 1566              	.LBE341:
 1567              	.LBE340:
 1568              	.LBE342:
 1569              	.LBE367:
 1570              	.LBE388:
 704:Src/main.c    ****   {
 1571              		.loc 1 704 3 view .LVU555
 1572              		.loc 1 706 3 view .LVU556
 704:Src/main.c    ****   {
 1573              		.loc 1 704 9 view .LVU557
 704:Src/main.c    ****   {
 1574              		.loc 1 704 3 view .LVU558
 1575              		.loc 1 706 3 view .LVU559
 704:Src/main.c    ****   {
 1576              		.loc 1 704 9 view .LVU560
 1577 0328 FEE7     		b	.L49
 1578              	.L48:
 1579              	.LBB389:
 1580              	.LBB368:
 489:Src/main.c    ****   {
 1581              		.loc 1 489 3 view .LVU561
 489:Src/main.c    ****   {
 1582              		.loc 1 489 7 is_stmt 0 view .LVU562
 1583 032a 0822     		movs	r2, #8
 1584 032c 12A9     		add	r1, sp, #72
 1585 032e 2846     		mov	r0, r5
 1586 0330 FFF7FEFF 		bl	HAL_TIM_PWM_ConfigChannel
 1587              	.LVL33:
 489:Src/main.c    ****   {
 1588              		.loc 1 489 6 view .LVU563
 1589 0334 08B1     		cbz	r0, .L50
 491:Src/main.c    ****   }
 1590              		.loc 1 491 5 is_stmt 1 view .LVU564
 1591              	.LBB343:
 1592              	.LBI343:
 699:Src/main.c    **** {
 1593              		.loc 1 699 6 view .LVU565
 1594              	.LBE343:
 1595              	.LBE368:
 1596              	.LBE389:
 703:Src/main.c    ****   while (1)
 1597              		.loc 1 703 3 view .LVU566
 1598              	.LBB390:
 1599              	.LBB369:
 1600              	.LBB346:
 1601              	.LBB344:
 1602              	.LBI344:
 207:Drivers/CMSIS/Include/cmsis_gcc.h **** {
 1603              		.loc 2 207 27 view .LVU567
 1604              	.LBB345:
 1605              		.loc 2 209 3 view .LVU568
 1606              		.syntax unified
 1607              	@ 209 "Drivers/CMSIS/Include/cmsis_gcc.h" 1
ARM GAS  C:\Users\ep_ygh\AppData\Local\Temp\ccgAlmok.s 			page 54


 1608 0336 72B6     		cpsid i
 1609              	@ 0 "" 2
 1610              		.thumb
 1611              		.syntax unified
 1612              	.L51:
 1613              	.LBE345:
 1614              	.LBE344:
 1615              	.LBE346:
 1616              	.LBE369:
 1617              	.LBE390:
 704:Src/main.c    ****   {
 1618              		.loc 1 704 3 view .LVU569
 1619              		.loc 1 706 3 view .LVU570
 704:Src/main.c    ****   {
 1620              		.loc 1 704 9 view .LVU571
 704:Src/main.c    ****   {
 1621              		.loc 1 704 3 view .LVU572
 1622              		.loc 1 706 3 view .LVU573
 704:Src/main.c    ****   {
 1623              		.loc 1 704 9 view .LVU574
 1624 0338 FEE7     		b	.L51
 1625              	.L50:
 1626              	.LBB391:
 1627              	.LBB370:
 493:Src/main.c    ****   sConfigOC.Pulse = (((PWM_PERIOD_CYCLES) / 2) - (HTMIN));
 1628              		.loc 1 493 3 view .LVU575
 494:Src/main.c    ****   if (HAL_TIM_PWM_ConfigChannel(&htim1, &sConfigOC, TIM_CHANNEL_4) != HAL_OK)
 1629              		.loc 1 494 3 view .LVU576
 493:Src/main.c    ****   sConfigOC.Pulse = (((PWM_PERIOD_CYCLES) / 2) - (HTMIN));
 1630              		.loc 1 493 20 is_stmt 0 view .LVU577
 1631 033a 9FED657B 		vldr.64	d7, .L66	@ int
 495:Src/main.c    ****   {
 1632              		.loc 1 495 7 view .LVU578
 1633 033e 0C22     		movs	r2, #12
 1634 0340 12A9     		add	r1, sp, #72
 1635 0342 2846     		mov	r0, r5
 493:Src/main.c    ****   sConfigOC.Pulse = (((PWM_PERIOD_CYCLES) / 2) - (HTMIN));
 1636              		.loc 1 493 20 view .LVU579
 1637 0344 8DED127B 		vstr.64	d7, [sp, #72]	@ int
 495:Src/main.c    ****   {
 1638              		.loc 1 495 3 is_stmt 1 view .LVU580
 495:Src/main.c    ****   {
 1639              		.loc 1 495 7 is_stmt 0 view .LVU581
 1640 0348 FFF7FEFF 		bl	HAL_TIM_PWM_ConfigChannel
 1641              	.LVL34:
 495:Src/main.c    ****   {
 1642              		.loc 1 495 6 view .LVU582
 1643 034c 08B1     		cbz	r0, .L52
 497:Src/main.c    ****   }
 1644              		.loc 1 497 5 is_stmt 1 view .LVU583
 1645              	.LBB347:
 1646              	.LBI347:
 699:Src/main.c    **** {
 1647              		.loc 1 699 6 view .LVU584
 1648              	.LBE347:
 1649              	.LBE370:
 1650              	.LBE391:
ARM GAS  C:\Users\ep_ygh\AppData\Local\Temp\ccgAlmok.s 			page 55


 703:Src/main.c    ****   while (1)
 1651              		.loc 1 703 3 view .LVU585
 1652              	.LBB392:
 1653              	.LBB371:
 1654              	.LBB350:
 1655              	.LBB348:
 1656              	.LBI348:
 207:Drivers/CMSIS/Include/cmsis_gcc.h **** {
 1657              		.loc 2 207 27 view .LVU586
 1658              	.LBB349:
 1659              		.loc 2 209 3 view .LVU587
 1660              		.syntax unified
 1661              	@ 209 "Drivers/CMSIS/Include/cmsis_gcc.h" 1
 1662 034e 72B6     		cpsid i
 1663              	@ 0 "" 2
 1664              		.thumb
 1665              		.syntax unified
 1666              	.L53:
 1667              	.LBE349:
 1668              	.LBE348:
 1669              	.LBE350:
 1670              	.LBE371:
 1671              	.LBE392:
 704:Src/main.c    ****   {
 1672              		.loc 1 704 3 view .LVU588
 1673              		.loc 1 706 3 view .LVU589
 704:Src/main.c    ****   {
 1674              		.loc 1 704 9 view .LVU590
 704:Src/main.c    ****   {
 1675              		.loc 1 704 3 view .LVU591
 1676              		.loc 1 706 3 view .LVU592
 704:Src/main.c    ****   {
 1677              		.loc 1 704 9 view .LVU593
 1678 0350 FEE7     		b	.L53
 1679              	.L52:
 1680              	.LBB393:
 1681              	.LBB372:
 499:Src/main.c    ****   sBreakDeadTimeConfig.OffStateIDLEMode = TIM_OSSI_ENABLE;
 1682              		.loc 1 499 3 view .LVU594
 500:Src/main.c    ****   sBreakDeadTimeConfig.LockLevel = TIM_LOCKLEVEL_OFF;
 1683              		.loc 1 500 3 view .LVU595
 501:Src/main.c    ****   sBreakDeadTimeConfig.DeadTime = 0;
 1684              		.loc 1 501 3 view .LVU596
 502:Src/main.c    ****   sBreakDeadTimeConfig.BreakState = TIM_BREAK_ENABLE;
 1685              		.loc 1 502 3 view .LVU597
 503:Src/main.c    ****   sBreakDeadTimeConfig.BreakPolarity = TIM_BREAKPOLARITY_HIGH;
 1686              		.loc 1 503 3 view .LVU598
 504:Src/main.c    ****   sBreakDeadTimeConfig.BreakFilter = 3;
 1687              		.loc 1 504 3 view .LVU599
 505:Src/main.c    ****   sBreakDeadTimeConfig.Break2State = TIM_BREAK2_DISABLE;
 1688              		.loc 1 505 3 view .LVU600
 506:Src/main.c    ****   sBreakDeadTimeConfig.Break2Polarity = TIM_BREAK2POLARITY_HIGH;
 1689              		.loc 1 506 3 view .LVU601
 507:Src/main.c    ****   sBreakDeadTimeConfig.Break2Filter = 3;
 1690              		.loc 1 507 3 view .LVU602
 508:Src/main.c    ****   sBreakDeadTimeConfig.AutomaticOutput = TIM_AUTOMATICOUTPUT_DISABLE;
 1691              		.loc 1 508 3 view .LVU603
ARM GAS  C:\Users\ep_ygh\AppData\Local\Temp\ccgAlmok.s 			page 56


 499:Src/main.c    ****   sBreakDeadTimeConfig.OffStateIDLEMode = TIM_OSSI_ENABLE;
 1692              		.loc 1 499 40 is_stmt 0 view .LVU604
 1693 0352 4FF48052 		mov	r2, #4096
 1694 0356 4FF40053 		mov	r3, #8192
 1695 035a CDE91E23 		strd	r2, [sp, #120]
 1696 035e 0322     		movs	r2, #3
 1697 0360 0023     		movs	r3, #0
 1698 0362 CDE92023 		strd	r2, [sp, #128]
 1699 0366 4FF00072 		mov	r2, #33554432
 1700 036a 0323     		movs	r3, #3
 1701 036c CDE92223 		strd	r2, [sp, #136]
 509:Src/main.c    ****   if (HAL_TIMEx_ConfigBreakDeadTime(&htim1, &sBreakDeadTimeConfig) != HAL_OK)
 1702              		.loc 1 509 3 is_stmt 1 view .LVU605
 510:Src/main.c    ****   {
 1703              		.loc 1 510 3 view .LVU606
 509:Src/main.c    ****   if (HAL_TIMEx_ConfigBreakDeadTime(&htim1, &sBreakDeadTimeConfig) != HAL_OK)
 1704              		.loc 1 509 40 is_stmt 0 view .LVU607
 1705 0370 2490     		str	r0, [sp, #144]
 499:Src/main.c    ****   sBreakDeadTimeConfig.OffStateIDLEMode = TIM_OSSI_ENABLE;
 1706              		.loc 1 499 40 view .LVU608
 1707 0372 4FF40062 		mov	r2, #2048
 1708 0376 4FF48063 		mov	r3, #1024
 510:Src/main.c    ****   {
 1709              		.loc 1 510 7 view .LVU609
 1710 037a 1AA9     		add	r1, sp, #104
 1711 037c 2846     		mov	r0, r5
 499:Src/main.c    ****   sBreakDeadTimeConfig.OffStateIDLEMode = TIM_OSSI_ENABLE;
 1712              		.loc 1 499 40 view .LVU610
 1713 037e CDE91C67 		strd	r6, [sp, #112]
 1714 0382 CDE91A23 		strd	r2, [sp, #104]
 510:Src/main.c    ****   {
 1715              		.loc 1 510 7 view .LVU611
 1716 0386 FFF7FEFF 		bl	HAL_TIMEx_ConfigBreakDeadTime
 1717              	.LVL35:
 510:Src/main.c    ****   {
 1718              		.loc 1 510 6 view .LVU612
 1719 038a 08B1     		cbz	r0, .L54
 512:Src/main.c    ****   }
 1720              		.loc 1 512 5 is_stmt 1 view .LVU613
 1721              	.LBB351:
 1722              	.LBI351:
 699:Src/main.c    **** {
 1723              		.loc 1 699 6 view .LVU614
 1724              	.LBE351:
 1725              	.LBE372:
 1726              	.LBE393:
 703:Src/main.c    ****   while (1)
 1727              		.loc 1 703 3 view .LVU615
 1728              	.LBB394:
 1729              	.LBB373:
 1730              	.LBB354:
 1731              	.LBB352:
 1732              	.LBI352:
 207:Drivers/CMSIS/Include/cmsis_gcc.h **** {
 1733              		.loc 2 207 27 view .LVU616
 1734              	.LBB353:
 1735              		.loc 2 209 3 view .LVU617
ARM GAS  C:\Users\ep_ygh\AppData\Local\Temp\ccgAlmok.s 			page 57


 1736              		.syntax unified
 1737              	@ 209 "Drivers/CMSIS/Include/cmsis_gcc.h" 1
 1738 038c 72B6     		cpsid i
 1739              	@ 0 "" 2
 1740              		.thumb
 1741              		.syntax unified
 1742              	.L55:
 1743              	.LBE353:
 1744              	.LBE352:
 1745              	.LBE354:
 1746              	.LBE373:
 1747              	.LBE394:
 704:Src/main.c    ****   {
 1748              		.loc 1 704 3 view .LVU618
 1749              		.loc 1 706 3 view .LVU619
 704:Src/main.c    ****   {
 1750              		.loc 1 704 9 view .LVU620
 704:Src/main.c    ****   {
 1751              		.loc 1 704 3 view .LVU621
 1752              		.loc 1 706 3 view .LVU622
 704:Src/main.c    ****   {
 1753              		.loc 1 704 9 view .LVU623
 1754 038e FEE7     		b	.L55
 1755              	.L54:
 1756              	.LBB395:
 1757              	.LBB374:
 517:Src/main.c    **** 
 1758              		.loc 1 517 3 view .LVU624
 1759              	.LBE374:
 1760              	.LBE395:
 1761              	.LBB396:
 1762              	.LBB397:
 539:Src/main.c    ****   htim3.Init.Prescaler = 0;
 1763              		.loc 1 539 18 is_stmt 0 view .LVU625
 1764 0390 514C     		ldr	r4, .L66+8
 1765              	.LBE397:
 1766              	.LBE396:
 1767              	.LBB410:
 1768              	.LBB375:
 517:Src/main.c    **** 
 1769              		.loc 1 517 3 view .LVU626
 1770 0392 5248     		ldr	r0, .L66+12
 1771 0394 FFF7FEFF 		bl	HAL_TIM_MspPostInit
 1772              	.LVL36:
 1773              	.LBE375:
 1774              	.LBE410:
 116:Src/main.c    ****   MX_USART2_UART_Init();
 1775              		.loc 1 116 3 is_stmt 1 view .LVU627
 1776              	.LBB411:
 1777              	.LBI396:
 526:Src/main.c    **** {
 1778              		.loc 1 526 13 view .LVU628
 1779              	.LBB406:
 533:Src/main.c    ****   TIM_MasterConfigTypeDef sMasterConfig = {0};
 1780              		.loc 1 533 3 view .LVU629
 539:Src/main.c    ****   htim3.Init.Prescaler = 0;
 1781              		.loc 1 539 18 is_stmt 0 view .LVU630
ARM GAS  C:\Users\ep_ygh\AppData\Local\Temp\ccgAlmok.s 			page 58


 1782 0398 514A     		ldr	r2, .L66+16
 1783 039a 2260     		str	r2, [r4]
 533:Src/main.c    ****   TIM_MasterConfigTypeDef sMasterConfig = {0};
 1784              		.loc 1 533 27 view .LVU631
 1785 039c 0023     		movs	r3, #0
 542:Src/main.c    ****   htim3.Init.ClockDivision = TIM_CLOCKDIVISION_DIV1;
 1786              		.loc 1 542 21 view .LVU632
 1787 039e 40F23F62 		movw	r2, #1599
 534:Src/main.c    **** 
 1788              		.loc 1 534 27 view .LVU633
 1789 03a2 CDE91233 		strd	r3, r3, [sp, #72]
 541:Src/main.c    ****   htim3.Init.Period = M1_PULSE_NBR;
 1790              		.loc 1 541 26 view .LVU634
 1791 03a6 C4E90133 		strd	r3, r3, [r4, #4]
 533:Src/main.c    ****   TIM_MasterConfigTypeDef sMasterConfig = {0};
 1792              		.loc 1 533 27 view .LVU635
 1793 03aa 1B93     		str	r3, [sp, #108]
 1794 03ac 1D93     		str	r3, [sp, #116]
 1795 03ae 1F93     		str	r3, [sp, #124]
 1796 03b0 2193     		str	r3, [sp, #132]
 534:Src/main.c    **** 
 1797              		.loc 1 534 3 is_stmt 1 view .LVU636
 534:Src/main.c    **** 
 1798              		.loc 1 534 27 is_stmt 0 view .LVU637
 1799 03b2 1493     		str	r3, [sp, #80]
 539:Src/main.c    ****   htim3.Init.Prescaler = 0;
 1800              		.loc 1 539 3 is_stmt 1 view .LVU638
 540:Src/main.c    ****   htim3.Init.CounterMode = TIM_COUNTERMODE_UP;
 1801              		.loc 1 540 3 view .LVU639
 542:Src/main.c    ****   htim3.Init.ClockDivision = TIM_CLOCKDIVISION_DIV1;
 1802              		.loc 1 542 3 view .LVU640
 542:Src/main.c    ****   htim3.Init.ClockDivision = TIM_CLOCKDIVISION_DIV1;
 1803              		.loc 1 542 21 is_stmt 0 view .LVU641
 1804 03b4 E260     		str	r2, [r4, #12]
 543:Src/main.c    ****   htim3.Init.AutoReloadPreload = TIM_AUTORELOAD_PRELOAD_DISABLE;
 1805              		.loc 1 543 3 is_stmt 1 view .LVU642
 543:Src/main.c    ****   htim3.Init.AutoReloadPreload = TIM_AUTORELOAD_PRELOAD_DISABLE;
 1806              		.loc 1 543 28 is_stmt 0 view .LVU643
 1807 03b6 2361     		str	r3, [r4, #16]
 544:Src/main.c    ****   sConfig.EncoderMode = TIM_ENCODERMODE_TI12;
 1808              		.loc 1 544 3 is_stmt 1 view .LVU644
 545:Src/main.c    ****   sConfig.IC1Polarity = TIM_ICPOLARITY_RISING;
 1809              		.loc 1 545 23 is_stmt 0 view .LVU645
 1810 03b8 0322     		movs	r2, #3
 544:Src/main.c    ****   sConfig.EncoderMode = TIM_ENCODERMODE_TI12;
 1811              		.loc 1 544 32 view .LVU646
 1812 03ba A361     		str	r3, [r4, #24]
 545:Src/main.c    ****   sConfig.IC1Polarity = TIM_ICPOLARITY_RISING;
 1813              		.loc 1 545 3 is_stmt 1 view .LVU647
 549:Src/main.c    ****   sConfig.IC2Polarity = TIM_ICPOLARITY_RISING;
 1814              		.loc 1 549 21 is_stmt 0 view .LVU648
 1815 03bc 0926     		movs	r6, #9
 547:Src/main.c    ****   sConfig.IC1Prescaler = TIM_ICPSC_DIV1;
 1816              		.loc 1 547 24 view .LVU649
 1817 03be 0123     		movs	r3, #1
 554:Src/main.c    ****   {
 1818              		.loc 1 554 7 view .LVU650
ARM GAS  C:\Users\ep_ygh\AppData\Local\Temp\ccgAlmok.s 			page 59


 1819 03c0 1AA9     		add	r1, sp, #104
 1820 03c2 2046     		mov	r0, r4
 547:Src/main.c    ****   sConfig.IC1Prescaler = TIM_ICPSC_DIV1;
 1821              		.loc 1 547 24 view .LVU651
 1822 03c4 1C93     		str	r3, [sp, #112]
 551:Src/main.c    ****   sConfig.IC2Prescaler = TIM_ICPSC_DIV1;
 1823              		.loc 1 551 24 view .LVU652
 1824 03c6 2093     		str	r3, [sp, #128]
 545:Src/main.c    ****   sConfig.IC1Polarity = TIM_ICPOLARITY_RISING;
 1825              		.loc 1 545 23 view .LVU653
 1826 03c8 1A92     		str	r2, [sp, #104]
 546:Src/main.c    ****   sConfig.IC1Selection = TIM_ICSELECTION_DIRECTTI;
 1827              		.loc 1 546 3 is_stmt 1 view .LVU654
 547:Src/main.c    ****   sConfig.IC1Prescaler = TIM_ICPSC_DIV1;
 1828              		.loc 1 547 3 view .LVU655
 548:Src/main.c    ****   sConfig.IC1Filter = M1_ENC_IC_FILTER;
 1829              		.loc 1 548 3 view .LVU656
 549:Src/main.c    ****   sConfig.IC2Polarity = TIM_ICPOLARITY_RISING;
 1830              		.loc 1 549 3 view .LVU657
 549:Src/main.c    ****   sConfig.IC2Polarity = TIM_ICPOLARITY_RISING;
 1831              		.loc 1 549 21 is_stmt 0 view .LVU658
 1832 03ca 1E96     		str	r6, [sp, #120]
 550:Src/main.c    ****   sConfig.IC2Selection = TIM_ICSELECTION_DIRECTTI;
 1833              		.loc 1 550 3 is_stmt 1 view .LVU659
 551:Src/main.c    ****   sConfig.IC2Prescaler = TIM_ICPSC_DIV1;
 1834              		.loc 1 551 3 view .LVU660
 552:Src/main.c    ****   sConfig.IC2Filter = M1_ENC_IC_FILTER;
 1835              		.loc 1 552 3 view .LVU661
 553:Src/main.c    ****   if (HAL_TIM_Encoder_Init(&htim3, &sConfig) != HAL_OK)
 1836              		.loc 1 553 3 view .LVU662
 553:Src/main.c    ****   if (HAL_TIM_Encoder_Init(&htim3, &sConfig) != HAL_OK)
 1837              		.loc 1 553 21 is_stmt 0 view .LVU663
 1838 03cc 2296     		str	r6, [sp, #136]
 554:Src/main.c    ****   {
 1839              		.loc 1 554 3 is_stmt 1 view .LVU664
 554:Src/main.c    ****   {
 1840              		.loc 1 554 7 is_stmt 0 view .LVU665
 1841 03ce FFF7FEFF 		bl	HAL_TIM_Encoder_Init
 1842              	.LVL37:
 554:Src/main.c    ****   {
 1843              		.loc 1 554 6 view .LVU666
 1844 03d2 0346     		mov	r3, r0
 1845 03d4 08B1     		cbz	r0, .L56
 556:Src/main.c    ****   }
 1846              		.loc 1 556 5 is_stmt 1 view .LVU667
 1847              	.LBB398:
 1848              	.LBI398:
 699:Src/main.c    **** {
 1849              		.loc 1 699 6 view .LVU668
 1850              	.LBE398:
 1851              	.LBE406:
 1852              	.LBE411:
 703:Src/main.c    ****   while (1)
 1853              		.loc 1 703 3 view .LVU669
 1854              	.LBB412:
 1855              	.LBB407:
 1856              	.LBB401:
ARM GAS  C:\Users\ep_ygh\AppData\Local\Temp\ccgAlmok.s 			page 60


 1857              	.LBB399:
 1858              	.LBI399:
 207:Drivers/CMSIS/Include/cmsis_gcc.h **** {
 1859              		.loc 2 207 27 view .LVU670
 1860              	.LBB400:
 1861              		.loc 2 209 3 view .LVU671
 1862              		.syntax unified
 1863              	@ 209 "Drivers/CMSIS/Include/cmsis_gcc.h" 1
 1864 03d6 72B6     		cpsid i
 1865              	@ 0 "" 2
 1866              		.thumb
 1867              		.syntax unified
 1868              	.L57:
 1869              	.LBE400:
 1870              	.LBE399:
 1871              	.LBE401:
 1872              	.LBE407:
 1873              	.LBE412:
 704:Src/main.c    ****   {
 1874              		.loc 1 704 3 view .LVU672
 1875              		.loc 1 706 3 view .LVU673
 704:Src/main.c    ****   {
 1876              		.loc 1 704 9 view .LVU674
 704:Src/main.c    ****   {
 1877              		.loc 1 704 3 view .LVU675
 1878              		.loc 1 706 3 view .LVU676
 704:Src/main.c    ****   {
 1879              		.loc 1 704 9 view .LVU677
 1880 03d8 FEE7     		b	.L57
 1881              	.L56:
 1882              	.LBB413:
 1883              	.LBB408:
 558:Src/main.c    ****   sMasterConfig.MasterSlaveMode = TIM_MASTERSLAVEMODE_DISABLE;
 1884              		.loc 1 558 3 view .LVU678
 560:Src/main.c    ****   {
 1885              		.loc 1 560 7 is_stmt 0 view .LVU679
 1886 03da 2046     		mov	r0, r4
 1887 03dc 12A9     		add	r1, sp, #72
 558:Src/main.c    ****   sMasterConfig.MasterSlaveMode = TIM_MASTERSLAVEMODE_DISABLE;
 1888              		.loc 1 558 37 view .LVU680
 1889 03de 1293     		str	r3, [sp, #72]
 559:Src/main.c    ****   if (HAL_TIMEx_MasterConfigSynchronization(&htim3, &sMasterConfig) != HAL_OK)
 1890              		.loc 1 559 3 is_stmt 1 view .LVU681
 559:Src/main.c    ****   if (HAL_TIMEx_MasterConfigSynchronization(&htim3, &sMasterConfig) != HAL_OK)
 1891              		.loc 1 559 33 is_stmt 0 view .LVU682
 1892 03e0 1493     		str	r3, [sp, #80]
 560:Src/main.c    ****   {
 1893              		.loc 1 560 3 is_stmt 1 view .LVU683
 560:Src/main.c    ****   {
 1894              		.loc 1 560 7 is_stmt 0 view .LVU684
 1895 03e2 FFF7FEFF 		bl	HAL_TIMEx_MasterConfigSynchronization
 1896              	.LVL38:
 560:Src/main.c    ****   {
 1897              		.loc 1 560 6 view .LVU685
 1898 03e6 08B1     		cbz	r0, .L58
 562:Src/main.c    ****   }
 1899              		.loc 1 562 5 is_stmt 1 view .LVU686
ARM GAS  C:\Users\ep_ygh\AppData\Local\Temp\ccgAlmok.s 			page 61


 1900              	.LBB402:
 1901              	.LBI402:
 699:Src/main.c    **** {
 1902              		.loc 1 699 6 view .LVU687
 1903              	.LBE402:
 1904              	.LBE408:
 1905              	.LBE413:
 703:Src/main.c    ****   while (1)
 1906              		.loc 1 703 3 view .LVU688
 1907              	.LBB414:
 1908              	.LBB409:
 1909              	.LBB405:
 1910              	.LBB403:
 1911              	.LBI403:
 207:Drivers/CMSIS/Include/cmsis_gcc.h **** {
 1912              		.loc 2 207 27 view .LVU689
 1913              	.LBB404:
 1914              		.loc 2 209 3 view .LVU690
 1915              		.syntax unified
 1916              	@ 209 "Drivers/CMSIS/Include/cmsis_gcc.h" 1
 1917 03e8 72B6     		cpsid i
 1918              	@ 0 "" 2
 1919              		.thumb
 1920              		.syntax unified
 1921              	.L59:
 1922              	.LBE404:
 1923              	.LBE403:
 1924              	.LBE405:
 1925              	.LBE409:
 1926              	.LBE414:
 704:Src/main.c    ****   {
 1927              		.loc 1 704 3 view .LVU691
 1928              		.loc 1 706 3 view .LVU692
 704:Src/main.c    ****   {
 1929              		.loc 1 704 9 view .LVU693
 704:Src/main.c    ****   {
 1930              		.loc 1 704 3 view .LVU694
 1931              		.loc 1 706 3 view .LVU695
 704:Src/main.c    ****   {
 1932              		.loc 1 704 9 view .LVU696
 1933 03ea FEE7     		b	.L59
 1934              	.L58:
 117:Src/main.c    ****   MX_MotorControl_Init();
 1935              		.loc 1 117 3 view .LVU697
 1936              	.LBB415:
 1937              	.LBI415:
 575:Src/main.c    **** {
 1938              		.loc 1 575 13 view .LVU698
 1939              	.LBB416:
 585:Src/main.c    ****   huart2.Init.BaudRate = 1843200;
 1940              		.loc 1 585 3 view .LVU699
 585:Src/main.c    ****   huart2.Init.BaudRate = 1843200;
 1941              		.loc 1 585 19 is_stmt 0 view .LVU700
 1942 03ec 3D4B     		ldr	r3, .L66+20
 586:Src/main.c    ****   huart2.Init.WordLength = UART_WORDLENGTH_8B;
 1943              		.loc 1 586 24 view .LVU701
 1944 03ee 3E49     		ldr	r1, .L66+24
ARM GAS  C:\Users\ep_ygh\AppData\Local\Temp\ccgAlmok.s 			page 62


 589:Src/main.c    ****   huart2.Init.Mode = UART_MODE_TX_RX;
 1945              		.loc 1 589 22 view .LVU702
 1946 03f0 1861     		str	r0, [r3, #16]
 586:Src/main.c    ****   huart2.Init.WordLength = UART_WORDLENGTH_8B;
 1947              		.loc 1 586 24 view .LVU703
 1948 03f2 4FF4E112 		mov	r2, #1843200
 588:Src/main.c    ****   huart2.Init.Parity = UART_PARITY_NONE;
 1949              		.loc 1 588 24 view .LVU704
 1950 03f6 C3E90200 		strd	r0, r0, [r3, #8]
 592:Src/main.c    ****   huart2.Init.OneBitSampling = UART_ONE_BIT_SAMPLE_DISABLE;
 1951              		.loc 1 592 28 view .LVU705
 1952 03fa C3E90600 		strd	r0, r0, [r3, #24]
 594:Src/main.c    ****   if (HAL_UART_Init(&huart2) != HAL_OK)
 1953              		.loc 1 594 38 view .LVU706
 1954 03fe C3E90800 		strd	r0, r0, [r3, #32]
 586:Src/main.c    ****   huart2.Init.WordLength = UART_WORDLENGTH_8B;
 1955              		.loc 1 586 24 view .LVU707
 1956 0402 C3E90012 		strd	r1, r2, [r3]
 587:Src/main.c    ****   huart2.Init.StopBits = UART_STOPBITS_1;
 1957              		.loc 1 587 3 is_stmt 1 view .LVU708
 588:Src/main.c    ****   huart2.Init.Parity = UART_PARITY_NONE;
 1958              		.loc 1 588 3 view .LVU709
 589:Src/main.c    ****   huart2.Init.Mode = UART_MODE_TX_RX;
 1959              		.loc 1 589 3 view .LVU710
 590:Src/main.c    ****   huart2.Init.HwFlowCtl = UART_HWCONTROL_NONE;
 1960              		.loc 1 590 3 view .LVU711
 595:Src/main.c    ****   {
 1961              		.loc 1 595 7 is_stmt 0 view .LVU712
 1962 0406 1846     		mov	r0, r3
 590:Src/main.c    ****   huart2.Init.HwFlowCtl = UART_HWCONTROL_NONE;
 1963              		.loc 1 590 20 view .LVU713
 1964 0408 0C22     		movs	r2, #12
 1965 040a 5A61     		str	r2, [r3, #20]
 591:Src/main.c    ****   huart2.Init.OverSampling = UART_OVERSAMPLING_16;
 1966              		.loc 1 591 3 is_stmt 1 view .LVU714
 592:Src/main.c    ****   huart2.Init.OneBitSampling = UART_ONE_BIT_SAMPLE_DISABLE;
 1967              		.loc 1 592 3 view .LVU715
 593:Src/main.c    ****   huart2.AdvancedInit.AdvFeatureInit = UART_ADVFEATURE_NO_INIT;
 1968              		.loc 1 593 3 view .LVU716
 594:Src/main.c    ****   if (HAL_UART_Init(&huart2) != HAL_OK)
 1969              		.loc 1 594 3 view .LVU717
 595:Src/main.c    ****   {
 1970              		.loc 1 595 3 view .LVU718
 595:Src/main.c    ****   {
 1971              		.loc 1 595 7 is_stmt 0 view .LVU719
 1972 040c FFF7FEFF 		bl	HAL_UART_Init
 1973              	.LVL39:
 595:Src/main.c    ****   {
 1974              		.loc 1 595 6 view .LVU720
 1975 0410 0546     		mov	r5, r0
 1976 0412 08B1     		cbz	r0, .L60
 597:Src/main.c    ****   }
 1977              		.loc 1 597 5 is_stmt 1 view .LVU721
 1978              	.LBB417:
 1979              	.LBI417:
 699:Src/main.c    **** {
 1980              		.loc 1 699 6 view .LVU722
ARM GAS  C:\Users\ep_ygh\AppData\Local\Temp\ccgAlmok.s 			page 63


 1981              	.LBE417:
 1982              	.LBE416:
 1983              	.LBE415:
 703:Src/main.c    ****   while (1)
 1984              		.loc 1 703 3 view .LVU723
 1985              	.LBB422:
 1986              	.LBB421:
 1987              	.LBB420:
 1988              	.LBB418:
 1989              	.LBI418:
 207:Drivers/CMSIS/Include/cmsis_gcc.h **** {
 1990              		.loc 2 207 27 view .LVU724
 1991              	.LBB419:
 1992              		.loc 2 209 3 view .LVU725
 1993              		.syntax unified
 1994              	@ 209 "Drivers/CMSIS/Include/cmsis_gcc.h" 1
 1995 0414 72B6     		cpsid i
 1996              	@ 0 "" 2
 1997              		.thumb
 1998              		.syntax unified
 1999              	.L61:
 2000              	.LBE419:
 2001              	.LBE418:
 2002              	.LBE420:
 2003              	.LBE421:
 2004              	.LBE422:
 704:Src/main.c    ****   {
 2005              		.loc 1 704 3 view .LVU726
 2006              		.loc 1 706 3 view .LVU727
 704:Src/main.c    ****   {
 2007              		.loc 1 704 9 view .LVU728
 704:Src/main.c    ****   {
 2008              		.loc 1 704 3 view .LVU729
 2009              		.loc 1 706 3 view .LVU730
 704:Src/main.c    ****   {
 2010              		.loc 1 704 9 view .LVU731
 2011 0416 FEE7     		b	.L61
 2012              	.L60:
 118:Src/main.c    **** 
 2013              		.loc 1 118 3 view .LVU732
 2014 0418 FFF7FEFF 		bl	MX_MotorControl_Init
 2015              	.LVL40:
 121:Src/main.c    ****   /* USER CODE BEGIN 2 */
 2016              		.loc 1 121 3 view .LVU733
 2017              	.LBB423:
 2018              	.LBI423:
 224:Src/main.c    **** {
 2019              		.loc 1 224 13 view .LVU734
 2020              	.LBB424:
 227:Src/main.c    ****   HAL_NVIC_EnableIRQ(USART2_IRQn);
 2021              		.loc 1 227 3 view .LVU735
 2022 041c 2A46     		mov	r2, r5
 2023 041e 0821     		movs	r1, #8
 2024 0420 2620     		movs	r0, #38
 2025 0422 FFF7FEFF 		bl	HAL_NVIC_SetPriority
 2026              	.LVL41:
 228:Src/main.c    ****   /* DMA1_Channel6_IRQn interrupt configuration */
ARM GAS  C:\Users\ep_ygh\AppData\Local\Temp\ccgAlmok.s 			page 64


 2027              		.loc 1 228 3 view .LVU736
 2028 0426 2620     		movs	r0, #38
 2029 0428 FFF7FEFF 		bl	HAL_NVIC_EnableIRQ
 2030              	.LVL42:
 230:Src/main.c    ****   HAL_NVIC_EnableIRQ(DMA1_Channel6_IRQn);
 2031              		.loc 1 230 3 view .LVU737
 2032 042c 2A46     		mov	r2, r5
 2033 042e 0821     		movs	r1, #8
 2034 0430 1020     		movs	r0, #16
 2035 0432 FFF7FEFF 		bl	HAL_NVIC_SetPriority
 2036              	.LVL43:
 231:Src/main.c    ****   /* TIM1_BRK_TIM15_IRQn interrupt configuration */
 2037              		.loc 1 231 3 view .LVU738
 2038 0436 1020     		movs	r0, #16
 2039 0438 FFF7FEFF 		bl	HAL_NVIC_EnableIRQ
 2040              	.LVL44:
 233:Src/main.c    ****   HAL_NVIC_EnableIRQ(TIM1_BRK_TIM15_IRQn);
 2041              		.loc 1 233 3 view .LVU739
 2042 043c 3146     		mov	r1, r6
 2043 043e 2A46     		mov	r2, r5
 2044 0440 1820     		movs	r0, #24
 2045 0442 FFF7FEFF 		bl	HAL_NVIC_SetPriority
 2046              	.LVL45:
 234:Src/main.c    ****   /* TIM1_UP_TIM16_IRQn interrupt configuration */
 2047              		.loc 1 234 3 view .LVU740
 2048 0446 1820     		movs	r0, #24
 2049 0448 FFF7FEFF 		bl	HAL_NVIC_EnableIRQ
 2050              	.LVL46:
 236:Src/main.c    ****   HAL_NVIC_EnableIRQ(TIM1_UP_TIM16_IRQn);
 2051              		.loc 1 236 3 view .LVU741
 2052 044c 2A46     		mov	r2, r5
 2053 044e 0521     		movs	r1, #5
 2054 0450 1920     		movs	r0, #25
 2055 0452 FFF7FEFF 		bl	HAL_NVIC_SetPriority
 2056              	.LVL47:
 237:Src/main.c    ****   /* ADC1_2_IRQn interrupt configuration */
 2057              		.loc 1 237 3 view .LVU742
 2058 0456 1920     		movs	r0, #25
 2059 0458 FFF7FEFF 		bl	HAL_NVIC_EnableIRQ
 2060              	.LVL48:
 239:Src/main.c    ****   HAL_NVIC_EnableIRQ(ADC1_2_IRQn);
 2061              		.loc 1 239 3 view .LVU743
 2062 045c 2A46     		mov	r2, r5
 2063 045e 0721     		movs	r1, #7
 2064 0460 1220     		movs	r0, #18
 2065 0462 FFF7FEFF 		bl	HAL_NVIC_SetPriority
 2066              	.LVL49:
 240:Src/main.c    ****   /* TIM3_IRQn interrupt configuration */
 2067              		.loc 1 240 3 view .LVU744
 2068 0466 1220     		movs	r0, #18
 2069 0468 FFF7FEFF 		bl	HAL_NVIC_EnableIRQ
 2070              	.LVL50:
 242:Src/main.c    ****   HAL_NVIC_EnableIRQ(TIM3_IRQn);
 2071              		.loc 1 242 3 view .LVU745
 2072 046c 2A46     		mov	r2, r5
 2073 046e 0821     		movs	r1, #8
 2074 0470 1D20     		movs	r0, #29
ARM GAS  C:\Users\ep_ygh\AppData\Local\Temp\ccgAlmok.s 			page 65


 2075 0472 FFF7FEFF 		bl	HAL_NVIC_SetPriority
 2076              	.LVL51:
 243:Src/main.c    ****   /* EXTI15_10_IRQn interrupt configuration */
 2077              		.loc 1 243 3 view .LVU746
 2078 0476 1D20     		movs	r0, #29
 2079 0478 FFF7FEFF 		bl	HAL_NVIC_EnableIRQ
 2080              	.LVL52:
 245:Src/main.c    ****   HAL_NVIC_EnableIRQ(EXTI15_10_IRQn);
 2081              		.loc 1 245 3 view .LVU747
 2082              	.LBE424:
 2083              	.LBE423:
 144:Src/main.c    ****   mediumFrequencyHandle = osThreadCreate(osThread(mediumFrequency), NULL);
 2084              		.loc 1 144 3 is_stmt 0 view .LVU748
 2085 047c 1B4C     		ldr	r4, .L66+28
 2086              	.LBB426:
 2087              	.LBB425:
 245:Src/main.c    ****   HAL_NVIC_EnableIRQ(EXTI15_10_IRQn);
 2088              		.loc 1 245 3 view .LVU749
 2089 047e 2A46     		mov	r2, r5
 2090 0480 0821     		movs	r1, #8
 2091 0482 2820     		movs	r0, #40
 2092 0484 FFF7FEFF 		bl	HAL_NVIC_SetPriority
 2093              	.LVL53:
 246:Src/main.c    **** }
 2094              		.loc 1 246 3 is_stmt 1 view .LVU750
 2095 0488 2820     		movs	r0, #40
 2096 048a FFF7FEFF 		bl	HAL_NVIC_EnableIRQ
 2097              	.LVL54:
 2098              	.LBE425:
 2099              	.LBE426:
 144:Src/main.c    ****   mediumFrequencyHandle = osThreadCreate(osThread(mediumFrequency), NULL);
 2100              		.loc 1 144 3 view .LVU751
 2101 048e 0FCC     		ldmia	r4!, {r0, r1, r2, r3}
 2102 0490 12AE     		add	r6, sp, #72
 2103 0492 0FC6     		stmia	r6!, {r0, r1, r2, r3}
 2104 0494 94E80700 		ldm	r4, {r0, r1, r2}
 2105 0498 86E80700 		stm	r6, {r0, r1, r2}
 145:Src/main.c    **** 
 2106              		.loc 1 145 3 view .LVU752
 145:Src/main.c    **** 
 2107              		.loc 1 145 27 is_stmt 0 view .LVU753
 2108 049c 2946     		mov	r1, r5
 2109 049e 12A8     		add	r0, sp, #72
 2110 04a0 FFF7FEFF 		bl	osThreadCreate
 2111              	.LVL55:
 145:Src/main.c    **** 
 2112              		.loc 1 145 25 view .LVU754
 2113 04a4 124B     		ldr	r3, .L66+32
 148:Src/main.c    ****   safetyHandle = osThreadCreate(osThread(safety), NULL);
 2114              		.loc 1 148 3 view .LVU755
 2115 04a6 0C34     		adds	r4, r4, #12
 145:Src/main.c    **** 
 2116              		.loc 1 145 25 view .LVU756
 2117 04a8 1860     		str	r0, [r3]
 148:Src/main.c    ****   safetyHandle = osThreadCreate(osThread(safety), NULL);
 2118              		.loc 1 148 3 is_stmt 1 view .LVU757
 2119 04aa 0FCC     		ldmia	r4!, {r0, r1, r2, r3}
ARM GAS  C:\Users\ep_ygh\AppData\Local\Temp\ccgAlmok.s 			page 66


 2120 04ac 1AAE     		add	r6, sp, #104
 2121 04ae 0FC6     		stmia	r6!, {r0, r1, r2, r3}
 2122 04b0 94E80700 		ldm	r4, {r0, r1, r2}
 2123 04b4 86E80700 		stm	r6, {r0, r1, r2}
 149:Src/main.c    **** 
 2124              		.loc 1 149 3 view .LVU758
 149:Src/main.c    **** 
 2125              		.loc 1 149 18 is_stmt 0 view .LVU759
 2126 04b8 2946     		mov	r1, r5
 2127 04ba 1AA8     		add	r0, sp, #104
 2128 04bc FFF7FEFF 		bl	osThreadCreate
 2129              	.LVL56:
 149:Src/main.c    **** 
 2130              		.loc 1 149 16 view .LVU760
 2131 04c0 0C4B     		ldr	r3, .L66+36
 2132 04c2 1860     		str	r0, [r3]
 156:Src/main.c    **** 
 2133              		.loc 1 156 3 is_stmt 1 view .LVU761
 2134 04c4 FFF7FEFF 		bl	osKernelStart
 2135              	.LVL57:
 2136              	.L62:
 162:Src/main.c    ****   {
 2137              		.loc 1 162 3 discriminator 1 view .LVU762
 167:Src/main.c    ****   /* USER CODE END 3 */
 2138              		.loc 1 167 3 discriminator 1 view .LVU763
 162:Src/main.c    ****   {
 2139              		.loc 1 162 9 discriminator 1 view .LVU764
 162:Src/main.c    ****   {
 2140              		.loc 1 162 3 discriminator 1 view .LVU765
 167:Src/main.c    ****   /* USER CODE END 3 */
 2141              		.loc 1 167 3 discriminator 1 view .LVU766
 162:Src/main.c    ****   {
 2142              		.loc 1 162 9 discriminator 1 view .LVU767
 2143 04c8 FEE7     		b	.L62
 2144              	.L67:
 2145 04ca 00BFAFF3 		.align	3
 2145      0080
 2146              	.L66:
 2147 04d0 70000000 		.word	112
 2148 04d4 C3090000 		.word	2499
 2149 04d8 00000000 		.word	.LANCHOR3
 2150 04dc 00000000 		.word	.LANCHOR2
 2151 04e0 00040040 		.word	1073742848
 2152 04e4 00000000 		.word	.LANCHOR4
 2153 04e8 00440040 		.word	1073759232
 2154 04ec 00000000 		.word	.LANCHOR5
 2155 04f0 00000000 		.word	.LANCHOR6
 2156 04f4 00000000 		.word	.LANCHOR7
 2157              		.cfi_endproc
 2158              	.LFE1095:
 2160              		.section	.text.HAL_TIM_PeriodElapsedCallback,"ax",%progbits
 2161              		.align	1
 2162              		.p2align 2,,3
 2163              		.global	HAL_TIM_PeriodElapsedCallback
 2164              		.syntax unified
 2165              		.thumb
 2166              		.thumb_func
ARM GAS  C:\Users\ep_ygh\AppData\Local\Temp\ccgAlmok.s 			page 67


 2168              	HAL_TIM_PeriodElapsedCallback:
 2169              	.LVL58:
 2170              	.LFB1106:
 683:Src/main.c    ****   /* USER CODE BEGIN Callback 0 */
 2171              		.loc 1 683 1 view -0
 2172              		.cfi_startproc
 2173              		@ args = 0, pretend = 0, frame = 0
 2174              		@ frame_needed = 0, uses_anonymous_args = 0
 2175              		@ link register save eliminated.
 687:Src/main.c    ****     HAL_IncTick();
 2176              		.loc 1 687 3 view .LVU769
 687:Src/main.c    ****     HAL_IncTick();
 2177              		.loc 1 687 6 is_stmt 0 view .LVU770
 2178 0000 034B     		ldr	r3, .L71
 2179 0002 0268     		ldr	r2, [r0]
 2180 0004 9A42     		cmp	r2, r3
 2181 0006 00D0     		beq	.L70
 693:Src/main.c    **** 
 2182              		.loc 1 693 1 view .LVU771
 2183 0008 7047     		bx	lr
 2184              	.L70:
 688:Src/main.c    ****   }
 2185              		.loc 1 688 5 is_stmt 1 view .LVU772
 2186 000a FFF7FEBF 		b	HAL_IncTick
 2187              	.LVL59:
 2188              	.L72:
 688:Src/main.c    ****   }
 2189              		.loc 1 688 5 is_stmt 0 view .LVU773
 2190 000e 00BF     		.align	2
 2191              	.L71:
 2192 0010 00100040 		.word	1073745920
 2193              		.cfi_endproc
 2194              	.LFE1106:
 2196              		.section	.text.Error_Handler,"ax",%progbits
 2197              		.align	1
 2198              		.p2align 2,,3
 2199              		.global	Error_Handler
 2200              		.syntax unified
 2201              		.thumb
 2202              		.thumb_func
 2204              	Error_Handler:
 2205              	.LFB1107:
 700:Src/main.c    ****   /* USER CODE BEGIN Error_Handler_Debug */
 2206              		.loc 1 700 1 is_stmt 1 view -0
 2207              		.cfi_startproc
 2208              		@ Volatile: function does not return.
 2209              		@ args = 0, pretend = 0, frame = 0
 2210              		@ frame_needed = 0, uses_anonymous_args = 0
 2211              		@ link register save eliminated.
 703:Src/main.c    ****   while (1)
 2212              		.loc 1 703 3 view .LVU775
 2213              	.LBB427:
 2214              	.LBI427:
 207:Drivers/CMSIS/Include/cmsis_gcc.h **** {
 2215              		.loc 2 207 27 view .LVU776
 2216              	.LBB428:
 2217              		.loc 2 209 3 view .LVU777
ARM GAS  C:\Users\ep_ygh\AppData\Local\Temp\ccgAlmok.s 			page 68


 2218              		.syntax unified
 2219              	@ 209 "Drivers/CMSIS/Include/cmsis_gcc.h" 1
 2220 0000 72B6     		cpsid i
 2221              	@ 0 "" 2
 2222              		.thumb
 2223              		.syntax unified
 2224              	.L74:
 2225              	.LBE428:
 2226              	.LBE427:
 704:Src/main.c    ****   {
 2227              		.loc 1 704 3 discriminator 1 view .LVU778
 2228              		.loc 1 706 3 discriminator 1 view .LVU779
 704:Src/main.c    ****   {
 2229              		.loc 1 704 9 discriminator 1 view .LVU780
 704:Src/main.c    ****   {
 2230              		.loc 1 704 3 discriminator 1 view .LVU781
 2231              		.loc 1 706 3 discriminator 1 view .LVU782
 704:Src/main.c    ****   {
 2232              		.loc 1 704 9 discriminator 1 view .LVU783
 2233 0002 FEE7     		b	.L74
 2234              		.cfi_endproc
 2235              	.LFE1107:
 2237              		.global	safetyHandle
 2238              		.global	mediumFrequencyHandle
 2239              		.global	hdma_usart2_tx
 2240              		.global	hdma_usart2_rx
 2241              		.global	huart2
 2242              		.global	htim3
 2243              		.global	htim1
 2244              		.global	hdac1
 2245              		.global	hadc1
 2246              		.section	.rodata
 2247              		.align	2
 2248              		.set	.LANCHOR5,. + 0
 2249              	.LC4:
 2250 0000 00000000 		.word	.LC0
 2251 0004 00000000 		.word	startMediumFrequencyTask
 2252 0008 0000     		.short	0
 2253 000a 0000     		.space	2
 2254 000c 00000000 		.word	0
 2255 0010 80000000 		.word	128
 2256 0014 00000000 		.word	0
 2257 0018 00000000 		.word	0
 2258              	.LC5:
 2259 001c 10000000 		.word	.LC2
 2260 0020 00000000 		.word	StartSafetyTask
 2261 0024 0100     		.short	1
 2262 0026 0000     		.space	2
 2263 0028 00000000 		.word	0
 2264 002c 80000000 		.word	128
 2265 0030 00000000 		.word	0
 2266 0034 00000000 		.word	0
 2267              		.section	.bss.hadc1,"aw",%nobits
 2268              		.align	3
 2269              		.set	.LANCHOR0,. + 0
 2272              	hadc1:
 2273 0000 00000000 		.space	100
ARM GAS  C:\Users\ep_ygh\AppData\Local\Temp\ccgAlmok.s 			page 69


 2273      00000000 
 2273      00000000 
 2273      00000000 
 2273      00000000 
 2274              		.section	.bss.hdac1,"aw",%nobits
 2275              		.align	2
 2276              		.set	.LANCHOR1,. + 0
 2279              	hdac1:
 2280 0000 00000000 		.space	20
 2280      00000000 
 2280      00000000 
 2280      00000000 
 2280      00000000 
 2281              		.section	.bss.hdma_usart2_rx,"aw",%nobits
 2282              		.align	2
 2285              	hdma_usart2_rx:
 2286 0000 00000000 		.space	72
 2286      00000000 
 2286      00000000 
 2286      00000000 
 2286      00000000 
 2287              		.section	.bss.hdma_usart2_tx,"aw",%nobits
 2288              		.align	2
 2291              	hdma_usart2_tx:
 2292 0000 00000000 		.space	72
 2292      00000000 
 2292      00000000 
 2292      00000000 
 2292      00000000 
 2293              		.section	.bss.htim1,"aw",%nobits
 2294              		.align	2
 2295              		.set	.LANCHOR2,. + 0
 2298              	htim1:
 2299 0000 00000000 		.space	76
 2299      00000000 
 2299      00000000 
 2299      00000000 
 2299      00000000 
 2300              		.section	.bss.htim3,"aw",%nobits
 2301              		.align	2
 2302              		.set	.LANCHOR3,. + 0
 2305              	htim3:
 2306 0000 00000000 		.space	76
 2306      00000000 
 2306      00000000 
 2306      00000000 
 2306      00000000 
 2307              		.section	.bss.huart2,"aw",%nobits
 2308              		.align	2
 2309              		.set	.LANCHOR4,. + 0
 2312              	huart2:
 2313 0000 00000000 		.space	136
 2313      00000000 
 2313      00000000 
 2313      00000000 
 2313      00000000 
 2314              		.section	.bss.mediumFrequencyHandle,"aw",%nobits
ARM GAS  C:\Users\ep_ygh\AppData\Local\Temp\ccgAlmok.s 			page 70


 2315              		.align	2
 2316              		.set	.LANCHOR6,. + 0
 2319              	mediumFrequencyHandle:
 2320 0000 00000000 		.space	4
 2321              		.section	.bss.safetyHandle,"aw",%nobits
 2322              		.align	2
 2323              		.set	.LANCHOR7,. + 0
 2326              	safetyHandle:
 2327 0000 00000000 		.space	4
 2328              		.text
 2329              	.Letext0:
 2330              		.file 3 "c:\\programdata\\chocolatey\\lib\\gcc-arm-embedded\\tools\\gcc-arm-none-eabi-10.3-2021.10
 2331              		.file 4 "c:\\programdata\\chocolatey\\lib\\gcc-arm-embedded\\tools\\gcc-arm-none-eabi-10.3-2021.10
 2332              		.file 5 "Drivers/CMSIS/Device/ST/STM32L4xx/Include/stm32l476xx.h"
 2333              		.file 6 "Drivers/CMSIS/Device/ST/STM32L4xx/Include/stm32l4xx.h"
 2334              		.file 7 "Drivers/STM32L4xx_HAL_Driver/Inc/stm32l4xx_hal_def.h"
 2335              		.file 8 "Drivers/STM32L4xx_HAL_Driver/Inc/stm32l4xx_hal_rcc.h"
 2336              		.file 9 "Drivers/STM32L4xx_HAL_Driver/Inc/stm32l4xx_hal_gpio.h"
 2337              		.file 10 "Drivers/STM32L4xx_HAL_Driver/Inc/stm32l4xx_hal_dma.h"
 2338              		.file 11 "Drivers/STM32L4xx_HAL_Driver/Inc/stm32l4xx_hal_adc.h"
 2339              		.file 12 "Drivers/STM32L4xx_HAL_Driver/Inc/stm32l4xx_hal_adc_ex.h"
 2340              		.file 13 "Drivers/STM32L4xx_HAL_Driver/Inc/stm32l4xx_hal_dac.h"
 2341              		.file 14 "Drivers/STM32L4xx_HAL_Driver/Inc/stm32l4xx_hal_tim.h"
 2342              		.file 15 "Drivers/STM32L4xx_HAL_Driver/Inc/stm32l4xx_hal_tim_ex.h"
 2343              		.file 16 "Drivers/STM32L4xx_HAL_Driver/Inc/stm32l4xx_hal_uart.h"
 2344              		.file 17 "Drivers/STM32L4xx_HAL_Driver/Inc/stm32l4xx_ll_tim.h"
 2345              		.file 18 "Drivers/STM32L4xx_HAL_Driver/Inc/stm32l4xx_ll_dma.h"
 2346              		.file 19 "Middlewares/Third_Party/FreeRTOS/Source/portable/GCC/ARM_CM4F/portmacro.h"
 2347              		.file 20 "Middlewares/Third_Party/FreeRTOS/Source/include/FreeRTOS.h"
 2348              		.file 21 "Middlewares/Third_Party/FreeRTOS/Source/include/task.h"
 2349              		.file 22 "Middlewares/Third_Party/FreeRTOS/Source/CMSIS_RTOS/cmsis_os.h"
 2350              		.file 23 "Drivers/STM32L4xx_HAL_Driver/Inc/stm32l4xx_hal.h"
 2351              		.file 24 "Drivers/STM32L4xx_HAL_Driver/Inc/stm32l4xx_hal_pwr_ex.h"
 2352              		.file 25 "Inc/main.h"
 2353              		.file 26 "Drivers/STM32L4xx_HAL_Driver/Inc/stm32l4xx_hal_cortex.h"
 2354              		.file 27 "Inc/motorcontrol.h"
 2355              		.file 28 "<built-in>"
ARM GAS  C:\Users\ep_ygh\AppData\Local\Temp\ccgAlmok.s 			page 71


DEFINED SYMBOLS
                            *ABS*:00000000 main.c
C:\Users\ep_ygh\AppData\Local\Temp\ccgAlmok.s:17     .rodata.str1.4:00000000 $d
C:\Users\ep_ygh\AppData\Local\Temp\ccgAlmok.s:27     .text.startMediumFrequencyTask:00000000 $t
C:\Users\ep_ygh\AppData\Local\Temp\ccgAlmok.s:34     .text.startMediumFrequencyTask:00000000 startMediumFrequencyTask
C:\Users\ep_ygh\AppData\Local\Temp\ccgAlmok.s:61     .text.SystemClock_Config:00000000 $t
C:\Users\ep_ygh\AppData\Local\Temp\ccgAlmok.s:68     .text.SystemClock_Config:00000000 SystemClock_Config
C:\Users\ep_ygh\AppData\Local\Temp\ccgAlmok.s:267    .text.SystemClock_Config:00000088 $d
C:\Users\ep_ygh\AppData\Local\Temp\ccgAlmok.s:281    .text.startup.main:00000000 $t
C:\Users\ep_ygh\AppData\Local\Temp\ccgAlmok.s:288    .text.startup.main:00000000 main
C:\Users\ep_ygh\AppData\Local\Temp\ccgAlmok.s:1450   .text.startup.main:000002b8 $d
C:\Users\ep_ygh\AppData\Local\Temp\ccgAlmok.s:1475   .text.startup.main:000002f4 $t
C:\Users\ep_ygh\AppData\Local\Temp\ccgAlmok.s:2147   .text.startup.main:000004d0 $d
C:\Users\ep_ygh\AppData\Local\Temp\ccgAlmok.s:2161   .text.HAL_TIM_PeriodElapsedCallback:00000000 $t
C:\Users\ep_ygh\AppData\Local\Temp\ccgAlmok.s:2168   .text.HAL_TIM_PeriodElapsedCallback:00000000 HAL_TIM_PeriodElapsedCallback
C:\Users\ep_ygh\AppData\Local\Temp\ccgAlmok.s:2192   .text.HAL_TIM_PeriodElapsedCallback:00000010 $d
C:\Users\ep_ygh\AppData\Local\Temp\ccgAlmok.s:2197   .text.Error_Handler:00000000 $t
C:\Users\ep_ygh\AppData\Local\Temp\ccgAlmok.s:2204   .text.Error_Handler:00000000 Error_Handler
C:\Users\ep_ygh\AppData\Local\Temp\ccgAlmok.s:2326   .bss.safetyHandle:00000000 safetyHandle
C:\Users\ep_ygh\AppData\Local\Temp\ccgAlmok.s:2319   .bss.mediumFrequencyHandle:00000000 mediumFrequencyHandle
C:\Users\ep_ygh\AppData\Local\Temp\ccgAlmok.s:2291   .bss.hdma_usart2_tx:00000000 hdma_usart2_tx
C:\Users\ep_ygh\AppData\Local\Temp\ccgAlmok.s:2285   .bss.hdma_usart2_rx:00000000 hdma_usart2_rx
C:\Users\ep_ygh\AppData\Local\Temp\ccgAlmok.s:2312   .bss.huart2:00000000 huart2
C:\Users\ep_ygh\AppData\Local\Temp\ccgAlmok.s:2305   .bss.htim3:00000000 htim3
C:\Users\ep_ygh\AppData\Local\Temp\ccgAlmok.s:2298   .bss.htim1:00000000 htim1
C:\Users\ep_ygh\AppData\Local\Temp\ccgAlmok.s:2279   .bss.hdac1:00000000 hdac1
C:\Users\ep_ygh\AppData\Local\Temp\ccgAlmok.s:2272   .bss.hadc1:00000000 hadc1
C:\Users\ep_ygh\AppData\Local\Temp\ccgAlmok.s:2247   .rodata:00000000 $d
C:\Users\ep_ygh\AppData\Local\Temp\ccgAlmok.s:2268   .bss.hadc1:00000000 $d
C:\Users\ep_ygh\AppData\Local\Temp\ccgAlmok.s:2275   .bss.hdac1:00000000 $d
C:\Users\ep_ygh\AppData\Local\Temp\ccgAlmok.s:2282   .bss.hdma_usart2_rx:00000000 $d
C:\Users\ep_ygh\AppData\Local\Temp\ccgAlmok.s:2288   .bss.hdma_usart2_tx:00000000 $d
C:\Users\ep_ygh\AppData\Local\Temp\ccgAlmok.s:2294   .bss.htim1:00000000 $d
C:\Users\ep_ygh\AppData\Local\Temp\ccgAlmok.s:2301   .bss.htim3:00000000 $d
C:\Users\ep_ygh\AppData\Local\Temp\ccgAlmok.s:2308   .bss.huart2:00000000 $d
C:\Users\ep_ygh\AppData\Local\Temp\ccgAlmok.s:2315   .bss.mediumFrequencyHandle:00000000 $d
C:\Users\ep_ygh\AppData\Local\Temp\ccgAlmok.s:2322   .bss.safetyHandle:00000000 $d

UNDEFINED SYMBOLS
osDelay
memset
HAL_PWREx_ControlVoltageScaling
HAL_RCC_OscConfig
HAL_RCC_ClockConfig
HAL_Init
HAL_GPIO_WritePin
HAL_GPIO_Init
HAL_ADC_Init
HAL_ADCEx_MultiModeConfigChannel
HAL_ADCEx_DisableInjectedQueue
HAL_ADCEx_InjectedConfigChannel
HAL_ADC_ConfigChannel
HAL_DAC_Init
HAL_DAC_ConfigChannel
HAL_TIM_Base_Init
HAL_TIM_PWM_Init
HAL_TIM_SlaveConfigSynchro
ARM GAS  C:\Users\ep_ygh\AppData\Local\Temp\ccgAlmok.s 			page 72


HAL_TIMEx_MasterConfigSynchronization
HAL_TIMEx_ConfigBreakInput
HAL_TIM_PWM_ConfigChannel
HAL_TIMEx_ConfigBreakDeadTime
HAL_TIM_MspPostInit
HAL_TIM_Encoder_Init
HAL_UART_Init
MX_MotorControl_Init
HAL_NVIC_SetPriority
HAL_NVIC_EnableIRQ
osThreadCreate
osKernelStart
HAL_IncTick
StartSafetyTask
