ARM GAS  C:\Users\ep_ygh\AppData\Local\Temp\ccy2MVwy.s 			page 1


   1              		.cpu cortex-m4
   2              		.arch armv7e-m
   3              		.fpu fpv4-sp-d16
   4              		.eabi_attribute 27, 1
   5              		.eabi_attribute 28, 1
   6              		.eabi_attribute 20, 1
   7              		.eabi_attribute 21, 1
   8              		.eabi_attribute 23, 3
   9              		.eabi_attribute 24, 1
  10              		.eabi_attribute 25, 1
  11              		.eabi_attribute 26, 1
  12              		.eabi_attribute 30, 2
  13              		.eabi_attribute 34, 1
  14              		.eabi_attribute 18, 4
  15              		.file	"open_loop.c"
  16              		.text
  17              	.Ltext0:
  18              		.cfi_sections	.debug_frame
  19              		.section	.text.OL_Init,"ax",%progbits
  20              		.align	1
  21              		.p2align 2,,3
  22              		.weak	OL_Init
  23              		.syntax unified
  24              		.thumb
  25              		.thumb_func
  27              	OL_Init:
  28              	.LVL0:
  29              	.LFB1088:
  30              		.file 1 "MCSDK_v6.2.1-Full/MotorControl/MCSDK/MCLib/Any/Src/open_loop.c"
   1:MCSDK_v6.2.1-Full/MotorControl/MCSDK/MCLib/Any/Src/open_loop.c **** /**
   2:MCSDK_v6.2.1-Full/MotorControl/MCSDK/MCLib/Any/Src/open_loop.c ****   ******************************************************************************
   3:MCSDK_v6.2.1-Full/MotorControl/MCSDK/MCLib/Any/Src/open_loop.c ****   * @file    open_loop.c
   4:MCSDK_v6.2.1-Full/MotorControl/MCSDK/MCLib/Any/Src/open_loop.c ****   * @author  Motor Control SDK Team, ST Microelectronics
   5:MCSDK_v6.2.1-Full/MotorControl/MCSDK/MCLib/Any/Src/open_loop.c ****   * @brief   This file provides firmware functions that implement the features
   6:MCSDK_v6.2.1-Full/MotorControl/MCSDK/MCLib/Any/Src/open_loop.c ****   *          of the Open Loop component.
   7:MCSDK_v6.2.1-Full/MotorControl/MCSDK/MCLib/Any/Src/open_loop.c ****   *
   8:MCSDK_v6.2.1-Full/MotorControl/MCSDK/MCLib/Any/Src/open_loop.c ****   ******************************************************************************
   9:MCSDK_v6.2.1-Full/MotorControl/MCSDK/MCLib/Any/Src/open_loop.c ****   * @attention
  10:MCSDK_v6.2.1-Full/MotorControl/MCSDK/MCLib/Any/Src/open_loop.c ****   *
  11:MCSDK_v6.2.1-Full/MotorControl/MCSDK/MCLib/Any/Src/open_loop.c ****   * <h2><center>&copy; Copyright (c) 2023 STMicroelectronics.
  12:MCSDK_v6.2.1-Full/MotorControl/MCSDK/MCLib/Any/Src/open_loop.c ****   * All rights reserved.</center></h2>
  13:MCSDK_v6.2.1-Full/MotorControl/MCSDK/MCLib/Any/Src/open_loop.c ****   *
  14:MCSDK_v6.2.1-Full/MotorControl/MCSDK/MCLib/Any/Src/open_loop.c ****   * This software component is licensed by ST under Ultimate Liberty license
  15:MCSDK_v6.2.1-Full/MotorControl/MCSDK/MCLib/Any/Src/open_loop.c ****   * SLA0044, the "License"; You may not use this file except in compliance with
  16:MCSDK_v6.2.1-Full/MotorControl/MCSDK/MCLib/Any/Src/open_loop.c ****   * the License. You may obtain a copy of the License at:
  17:MCSDK_v6.2.1-Full/MotorControl/MCSDK/MCLib/Any/Src/open_loop.c ****   *                             www.st.com/SLA0044
  18:MCSDK_v6.2.1-Full/MotorControl/MCSDK/MCLib/Any/Src/open_loop.c ****   *
  19:MCSDK_v6.2.1-Full/MotorControl/MCSDK/MCLib/Any/Src/open_loop.c ****   ******************************************************************************
  20:MCSDK_v6.2.1-Full/MotorControl/MCSDK/MCLib/Any/Src/open_loop.c ****   * @ingroup OpenLoop
  21:MCSDK_v6.2.1-Full/MotorControl/MCSDK/MCLib/Any/Src/open_loop.c ****   */
  22:MCSDK_v6.2.1-Full/MotorControl/MCSDK/MCLib/Any/Src/open_loop.c ****   
  23:MCSDK_v6.2.1-Full/MotorControl/MCSDK/MCLib/Any/Src/open_loop.c **** /* Includes ------------------------------------------------------------------*/
  24:MCSDK_v6.2.1-Full/MotorControl/MCSDK/MCLib/Any/Src/open_loop.c **** #include "open_loop.h"
  25:MCSDK_v6.2.1-Full/MotorControl/MCSDK/MCLib/Any/Src/open_loop.c **** 
  26:MCSDK_v6.2.1-Full/MotorControl/MCSDK/MCLib/Any/Src/open_loop.c **** /** @addtogroup MCSDK
  27:MCSDK_v6.2.1-Full/MotorControl/MCSDK/MCLib/Any/Src/open_loop.c ****   * @{
  28:MCSDK_v6.2.1-Full/MotorControl/MCSDK/MCLib/Any/Src/open_loop.c ****   */
ARM GAS  C:\Users\ep_ygh\AppData\Local\Temp\ccy2MVwy.s 			page 2


  29:MCSDK_v6.2.1-Full/MotorControl/MCSDK/MCLib/Any/Src/open_loop.c **** 
  30:MCSDK_v6.2.1-Full/MotorControl/MCSDK/MCLib/Any/Src/open_loop.c **** /** @defgroup OpenLoop Open Loop Control
  31:MCSDK_v6.2.1-Full/MotorControl/MCSDK/MCLib/Any/Src/open_loop.c ****   * @brief Open Loop component of the Motor Control SDK
  32:MCSDK_v6.2.1-Full/MotorControl/MCSDK/MCLib/Any/Src/open_loop.c ****   *
  33:MCSDK_v6.2.1-Full/MotorControl/MCSDK/MCLib/Any/Src/open_loop.c ****   * Open Loop component allows to run the motor in open loop voltage mode. In that mode, the phase 
  34:MCSDK_v6.2.1-Full/MotorControl/MCSDK/MCLib/Any/Src/open_loop.c ****   * forced independently from the measured currents. To do so, the routine OL_VqdConditioning() ove
  35:MCSDK_v6.2.1-Full/MotorControl/MCSDK/MCLib/Any/Src/open_loop.c ****   * voltage command Vdq in the FOC current controller task. The voltage level to apply can be set d
  36:MCSDK_v6.2.1-Full/MotorControl/MCSDK/MCLib/Any/Src/open_loop.c ****   * user, with OL_UpdateVoltage(), or computed by OL_Calc() if the V/F mode is selected. In that mo
  37:MCSDK_v6.2.1-Full/MotorControl/MCSDK/MCLib/Any/Src/open_loop.c ****   * level depends on the speed, the slope and the offset selected by the user. 
  38:MCSDK_v6.2.1-Full/MotorControl/MCSDK/MCLib/Any/Src/open_loop.c ****   *
  39:MCSDK_v6.2.1-Full/MotorControl/MCSDK/MCLib/Any/Src/open_loop.c ****   * @{
  40:MCSDK_v6.2.1-Full/MotorControl/MCSDK/MCLib/Any/Src/open_loop.c ****   */
  41:MCSDK_v6.2.1-Full/MotorControl/MCSDK/MCLib/Any/Src/open_loop.c **** 
  42:MCSDK_v6.2.1-Full/MotorControl/MCSDK/MCLib/Any/Src/open_loop.c **** /* Private defines -----------------------------------------------------------*/
  43:MCSDK_v6.2.1-Full/MotorControl/MCSDK/MCLib/Any/Src/open_loop.c **** 
  44:MCSDK_v6.2.1-Full/MotorControl/MCSDK/MCLib/Any/Src/open_loop.c **** /**
  45:MCSDK_v6.2.1-Full/MotorControl/MCSDK/MCLib/Any/Src/open_loop.c ****   * @brief  Initializes OpenLoop variables.it should be called 
  46:MCSDK_v6.2.1-Full/MotorControl/MCSDK/MCLib/Any/Src/open_loop.c ****   *         once during Motor Control initialization.
  47:MCSDK_v6.2.1-Full/MotorControl/MCSDK/MCLib/Any/Src/open_loop.c ****   * @param  pHandle: Pointer on Handle structure of OpenLoop feature.
  48:MCSDK_v6.2.1-Full/MotorControl/MCSDK/MCLib/Any/Src/open_loop.c ****   * @param  pVSS: Pointer on virtual speed sensor structure.
  49:MCSDK_v6.2.1-Full/MotorControl/MCSDK/MCLib/Any/Src/open_loop.c ****   */
  50:MCSDK_v6.2.1-Full/MotorControl/MCSDK/MCLib/Any/Src/open_loop.c **** __weak void OL_Init(OpenLoop_Handle_t *pHandle, VirtualSpeedSensor_Handle_t *pVSS)
  51:MCSDK_v6.2.1-Full/MotorControl/MCSDK/MCLib/Any/Src/open_loop.c **** {
  31              		.loc 1 51 1 view -0
  32              		.cfi_startproc
  33              		@ args = 0, pretend = 0, frame = 0
  34              		@ frame_needed = 0, uses_anonymous_args = 0
  35              		@ link register save eliminated.
  52:MCSDK_v6.2.1-Full/MotorControl/MCSDK/MCLib/Any/Src/open_loop.c **** #ifdef NULL_PTR_CHECK_OPEN_LOOP
  53:MCSDK_v6.2.1-Full/MotorControl/MCSDK/MCLib/Any/Src/open_loop.c ****   if (MC_NULL == pHandle)
  54:MCSDK_v6.2.1-Full/MotorControl/MCSDK/MCLib/Any/Src/open_loop.c ****   {
  55:MCSDK_v6.2.1-Full/MotorControl/MCSDK/MCLib/Any/Src/open_loop.c ****     /* Nothing to do */
  56:MCSDK_v6.2.1-Full/MotorControl/MCSDK/MCLib/Any/Src/open_loop.c ****   }
  57:MCSDK_v6.2.1-Full/MotorControl/MCSDK/MCLib/Any/Src/open_loop.c ****   else
  58:MCSDK_v6.2.1-Full/MotorControl/MCSDK/MCLib/Any/Src/open_loop.c ****   {
  59:MCSDK_v6.2.1-Full/MotorControl/MCSDK/MCLib/Any/Src/open_loop.c **** #endif
  60:MCSDK_v6.2.1-Full/MotorControl/MCSDK/MCLib/Any/Src/open_loop.c ****     pHandle->hVoltage = pHandle->hDefaultVoltage;
  36              		.loc 1 60 5 view .LVU1
  37              		.loc 1 60 23 is_stmt 0 view .LVU2
  38 0000 0388     		ldrh	r3, [r0]
  39 0002 0381     		strh	r3, [r0, #8]	@ movhi
  61:MCSDK_v6.2.1-Full/MotorControl/MCSDK/MCLib/Any/Src/open_loop.c ****     pHandle->pVSS = pVSS;
  40              		.loc 1 61 5 is_stmt 1 view .LVU3
  41              		.loc 1 61 19 is_stmt 0 view .LVU4
  42 0004 C160     		str	r1, [r0, #12]
  62:MCSDK_v6.2.1-Full/MotorControl/MCSDK/MCLib/Any/Src/open_loop.c **** #ifdef NULL_PTR_CHECK_OPEN_LOOP
  63:MCSDK_v6.2.1-Full/MotorControl/MCSDK/MCLib/Any/Src/open_loop.c ****   }
  64:MCSDK_v6.2.1-Full/MotorControl/MCSDK/MCLib/Any/Src/open_loop.c **** #endif
  65:MCSDK_v6.2.1-Full/MotorControl/MCSDK/MCLib/Any/Src/open_loop.c **** }
  43              		.loc 1 65 1 view .LVU5
  44 0006 7047     		bx	lr
  45              		.cfi_endproc
  46              	.LFE1088:
  48              		.section	.text.OL_VqdConditioning,"ax",%progbits
  49              		.align	1
  50              		.p2align 2,,3
  51              		.weak	OL_VqdConditioning
ARM GAS  C:\Users\ep_ygh\AppData\Local\Temp\ccy2MVwy.s 			page 3


  52              		.syntax unified
  53              		.thumb
  54              		.thumb_func
  56              	OL_VqdConditioning:
  57              	.LVL1:
  58              	.LFB1089:
  66:MCSDK_v6.2.1-Full/MotorControl/MCSDK/MCLib/Any/Src/open_loop.c **** 
  67:MCSDK_v6.2.1-Full/MotorControl/MCSDK/MCLib/Any/Src/open_loop.c **** /**
  68:MCSDK_v6.2.1-Full/MotorControl/MCSDK/MCLib/Any/Src/open_loop.c ****   * @brief  Sets Vqd according to open loop phase voltage. It should be 
  69:MCSDK_v6.2.1-Full/MotorControl/MCSDK/MCLib/Any/Src/open_loop.c ****   *         called during current controller task.
  70:MCSDK_v6.2.1-Full/MotorControl/MCSDK/MCLib/Any/Src/open_loop.c ****   * @param  pHandle: Pointer on Handle structure of OpenLoop feature.
  71:MCSDK_v6.2.1-Full/MotorControl/MCSDK/MCLib/Any/Src/open_loop.c ****   * @retval qd_t Vqd conditioned values.
  72:MCSDK_v6.2.1-Full/MotorControl/MCSDK/MCLib/Any/Src/open_loop.c ****   */
  73:MCSDK_v6.2.1-Full/MotorControl/MCSDK/MCLib/Any/Src/open_loop.c **** __weak qd_t OL_VqdConditioning(const OpenLoop_Handle_t *pHandle)
  74:MCSDK_v6.2.1-Full/MotorControl/MCSDK/MCLib/Any/Src/open_loop.c **** {
  59              		.loc 1 74 1 is_stmt 1 view -0
  60              		.cfi_startproc
  61              		@ args = 0, pretend = 0, frame = 8
  62              		@ frame_needed = 0, uses_anonymous_args = 0
  63              		@ link register save eliminated.
  75:MCSDK_v6.2.1-Full/MotorControl/MCSDK/MCLib/Any/Src/open_loop.c ****   qd_t Vqd;
  64              		.loc 1 75 3 view .LVU7
  76:MCSDK_v6.2.1-Full/MotorControl/MCSDK/MCLib/Any/Src/open_loop.c ****   Vqd.d = 0;
  65              		.loc 1 76 3 view .LVU8
  77:MCSDK_v6.2.1-Full/MotorControl/MCSDK/MCLib/Any/Src/open_loop.c **** #ifdef NULL_PTR_CHECK_OPEN_LOOP
  78:MCSDK_v6.2.1-Full/MotorControl/MCSDK/MCLib/Any/Src/open_loop.c ****   Vqd.q = ((MC_NULL == pHandle) ? 0 : pHandle->hVoltage);
  79:MCSDK_v6.2.1-Full/MotorControl/MCSDK/MCLib/Any/Src/open_loop.c **** #else
  80:MCSDK_v6.2.1-Full/MotorControl/MCSDK/MCLib/Any/Src/open_loop.c ****   Vqd.q = (pHandle->hVoltage);
  66              		.loc 1 80 3 view .LVU9
  81:MCSDK_v6.2.1-Full/MotorControl/MCSDK/MCLib/Any/Src/open_loop.c **** #endif
  82:MCSDK_v6.2.1-Full/MotorControl/MCSDK/MCLib/Any/Src/open_loop.c ****   return (Vqd);
  67              		.loc 1 82 3 view .LVU10
  83:MCSDK_v6.2.1-Full/MotorControl/MCSDK/MCLib/Any/Src/open_loop.c **** }
  68              		.loc 1 83 1 is_stmt 0 view .LVU11
  69 0000 0089     		ldrh	r0, [r0, #8]
  70              	.LVL2:
  74:MCSDK_v6.2.1-Full/MotorControl/MCSDK/MCLib/Any/Src/open_loop.c ****   qd_t Vqd;
  71              		.loc 1 74 1 view .LVU12
  72 0002 82B0     		sub	sp, sp, #8
  73              	.LCFI0:
  74              		.cfi_def_cfa_offset 8
  75              		.loc 1 83 1 view .LVU13
  76 0004 02B0     		add	sp, sp, #8
  77              	.LCFI1:
  78              		.cfi_def_cfa_offset 0
  79              		@ sp needed
  80 0006 7047     		bx	lr
  81              		.cfi_endproc
  82              	.LFE1089:
  84              		.section	.text.OL_UpdateVoltage,"ax",%progbits
  85              		.align	1
  86              		.p2align 2,,3
  87              		.weak	OL_UpdateVoltage
  88              		.syntax unified
  89              		.thumb
  90              		.thumb_func
  92              	OL_UpdateVoltage:
ARM GAS  C:\Users\ep_ygh\AppData\Local\Temp\ccy2MVwy.s 			page 4


  93              	.LVL3:
  94              	.LFB1090:
  84:MCSDK_v6.2.1-Full/MotorControl/MCSDK/MCLib/Any/Src/open_loop.c **** 
  85:MCSDK_v6.2.1-Full/MotorControl/MCSDK/MCLib/Any/Src/open_loop.c **** /**
  86:MCSDK_v6.2.1-Full/MotorControl/MCSDK/MCLib/Any/Src/open_loop.c ****   * @brief  Sets new open loop phase voltage.
  87:MCSDK_v6.2.1-Full/MotorControl/MCSDK/MCLib/Any/Src/open_loop.c ****   * @param  pHandle: Pointer on Handle structure of OpenLoop feature.
  88:MCSDK_v6.2.1-Full/MotorControl/MCSDK/MCLib/Any/Src/open_loop.c ****   * @param  hNewVoltage: New voltage value to apply.
  89:MCSDK_v6.2.1-Full/MotorControl/MCSDK/MCLib/Any/Src/open_loop.c ****   */
  90:MCSDK_v6.2.1-Full/MotorControl/MCSDK/MCLib/Any/Src/open_loop.c **** __weak void OL_UpdateVoltage(OpenLoop_Handle_t *pHandle, int16_t hNewVoltage)
  91:MCSDK_v6.2.1-Full/MotorControl/MCSDK/MCLib/Any/Src/open_loop.c **** {
  95              		.loc 1 91 1 is_stmt 1 view -0
  96              		.cfi_startproc
  97              		@ args = 0, pretend = 0, frame = 0
  98              		@ frame_needed = 0, uses_anonymous_args = 0
  99              		@ link register save eliminated.
  92:MCSDK_v6.2.1-Full/MotorControl/MCSDK/MCLib/Any/Src/open_loop.c **** #ifdef NULL_PTR_CHECK_OPEN_LOOP
  93:MCSDK_v6.2.1-Full/MotorControl/MCSDK/MCLib/Any/Src/open_loop.c ****   if (MC_NULL == pHandle)
  94:MCSDK_v6.2.1-Full/MotorControl/MCSDK/MCLib/Any/Src/open_loop.c ****   {
  95:MCSDK_v6.2.1-Full/MotorControl/MCSDK/MCLib/Any/Src/open_loop.c ****     /* Nothing to do */
  96:MCSDK_v6.2.1-Full/MotorControl/MCSDK/MCLib/Any/Src/open_loop.c ****   }
  97:MCSDK_v6.2.1-Full/MotorControl/MCSDK/MCLib/Any/Src/open_loop.c ****   else
  98:MCSDK_v6.2.1-Full/MotorControl/MCSDK/MCLib/Any/Src/open_loop.c ****   {
  99:MCSDK_v6.2.1-Full/MotorControl/MCSDK/MCLib/Any/Src/open_loop.c **** #endif
 100:MCSDK_v6.2.1-Full/MotorControl/MCSDK/MCLib/Any/Src/open_loop.c ****     pHandle->hVoltage = hNewVoltage;
 100              		.loc 1 100 5 view .LVU15
 101              		.loc 1 100 23 is_stmt 0 view .LVU16
 102 0000 0181     		strh	r1, [r0, #8]	@ movhi
 101:MCSDK_v6.2.1-Full/MotorControl/MCSDK/MCLib/Any/Src/open_loop.c **** #ifdef NULL_PTR_CHECK_OPEN_LOOP
 102:MCSDK_v6.2.1-Full/MotorControl/MCSDK/MCLib/Any/Src/open_loop.c ****   }
 103:MCSDK_v6.2.1-Full/MotorControl/MCSDK/MCLib/Any/Src/open_loop.c **** #endif
 104:MCSDK_v6.2.1-Full/MotorControl/MCSDK/MCLib/Any/Src/open_loop.c **** }
 103              		.loc 1 104 1 view .LVU17
 104 0002 7047     		bx	lr
 105              		.cfi_endproc
 106              	.LFE1090:
 108              		.section	.text.OL_GetVoltage,"ax",%progbits
 109              		.align	1
 110              		.p2align 2,,3
 111              		.weak	OL_GetVoltage
 112              		.syntax unified
 113              		.thumb
 114              		.thumb_func
 116              	OL_GetVoltage:
 117              	.LVL4:
 118              	.LFB1091:
 105:MCSDK_v6.2.1-Full/MotorControl/MCSDK/MCLib/Any/Src/open_loop.c **** 
 106:MCSDK_v6.2.1-Full/MotorControl/MCSDK/MCLib/Any/Src/open_loop.c **** /**
 107:MCSDK_v6.2.1-Full/MotorControl/MCSDK/MCLib/Any/Src/open_loop.c ****   * @brief  Gets open loop phase voltage.
 108:MCSDK_v6.2.1-Full/MotorControl/MCSDK/MCLib/Any/Src/open_loop.c ****   * @param  pHandle: Pointer on Handle structure of OpenLoop feature.
 109:MCSDK_v6.2.1-Full/MotorControl/MCSDK/MCLib/Any/Src/open_loop.c ****   */
 110:MCSDK_v6.2.1-Full/MotorControl/MCSDK/MCLib/Any/Src/open_loop.c **** __weak int16_t OL_GetVoltage(OpenLoop_Handle_t *pHandle) //cstat !MISRAC2012-Rule-8.13
 111:MCSDK_v6.2.1-Full/MotorControl/MCSDK/MCLib/Any/Src/open_loop.c **** {
 119              		.loc 1 111 1 is_stmt 1 view -0
 120              		.cfi_startproc
 121              		@ args = 0, pretend = 0, frame = 0
 122              		@ frame_needed = 0, uses_anonymous_args = 0
 123              		@ link register save eliminated.
ARM GAS  C:\Users\ep_ygh\AppData\Local\Temp\ccy2MVwy.s 			page 5


 112:MCSDK_v6.2.1-Full/MotorControl/MCSDK/MCLib/Any/Src/open_loop.c ****   int16_t hVoltage;
 124              		.loc 1 112 3 view .LVU19
 113:MCSDK_v6.2.1-Full/MotorControl/MCSDK/MCLib/Any/Src/open_loop.c **** #ifdef NULL_PTR_CHECK_OPEN_LOOP
 114:MCSDK_v6.2.1-Full/MotorControl/MCSDK/MCLib/Any/Src/open_loop.c ****   hVoltage = ((MC_NULL == pHandle) ? 0 : pHandle->hVoltage);
 115:MCSDK_v6.2.1-Full/MotorControl/MCSDK/MCLib/Any/Src/open_loop.c **** #else
 116:MCSDK_v6.2.1-Full/MotorControl/MCSDK/MCLib/Any/Src/open_loop.c ****   hVoltage = pHandle->hVoltage;
 125              		.loc 1 116 3 view .LVU20
 117:MCSDK_v6.2.1-Full/MotorControl/MCSDK/MCLib/Any/Src/open_loop.c **** #endif
 118:MCSDK_v6.2.1-Full/MotorControl/MCSDK/MCLib/Any/Src/open_loop.c ****   return (hVoltage);
 126              		.loc 1 118 3 view .LVU21
 119:MCSDK_v6.2.1-Full/MotorControl/MCSDK/MCLib/Any/Src/open_loop.c **** }
 127              		.loc 1 119 1 is_stmt 0 view .LVU22
 128 0000 B0F90800 		ldrsh	r0, [r0, #8]
 129              	.LVL5:
 130              		.loc 1 119 1 view .LVU23
 131 0004 7047     		bx	lr
 132              		.cfi_endproc
 133              	.LFE1091:
 135 0006 00BF     		.section	.text.OL_Calc,"ax",%progbits
 136              		.align	1
 137              		.p2align 2,,3
 138              		.weak	OL_Calc
 139              		.syntax unified
 140              		.thumb
 141              		.thumb_func
 143              	OL_Calc:
 144              	.LVL6:
 145              	.LFB1092:
 120:MCSDK_v6.2.1-Full/MotorControl/MCSDK/MCLib/Any/Src/open_loop.c **** 
 121:MCSDK_v6.2.1-Full/MotorControl/MCSDK/MCLib/Any/Src/open_loop.c **** /**
 122:MCSDK_v6.2.1-Full/MotorControl/MCSDK/MCLib/Any/Src/open_loop.c ****   * @brief  Computes phase voltage to apply according to average mechanical speed (V/F Mode).
 123:MCSDK_v6.2.1-Full/MotorControl/MCSDK/MCLib/Any/Src/open_loop.c ****   *         It should be called during background task.
 124:MCSDK_v6.2.1-Full/MotorControl/MCSDK/MCLib/Any/Src/open_loop.c ****   * @param  pHandle: Pointer on Handle structure of OpenLoop feature.
 125:MCSDK_v6.2.1-Full/MotorControl/MCSDK/MCLib/Any/Src/open_loop.c ****   */
 126:MCSDK_v6.2.1-Full/MotorControl/MCSDK/MCLib/Any/Src/open_loop.c **** __weak void OL_Calc(OpenLoop_Handle_t *pHandle)
 127:MCSDK_v6.2.1-Full/MotorControl/MCSDK/MCLib/Any/Src/open_loop.c **** {
 146              		.loc 1 127 1 is_stmt 1 view -0
 147              		.cfi_startproc
 148              		@ args = 0, pretend = 0, frame = 0
 149              		@ frame_needed = 0, uses_anonymous_args = 0
 150              		@ link register save eliminated.
 128:MCSDK_v6.2.1-Full/MotorControl/MCSDK/MCLib/Any/Src/open_loop.c **** #ifdef NULL_PTR_CHECK_OPEN_LOOP
 129:MCSDK_v6.2.1-Full/MotorControl/MCSDK/MCLib/Any/Src/open_loop.c ****   if (MC_NULL == pHandle)
 130:MCSDK_v6.2.1-Full/MotorControl/MCSDK/MCLib/Any/Src/open_loop.c ****   {
 131:MCSDK_v6.2.1-Full/MotorControl/MCSDK/MCLib/Any/Src/open_loop.c ****     /* Nothing to do */
 132:MCSDK_v6.2.1-Full/MotorControl/MCSDK/MCLib/Any/Src/open_loop.c ****   }
 133:MCSDK_v6.2.1-Full/MotorControl/MCSDK/MCLib/Any/Src/open_loop.c ****   else
 134:MCSDK_v6.2.1-Full/MotorControl/MCSDK/MCLib/Any/Src/open_loop.c ****   {
 135:MCSDK_v6.2.1-Full/MotorControl/MCSDK/MCLib/Any/Src/open_loop.c **** #endif
 136:MCSDK_v6.2.1-Full/MotorControl/MCSDK/MCLib/Any/Src/open_loop.c ****     if (true ==  pHandle->VFMode)
 151              		.loc 1 136 5 view .LVU25
 152              		.loc 1 136 8 is_stmt 0 view .LVU26
 153 0000 8378     		ldrb	r3, [r0, #2]	@ zero_extendqisi2
 154 0002 73B1     		cbz	r3, .L7
 137:MCSDK_v6.2.1-Full/MotorControl/MCSDK/MCLib/Any/Src/open_loop.c ****     {
 138:MCSDK_v6.2.1-Full/MotorControl/MCSDK/MCLib/Any/Src/open_loop.c ****       /* V/F mode true means enabled */
 139:MCSDK_v6.2.1-Full/MotorControl/MCSDK/MCLib/Any/Src/open_loop.c ****       if (pHandle->pVSS->_Super.hAvrMecSpeedUnit >= 0)
ARM GAS  C:\Users\ep_ygh\AppData\Local\Temp\ccy2MVwy.s 			page 6


 155              		.loc 1 139 7 is_stmt 1 view .LVU27
 156              		.loc 1 139 32 is_stmt 0 view .LVU28
 157 0004 C368     		ldr	r3, [r0, #12]
 140:MCSDK_v6.2.1-Full/MotorControl/MCSDK/MCLib/Any/Src/open_loop.c ****       {
 141:MCSDK_v6.2.1-Full/MotorControl/MCSDK/MCLib/Any/Src/open_loop.c ****         pHandle->hVoltage = pHandle->hVFOffset + (pHandle->hVFSlope * pHandle->pVSS->_Super.hAvrMec
 158              		.loc 1 141 69 view .LVU29
 159 0006 B0F90610 		ldrsh	r1, [r0, #6]
 139:MCSDK_v6.2.1-Full/MotorControl/MCSDK/MCLib/Any/Src/open_loop.c ****       {
 160              		.loc 1 139 32 view .LVU30
 161 000a B3F90C30 		ldrsh	r3, [r3, #12]
 162              		.loc 1 141 48 view .LVU31
 163 000e 8288     		ldrh	r2, [r0, #4]
 139:MCSDK_v6.2.1-Full/MotorControl/MCSDK/MCLib/Any/Src/open_loop.c ****       {
 164              		.loc 1 139 10 view .LVU32
 165 0010 002B     		cmp	r3, #0
 166 0012 03DB     		blt	.L9
 167              		.loc 1 141 9 is_stmt 1 view .LVU33
 168              		.loc 1 141 48 is_stmt 0 view .LVU34
 169 0014 01FB0323 		mla	r3, r1, r3, r2
 170              		.loc 1 141 27 view .LVU35
 171 0018 0381     		strh	r3, [r0, #8]	@ movhi
 172 001a 7047     		bx	lr
 173              	.L9:
 142:MCSDK_v6.2.1-Full/MotorControl/MCSDK/MCLib/Any/Src/open_loop.c ****       }
 143:MCSDK_v6.2.1-Full/MotorControl/MCSDK/MCLib/Any/Src/open_loop.c ****       else
 144:MCSDK_v6.2.1-Full/MotorControl/MCSDK/MCLib/Any/Src/open_loop.c ****       {
 145:MCSDK_v6.2.1-Full/MotorControl/MCSDK/MCLib/Any/Src/open_loop.c ****         pHandle->hVoltage = pHandle->hVFOffset - (pHandle->hVFSlope * pHandle->pVSS->_Super.hAvrMec
 174              		.loc 1 145 9 is_stmt 1 view .LVU36
 175              		.loc 1 145 48 is_stmt 0 view .LVU37
 176 001c 01FB1323 		mls	r3, r1, r3, r2
 177              		.loc 1 145 27 view .LVU38
 178 0020 0381     		strh	r3, [r0, #8]	@ movhi
 146:MCSDK_v6.2.1-Full/MotorControl/MCSDK/MCLib/Any/Src/open_loop.c ****       }
 147:MCSDK_v6.2.1-Full/MotorControl/MCSDK/MCLib/Any/Src/open_loop.c ****     }
 148:MCSDK_v6.2.1-Full/MotorControl/MCSDK/MCLib/Any/Src/open_loop.c ****     else
 149:MCSDK_v6.2.1-Full/MotorControl/MCSDK/MCLib/Any/Src/open_loop.c ****     {
 150:MCSDK_v6.2.1-Full/MotorControl/MCSDK/MCLib/Any/Src/open_loop.c ****       /* Nothing to do */
 151:MCSDK_v6.2.1-Full/MotorControl/MCSDK/MCLib/Any/Src/open_loop.c ****     }
 179              		.loc 1 151 5 is_stmt 1 view .LVU39
 180              	.L7:
 152:MCSDK_v6.2.1-Full/MotorControl/MCSDK/MCLib/Any/Src/open_loop.c **** #ifdef NULL_PTR_CHECK_OPEN_LOOP
 153:MCSDK_v6.2.1-Full/MotorControl/MCSDK/MCLib/Any/Src/open_loop.c ****   }
 154:MCSDK_v6.2.1-Full/MotorControl/MCSDK/MCLib/Any/Src/open_loop.c **** #endif
 155:MCSDK_v6.2.1-Full/MotorControl/MCSDK/MCLib/Any/Src/open_loop.c **** }
 181              		.loc 1 155 1 is_stmt 0 view .LVU40
 182 0022 7047     		bx	lr
 183              		.cfi_endproc
 184              	.LFE1092:
 186              		.section	.text.OL_VF,"ax",%progbits
 187              		.align	1
 188              		.p2align 2,,3
 189              		.weak	OL_VF
 190              		.syntax unified
 191              		.thumb
 192              		.thumb_func
 194              	OL_VF:
 195              	.LVL7:
ARM GAS  C:\Users\ep_ygh\AppData\Local\Temp\ccy2MVwy.s 			page 7


 196              	.LFB1093:
 156:MCSDK_v6.2.1-Full/MotorControl/MCSDK/MCLib/Any/Src/open_loop.c **** 
 157:MCSDK_v6.2.1-Full/MotorControl/MCSDK/MCLib/Any/Src/open_loop.c **** /**
 158:MCSDK_v6.2.1-Full/MotorControl/MCSDK/MCLib/Any/Src/open_loop.c ****   * @brief  Activates of the Voltage versus Frequency mode (V/F mode).
 159:MCSDK_v6.2.1-Full/MotorControl/MCSDK/MCLib/Any/Src/open_loop.c ****   * @param  pHandle: Pointer on Handle structure of OpenLoop feature.
 160:MCSDK_v6.2.1-Full/MotorControl/MCSDK/MCLib/Any/Src/open_loop.c ****   * @param  VFEnabling: Flag to enable the V/F mode.
 161:MCSDK_v6.2.1-Full/MotorControl/MCSDK/MCLib/Any/Src/open_loop.c ****   */
 162:MCSDK_v6.2.1-Full/MotorControl/MCSDK/MCLib/Any/Src/open_loop.c **** __weak void OL_VF(OpenLoop_Handle_t *pHandle, bool VFEnabling)
 163:MCSDK_v6.2.1-Full/MotorControl/MCSDK/MCLib/Any/Src/open_loop.c **** {
 197              		.loc 1 163 1 is_stmt 1 view -0
 198              		.cfi_startproc
 199              		@ args = 0, pretend = 0, frame = 0
 200              		@ frame_needed = 0, uses_anonymous_args = 0
 201              		@ link register save eliminated.
 164:MCSDK_v6.2.1-Full/MotorControl/MCSDK/MCLib/Any/Src/open_loop.c **** #ifdef NULL_PTR_CHECK_OPEN_LOOP
 165:MCSDK_v6.2.1-Full/MotorControl/MCSDK/MCLib/Any/Src/open_loop.c ****   if (MC_NULL == pHandle)
 166:MCSDK_v6.2.1-Full/MotorControl/MCSDK/MCLib/Any/Src/open_loop.c ****   {
 167:MCSDK_v6.2.1-Full/MotorControl/MCSDK/MCLib/Any/Src/open_loop.c ****     /* Nothing to do */
 168:MCSDK_v6.2.1-Full/MotorControl/MCSDK/MCLib/Any/Src/open_loop.c ****   }
 169:MCSDK_v6.2.1-Full/MotorControl/MCSDK/MCLib/Any/Src/open_loop.c ****   else
 170:MCSDK_v6.2.1-Full/MotorControl/MCSDK/MCLib/Any/Src/open_loop.c ****   {
 171:MCSDK_v6.2.1-Full/MotorControl/MCSDK/MCLib/Any/Src/open_loop.c **** #endif
 172:MCSDK_v6.2.1-Full/MotorControl/MCSDK/MCLib/Any/Src/open_loop.c ****     pHandle->VFMode = VFEnabling;
 202              		.loc 1 172 5 view .LVU42
 203              		.loc 1 172 21 is_stmt 0 view .LVU43
 204 0000 8170     		strb	r1, [r0, #2]
 173:MCSDK_v6.2.1-Full/MotorControl/MCSDK/MCLib/Any/Src/open_loop.c **** #ifdef NULL_PTR_CHECK_OPEN_LOOP
 174:MCSDK_v6.2.1-Full/MotorControl/MCSDK/MCLib/Any/Src/open_loop.c ****   }
 175:MCSDK_v6.2.1-Full/MotorControl/MCSDK/MCLib/Any/Src/open_loop.c **** #endif
 176:MCSDK_v6.2.1-Full/MotorControl/MCSDK/MCLib/Any/Src/open_loop.c **** }
 205              		.loc 1 176 1 view .LVU44
 206 0002 7047     		bx	lr
 207              		.cfi_endproc
 208              	.LFE1093:
 210              		.text
 211              	.Letext0:
 212              		.file 2 "c:\\programdata\\chocolatey\\lib\\gcc-arm-embedded\\tools\\gcc-arm-none-eabi-10.3-2021.10
 213              		.file 3 "c:\\programdata\\chocolatey\\lib\\gcc-arm-embedded\\tools\\gcc-arm-none-eabi-10.3-2021.10
 214              		.file 4 "Drivers/STM32L4xx_HAL_Driver/Inc/stm32l4xx_ll_tim.h"
 215              		.file 5 "Drivers/STM32L4xx_HAL_Driver/Inc/stm32l4xx_ll_dma.h"
 216              		.file 6 "Inc/mc_type.h"
 217              		.file 7 "MCSDK_v6.2.1-Full/MotorControl/MCSDK/MCLib/Any/Inc/speed_pos_fdbk.h"
 218              		.file 8 "MCSDK_v6.2.1-Full/MotorControl/MCSDK/MCLib/Any/Inc/virtual_speed_sensor.h"
 219              		.file 9 "MCSDK_v6.2.1-Full/MotorControl/MCSDK/MCLib/Any/Inc/open_loop.h"
ARM GAS  C:\Users\ep_ygh\AppData\Local\Temp\ccy2MVwy.s 			page 8

