ARM GAS  C:\Users\ep_ygh\AppData\Local\Temp\ccSYahLu.s 			page 1


   1              		.cpu cortex-m4
   2              		.arch armv7e-m
   3              		.fpu fpv4-sp-d16
   4              		.eabi_attribute 27, 1
   5              		.eabi_attribute 28, 1
   6              		.eabi_attribute 20, 1
   7              		.eabi_attribute 21, 1
   8              		.eabi_attribute 23, 3
   9              		.eabi_attribute 24, 1
  10              		.eabi_attribute 25, 1
  11              		.eabi_attribute 26, 1
  12              		.eabi_attribute 30, 2
  13              		.eabi_attribute 34, 1
  14              		.eabi_attribute 18, 4
  15              		.file	"register_interface.c"
  16              		.text
  17              	.Ltext0:
  18              		.cfi_sections	.debug_frame
  19              		.section	.text.RI_SetRegisterGlobal,"ax",%progbits
  20              		.align	1
  21              		.p2align 2,,3
  22              		.global	RI_SetRegisterGlobal
  23              		.syntax unified
  24              		.thumb
  25              		.thumb_func
  27              	RI_SetRegisterGlobal:
  28              	.LVL0:
  29              	.LFB1090:
  30              		.file 1 "Src/register_interface.c"
   1:Src/register_interface.c **** 
   2:Src/register_interface.c **** /**
   3:Src/register_interface.c ****   ******************************************************************************
   4:Src/register_interface.c ****   * @file    register_interface.c
   5:Src/register_interface.c ****   * @author  Motor Control SDK Team, ST Microelectronics
   6:Src/register_interface.c ****   * @brief   This file provides firmware functions that implement the register access for the MCP p
   7:Src/register_interface.c ****   *
   8:Src/register_interface.c ****   *
   9:Src/register_interface.c ****   ******************************************************************************
  10:Src/register_interface.c ****   * @attention
  11:Src/register_interface.c ****   *
  12:Src/register_interface.c ****   * <h2><center>&copy; Copyright (c) 2023 STMicroelectronics.
  13:Src/register_interface.c ****   * All rights reserved.</center></h2>
  14:Src/register_interface.c ****   *
  15:Src/register_interface.c ****   * This software component is licensed by ST under Ultimate Liberty license
  16:Src/register_interface.c ****   * SLA0044, the "License"; You may not use this file except in compliance with
  17:Src/register_interface.c ****   * the License. You may obtain a copy of the License at:
  18:Src/register_interface.c ****   *                             www.st.com/SLA0044
  19:Src/register_interface.c ****   *
  20:Src/register_interface.c ****   ******************************************************************************
  21:Src/register_interface.c ****   */
  22:Src/register_interface.c **** 
  23:Src/register_interface.c **** #include "mc_type.h"
  24:Src/register_interface.c **** #include "string.h"
  25:Src/register_interface.c **** #include "register_interface.h"
  26:Src/register_interface.c **** #include "mc_config.h"
  27:Src/register_interface.c **** #include "mcp.h"
  28:Src/register_interface.c **** #include "mcp_config.h"
ARM GAS  C:\Users\ep_ygh\AppData\Local\Temp\ccSYahLu.s 			page 2


  29:Src/register_interface.c **** #include "mcpa.h"
  30:Src/register_interface.c **** #include "dac_ui.h"
  31:Src/register_interface.c **** #include "mc_configuration_registers.h"
  32:Src/register_interface.c **** 
  33:Src/register_interface.c **** uint8_t RI_SetRegisterGlobal(uint16_t regID, uint8_t typeID, uint8_t *data, uint16_t *size, int16_t
  34:Src/register_interface.c **** {
  31              		.loc 1 34 1 view -0
  32              		.cfi_startproc
  33              		@ args = 4, pretend = 0, frame = 8
  34              		@ frame_needed = 0, uses_anonymous_args = 0
  35:Src/register_interface.c ****   uint8_t retVal = MCP_CMD_OK;
  35              		.loc 1 35 3 view .LVU1
  36:Src/register_interface.c ****   switch(typeID)
  36              		.loc 1 36 3 view .LVU2
  34:Src/register_interface.c ****   uint8_t retVal = MCP_CMD_OK;
  37              		.loc 1 34 1 is_stmt 0 view .LVU3
  38 0000 10B5     		push	{r4, lr}
  39              	.LCFI0:
  40              		.cfi_def_cfa_offset 8
  41              		.cfi_offset 4, -8
  42              		.cfi_offset 14, -4
  43 0002 82B0     		sub	sp, sp, #8
  44              	.LCFI1:
  45              		.cfi_def_cfa_offset 16
  46              		.loc 1 36 3 view .LVU4
  47 0004 0839     		subs	r1, r1, #8
  48              	.LVL1:
  34:Src/register_interface.c ****   uint8_t retVal = MCP_CMD_OK;
  49              		.loc 1 34 1 view .LVU5
  50 0006 BDF910C0 		ldrsh	ip, [sp, #16]
  51              		.loc 1 36 3 view .LVU6
  52 000a 2029     		cmp	r1, #32
  53 000c 12D8     		bhi	.L2
  54 000e DFE801F0 		tbb	[pc, r1]
  55              	.L4:
  56 0012 16       		.byte	(.L8-.L4)/2
  57 0013 11       		.byte	(.L2-.L4)/2
  58 0014 11       		.byte	(.L2-.L4)/2
  59 0015 11       		.byte	(.L2-.L4)/2
  60 0016 11       		.byte	(.L2-.L4)/2
  61 0017 11       		.byte	(.L2-.L4)/2
  62 0018 11       		.byte	(.L2-.L4)/2
  63 0019 11       		.byte	(.L2-.L4)/2
  64 001a 1F       		.byte	(.L7-.L4)/2
  65 001b 11       		.byte	(.L2-.L4)/2
  66 001c 11       		.byte	(.L2-.L4)/2
  67 001d 11       		.byte	(.L2-.L4)/2
  68 001e 11       		.byte	(.L2-.L4)/2
  69 001f 11       		.byte	(.L2-.L4)/2
  70 0020 11       		.byte	(.L2-.L4)/2
  71 0021 11       		.byte	(.L2-.L4)/2
  72 0022 2D       		.byte	(.L6-.L4)/2
  73 0023 11       		.byte	(.L2-.L4)/2
  74 0024 11       		.byte	(.L2-.L4)/2
  75 0025 11       		.byte	(.L2-.L4)/2
  76 0026 11       		.byte	(.L2-.L4)/2
  77 0027 11       		.byte	(.L2-.L4)/2
ARM GAS  C:\Users\ep_ygh\AppData\Local\Temp\ccSYahLu.s 			page 3


  78 0028 11       		.byte	(.L2-.L4)/2
  79 0029 11       		.byte	(.L2-.L4)/2
  80 002a 36       		.byte	(.L5-.L4)/2
  81 002b 11       		.byte	(.L2-.L4)/2
  82 002c 11       		.byte	(.L2-.L4)/2
  83 002d 11       		.byte	(.L2-.L4)/2
  84 002e 11       		.byte	(.L2-.L4)/2
  85 002f 11       		.byte	(.L2-.L4)/2
  86 0030 11       		.byte	(.L2-.L4)/2
  87 0031 11       		.byte	(.L2-.L4)/2
  88 0032 50       		.byte	(.L3-.L4)/2
  89 0033 00       		.p2align 1
  90              	.L2:
  37:Src/register_interface.c ****   {
  38:Src/register_interface.c ****     case TYPE_DATA_8BIT:
  39:Src/register_interface.c ****     {
  40:Src/register_interface.c ****       switch (regID)
  41:Src/register_interface.c ****       {
  42:Src/register_interface.c ****         case MC_REG_STATUS:
  43:Src/register_interface.c ****         {
  44:Src/register_interface.c ****           retVal = MCP_ERROR_RO_REG;
  45:Src/register_interface.c ****           break;
  46:Src/register_interface.c ****         }
  47:Src/register_interface.c **** 
  48:Src/register_interface.c ****         default:
  49:Src/register_interface.c ****         {
  50:Src/register_interface.c ****           retVal = MCP_ERROR_UNKNOWN_REG;
  51:Src/register_interface.c ****           break;
  52:Src/register_interface.c ****         }
  53:Src/register_interface.c ****       }
  54:Src/register_interface.c ****       *size = 1;
  55:Src/register_interface.c ****       break;
  56:Src/register_interface.c ****     }
  57:Src/register_interface.c **** 
  58:Src/register_interface.c ****     case TYPE_DATA_16BIT:
  59:Src/register_interface.c ****     {
  60:Src/register_interface.c ****       uint16_t regdata16 = *(uint16_t *)data; //cstat !MISRAC2012-Rule-11.3
  61:Src/register_interface.c ****       switch (regID)
  62:Src/register_interface.c ****       {
  63:Src/register_interface.c **** 
  64:Src/register_interface.c ****         case MC_REG_BUS_VOLTAGE:
  65:Src/register_interface.c ****         case MC_REG_HEATS_TEMP:
  66:Src/register_interface.c ****         case MC_REG_MOTOR_POWER:
  67:Src/register_interface.c ****         {
  68:Src/register_interface.c ****           retVal = MCP_ERROR_RO_REG;
  69:Src/register_interface.c ****           break;
  70:Src/register_interface.c ****         }
  71:Src/register_interface.c **** 
  72:Src/register_interface.c ****         case MC_REG_DAC_OUT1:
  73:Src/register_interface.c ****         {
  74:Src/register_interface.c ****           DAC_SetChannelConfig(&DAC_Handle , DAC_CH1, regdata16);
  75:Src/register_interface.c ****           break;
  76:Src/register_interface.c ****         }
  77:Src/register_interface.c **** 
  78:Src/register_interface.c ****         case MC_REG_DAC_OUT2:
  79:Src/register_interface.c ****         {
  80:Src/register_interface.c ****           DAC_SetChannelConfig(&DAC_Handle , DAC_CH2, regdata16);
ARM GAS  C:\Users\ep_ygh\AppData\Local\Temp\ccSYahLu.s 			page 4


  81:Src/register_interface.c ****           break;
  82:Src/register_interface.c ****         }
  83:Src/register_interface.c **** 
  84:Src/register_interface.c ****         case MC_REG_DAC_USER1:
  85:Src/register_interface.c ****         case MC_REG_DAC_USER2:
  86:Src/register_interface.c ****         break;
  87:Src/register_interface.c **** 
  88:Src/register_interface.c ****         default:
  89:Src/register_interface.c ****         {
  90:Src/register_interface.c ****           retVal = MCP_ERROR_UNKNOWN_REG;
  91:Src/register_interface.c ****           break;
  92:Src/register_interface.c ****         }
  93:Src/register_interface.c ****       }
  94:Src/register_interface.c ****       *size = 2;
  95:Src/register_interface.c ****       break;
  96:Src/register_interface.c ****     }
  97:Src/register_interface.c **** 
  98:Src/register_interface.c ****     case TYPE_DATA_32BIT:
  99:Src/register_interface.c ****     {
 100:Src/register_interface.c **** 
 101:Src/register_interface.c ****       switch (regID)
 102:Src/register_interface.c ****       {
 103:Src/register_interface.c ****         case MC_REG_FAULTS_FLAGS:
 104:Src/register_interface.c ****         {
 105:Src/register_interface.c ****           retVal = MCP_ERROR_RO_REG;
 106:Src/register_interface.c ****           break;
 107:Src/register_interface.c ****         }
 108:Src/register_interface.c **** 
 109:Src/register_interface.c ****         default:
 110:Src/register_interface.c ****         {
 111:Src/register_interface.c ****           retVal = MCP_ERROR_UNKNOWN_REG;
 112:Src/register_interface.c ****           break;
 113:Src/register_interface.c ****         }
 114:Src/register_interface.c ****       }
 115:Src/register_interface.c ****       *size = 4;
 116:Src/register_interface.c ****       break;
 117:Src/register_interface.c ****     }
 118:Src/register_interface.c **** 
 119:Src/register_interface.c ****     case TYPE_DATA_STRING:
 120:Src/register_interface.c ****     {
 121:Src/register_interface.c ****       const char_t *charData = (const char_t *)data;
 122:Src/register_interface.c ****       char_t *dummy = (char_t *)data;
 123:Src/register_interface.c ****       retVal = MCP_ERROR_RO_REG;
 124:Src/register_interface.c ****       /* Used to compute String length stored in RXBUFF even if Reg does not exist */
 125:Src/register_interface.c ****       /* It allows to jump to the next command in the buffer */
 126:Src/register_interface.c ****       (void)RI_MovString(charData, dummy, size, dataAvailable);
 127:Src/register_interface.c ****       break;
 128:Src/register_interface.c ****     }
 129:Src/register_interface.c **** 
 130:Src/register_interface.c ****     case TYPE_DATA_RAW:
 131:Src/register_interface.c ****     {
 132:Src/register_interface.c ****       uint16_t rawSize = *(uint16_t *)data; //cstat !MISRAC2012-Rule-11.3
 133:Src/register_interface.c ****       /* The size consumed by the structure is the structure size + 2 bytes used to store the size 
 134:Src/register_interface.c ****       *size = rawSize + 2U;
 135:Src/register_interface.c ****       uint8_t *rawData = data; /* rawData points to the first data (after size extraction) */
 136:Src/register_interface.c ****       rawData++;
 137:Src/register_interface.c ****       rawData++;
ARM GAS  C:\Users\ep_ygh\AppData\Local\Temp\ccSYahLu.s 			page 5


 138:Src/register_interface.c **** 
 139:Src/register_interface.c ****       if (*size > (uint16_t)dataAvailable)
 140:Src/register_interface.c ****       {
 141:Src/register_interface.c ****         /* The decoded size of the raw structure can not match with transmitted buffer, error in bu
 142:Src/register_interface.c ****            construction */
 143:Src/register_interface.c ****         *size = 0;
 144:Src/register_interface.c ****         retVal = MCP_ERROR_BAD_RAW_FORMAT; /* This error stop the parsing of the CMD buffer */
 145:Src/register_interface.c ****       }
 146:Src/register_interface.c ****       else
 147:Src/register_interface.c ****       {
 148:Src/register_interface.c ****         switch (regID)
 149:Src/register_interface.c ****         {
 150:Src/register_interface.c ****           case MC_REG_APPLICATION_CONFIG:
 151:Src/register_interface.c ****           case MC_REG_MOTOR_CONFIG:
 152:Src/register_interface.c ****           case MC_REG_GLOBAL_CONFIG:
 153:Src/register_interface.c ****           case MC_REG_FOCFW_CONFIG:
 154:Src/register_interface.c ****           {
 155:Src/register_interface.c ****             retVal = MCP_ERROR_RO_REG;
 156:Src/register_interface.c ****             break;
 157:Src/register_interface.c ****           }
 158:Src/register_interface.c **** 
 159:Src/register_interface.c ****           default:
 160:Src/register_interface.c ****           {
 161:Src/register_interface.c ****             retVal = MCP_ERROR_UNKNOWN_REG;
 162:Src/register_interface.c ****             break;
 163:Src/register_interface.c ****           }
 164:Src/register_interface.c ****         }
 165:Src/register_interface.c **** 
 166:Src/register_interface.c ****       }
 167:Src/register_interface.c ****       break;
 168:Src/register_interface.c ****     }
 169:Src/register_interface.c **** 
 170:Src/register_interface.c ****     default:
 171:Src/register_interface.c ****     {
 172:Src/register_interface.c ****       retVal = MCP_ERROR_BAD_DATA_TYPE;
  91              		.loc 1 172 7 is_stmt 1 view .LVU7
  92              	.LVL2:
 173:Src/register_interface.c ****       *size =0; /* From this point we are not able anymore to decode the RX buffer */
  93              		.loc 1 173 7 view .LVU8
  94              		.loc 1 173 13 is_stmt 0 view .LVU9
  95 0034 0022     		movs	r2, #0
  96              	.LVL3:
  97              		.loc 1 173 13 view .LVU10
  98 0036 1A80     		strh	r2, [r3]	@ movhi
 174:Src/register_interface.c ****       break;
  99              		.loc 1 174 7 is_stmt 1 view .LVU11
 172:Src/register_interface.c ****       *size =0; /* From this point we are not able anymore to decode the RX buffer */
 100              		.loc 1 172 14 is_stmt 0 view .LVU12
 101 0038 0720     		movs	r0, #7
 102              	.LVL4:
 103              	.L37:
 175:Src/register_interface.c ****     }
 176:Src/register_interface.c ****   }
 177:Src/register_interface.c ****   return (retVal);
 178:Src/register_interface.c **** }
 104              		.loc 1 178 1 view .LVU13
 105 003a 02B0     		add	sp, sp, #8
ARM GAS  C:\Users\ep_ygh\AppData\Local\Temp\ccSYahLu.s 			page 6


 106              	.LCFI2:
 107              		.cfi_remember_state
 108              		.cfi_def_cfa_offset 8
 109              		@ sp needed
 110 003c 10BD     		pop	{r4, pc}
 111              	.LVL5:
 112              	.L8:
 113              	.LCFI3:
 114              		.cfi_restore_state
  40:Src/register_interface.c ****       {
 115              		.loc 1 40 7 is_stmt 1 view .LVU14
  50:Src/register_interface.c ****           break;
 116              		.loc 1 50 18 is_stmt 0 view .LVU15
 117 003e 4828     		cmp	r0, #72
  54:Src/register_interface.c ****       break;
 118              		.loc 1 54 13 view .LVU16
 119 0040 4FF00102 		mov	r2, #1
 120              	.LVL6:
  50:Src/register_interface.c ****           break;
 121              		.loc 1 50 18 view .LVU17
 122 0044 0CBF     		ite	eq
 123 0046 0420     		moveq	r0, #4
 124              	.LVL7:
  50:Src/register_interface.c ****           break;
 125              		.loc 1 50 18 view .LVU18
 126 0048 0520     		movne	r0, #5
 127              	.LVL8:
  54:Src/register_interface.c ****       break;
 128              		.loc 1 54 7 is_stmt 1 view .LVU19
  54:Src/register_interface.c ****       break;
 129              		.loc 1 54 13 is_stmt 0 view .LVU20
 130 004a 1A80     		strh	r2, [r3]	@ movhi
  55:Src/register_interface.c ****     }
 131              		.loc 1 55 7 is_stmt 1 view .LVU21
 132              		.loc 1 178 1 is_stmt 0 view .LVU22
 133 004c 02B0     		add	sp, sp, #8
 134              	.LCFI4:
 135              		.cfi_remember_state
 136              		.cfi_def_cfa_offset 8
 137              		@ sp needed
 138 004e 10BD     		pop	{r4, pc}
 139              	.LVL9:
 140              	.L7:
 141              	.LCFI5:
 142              		.cfi_restore_state
 143              	.LBB48:
  60:Src/register_interface.c ****       switch (regID)
 144              		.loc 1 60 7 is_stmt 1 view .LVU23
 145 0050 B0F5D26F 		cmp	r0, #1680
  60:Src/register_interface.c ****       switch (regID)
 146              		.loc 1 60 16 is_stmt 0 view .LVU24
 147 0054 1288     		ldrh	r2, [r2]
 148              	.LVL10:
  61:Src/register_interface.c ****       {
 149              		.loc 1 61 7 is_stmt 1 view .LVU25
 150 0056 66D0     		beq	.L11
 151 0058 46D8     		bhi	.L12
ARM GAS  C:\Users\ep_ygh\AppData\Local\Temp\ccSYahLu.s 			page 7


 152 005a B0F5CA6F 		cmp	r0, #1616
 153 005e 6AD0     		beq	.L13
 154 0060 3AD9     		bls	.L41
  90:Src/register_interface.c ****           break;
 155              		.loc 1 90 18 is_stmt 0 view .LVU26
 156 0062 0520     		movs	r0, #5
 157              	.LVL11:
 158              	.L14:
  94:Src/register_interface.c ****       break;
 159              		.loc 1 94 7 is_stmt 1 view .LVU27
  94:Src/register_interface.c ****       break;
 160              		.loc 1 94 13 is_stmt 0 view .LVU28
 161 0064 0222     		movs	r2, #2
 162 0066 1A80     		strh	r2, [r3]	@ movhi
  95:Src/register_interface.c ****     }
 163              		.loc 1 95 7 is_stmt 1 view .LVU29
 164              	.LBE48:
 165              		.loc 1 178 1 is_stmt 0 view .LVU30
 166 0068 02B0     		add	sp, sp, #8
 167              	.LCFI6:
 168              		.cfi_remember_state
 169              		.cfi_def_cfa_offset 8
 170              		@ sp needed
 171 006a 10BD     		pop	{r4, pc}
 172              	.LVL12:
 173              	.L6:
 174              	.LCFI7:
 175              		.cfi_restore_state
 101:Src/register_interface.c ****       {
 176              		.loc 1 101 7 is_stmt 1 view .LVU31
 111:Src/register_interface.c ****           break;
 177              		.loc 1 111 18 is_stmt 0 view .LVU32
 178 006c 1828     		cmp	r0, #24
 115:Src/register_interface.c ****       break;
 179              		.loc 1 115 13 view .LVU33
 180 006e 4FF00402 		mov	r2, #4
 181              	.LVL13:
 111:Src/register_interface.c ****           break;
 182              		.loc 1 111 18 view .LVU34
 183 0072 0CBF     		ite	eq
 184 0074 1046     		moveq	r0, r2
 185              	.LVL14:
 111:Src/register_interface.c ****           break;
 186              		.loc 1 111 18 view .LVU35
 187 0076 0520     		movne	r0, #5
 188              	.LVL15:
 115:Src/register_interface.c ****       break;
 189              		.loc 1 115 7 is_stmt 1 view .LVU36
 115:Src/register_interface.c ****       break;
 190              		.loc 1 115 13 is_stmt 0 view .LVU37
 191 0078 1A80     		strh	r2, [r3]	@ movhi
 116:Src/register_interface.c ****     }
 192              		.loc 1 116 7 is_stmt 1 view .LVU38
 193              		.loc 1 178 1 is_stmt 0 view .LVU39
 194 007a 02B0     		add	sp, sp, #8
 195              	.LCFI8:
 196              		.cfi_remember_state
ARM GAS  C:\Users\ep_ygh\AppData\Local\Temp\ccSYahLu.s 			page 8


 197              		.cfi_def_cfa_offset 8
 198              		@ sp needed
 199 007c 10BD     		pop	{r4, pc}
 200              	.LVL16:
 201              	.L5:
 202              	.LCFI9:
 203              		.cfi_restore_state
 204              	.LBB49:
 121:Src/register_interface.c ****       char_t *dummy = (char_t *)data;
 205              		.loc 1 121 7 is_stmt 1 view .LVU40
 122:Src/register_interface.c ****       retVal = MCP_ERROR_RO_REG;
 206              		.loc 1 122 7 view .LVU41
 123:Src/register_interface.c ****       /* Used to compute String length stored in RXBUFF even if Reg does not exist */
 207              		.loc 1 123 7 view .LVU42
 126:Src/register_interface.c ****       break;
 208              		.loc 1 126 7 view .LVU43
 209              	.LBB50:
 210              	.LBI50:
 179:Src/register_interface.c **** 
 180:Src/register_interface.c **** uint8_t RI_SetRegisterMotor1(uint16_t regID, uint8_t typeID, uint8_t *data, uint16_t *size, int16_t
 181:Src/register_interface.c **** {
 182:Src/register_interface.c ****   uint8_t retVal = MCP_CMD_OK;
 183:Src/register_interface.c ****   uint8_t motorID=0;
 184:Src/register_interface.c ****   MCI_Handle_t *pMCIN = &Mci[motorID];
 185:Src/register_interface.c **** 
 186:Src/register_interface.c ****   switch(typeID)
 187:Src/register_interface.c ****   {
 188:Src/register_interface.c ****     case TYPE_DATA_8BIT:
 189:Src/register_interface.c ****     {
 190:Src/register_interface.c ****       switch (regID)
 191:Src/register_interface.c ****       {
 192:Src/register_interface.c ****         case MC_REG_STATUS:
 193:Src/register_interface.c ****           {
 194:Src/register_interface.c ****             retVal = MCP_ERROR_RO_REG;
 195:Src/register_interface.c ****             break;
 196:Src/register_interface.c ****           }
 197:Src/register_interface.c **** 
 198:Src/register_interface.c ****         case MC_REG_CONTROL_MODE:
 199:Src/register_interface.c ****         {
 200:Src/register_interface.c ****           uint8_t regdata8 = *data;
 201:Src/register_interface.c ****           if ((uint8_t)MCM_TORQUE_MODE == regdata8)
 202:Src/register_interface.c ****           {
 203:Src/register_interface.c ****             MCI_ExecTorqueRamp(pMCIN, MCI_GetTeref(pMCIN), 0);
 204:Src/register_interface.c ****           }
 205:Src/register_interface.c ****           else
 206:Src/register_interface.c ****           {
 207:Src/register_interface.c ****             /* Nothing to do */
 208:Src/register_interface.c ****           }
 209:Src/register_interface.c **** 
 210:Src/register_interface.c ****           if ((uint8_t)MCM_SPEED_MODE == regdata8)
 211:Src/register_interface.c ****           {
 212:Src/register_interface.c ****             MCI_ExecSpeedRamp(pMCIN, MCI_GetMecSpeedRefUnit(pMCIN), 0);
 213:Src/register_interface.c ****           }
 214:Src/register_interface.c ****           else
 215:Src/register_interface.c ****           {
 216:Src/register_interface.c ****             /* Nothing to do */
 217:Src/register_interface.c ****           }
ARM GAS  C:\Users\ep_ygh\AppData\Local\Temp\ccSYahLu.s 			page 9


 218:Src/register_interface.c **** 
 219:Src/register_interface.c ****           break;
 220:Src/register_interface.c ****         }
 221:Src/register_interface.c **** 
 222:Src/register_interface.c ****         case MC_REG_POSITION_CTRL_STATE:
 223:Src/register_interface.c ****         case MC_REG_POSITION_ALIGN_STATE:
 224:Src/register_interface.c ****         {
 225:Src/register_interface.c ****           retVal = MCP_ERROR_RO_REG;
 226:Src/register_interface.c ****           break;
 227:Src/register_interface.c ****         }
 228:Src/register_interface.c **** 
 229:Src/register_interface.c ****         default:
 230:Src/register_interface.c ****         {
 231:Src/register_interface.c ****           retVal = MCP_ERROR_UNKNOWN_REG;
 232:Src/register_interface.c ****           break;
 233:Src/register_interface.c ****         }
 234:Src/register_interface.c ****       }
 235:Src/register_interface.c ****       *size = 1;
 236:Src/register_interface.c ****       break;
 237:Src/register_interface.c ****     }
 238:Src/register_interface.c **** 
 239:Src/register_interface.c ****     case TYPE_DATA_16BIT:
 240:Src/register_interface.c ****     {
 241:Src/register_interface.c ****       uint16_t regdata16 = *(uint16_t *)data; //cstat !MISRAC2012-Rule-11.3
 242:Src/register_interface.c ****       switch (regID)
 243:Src/register_interface.c ****       {
 244:Src/register_interface.c ****         case MC_REG_SPEED_KP:
 245:Src/register_interface.c ****         {
 246:Src/register_interface.c ****           PID_SetKP(&PIDSpeedHandle_M1, (int16_t)regdata16);
 247:Src/register_interface.c ****           break;
 248:Src/register_interface.c ****         }
 249:Src/register_interface.c **** 
 250:Src/register_interface.c ****         case MC_REG_SPEED_KI:
 251:Src/register_interface.c ****         {
 252:Src/register_interface.c ****           PID_SetKI(&PIDSpeedHandle_M1, (int16_t)regdata16);
 253:Src/register_interface.c ****           break;
 254:Src/register_interface.c ****         }
 255:Src/register_interface.c **** 
 256:Src/register_interface.c ****         case MC_REG_SPEED_KD:
 257:Src/register_interface.c ****         {
 258:Src/register_interface.c ****           PID_SetKD(&PIDSpeedHandle_M1, (int16_t)regdata16);
 259:Src/register_interface.c ****           break;
 260:Src/register_interface.c ****         }
 261:Src/register_interface.c **** 
 262:Src/register_interface.c ****         case MC_REG_I_Q_KP:
 263:Src/register_interface.c ****         {
 264:Src/register_interface.c ****           PID_SetKP(&PIDIqHandle_M1, (int16_t)regdata16);
 265:Src/register_interface.c ****           break;
 266:Src/register_interface.c ****         }
 267:Src/register_interface.c **** 
 268:Src/register_interface.c ****         case MC_REG_I_Q_KI:
 269:Src/register_interface.c ****         {
 270:Src/register_interface.c ****           PID_SetKI(&PIDIqHandle_M1, (int16_t)regdata16);
 271:Src/register_interface.c ****           break;
 272:Src/register_interface.c ****         }
 273:Src/register_interface.c **** 
 274:Src/register_interface.c ****         case MC_REG_I_Q_KD:
ARM GAS  C:\Users\ep_ygh\AppData\Local\Temp\ccSYahLu.s 			page 10


 275:Src/register_interface.c ****         {
 276:Src/register_interface.c ****           PID_SetKD(&PIDIqHandle_M1, (int16_t)regdata16);
 277:Src/register_interface.c ****           break;
 278:Src/register_interface.c ****         }
 279:Src/register_interface.c **** 
 280:Src/register_interface.c ****         case MC_REG_I_D_KP:
 281:Src/register_interface.c ****         {
 282:Src/register_interface.c ****           PID_SetKP(&PIDIdHandle_M1, (int16_t)regdata16);
 283:Src/register_interface.c ****           break;
 284:Src/register_interface.c ****         }
 285:Src/register_interface.c **** 
 286:Src/register_interface.c ****         case MC_REG_I_D_KI:
 287:Src/register_interface.c ****         {
 288:Src/register_interface.c ****           PID_SetKI(&PIDIdHandle_M1, (int16_t)regdata16);
 289:Src/register_interface.c ****           break;
 290:Src/register_interface.c ****         }
 291:Src/register_interface.c **** 
 292:Src/register_interface.c ****         case MC_REG_I_D_KD:
 293:Src/register_interface.c ****         {
 294:Src/register_interface.c ****           PID_SetKD(&PIDIdHandle_M1, (int16_t)regdata16);
 295:Src/register_interface.c ****           break;
 296:Src/register_interface.c ****         }
 297:Src/register_interface.c **** 
 298:Src/register_interface.c ****         case MC_REG_BUS_VOLTAGE:
 299:Src/register_interface.c ****         case MC_REG_HEATS_TEMP:
 300:Src/register_interface.c ****         case MC_REG_MOTOR_POWER:
 301:Src/register_interface.c ****         {
 302:Src/register_interface.c ****           retVal = MCP_ERROR_RO_REG;
 303:Src/register_interface.c ****           break;
 304:Src/register_interface.c ****         }
 305:Src/register_interface.c **** 
 306:Src/register_interface.c ****         case MC_REG_I_A:
 307:Src/register_interface.c ****         case MC_REG_I_B:
 308:Src/register_interface.c ****         case MC_REG_I_ALPHA_MEAS:
 309:Src/register_interface.c ****         case MC_REG_I_BETA_MEAS:
 310:Src/register_interface.c ****         case MC_REG_I_Q_MEAS:
 311:Src/register_interface.c ****         case MC_REG_I_D_MEAS:
 312:Src/register_interface.c ****         case MC_REG_FLUXWK_BUS_MEAS:
 313:Src/register_interface.c ****         {
 314:Src/register_interface.c ****           retVal = MCP_ERROR_RO_REG;
 315:Src/register_interface.c ****           break;
 316:Src/register_interface.c ****         }
 317:Src/register_interface.c **** 
 318:Src/register_interface.c ****         case MC_REG_I_Q_REF:
 319:Src/register_interface.c ****         {
 320:Src/register_interface.c ****           qd_t currComp;
 321:Src/register_interface.c ****           currComp = MCI_GetIqdref(pMCIN);
 322:Src/register_interface.c ****           currComp.q = (int16_t)regdata16;
 323:Src/register_interface.c ****           MCI_SetCurrentReferences(pMCIN,currComp);
 324:Src/register_interface.c ****           break;
 325:Src/register_interface.c ****         }
 326:Src/register_interface.c **** 
 327:Src/register_interface.c ****         case MC_REG_I_D_REF:
 328:Src/register_interface.c ****         {
 329:Src/register_interface.c ****           qd_t currComp;
 330:Src/register_interface.c ****           currComp = MCI_GetIqdref(pMCIN);
 331:Src/register_interface.c ****           currComp.d = (int16_t)regdata16;
ARM GAS  C:\Users\ep_ygh\AppData\Local\Temp\ccSYahLu.s 			page 11


 332:Src/register_interface.c ****           MCI_SetCurrentReferences(pMCIN,currComp);
 333:Src/register_interface.c ****           break;
 334:Src/register_interface.c ****         }
 335:Src/register_interface.c **** 
 336:Src/register_interface.c ****         case MC_REG_V_Q:
 337:Src/register_interface.c ****         case MC_REG_V_D:
 338:Src/register_interface.c ****         case MC_REG_V_ALPHA:
 339:Src/register_interface.c ****         case MC_REG_V_BETA:
 340:Src/register_interface.c ****         case MC_REG_ENCODER_EL_ANGLE:
 341:Src/register_interface.c ****         case MC_REG_ENCODER_SPEED:
 342:Src/register_interface.c ****         {
 343:Src/register_interface.c ****           retVal = MCP_ERROR_RO_REG;
 344:Src/register_interface.c ****           break;
 345:Src/register_interface.c ****         }
 346:Src/register_interface.c **** 
 347:Src/register_interface.c ****         case MC_REG_DAC_USER1:
 348:Src/register_interface.c ****         case MC_REG_DAC_USER2:
 349:Src/register_interface.c ****           break;
 350:Src/register_interface.c **** 
 351:Src/register_interface.c ****         case MC_REG_POSITION_KP:
 352:Src/register_interface.c ****         {
 353:Src/register_interface.c ****           PID_SetKP(&PID_PosParamsM1, regdata16);
 354:Src/register_interface.c ****           break;
 355:Src/register_interface.c ****         }
 356:Src/register_interface.c **** 
 357:Src/register_interface.c ****         case MC_REG_POSITION_KI:
 358:Src/register_interface.c ****         {
 359:Src/register_interface.c ****           PID_SetKI(&PID_PosParamsM1, regdata16);
 360:Src/register_interface.c ****           break;
 361:Src/register_interface.c ****         }
 362:Src/register_interface.c **** 
 363:Src/register_interface.c ****         case MC_REG_POSITION_KD:
 364:Src/register_interface.c ****         {
 365:Src/register_interface.c ****           PID_SetKD(&PID_PosParamsM1, regdata16);
 366:Src/register_interface.c ****           break;
 367:Src/register_interface.c ****         }
 368:Src/register_interface.c **** 
 369:Src/register_interface.c ****         case MC_REG_SPEED_KP_DIV:
 370:Src/register_interface.c ****         {
 371:Src/register_interface.c ****           PID_SetKPDivisorPOW2(&PIDSpeedHandle_M1, regdata16);
 372:Src/register_interface.c ****           break;
 373:Src/register_interface.c ****         }
 374:Src/register_interface.c **** 
 375:Src/register_interface.c ****         case MC_REG_SPEED_KI_DIV:
 376:Src/register_interface.c ****         {
 377:Src/register_interface.c ****           PID_SetKIDivisorPOW2(&PIDSpeedHandle_M1, regdata16);
 378:Src/register_interface.c ****           break;
 379:Src/register_interface.c ****         }
 380:Src/register_interface.c **** 
 381:Src/register_interface.c ****         case MC_REG_SPEED_KD_DIV:
 382:Src/register_interface.c ****         {
 383:Src/register_interface.c ****           PID_SetKDDivisorPOW2(&PIDSpeedHandle_M1, regdata16);
 384:Src/register_interface.c ****           break;
 385:Src/register_interface.c ****         }
 386:Src/register_interface.c **** 
 387:Src/register_interface.c ****         case MC_REG_I_D_KP_DIV:
 388:Src/register_interface.c ****         {
ARM GAS  C:\Users\ep_ygh\AppData\Local\Temp\ccSYahLu.s 			page 12


 389:Src/register_interface.c ****           PID_SetKPDivisorPOW2(&PIDIdHandle_M1, regdata16);
 390:Src/register_interface.c ****           break;
 391:Src/register_interface.c ****         }
 392:Src/register_interface.c **** 
 393:Src/register_interface.c ****         case MC_REG_I_D_KI_DIV:
 394:Src/register_interface.c ****         {
 395:Src/register_interface.c ****           PID_SetKIDivisorPOW2(&PIDIdHandle_M1, regdata16);
 396:Src/register_interface.c ****           break;
 397:Src/register_interface.c ****         }
 398:Src/register_interface.c **** 
 399:Src/register_interface.c ****         case MC_REG_I_D_KD_DIV:
 400:Src/register_interface.c ****         {
 401:Src/register_interface.c ****           PID_SetKDDivisorPOW2(&PIDIdHandle_M1, regdata16);
 402:Src/register_interface.c ****           break;
 403:Src/register_interface.c ****         }
 404:Src/register_interface.c **** 
 405:Src/register_interface.c ****         case MC_REG_I_Q_KP_DIV:
 406:Src/register_interface.c ****         {
 407:Src/register_interface.c ****           PID_SetKPDivisorPOW2(&PIDIqHandle_M1, regdata16);
 408:Src/register_interface.c ****           break;
 409:Src/register_interface.c ****         }
 410:Src/register_interface.c **** 
 411:Src/register_interface.c ****         case MC_REG_I_Q_KI_DIV:
 412:Src/register_interface.c ****         {
 413:Src/register_interface.c ****           PID_SetKIDivisorPOW2(&PIDIqHandle_M1, regdata16);
 414:Src/register_interface.c ****           break;
 415:Src/register_interface.c ****         }
 416:Src/register_interface.c **** 
 417:Src/register_interface.c ****         case MC_REG_I_Q_KD_DIV:
 418:Src/register_interface.c ****         {
 419:Src/register_interface.c ****           PID_SetKDDivisorPOW2(&PIDIqHandle_M1, regdata16);
 420:Src/register_interface.c ****           break;
 421:Src/register_interface.c ****         }
 422:Src/register_interface.c **** 
 423:Src/register_interface.c ****         case MC_REG_POSITION_KP_DIV:
 424:Src/register_interface.c ****         {
 425:Src/register_interface.c ****           PID_SetKPDivisorPOW2(&PID_PosParamsM1, regdata16);
 426:Src/register_interface.c ****           break;
 427:Src/register_interface.c ****         }
 428:Src/register_interface.c **** 
 429:Src/register_interface.c ****         case MC_REG_POSITION_KI_DIV:
 430:Src/register_interface.c ****         {
 431:Src/register_interface.c ****           PID_SetKIDivisorPOW2(&PID_PosParamsM1, regdata16);
 432:Src/register_interface.c ****           break;
 433:Src/register_interface.c ****         }
 434:Src/register_interface.c **** 
 435:Src/register_interface.c ****         case MC_REG_POSITION_KD_DIV:
 436:Src/register_interface.c ****         {
 437:Src/register_interface.c ****           PID_SetKDDivisorPOW2(&PID_PosParamsM1, regdata16);
 438:Src/register_interface.c ****           break;
 439:Src/register_interface.c ****         }
 440:Src/register_interface.c **** 
 441:Src/register_interface.c ****         default:
 442:Src/register_interface.c ****         {
 443:Src/register_interface.c ****           retVal = MCP_ERROR_UNKNOWN_REG;
 444:Src/register_interface.c ****           break;
 445:Src/register_interface.c ****         }
ARM GAS  C:\Users\ep_ygh\AppData\Local\Temp\ccSYahLu.s 			page 13


 446:Src/register_interface.c ****       }
 447:Src/register_interface.c ****       *size = 2;
 448:Src/register_interface.c ****       break;
 449:Src/register_interface.c ****     }
 450:Src/register_interface.c **** 
 451:Src/register_interface.c ****     case TYPE_DATA_32BIT:
 452:Src/register_interface.c ****     {
 453:Src/register_interface.c ****       uint32_t regdata32 = *(uint32_t *)data; //cstat !MISRAC2012-Rule-11.3
 454:Src/register_interface.c **** 
 455:Src/register_interface.c ****       switch (regID)
 456:Src/register_interface.c ****       {
 457:Src/register_interface.c ****         case MC_REG_FAULTS_FLAGS:
 458:Src/register_interface.c ****         case MC_REG_SPEED_MEAS:
 459:Src/register_interface.c ****         {
 460:Src/register_interface.c ****           retVal = MCP_ERROR_RO_REG;
 461:Src/register_interface.c ****           break;
 462:Src/register_interface.c ****         }
 463:Src/register_interface.c **** 
 464:Src/register_interface.c ****         case MC_REG_SPEED_REF:
 465:Src/register_interface.c ****         {
 466:Src/register_interface.c ****           MCI_ExecSpeedRamp(pMCIN,((((int16_t)regdata32) * ((int16_t)SPEED_UNIT)) / (int16_t)U_RPM)
 467:Src/register_interface.c ****           break;
 468:Src/register_interface.c ****         }
 469:Src/register_interface.c **** 
 470:Src/register_interface.c ****         default:
 471:Src/register_interface.c ****         {
 472:Src/register_interface.c ****           retVal = MCP_ERROR_UNKNOWN_REG;
 473:Src/register_interface.c ****           break;
 474:Src/register_interface.c ****         }
 475:Src/register_interface.c ****       }
 476:Src/register_interface.c ****       *size = 4;
 477:Src/register_interface.c ****       break;
 478:Src/register_interface.c ****     }
 479:Src/register_interface.c **** 
 480:Src/register_interface.c ****     case TYPE_DATA_STRING:
 481:Src/register_interface.c ****     {
 482:Src/register_interface.c ****       const char_t *charData = (const char_t *)data;
 483:Src/register_interface.c ****       char_t *dummy = (char_t *)data;
 484:Src/register_interface.c ****       retVal = MCP_ERROR_RO_REG;
 485:Src/register_interface.c ****       /* Used to compute String length stored in RXBUFF even if Reg does not exist */
 486:Src/register_interface.c ****       /* It allows to jump to the next command in the buffer */
 487:Src/register_interface.c ****       (void)RI_MovString(charData, dummy, size, dataAvailable);
 488:Src/register_interface.c ****       break;
 489:Src/register_interface.c ****     }
 490:Src/register_interface.c **** 
 491:Src/register_interface.c ****     case TYPE_DATA_RAW:
 492:Src/register_interface.c ****     {
 493:Src/register_interface.c ****       uint16_t rawSize = *(uint16_t *)data; //cstat !MISRAC2012-Rule-11.3
 494:Src/register_interface.c ****       /* The size consumed by the structure is the structure size + 2 bytes used to store the size 
 495:Src/register_interface.c ****       *size = rawSize + 2U;
 496:Src/register_interface.c ****       uint8_t *rawData = data; /* rawData points to the first data (after size extraction) */
 497:Src/register_interface.c ****       rawData++;
 498:Src/register_interface.c ****       rawData++;
 499:Src/register_interface.c **** 
 500:Src/register_interface.c ****       if (*size > (uint16_t)dataAvailable)
 501:Src/register_interface.c ****       {
 502:Src/register_interface.c ****         /* The decoded size of the raw structure can not match with transmitted buffer, error in bu
ARM GAS  C:\Users\ep_ygh\AppData\Local\Temp\ccSYahLu.s 			page 14


 503:Src/register_interface.c ****            construction */
 504:Src/register_interface.c ****         *size = 0;
 505:Src/register_interface.c ****         retVal = MCP_ERROR_BAD_RAW_FORMAT; /* This error stop the parsing of the CMD buffer */
 506:Src/register_interface.c ****       }
 507:Src/register_interface.c ****       else
 508:Src/register_interface.c ****       {
 509:Src/register_interface.c ****         switch (regID)
 510:Src/register_interface.c ****         {
 511:Src/register_interface.c ****           case MC_REG_APPLICATION_CONFIG:
 512:Src/register_interface.c ****           case MC_REG_MOTOR_CONFIG:
 513:Src/register_interface.c ****           case MC_REG_GLOBAL_CONFIG:
 514:Src/register_interface.c ****           case MC_REG_FOCFW_CONFIG:
 515:Src/register_interface.c ****           {
 516:Src/register_interface.c ****             retVal = MCP_ERROR_RO_REG;
 517:Src/register_interface.c ****             break;
 518:Src/register_interface.c ****           }
 519:Src/register_interface.c **** 
 520:Src/register_interface.c ****           case MC_REG_SPEED_RAMP:
 521:Src/register_interface.c ****           {
 522:Src/register_interface.c ****             int32_t rpm;
 523:Src/register_interface.c ****             uint16_t duration;
 524:Src/register_interface.c **** 
 525:Src/register_interface.c ****             rpm = *(int32_t *)rawData; //cstat !MISRAC2012-Rule-11.3
 526:Src/register_interface.c ****             duration = *(uint16_t *)&rawData[4]; //cstat !MISRAC2012-Rule-11.3
 527:Src/register_interface.c ****             MCI_ExecSpeedRamp(pMCIN, (int16_t)((rpm * SPEED_UNIT) / U_RPM), duration);
 528:Src/register_interface.c ****             break;
 529:Src/register_interface.c ****           }
 530:Src/register_interface.c **** 
 531:Src/register_interface.c ****           case MC_REG_TORQUE_RAMP:
 532:Src/register_interface.c ****           {
 533:Src/register_interface.c ****             uint32_t torque;
 534:Src/register_interface.c ****             uint16_t duration;
 535:Src/register_interface.c **** 
 536:Src/register_interface.c ****             torque = *(uint32_t *)rawData; //cstat !MISRAC2012-Rule-11.3
 537:Src/register_interface.c ****             duration = *(uint16_t *)&rawData[4]; //cstat !MISRAC2012-Rule-11.3
 538:Src/register_interface.c ****             MCI_ExecTorqueRamp(pMCIN, (int16_t)torque, duration);
 539:Src/register_interface.c ****             break;
 540:Src/register_interface.c ****           }
 541:Src/register_interface.c **** 
 542:Src/register_interface.c ****           case MC_REG_POSITION_RAMP:
 543:Src/register_interface.c ****           {
 544:Src/register_interface.c ****             FloatToU32 Position;
 545:Src/register_interface.c ****             FloatToU32 Duration;
 546:Src/register_interface.c ****             /* 32 bits access are split into 2x16 bits access */
 547:Src/register_interface.c ****             Position.U32_Val = ((int32_t)(*(int16_t *)&rawData[2]))<<16 | *(uint16_t *)rawData;
 548:Src/register_interface.c ****             /* 32 bits access are split into 2x16 bits access */
 549:Src/register_interface.c ****             Duration.U32_Val = ((int32_t)(*(int16_t *)&rawData[6]))<<16 | *(uint16_t *)&rawData[4];
 550:Src/register_interface.c ****             MCI_ExecPositionCommand(pMCIN, Position.Float_Val, Duration.Float_Val);
 551:Src/register_interface.c ****             break;
 552:Src/register_interface.c ****           }
 553:Src/register_interface.c **** 
 554:Src/register_interface.c ****           case MC_REG_CURRENT_REF:
 555:Src/register_interface.c ****           {
 556:Src/register_interface.c ****             qd_t currComp;
 557:Src/register_interface.c ****             currComp.q = *((int16_t *) rawData); //cstat !MISRAC2012-Rule-11.3
 558:Src/register_interface.c ****             currComp.d = *((int16_t *) &rawData[2]); //cstat !MISRAC2012-Rule-11.3
 559:Src/register_interface.c ****             MCI_SetCurrentReferences(pMCIN, currComp);
ARM GAS  C:\Users\ep_ygh\AppData\Local\Temp\ccSYahLu.s 			page 15


 560:Src/register_interface.c ****             break;
 561:Src/register_interface.c ****           }
 562:Src/register_interface.c **** 
 563:Src/register_interface.c ****           case MC_REG_ASYNC_UARTA:
 564:Src/register_interface.c ****           {
 565:Src/register_interface.c ****             retVal =  MCPA_cfgLog (&MCPA_UART_A, rawData);
 566:Src/register_interface.c ****             break;
 567:Src/register_interface.c ****           }
 568:Src/register_interface.c **** 
 569:Src/register_interface.c ****           default:
 570:Src/register_interface.c ****           {
 571:Src/register_interface.c ****             retVal = MCP_ERROR_UNKNOWN_REG;
 572:Src/register_interface.c ****             break;
 573:Src/register_interface.c ****           }
 574:Src/register_interface.c ****         }
 575:Src/register_interface.c ****       }
 576:Src/register_interface.c ****       break;
 577:Src/register_interface.c ****     }
 578:Src/register_interface.c **** 
 579:Src/register_interface.c ****     default:
 580:Src/register_interface.c ****     {
 581:Src/register_interface.c ****       retVal = MCP_ERROR_BAD_DATA_TYPE;
 582:Src/register_interface.c ****       *size =0; /* From this point we are not able anymore to decode the RX buffer */
 583:Src/register_interface.c ****       break;
 584:Src/register_interface.c ****     }
 585:Src/register_interface.c ****   }
 586:Src/register_interface.c ****   return (retVal);
 587:Src/register_interface.c **** }
 588:Src/register_interface.c **** 
 589:Src/register_interface.c **** uint8_t RI_GetRegisterGlobal(uint16_t regID,uint8_t typeID,uint8_t * data,uint16_t *size,int16_t fr
 590:Src/register_interface.c ****     uint8_t retVal = MCP_CMD_OK;
 591:Src/register_interface.c ****     uint8_t motorID=0;
 592:Src/register_interface.c ****     MCI_Handle_t *pMCIN = &Mci[motorID];
 593:Src/register_interface.c ****     switch (typeID)
 594:Src/register_interface.c ****     {
 595:Src/register_interface.c ****       case TYPE_DATA_8BIT:
 596:Src/register_interface.c ****       {
 597:Src/register_interface.c ****         if (freeSpace > 0)
 598:Src/register_interface.c ****         {
 599:Src/register_interface.c ****           switch (regID)
 600:Src/register_interface.c ****           {
 601:Src/register_interface.c ****             default:
 602:Src/register_interface.c ****             {
 603:Src/register_interface.c ****               retVal = MCP_ERROR_UNKNOWN_REG;
 604:Src/register_interface.c ****               break;
 605:Src/register_interface.c ****             }
 606:Src/register_interface.c ****           }
 607:Src/register_interface.c ****           *size = 1;
 608:Src/register_interface.c ****         }
 609:Src/register_interface.c ****         else
 610:Src/register_interface.c ****         {
 611:Src/register_interface.c ****           retVal = MCP_ERROR_NO_TXSYNC_SPACE;
 612:Src/register_interface.c ****         }
 613:Src/register_interface.c ****         break;
 614:Src/register_interface.c ****       }
 615:Src/register_interface.c **** 
 616:Src/register_interface.c ****       case TYPE_DATA_16BIT:
ARM GAS  C:\Users\ep_ygh\AppData\Local\Temp\ccSYahLu.s 			page 16


 617:Src/register_interface.c ****       {
 618:Src/register_interface.c ****        int16_t *regdata16 = (int16_t *) data; //cstat !MISRAC2012-Rule-11.3
 619:Src/register_interface.c ****         if (freeSpace >= 2)
 620:Src/register_interface.c ****         {
 621:Src/register_interface.c ****           switch (regID)
 622:Src/register_interface.c ****           {
 623:Src/register_interface.c ****             case MC_REG_DAC_OUT1:
 624:Src/register_interface.c ****             {
 625:Src/register_interface.c ****               *regdata16 = (int16_t)DAC_GetChannelConfig(&DAC_Handle , DAC_CH1);
 626:Src/register_interface.c ****               break;
 627:Src/register_interface.c ****             }
 628:Src/register_interface.c **** 
 629:Src/register_interface.c ****             case MC_REG_DAC_OUT2:
 630:Src/register_interface.c ****             {
 631:Src/register_interface.c ****               *regdata16 = (int16_t)DAC_GetChannelConfig(&DAC_Handle , DAC_CH2);
 632:Src/register_interface.c ****               break;
 633:Src/register_interface.c ****             }
 634:Src/register_interface.c ****             case MC_REG_DAC_USER1:
 635:Src/register_interface.c ****             case MC_REG_DAC_USER2:
 636:Src/register_interface.c ****               break;
 637:Src/register_interface.c **** 
 638:Src/register_interface.c ****             default:
 639:Src/register_interface.c ****             {
 640:Src/register_interface.c ****               retVal = MCP_ERROR_UNKNOWN_REG;
 641:Src/register_interface.c ****               break;
 642:Src/register_interface.c ****             }
 643:Src/register_interface.c ****           }
 644:Src/register_interface.c ****           *size = 2;
 645:Src/register_interface.c ****         }
 646:Src/register_interface.c ****         else
 647:Src/register_interface.c ****         {
 648:Src/register_interface.c ****           retVal = MCP_ERROR_NO_TXSYNC_SPACE;
 649:Src/register_interface.c ****         }
 650:Src/register_interface.c ****         break;
 651:Src/register_interface.c ****       }
 652:Src/register_interface.c **** 
 653:Src/register_interface.c ****       case TYPE_DATA_32BIT:
 654:Src/register_interface.c ****       {
 655:Src/register_interface.c ****         uint32_t *regdataU32 = (uint32_t *)data; //cstat !MISRAC2012-Rule-11.3
 656:Src/register_interface.c ****         if (freeSpace >= 4)
 657:Src/register_interface.c ****         {
 658:Src/register_interface.c ****           switch (regID)
 659:Src/register_interface.c ****           {
 660:Src/register_interface.c ****             case MC_REG_PERF_CPU_LOAD:
 661:Src/register_interface.c ****             {
 662:Src/register_interface.c ****               FloatToU32 ReadVal;
 663:Src/register_interface.c ****               ReadVal.Float_Val = MC_Perf_GetCPU_Load(pMCIN->pPerfMeasure);
 664:Src/register_interface.c ****               *regdataU32 = ReadVal.U32_Val;
 665:Src/register_interface.c ****               break;
 666:Src/register_interface.c ****             }
 667:Src/register_interface.c **** 
 668:Src/register_interface.c ****             case MC_REG_PERF_MIN_CPU_LOAD:
 669:Src/register_interface.c ****             {
 670:Src/register_interface.c ****               FloatToU32 ReadVal;
 671:Src/register_interface.c ****               ReadVal.Float_Val = MC_Perf_GetMinCPU_Load(pMCIN->pPerfMeasure);
 672:Src/register_interface.c ****               *regdataU32 = ReadVal.U32_Val;
 673:Src/register_interface.c ****               break;
ARM GAS  C:\Users\ep_ygh\AppData\Local\Temp\ccSYahLu.s 			page 17


 674:Src/register_interface.c ****             }
 675:Src/register_interface.c **** 
 676:Src/register_interface.c ****             case MC_REG_PERF_MAX_CPU_LOAD:
 677:Src/register_interface.c ****             {
 678:Src/register_interface.c ****               FloatToU32 ReadVal;
 679:Src/register_interface.c ****               ReadVal.Float_Val = MC_Perf_GetMaxCPU_Load(pMCIN->pPerfMeasure);
 680:Src/register_interface.c ****               *regdataU32 = ReadVal.U32_Val;
 681:Src/register_interface.c ****               break;
 682:Src/register_interface.c ****             }
 683:Src/register_interface.c **** 
 684:Src/register_interface.c ****             default:
 685:Src/register_interface.c ****             {
 686:Src/register_interface.c ****               retVal = MCP_ERROR_UNKNOWN_REG;
 687:Src/register_interface.c ****               break;
 688:Src/register_interface.c ****             }
 689:Src/register_interface.c ****           }
 690:Src/register_interface.c ****           *size = 4;
 691:Src/register_interface.c ****         }
 692:Src/register_interface.c ****         else
 693:Src/register_interface.c ****         {
 694:Src/register_interface.c ****           retVal = MCP_ERROR_NO_TXSYNC_SPACE;
 695:Src/register_interface.c ****         }
 696:Src/register_interface.c ****         break;
 697:Src/register_interface.c ****       }
 698:Src/register_interface.c **** 
 699:Src/register_interface.c ****       case TYPE_DATA_STRING:
 700:Src/register_interface.c ****       {
 701:Src/register_interface.c ****         char_t *charData = (char_t *)data;
 702:Src/register_interface.c ****         switch (regID)
 703:Src/register_interface.c ****         {
 704:Src/register_interface.c ****           case MC_REG_FW_NAME:
 705:Src/register_interface.c ****             retVal = RI_MovString (FIRMWARE_NAME ,charData, size, freeSpace);
 706:Src/register_interface.c ****             break;
 707:Src/register_interface.c **** 
 708:Src/register_interface.c ****           case MC_REG_CTRL_STAGE_NAME:
 709:Src/register_interface.c ****           {
 710:Src/register_interface.c ****             retVal = RI_MovString (CTL_BOARD ,charData, size, freeSpace);
 711:Src/register_interface.c ****             break;
 712:Src/register_interface.c ****           }
 713:Src/register_interface.c ****           default:
 714:Src/register_interface.c ****           {
 715:Src/register_interface.c **** 
 716:Src/register_interface.c ****             retVal = MCP_ERROR_UNKNOWN_REG;
 717:Src/register_interface.c ****             *size= 0 ; /* */
 718:Src/register_interface.c **** 
 719:Src/register_interface.c ****             break;
 720:Src/register_interface.c ****           }
 721:Src/register_interface.c ****         }
 722:Src/register_interface.c ****         break;
 723:Src/register_interface.c **** 
 724:Src/register_interface.c ****       }
 725:Src/register_interface.c ****       case TYPE_DATA_RAW:
 726:Src/register_interface.c ****       {
 727:Src/register_interface.c ****         /* First 2 bytes of the answer is reserved to the size */
 728:Src/register_interface.c ****         uint16_t *rawSize = (uint16_t *)data; //cstat !MISRAC2012-Rule-11.3
 729:Src/register_interface.c ****         uint8_t * rawData = data;
 730:Src/register_interface.c ****         rawData++;
ARM GAS  C:\Users\ep_ygh\AppData\Local\Temp\ccSYahLu.s 			page 18


 731:Src/register_interface.c ****         rawData++;
 732:Src/register_interface.c **** 
 733:Src/register_interface.c ****         switch (regID)
 734:Src/register_interface.c ****         {
 735:Src/register_interface.c ****           case MC_REG_GLOBAL_CONFIG:
 736:Src/register_interface.c ****           {
 737:Src/register_interface.c ****             *rawSize = (uint16_t)sizeof(GlobalConfig_reg_t);
 738:Src/register_interface.c ****             if (((*rawSize) + 2U) > (uint16_t)freeSpace)
 739:Src/register_interface.c ****             {
 740:Src/register_interface.c ****               retVal = MCP_ERROR_NO_TXSYNC_SPACE;
 741:Src/register_interface.c ****             }
 742:Src/register_interface.c ****             else
 743:Src/register_interface.c ****             {
 744:Src/register_interface.c ****               (void)memcpy(rawData, &globalConfig_reg, sizeof(GlobalConfig_reg_t));
 745:Src/register_interface.c ****             }
 746:Src/register_interface.c ****             break;
 747:Src/register_interface.c ****           }
 748:Src/register_interface.c ****           case MC_REG_ASYNC_UARTA:
 749:Src/register_interface.c ****           case MC_REG_ASYNC_UARTB:
 750:Src/register_interface.c ****           case MC_REG_ASYNC_STLNK:
 751:Src/register_interface.c ****           default:
 752:Src/register_interface.c ****           {
 753:Src/register_interface.c ****             retVal = MCP_ERROR_UNKNOWN_REG;
 754:Src/register_interface.c ****             break;
 755:Src/register_interface.c ****           }
 756:Src/register_interface.c ****         }
 757:Src/register_interface.c **** 
 758:Src/register_interface.c ****         /* Size of the answer is size of the data + 2 bytes containing data size */
 759:Src/register_interface.c ****         *size = (*rawSize) + 2U;
 760:Src/register_interface.c ****         break;
 761:Src/register_interface.c ****       }
 762:Src/register_interface.c **** 
 763:Src/register_interface.c ****       default:
 764:Src/register_interface.c ****       {
 765:Src/register_interface.c ****         retVal = MCP_ERROR_BAD_DATA_TYPE;
 766:Src/register_interface.c ****         break;
 767:Src/register_interface.c ****       }
 768:Src/register_interface.c ****     }
 769:Src/register_interface.c ****   return (retVal);
 770:Src/register_interface.c **** }
 771:Src/register_interface.c **** 
 772:Src/register_interface.c ****   uint8_t RI_GetRegisterMotor1(uint16_t regID,uint8_t typeID,uint8_t * data,uint16_t *size,int16_t 
 773:Src/register_interface.c ****     uint8_t retVal = MCP_CMD_OK;
 774:Src/register_interface.c ****     uint8_t motorID=0;
 775:Src/register_interface.c ****     MCI_Handle_t *pMCIN = &Mci[motorID];
 776:Src/register_interface.c ****     BusVoltageSensor_Handle_t* BusVoltageSensor= &BusVoltageSensor_M1._Super;
 777:Src/register_interface.c ****     switch (typeID)
 778:Src/register_interface.c ****     {
 779:Src/register_interface.c ****       case TYPE_DATA_8BIT:
 780:Src/register_interface.c ****       {
 781:Src/register_interface.c ****         if (freeSpace > 0)
 782:Src/register_interface.c ****         {
 783:Src/register_interface.c ****           switch (regID)
 784:Src/register_interface.c ****           {
 785:Src/register_interface.c ****             case MC_REG_STATUS:
 786:Src/register_interface.c ****             {
 787:Src/register_interface.c ****               *data = (uint8_t)MCI_GetSTMState(pMCIN);
ARM GAS  C:\Users\ep_ygh\AppData\Local\Temp\ccSYahLu.s 			page 19


 788:Src/register_interface.c ****               break;
 789:Src/register_interface.c ****             }
 790:Src/register_interface.c **** 
 791:Src/register_interface.c ****             case MC_REG_CONTROL_MODE:
 792:Src/register_interface.c ****             {
 793:Src/register_interface.c ****               *data = (uint8_t)MCI_GetControlMode(pMCIN);
 794:Src/register_interface.c ****               break;
 795:Src/register_interface.c ****             }
 796:Src/register_interface.c **** 
 797:Src/register_interface.c ****             case MC_REG_POSITION_CTRL_STATE:
 798:Src/register_interface.c ****             {
 799:Src/register_interface.c ****               *data = (uint8_t) TC_GetControlPositionStatus(&PosCtrlM1);
 800:Src/register_interface.c ****               break;
 801:Src/register_interface.c ****             }
 802:Src/register_interface.c **** 
 803:Src/register_interface.c ****             case MC_REG_POSITION_ALIGN_STATE:
 804:Src/register_interface.c ****             {
 805:Src/register_interface.c ****               *data = (uint8_t) TC_GetAlignmentStatus(&PosCtrlM1);
 806:Src/register_interface.c ****               break;
 807:Src/register_interface.c ****             }
 808:Src/register_interface.c **** 
 809:Src/register_interface.c ****             default:
 810:Src/register_interface.c ****             {
 811:Src/register_interface.c ****               retVal = MCP_ERROR_UNKNOWN_REG;
 812:Src/register_interface.c ****               break;
 813:Src/register_interface.c ****             }
 814:Src/register_interface.c ****           }
 815:Src/register_interface.c ****           *size = 1;
 816:Src/register_interface.c ****         }
 817:Src/register_interface.c ****         else
 818:Src/register_interface.c ****         {
 819:Src/register_interface.c ****           retVal = MCP_ERROR_NO_TXSYNC_SPACE;
 820:Src/register_interface.c ****         }
 821:Src/register_interface.c ****         break;
 822:Src/register_interface.c ****       }
 823:Src/register_interface.c **** 
 824:Src/register_interface.c ****       case TYPE_DATA_16BIT:
 825:Src/register_interface.c ****       {
 826:Src/register_interface.c ****         uint16_t *regdataU16 = (uint16_t *)data; //cstat !MISRAC2012-Rule-11.3
 827:Src/register_interface.c ****         int16_t *regdata16 = (int16_t *) data; //cstat !MISRAC2012-Rule-11.3
 828:Src/register_interface.c **** 
 829:Src/register_interface.c ****         if (freeSpace >= 2)
 830:Src/register_interface.c ****         {
 831:Src/register_interface.c ****           switch (regID)
 832:Src/register_interface.c ****           {
 833:Src/register_interface.c ****             case MC_REG_SPEED_KP:
 834:Src/register_interface.c ****             {
 835:Src/register_interface.c ****               *regdata16 = PID_GetKP(&PIDSpeedHandle_M1);
 836:Src/register_interface.c ****               break;
 837:Src/register_interface.c ****             }
 838:Src/register_interface.c **** 
 839:Src/register_interface.c ****             case MC_REG_SPEED_KI:
 840:Src/register_interface.c ****             {
 841:Src/register_interface.c ****               *regdata16 = PID_GetKI(&PIDSpeedHandle_M1);
 842:Src/register_interface.c ****               break;
 843:Src/register_interface.c ****             }
 844:Src/register_interface.c **** 
ARM GAS  C:\Users\ep_ygh\AppData\Local\Temp\ccSYahLu.s 			page 20


 845:Src/register_interface.c ****             case MC_REG_SPEED_KD:
 846:Src/register_interface.c ****             {
 847:Src/register_interface.c ****               *regdata16 = PID_GetKD(&PIDSpeedHandle_M1);
 848:Src/register_interface.c ****               break;
 849:Src/register_interface.c ****             }
 850:Src/register_interface.c **** 
 851:Src/register_interface.c ****             case MC_REG_I_Q_KP:
 852:Src/register_interface.c ****             {
 853:Src/register_interface.c ****               *regdata16 = PID_GetKP(&PIDIqHandle_M1);
 854:Src/register_interface.c ****               break;
 855:Src/register_interface.c ****             }
 856:Src/register_interface.c **** 
 857:Src/register_interface.c ****             case MC_REG_I_Q_KI:
 858:Src/register_interface.c ****             {
 859:Src/register_interface.c ****               *regdata16 = PID_GetKI(&PIDIqHandle_M1);
 860:Src/register_interface.c ****               break;
 861:Src/register_interface.c ****             }
 862:Src/register_interface.c **** 
 863:Src/register_interface.c ****             case MC_REG_I_Q_KD:
 864:Src/register_interface.c ****             {
 865:Src/register_interface.c ****               *regdata16 = PID_GetKD(&PIDIqHandle_M1);
 866:Src/register_interface.c ****               break;
 867:Src/register_interface.c ****             }
 868:Src/register_interface.c **** 
 869:Src/register_interface.c ****             case MC_REG_I_D_KP:
 870:Src/register_interface.c ****             {
 871:Src/register_interface.c ****               *regdata16 = PID_GetKP(&PIDIdHandle_M1);
 872:Src/register_interface.c ****               break;
 873:Src/register_interface.c ****             }
 874:Src/register_interface.c **** 
 875:Src/register_interface.c ****             case MC_REG_I_D_KI:
 876:Src/register_interface.c ****             {
 877:Src/register_interface.c ****               *regdata16 = PID_GetKI(&PIDIdHandle_M1);
 878:Src/register_interface.c ****               break;
 879:Src/register_interface.c ****             }
 880:Src/register_interface.c **** 
 881:Src/register_interface.c ****             case MC_REG_I_D_KD:
 882:Src/register_interface.c ****             {
 883:Src/register_interface.c ****               *regdata16 = PID_GetKD(&PIDIdHandle_M1);
 884:Src/register_interface.c ****               break;
 885:Src/register_interface.c ****             }
 886:Src/register_interface.c **** 
 887:Src/register_interface.c ****             case MC_REG_BUS_VOLTAGE:
 888:Src/register_interface.c ****             {
 889:Src/register_interface.c ****               *regdataU16 = VBS_GetAvBusVoltage_V(BusVoltageSensor);
 890:Src/register_interface.c ****               break;
 891:Src/register_interface.c ****             }
 892:Src/register_interface.c **** 
 893:Src/register_interface.c ****             case MC_REG_HEATS_TEMP:
 894:Src/register_interface.c ****             {
 895:Src/register_interface.c ****               *regdata16 = NTC_GetAvTemp_C(&TempSensor_M1);
 896:Src/register_interface.c ****               break;
 897:Src/register_interface.c ****             }
 898:Src/register_interface.c **** 
 899:Src/register_interface.c ****             case MC_REG_I_A:
 900:Src/register_interface.c ****             {
 901:Src/register_interface.c ****               *regdata16 = MCI_GetIab(pMCIN).a;
ARM GAS  C:\Users\ep_ygh\AppData\Local\Temp\ccSYahLu.s 			page 21


 902:Src/register_interface.c ****               break;
 903:Src/register_interface.c ****             }
 904:Src/register_interface.c **** 
 905:Src/register_interface.c ****             case MC_REG_I_B:
 906:Src/register_interface.c ****             {
 907:Src/register_interface.c ****               *regdata16 = MCI_GetIab(pMCIN).b;
 908:Src/register_interface.c ****               break;
 909:Src/register_interface.c ****             }
 910:Src/register_interface.c **** 
 911:Src/register_interface.c ****             case MC_REG_I_ALPHA_MEAS:
 912:Src/register_interface.c ****             {
 913:Src/register_interface.c ****               *regdata16 = MCI_GetIalphabeta(pMCIN).alpha;
 914:Src/register_interface.c ****               break;
 915:Src/register_interface.c ****             }
 916:Src/register_interface.c **** 
 917:Src/register_interface.c ****             case MC_REG_I_BETA_MEAS:
 918:Src/register_interface.c ****             {
 919:Src/register_interface.c ****               *regdata16 = MCI_GetIalphabeta(pMCIN).beta;
 920:Src/register_interface.c ****               break;
 921:Src/register_interface.c ****             }
 922:Src/register_interface.c **** 
 923:Src/register_interface.c ****             case MC_REG_I_Q_MEAS:
 924:Src/register_interface.c ****             {
 925:Src/register_interface.c ****               *regdata16 = MCI_GetIqd(pMCIN).q;
 926:Src/register_interface.c ****               break;
 927:Src/register_interface.c ****             }
 928:Src/register_interface.c **** 
 929:Src/register_interface.c ****             case MC_REG_I_D_MEAS:
 930:Src/register_interface.c ****             {
 931:Src/register_interface.c ****               *regdata16 = MCI_GetIqd(pMCIN).d;
 932:Src/register_interface.c ****               break;
 933:Src/register_interface.c ****             }
 934:Src/register_interface.c **** 
 935:Src/register_interface.c ****             case MC_REG_I_Q_REF:
 936:Src/register_interface.c ****             {
 937:Src/register_interface.c ****               *regdata16 = MCI_GetIqdref(pMCIN).q;
 938:Src/register_interface.c ****               break;
 939:Src/register_interface.c ****             }
 940:Src/register_interface.c **** 
 941:Src/register_interface.c ****             case MC_REG_I_D_REF:
 942:Src/register_interface.c ****             {
 943:Src/register_interface.c ****               *regdata16 = MCI_GetIqdref(pMCIN).d;
 944:Src/register_interface.c ****               break;
 945:Src/register_interface.c ****             }
 946:Src/register_interface.c **** 
 947:Src/register_interface.c ****             case MC_REG_V_Q:
 948:Src/register_interface.c ****             {
 949:Src/register_interface.c ****               *regdata16 = MCI_GetVqd(pMCIN).q;
 950:Src/register_interface.c ****               break;
 951:Src/register_interface.c ****             }
 952:Src/register_interface.c **** 
 953:Src/register_interface.c ****             case MC_REG_V_D:
 954:Src/register_interface.c ****             {
 955:Src/register_interface.c ****               *regdata16 = MCI_GetVqd(pMCIN).d;
 956:Src/register_interface.c ****               break;
 957:Src/register_interface.c ****             }
 958:Src/register_interface.c **** 
ARM GAS  C:\Users\ep_ygh\AppData\Local\Temp\ccSYahLu.s 			page 22


 959:Src/register_interface.c ****             case MC_REG_V_ALPHA:
 960:Src/register_interface.c ****             {
 961:Src/register_interface.c ****               *regdata16 = MCI_GetValphabeta(pMCIN).alpha;
 962:Src/register_interface.c ****               break;
 963:Src/register_interface.c ****             }
 964:Src/register_interface.c **** 
 965:Src/register_interface.c ****             case MC_REG_V_BETA:
 966:Src/register_interface.c ****             {
 967:Src/register_interface.c ****               *regdata16 = MCI_GetValphabeta(pMCIN).beta;
 968:Src/register_interface.c ****               break;
 969:Src/register_interface.c ****             }
 970:Src/register_interface.c **** 
 971:Src/register_interface.c ****             case MC_REG_ENCODER_EL_ANGLE:
 972:Src/register_interface.c ****             {
 973:Src/register_interface.c ****               *regdata16 = SPD_GetElAngle ((SpeednPosFdbk_Handle_t*) &ENCODER_M1); //cstat !MISRAC2
 974:Src/register_interface.c ****               break;
 975:Src/register_interface.c ****             }
 976:Src/register_interface.c **** 
 977:Src/register_interface.c ****             case MC_REG_ENCODER_SPEED:
 978:Src/register_interface.c ****             {
 979:Src/register_interface.c ****               *regdata16 = SPD_GetS16Speed ((SpeednPosFdbk_Handle_t*) &ENCODER_M1); //cstat !MISRAC
 980:Src/register_interface.c ****               break;
 981:Src/register_interface.c ****             }
 982:Src/register_interface.c **** 
 983:Src/register_interface.c ****             case MC_REG_DAC_USER1:
 984:Src/register_interface.c ****             case MC_REG_DAC_USER2:
 985:Src/register_interface.c ****               break;
 986:Src/register_interface.c **** 
 987:Src/register_interface.c ****             case MC_REG_POSITION_KP:
 988:Src/register_interface.c ****             {
 989:Src/register_interface.c ****               *regdata16 = PID_GetKP( &PID_PosParamsM1);
 990:Src/register_interface.c ****               break;
 991:Src/register_interface.c ****             }
 992:Src/register_interface.c **** 
 993:Src/register_interface.c ****             case MC_REG_POSITION_KI:
 994:Src/register_interface.c ****             {
 995:Src/register_interface.c ****               *regdata16 = PID_GetKI( &PID_PosParamsM1);
 996:Src/register_interface.c ****               break;
 997:Src/register_interface.c ****             }
 998:Src/register_interface.c **** 
 999:Src/register_interface.c ****             case MC_REG_POSITION_KD:
1000:Src/register_interface.c ****             {
1001:Src/register_interface.c ****               *regdata16 = PID_GetKD( &PID_PosParamsM1);
1002:Src/register_interface.c ****               break;
1003:Src/register_interface.c ****             }
1004:Src/register_interface.c **** 
1005:Src/register_interface.c ****             case MC_REG_SPEED_KP_DIV:
1006:Src/register_interface.c ****             {
1007:Src/register_interface.c ****               *regdataU16 = (uint16_t)PID_GetKPDivisorPOW2(&PIDSpeedHandle_M1);
1008:Src/register_interface.c ****               break;
1009:Src/register_interface.c ****             }
1010:Src/register_interface.c **** 
1011:Src/register_interface.c ****             case MC_REG_SPEED_KI_DIV:
1012:Src/register_interface.c ****             {
1013:Src/register_interface.c ****               *regdataU16 = (uint16_t)PID_GetKIDivisorPOW2(&PIDSpeedHandle_M1);
1014:Src/register_interface.c ****               break;
1015:Src/register_interface.c ****             }
ARM GAS  C:\Users\ep_ygh\AppData\Local\Temp\ccSYahLu.s 			page 23


1016:Src/register_interface.c **** 
1017:Src/register_interface.c ****             case MC_REG_SPEED_KD_DIV:
1018:Src/register_interface.c ****             {
1019:Src/register_interface.c ****               *regdataU16 = PID_GetKDDivisorPOW2(&PIDSpeedHandle_M1);
1020:Src/register_interface.c ****               break;
1021:Src/register_interface.c ****             }
1022:Src/register_interface.c ****             case MC_REG_I_D_KP_DIV:
1023:Src/register_interface.c ****             {
1024:Src/register_interface.c ****               *regdataU16 = PID_GetKPDivisorPOW2(&PIDIdHandle_M1);
1025:Src/register_interface.c ****               break;
1026:Src/register_interface.c ****             }
1027:Src/register_interface.c **** 
1028:Src/register_interface.c ****             case MC_REG_I_D_KI_DIV:
1029:Src/register_interface.c ****             {
1030:Src/register_interface.c ****               *regdataU16 = PID_GetKIDivisorPOW2(&PIDIdHandle_M1);
1031:Src/register_interface.c ****               break;
1032:Src/register_interface.c ****             }
1033:Src/register_interface.c **** 
1034:Src/register_interface.c ****             case MC_REG_I_D_KD_DIV:
1035:Src/register_interface.c ****             {
1036:Src/register_interface.c ****               *regdataU16 = PID_GetKDDivisorPOW2(&PIDIdHandle_M1);
1037:Src/register_interface.c ****               break;
1038:Src/register_interface.c ****             }
1039:Src/register_interface.c **** 
1040:Src/register_interface.c ****             case MC_REG_I_Q_KP_DIV:
1041:Src/register_interface.c ****             {
1042:Src/register_interface.c ****               *regdataU16 = PID_GetKPDivisorPOW2(&PIDIqHandle_M1);
1043:Src/register_interface.c ****               break;
1044:Src/register_interface.c ****             }
1045:Src/register_interface.c **** 
1046:Src/register_interface.c ****             case MC_REG_I_Q_KI_DIV:
1047:Src/register_interface.c ****             {
1048:Src/register_interface.c ****               *regdataU16 = PID_GetKIDivisorPOW2(&PIDIqHandle_M1);
1049:Src/register_interface.c ****               break;
1050:Src/register_interface.c ****             }
1051:Src/register_interface.c **** 
1052:Src/register_interface.c ****             case MC_REG_I_Q_KD_DIV:
1053:Src/register_interface.c ****             {
1054:Src/register_interface.c ****               *regdataU16 = PID_GetKDDivisorPOW2(&PIDIqHandle_M1);
1055:Src/register_interface.c ****               break;
1056:Src/register_interface.c ****             }
1057:Src/register_interface.c **** 
1058:Src/register_interface.c ****             case MC_REG_POSITION_KP_DIV:
1059:Src/register_interface.c ****             {
1060:Src/register_interface.c ****               *regdataU16 = PID_GetKPDivisorPOW2(&PID_PosParamsM1);
1061:Src/register_interface.c ****               break;
1062:Src/register_interface.c ****             }
1063:Src/register_interface.c **** 
1064:Src/register_interface.c ****             case MC_REG_POSITION_KI_DIV:
1065:Src/register_interface.c ****             {
1066:Src/register_interface.c ****               *regdataU16 = PID_GetKIDivisorPOW2(&PID_PosParamsM1);
1067:Src/register_interface.c ****               break;
1068:Src/register_interface.c ****             }
1069:Src/register_interface.c **** 
1070:Src/register_interface.c ****             case MC_REG_POSITION_KD_DIV:
1071:Src/register_interface.c ****             {
1072:Src/register_interface.c ****               *regdataU16 = PID_GetKDDivisorPOW2(&PID_PosParamsM1);
ARM GAS  C:\Users\ep_ygh\AppData\Local\Temp\ccSYahLu.s 			page 24


1073:Src/register_interface.c ****               break;
1074:Src/register_interface.c ****             }
1075:Src/register_interface.c **** 
1076:Src/register_interface.c ****             default:
1077:Src/register_interface.c ****             {
1078:Src/register_interface.c ****               retVal = MCP_ERROR_UNKNOWN_REG;
1079:Src/register_interface.c ****               break;
1080:Src/register_interface.c ****             }
1081:Src/register_interface.c ****           }
1082:Src/register_interface.c ****           *size = 2;
1083:Src/register_interface.c ****         }
1084:Src/register_interface.c ****         else
1085:Src/register_interface.c ****         {
1086:Src/register_interface.c ****           retVal = MCP_ERROR_NO_TXSYNC_SPACE;
1087:Src/register_interface.c ****         }
1088:Src/register_interface.c ****         break;
1089:Src/register_interface.c ****       }
1090:Src/register_interface.c **** 
1091:Src/register_interface.c ****       case TYPE_DATA_32BIT:
1092:Src/register_interface.c ****       {
1093:Src/register_interface.c ****         uint32_t *regdataU32 = (uint32_t *)data; //cstat !MISRAC2012-Rule-11.3
1094:Src/register_interface.c ****         int32_t *regdata32 = (int32_t *)data; //cstat !MISRAC2012-Rule-11.3
1095:Src/register_interface.c **** 
1096:Src/register_interface.c ****         if (freeSpace >= 4)
1097:Src/register_interface.c ****         {
1098:Src/register_interface.c ****           switch (regID)
1099:Src/register_interface.c ****           {
1100:Src/register_interface.c ****             case MC_REG_FAULTS_FLAGS:
1101:Src/register_interface.c ****             {
1102:Src/register_interface.c ****               *regdataU32 = MCI_GetFaultState(pMCIN);
1103:Src/register_interface.c ****               break;
1104:Src/register_interface.c ****             }
1105:Src/register_interface.c ****             case MC_REG_SPEED_MEAS:
1106:Src/register_interface.c ****             {
1107:Src/register_interface.c ****               *regdata32 = (((int32_t)MCI_GetAvrgMecSpeedUnit(pMCIN) * U_RPM) / SPEED_UNIT);
1108:Src/register_interface.c ****               break;
1109:Src/register_interface.c ****             }
1110:Src/register_interface.c **** 
1111:Src/register_interface.c ****             case MC_REG_SPEED_REF:
1112:Src/register_interface.c ****             {
1113:Src/register_interface.c ****               *regdata32 = (((int32_t)MCI_GetMecSpeedRefUnit(pMCIN) * U_RPM) / SPEED_UNIT);
1114:Src/register_interface.c ****               break;
1115:Src/register_interface.c ****             }
1116:Src/register_interface.c **** 
1117:Src/register_interface.c ****             case MC_REG_CURRENT_POSITION:
1118:Src/register_interface.c ****             {
1119:Src/register_interface.c ****               FloatToU32 ReadVal;
1120:Src/register_interface.c ****               ReadVal.Float_Val = MCI_GetCurrentPosition(pMCIN);
1121:Src/register_interface.c ****               *regdataU32 = ReadVal.U32_Val;
1122:Src/register_interface.c ****               break;
1123:Src/register_interface.c ****             }
1124:Src/register_interface.c **** 
1125:Src/register_interface.c ****             case MC_REG_MOTOR_POWER:
1126:Src/register_interface.c ****             {
1127:Src/register_interface.c ****               FloatToU32 ReadVal; //cstat !MISRAC2012-Rule-19.2
1128:Src/register_interface.c ****               ReadVal.Float_Val = PQD_GetAvrgElMotorPowerW(pMPM[M1]);
1129:Src/register_interface.c ****               *regdataU32 = ReadVal.U32_Val; //cstat !UNION-type-punning
ARM GAS  C:\Users\ep_ygh\AppData\Local\Temp\ccSYahLu.s 			page 25


1130:Src/register_interface.c ****               break;
1131:Src/register_interface.c ****             }
1132:Src/register_interface.c **** 
1133:Src/register_interface.c ****             default:
1134:Src/register_interface.c ****             {
1135:Src/register_interface.c ****               retVal = MCP_ERROR_UNKNOWN_REG;
1136:Src/register_interface.c ****               break;
1137:Src/register_interface.c ****             }
1138:Src/register_interface.c ****           }
1139:Src/register_interface.c ****           *size = 4;
1140:Src/register_interface.c ****         }
1141:Src/register_interface.c ****         else
1142:Src/register_interface.c ****         {
1143:Src/register_interface.c ****           retVal = MCP_ERROR_NO_TXSYNC_SPACE;
1144:Src/register_interface.c ****         }
1145:Src/register_interface.c ****         break;
1146:Src/register_interface.c ****       }
1147:Src/register_interface.c **** 
1148:Src/register_interface.c ****       case TYPE_DATA_STRING:
1149:Src/register_interface.c ****       {
1150:Src/register_interface.c ****         char_t *charData = (char_t *)data;
1151:Src/register_interface.c ****         switch (regID)
1152:Src/register_interface.c ****         {
1153:Src/register_interface.c ****           case MC_REG_PWR_STAGE_NAME:
1154:Src/register_interface.c ****           {
1155:Src/register_interface.c ****             retVal = RI_MovString (PWR_BOARD_NAME[motorID], charData, size, freeSpace);
1156:Src/register_interface.c ****             break;
1157:Src/register_interface.c ****           }
1158:Src/register_interface.c **** 
1159:Src/register_interface.c ****           case MC_REG_MOTOR_NAME:
1160:Src/register_interface.c ****           {
1161:Src/register_interface.c ****             retVal = RI_MovString (MotorConfig_reg[motorID]->name ,charData, size, freeSpace);
1162:Src/register_interface.c ****             break;
1163:Src/register_interface.c ****           }
1164:Src/register_interface.c **** 
1165:Src/register_interface.c ****           default:
1166:Src/register_interface.c ****           {
1167:Src/register_interface.c ****             retVal = MCP_ERROR_UNKNOWN_REG;
1168:Src/register_interface.c ****             *size= 0 ; /* */
1169:Src/register_interface.c ****             break;
1170:Src/register_interface.c ****           }
1171:Src/register_interface.c ****         }
1172:Src/register_interface.c ****         break;
1173:Src/register_interface.c ****       }
1174:Src/register_interface.c **** 
1175:Src/register_interface.c ****       case TYPE_DATA_RAW:
1176:Src/register_interface.c ****       {
1177:Src/register_interface.c ****         /* First 2 bytes of the answer is reserved to the size */
1178:Src/register_interface.c ****         uint16_t *rawSize = (uint16_t *)data; //cstat !MISRAC2012-Rule-11.3
1179:Src/register_interface.c ****         uint8_t * rawData = data;
1180:Src/register_interface.c ****         rawData++;
1181:Src/register_interface.c ****         rawData++;
1182:Src/register_interface.c **** 
1183:Src/register_interface.c ****         switch (regID)
1184:Src/register_interface.c ****         {
1185:Src/register_interface.c ****           case MC_REG_APPLICATION_CONFIG:
1186:Src/register_interface.c ****           {
ARM GAS  C:\Users\ep_ygh\AppData\Local\Temp\ccSYahLu.s 			page 26


1187:Src/register_interface.c ****             *rawSize = (uint16_t)sizeof(ApplicationConfig_reg_t);
1188:Src/register_interface.c ****             if (((*rawSize) + 2U) > (uint16_t)freeSpace)
1189:Src/register_interface.c ****             {
1190:Src/register_interface.c ****               retVal = MCP_ERROR_NO_TXSYNC_SPACE;
1191:Src/register_interface.c ****             }
1192:Src/register_interface.c ****             else
1193:Src/register_interface.c ****             {
1194:Src/register_interface.c ****               ApplicationConfig_reg_t const *pApplicationConfig_reg = ApplicationConfig_reg[motorID
1195:Src/register_interface.c ****               (void)memcpy(rawData, (const uint8_t *)pApplicationConfig_reg, sizeof(ApplicationConf
1196:Src/register_interface.c ****             }
1197:Src/register_interface.c ****             break;
1198:Src/register_interface.c ****           }
1199:Src/register_interface.c **** 
1200:Src/register_interface.c ****           case MC_REG_MOTOR_CONFIG:
1201:Src/register_interface.c ****           {
1202:Src/register_interface.c ****             *rawSize = (uint16_t)sizeof(MotorConfig_reg_t);
1203:Src/register_interface.c ****             if (((*rawSize) + 2U) > (uint16_t)freeSpace)
1204:Src/register_interface.c ****             {
1205:Src/register_interface.c ****               retVal = MCP_ERROR_NO_TXSYNC_SPACE;
1206:Src/register_interface.c ****             }
1207:Src/register_interface.c ****             else
1208:Src/register_interface.c ****             {
1209:Src/register_interface.c ****               MotorConfig_reg_t const *pMotorConfig_reg = MotorConfig_reg[motorID];
1210:Src/register_interface.c ****               (void)memcpy(rawData, (const uint8_t *)pMotorConfig_reg, sizeof(MotorConfig_reg_t));
1211:Src/register_interface.c ****             }
1212:Src/register_interface.c ****             break;
1213:Src/register_interface.c ****           }
1214:Src/register_interface.c **** 
1215:Src/register_interface.c ****           case MC_REG_FOCFW_CONFIG:
1216:Src/register_interface.c ****           {
1217:Src/register_interface.c ****             *rawSize = (uint16_t)sizeof(FOCFwConfig_reg_t);
1218:Src/register_interface.c ****             if (((*rawSize) + 2U) > (uint16_t)freeSpace)
1219:Src/register_interface.c ****             {
1220:Src/register_interface.c ****               retVal = MCP_ERROR_NO_TXSYNC_SPACE;
1221:Src/register_interface.c ****             }
1222:Src/register_interface.c ****             else
1223:Src/register_interface.c ****             {
1224:Src/register_interface.c ****               FOCFwConfig_reg_t const *pFOCConfig_reg = FOCConfig_reg[motorID];
1225:Src/register_interface.c ****               (void)memcpy(rawData, (const uint8_t *)pFOCConfig_reg, sizeof(FOCFwConfig_reg_t));
1226:Src/register_interface.c ****             }
1227:Src/register_interface.c **** 
1228:Src/register_interface.c ****             break;
1229:Src/register_interface.c ****           }
1230:Src/register_interface.c ****           case MC_REG_SCALE_CONFIG:
1231:Src/register_interface.c ****           {
1232:Src/register_interface.c ****             *rawSize = 12;
1233:Src/register_interface.c ****             if ((*rawSize) +2U > (uint16_t)freeSpace)
1234:Src/register_interface.c ****             {
1235:Src/register_interface.c ****               retVal = MCP_ERROR_NO_TXSYNC_SPACE;
1236:Src/register_interface.c ****             }
1237:Src/register_interface.c ****             else
1238:Src/register_interface.c ****             {
1239:Src/register_interface.c ****               memcpy(rawData, &scaleParams_M1, sizeof(ScaleParams_t) );
1240:Src/register_interface.c ****             }
1241:Src/register_interface.c ****             break;
1242:Src/register_interface.c ****           }
1243:Src/register_interface.c ****           case MC_REG_SPEED_RAMP:
ARM GAS  C:\Users\ep_ygh\AppData\Local\Temp\ccSYahLu.s 			page 27


1244:Src/register_interface.c ****           {
1245:Src/register_interface.c ****             int32_t *rpm = (int32_t *)rawData; //cstat !MISRAC2012-Rule-11.3
1246:Src/register_interface.c ****             uint16_t *duration = (uint16_t *)&rawData[4]; //cstat !MISRAC2012-Rule-11.3
1247:Src/register_interface.c ****             *rpm = (((int32_t)MCI_GetLastRampFinalSpeed(pMCIN) * U_RPM) / (int32_t)SPEED_UNIT);
1248:Src/register_interface.c ****             *duration = MCI_GetLastRampFinalDuration(pMCIN);
1249:Src/register_interface.c ****             *rawSize = 6;
1250:Src/register_interface.c ****             break;
1251:Src/register_interface.c ****           }
1252:Src/register_interface.c **** 
1253:Src/register_interface.c ****           case MC_REG_TORQUE_RAMP:
1254:Src/register_interface.c ****           {
1255:Src/register_interface.c ****             int16_t *torque = (int16_t *)rawData; //cstat !MISRAC2012-Rule-11.3
1256:Src/register_interface.c ****             uint16_t *duration = (uint16_t *)&rawData[2]; //cstat !MISRAC2012-Rule-11.3
1257:Src/register_interface.c **** 
1258:Src/register_interface.c ****             *rawSize = 4;
1259:Src/register_interface.c ****             *torque = MCI_GetLastRampFinalTorque(pMCIN);
1260:Src/register_interface.c ****             *duration = MCI_GetLastRampFinalDuration(pMCIN) ;
1261:Src/register_interface.c ****             break;
1262:Src/register_interface.c ****           }
1263:Src/register_interface.c **** 
1264:Src/register_interface.c ****           case MC_REG_CURRENT_REF:
1265:Src/register_interface.c ****           {
1266:Src/register_interface.c ****             uint16_t *iqref = (uint16_t *)rawData; //cstat !MISRAC2012-Rule-11.3
1267:Src/register_interface.c ****             uint16_t *idref = (uint16_t *)&rawData[2]; //cstat !MISRAC2012-Rule-11.3
1268:Src/register_interface.c **** 
1269:Src/register_interface.c ****             *rawSize = 4;
1270:Src/register_interface.c ****             *iqref = (uint16_t)MCI_GetIqdref(pMCIN).q;
1271:Src/register_interface.c ****             *idref = (uint16_t)MCI_GetIqdref(pMCIN).d;
1272:Src/register_interface.c ****             break;
1273:Src/register_interface.c ****           }
1274:Src/register_interface.c **** 
1275:Src/register_interface.c ****           case MC_REG_POSITION_RAMP:
1276:Src/register_interface.c ****           {
1277:Src/register_interface.c ****             float Position;
1278:Src/register_interface.c ****             float Duration;
1279:Src/register_interface.c **** 
1280:Src/register_interface.c ****             *rawSize = 8;
1281:Src/register_interface.c ****             Position = TC_GetMoveDuration(&PosCtrlM1);   /* Does this duration make sense ? */
1282:Src/register_interface.c ****             Duration = TC_GetTargetPosition(&PosCtrlM1);
1283:Src/register_interface.c ****             (void)memcpy(rawData, &Position, 4);
1284:Src/register_interface.c ****             (void)memcpy(&rawData[4], &Duration, 4);
1285:Src/register_interface.c ****             break;
1286:Src/register_interface.c ****           }
1287:Src/register_interface.c **** 
1288:Src/register_interface.c ****           case MC_REG_ASYNC_UARTA:
1289:Src/register_interface.c ****           case MC_REG_ASYNC_UARTB:
1290:Src/register_interface.c ****           case MC_REG_ASYNC_STLNK:
1291:Src/register_interface.c ****           default:
1292:Src/register_interface.c ****           {
1293:Src/register_interface.c ****             retVal = MCP_ERROR_UNKNOWN_REG;
1294:Src/register_interface.c ****             break;
1295:Src/register_interface.c ****           }
1296:Src/register_interface.c ****         }
1297:Src/register_interface.c **** 
1298:Src/register_interface.c ****         /* Size of the answer is size of the data + 2 bytes containing data size */
1299:Src/register_interface.c ****         *size = (*rawSize) + 2U;
1300:Src/register_interface.c ****         break;
ARM GAS  C:\Users\ep_ygh\AppData\Local\Temp\ccSYahLu.s 			page 28


1301:Src/register_interface.c ****       }
1302:Src/register_interface.c **** 
1303:Src/register_interface.c ****       default:
1304:Src/register_interface.c ****       {
1305:Src/register_interface.c ****         retVal = MCP_ERROR_BAD_DATA_TYPE;
1306:Src/register_interface.c ****         break;
1307:Src/register_interface.c ****       }
1308:Src/register_interface.c ****     }
1309:Src/register_interface.c ****     return (retVal);
1310:Src/register_interface.c ****   }
1311:Src/register_interface.c **** 
1312:Src/register_interface.c **** uint8_t RI_MovString(const char_t *srcString, char_t *destString, uint16_t *size, int16_t maxSize)
 211              		.loc 1 1312 9 view .LVU44
 212              	.LBB51:
1313:Src/register_interface.c **** {
1314:Src/register_interface.c ****   uint8_t retVal = MCP_CMD_OK;
 213              		.loc 1 1314 3 view .LVU45
1315:Src/register_interface.c ****   const char_t *tempsrcString = srcString;
 214              		.loc 1 1315 3 view .LVU46
1316:Src/register_interface.c ****   char_t *tempdestString = destString;
 215              		.loc 1 1316 3 view .LVU47
1317:Src/register_interface.c ****   *size= 1U ; /* /0 is the min String size */
 216              		.loc 1 1317 3 view .LVU48
 217              		.loc 1 1317 8 is_stmt 0 view .LVU49
 218 007e 0121     		movs	r1, #1
 219 0080 1980     		strh	r1, [r3]	@ movhi
1318:Src/register_interface.c **** 
1319:Src/register_interface.c ****   while ((*tempsrcString != (char_t)0) && (*size < (uint16_t)maxSize))
 220              		.loc 1 1319 3 is_stmt 1 view .LVU50
 221              		.loc 1 1319 9 view .LVU51
 222 0082 92F90000 		ldrsb	r0, [r2]
 223              	.LVL17:
 224              		.loc 1 1319 9 is_stmt 0 view .LVU52
 225 0086 0028     		cmp	r0, #0
 226 0088 3DD0     		beq	.L16
 227              		.loc 1 1319 50 view .LVU53
 228 008a 1FFA8CFC 		uxth	ip, ip
 229              		.loc 1 1319 50 view .LVU54
 230 008e 5018     		adds	r0, r2, r1
 231 0090 05E0     		b	.L17
 232              	.LVL18:
 233              	.L18:
1320:Src/register_interface.c ****   {
1321:Src/register_interface.c ****     *tempdestString = *tempsrcString;
1322:Src/register_interface.c ****     tempdestString++;
1323:Src/register_interface.c ****     tempsrcString++;
1324:Src/register_interface.c ****     *size = *size + 1U;
 234              		.loc 1 1324 11 view .LVU55
 235 0092 1980     		strh	r1, [r3]	@ movhi
1319:Src/register_interface.c ****   {
 236              		.loc 1 1319 9 is_stmt 1 view .LVU56
 237 0094 92F90040 		ldrsb	r4, [r2]
 238 0098 0130     		adds	r0, r0, #1
 239              	.LVL19:
1319:Src/register_interface.c ****   {
 240              		.loc 1 1319 9 is_stmt 0 view .LVU57
 241 009a 002C     		cmp	r4, #0
ARM GAS  C:\Users\ep_ygh\AppData\Local\Temp\ccSYahLu.s 			page 29


 242 009c 33D0     		beq	.L16
 243              	.L17:
1321:Src/register_interface.c ****     tempdestString++;
 244              		.loc 1 1321 5 is_stmt 1 view .LVU58
1322:Src/register_interface.c ****     tempsrcString++;
 245              		.loc 1 1322 5 view .LVU59
 246              	.LVL20:
 247              		.loc 1 1324 19 is_stmt 0 view .LVU60
 248 009e 01F1010E 		add	lr, r1, #1
1319:Src/register_interface.c ****   {
 249              		.loc 1 1319 40 view .LVU61
 250 00a2 6145     		cmp	r1, ip
1322:Src/register_interface.c ****     tempsrcString++;
 251              		.loc 1 1322 19 view .LVU62
 252 00a4 0246     		mov	r2, r0
 253              	.LVL21:
1323:Src/register_interface.c ****     *size = *size + 1U;
 254              		.loc 1 1323 5 is_stmt 1 view .LVU63
 255              		.loc 1 1324 5 view .LVU64
 256              		.loc 1 1324 19 is_stmt 0 view .LVU65
 257 00a6 1FFA8EF1 		uxth	r1, lr
1319:Src/register_interface.c ****   {
 258              		.loc 1 1319 40 view .LVU66
 259 00aa F2D3     		bcc	.L18
 260              	.LVL22:
 261              	.L39:
1319:Src/register_interface.c ****   {
 262              		.loc 1 1319 40 view .LVU67
 263              	.LBE51:
 264              	.LBE50:
 123:Src/register_interface.c ****       /* Used to compute String length stored in RXBUFF even if Reg does not exist */
 265              		.loc 1 123 14 view .LVU68
 266 00ac 0420     		movs	r0, #4
 267              	.LVL23:
 123:Src/register_interface.c ****       /* Used to compute String length stored in RXBUFF even if Reg does not exist */
 268              		.loc 1 123 14 view .LVU69
 269              	.LBE49:
 177:Src/register_interface.c **** }
 270              		.loc 1 177 3 is_stmt 1 view .LVU70
 271              	.L44:
 178:Src/register_interface.c **** 
 272              		.loc 1 178 1 is_stmt 0 view .LVU71
 273 00ae 02B0     		add	sp, sp, #8
 274              	.LCFI10:
 275              		.cfi_remember_state
 276              		.cfi_def_cfa_offset 8
 277              		@ sp needed
 278 00b0 10BD     		pop	{r4, pc}
 279              	.LVL24:
 280              	.L3:
 281              	.LCFI11:
 282              		.cfi_restore_state
 283              	.LBB54:
 132:Src/register_interface.c ****       /* The size consumed by the structure is the structure size + 2 bytes used to store the size 
 284              		.loc 1 132 7 is_stmt 1 view .LVU72
 134:Src/register_interface.c ****       uint8_t *rawData = data; /* rawData points to the first data (after size extraction) */
 285              		.loc 1 134 7 view .LVU73
ARM GAS  C:\Users\ep_ygh\AppData\Local\Temp\ccSYahLu.s 			page 30


 134:Src/register_interface.c ****       uint8_t *rawData = data; /* rawData points to the first data (after size extraction) */
 286              		.loc 1 134 23 is_stmt 0 view .LVU74
 287 00b2 1288     		ldrh	r2, [r2]
 288              	.LVL25:
 134:Src/register_interface.c ****       uint8_t *rawData = data; /* rawData points to the first data (after size extraction) */
 289              		.loc 1 134 23 view .LVU75
 290 00b4 0232     		adds	r2, r2, #2
 291 00b6 92B2     		uxth	r2, r2
 139:Src/register_interface.c ****       {
 292              		.loc 1 139 10 view .LVU76
 293 00b8 1FFA8CFC 		uxth	ip, ip
 294 00bc 6245     		cmp	r2, ip
 134:Src/register_interface.c ****       uint8_t *rawData = data; /* rawData points to the first data (after size extraction) */
 295              		.loc 1 134 13 view .LVU77
 296 00be 1A80     		strh	r2, [r3]	@ movhi
 297              	.LVL26:
 135:Src/register_interface.c ****       rawData++;
 298              		.loc 1 135 7 is_stmt 1 view .LVU78
 136:Src/register_interface.c ****       rawData++;
 299              		.loc 1 136 7 view .LVU79
 137:Src/register_interface.c **** 
 300              		.loc 1 137 7 view .LVU80
 139:Src/register_interface.c ****       {
 301              		.loc 1 139 7 view .LVU81
 139:Src/register_interface.c ****       {
 302              		.loc 1 139 10 is_stmt 0 view .LVU82
 303 00c0 2BD8     		bhi	.L42
 148:Src/register_interface.c ****         {
 304              		.loc 1 148 9 is_stmt 1 view .LVU83
 305 00c2 A828     		cmp	r0, #168
 306 00c4 F2D0     		beq	.L39
 307 00c6 22D8     		bhi	.L20
 308 00c8 20F04000 		bic	r0, r0, #64
 309              	.LVL27:
 155:Src/register_interface.c ****             break;
 310              		.loc 1 155 20 is_stmt 0 view .LVU84
 311 00cc 2828     		cmp	r0, #40
 312 00ce 14BF     		ite	ne
 313 00d0 0520     		movne	r0, #5
 314 00d2 0420     		moveq	r0, #4
 315              	.LBE54:
 178:Src/register_interface.c **** 
 316              		.loc 1 178 1 view .LVU85
 317 00d4 02B0     		add	sp, sp, #8
 318              	.LCFI12:
 319              		.cfi_remember_state
 320              		.cfi_def_cfa_offset 8
 321              		@ sp needed
 322 00d6 10BD     		pop	{r4, pc}
 323              	.LVL28:
 324              	.L41:
 325              	.LCFI13:
 326              		.cfi_restore_state
 327              	.LBB55:
 178:Src/register_interface.c **** 
 328              		.loc 1 178 1 view .LVU86
 329 00d8 20F04000 		bic	r0, r0, #64
ARM GAS  C:\Users\ep_ygh\AppData\Local\Temp\ccSYahLu.s 			page 31


 330              	.LVL29:
 178:Src/register_interface.c **** 
 331              		.loc 1 178 1 view .LVU87
 332 00dc B0F5B26F 		cmp	r0, #1424
 333 00e0 14BF     		ite	ne
 334 00e2 0520     		movne	r0, #5
 335 00e4 0420     		moveq	r0, #4
 336 00e6 BDE7     		b	.L14
 337              	.LVL30:
 338              	.L12:
 178:Src/register_interface.c **** 
 339              		.loc 1 178 1 view .LVU88
 340 00e8 B0F5696F 		cmp	r0, #3728
 341 00ec 19D0     		beq	.L24
 342 00ee 41F65832 		movw	r2, #7000
 343              	.LVL31:
 178:Src/register_interface.c **** 
 344              		.loc 1 178 1 view .LVU89
 345 00f2 9042     		cmp	r0, r2
 346 00f4 01D1     		bne	.L43
 347 00f6 0420     		movs	r0, #4
 348              	.LVL32:
 178:Src/register_interface.c **** 
 349              		.loc 1 178 1 view .LVU90
 350 00f8 B4E7     		b	.L14
 351              	.LVL33:
 352              	.L43:
 178:Src/register_interface.c **** 
 353              		.loc 1 178 1 view .LVU91
 354              	.LBE55:
  35:Src/register_interface.c ****   switch(typeID)
 355              		.loc 1 35 11 view .LVU92
 356 00fa B0F5656F 		cmp	r0, #3664
 357 00fe 14BF     		ite	ne
 358 0100 0520     		movne	r0, #5
 359              	.LVL34:
  35:Src/register_interface.c ****   switch(typeID)
 360              		.loc 1 35 11 view .LVU93
 361 0102 0020     		moveq	r0, #0
 362 0104 AEE7     		b	.L14
 363              	.LVL35:
 364              	.L16:
 365              	.LBB56:
 366              	.LBB53:
 367              	.LBB52:
1325:Src/register_interface.c ****   }
1326:Src/register_interface.c **** 
1327:Src/register_interface.c ****   if (*tempsrcString != (char_t)0)
 368              		.loc 1 1327 3 is_stmt 1 view .LVU94
1328:Src/register_interface.c ****   { /* Last string char must be 0 */
1329:Src/register_interface.c ****     retVal = MCP_ERROR_STRING_FORMAT;
1330:Src/register_interface.c ****   }
1331:Src/register_interface.c ****   else
1332:Src/register_interface.c ****   {
1333:Src/register_interface.c ****     *tempdestString = (int8_t)0;
 369              		.loc 1 1333 5 view .LVU95
 370              		.loc 1 1333 21 is_stmt 0 view .LVU96
ARM GAS  C:\Users\ep_ygh\AppData\Local\Temp\ccSYahLu.s 			page 32


 371 0106 0023     		movs	r3, #0
 372              	.LVL36:
 373              		.loc 1 1333 21 view .LVU97
 374 0108 1370     		strb	r3, [r2]
 375              	.LBE52:
 376              	.LBE53:
 123:Src/register_interface.c ****       /* Used to compute String length stored in RXBUFF even if Reg does not exist */
 377              		.loc 1 123 14 view .LVU98
 378 010a 0420     		movs	r0, #4
 379              	.LVL37:
 123:Src/register_interface.c ****       /* Used to compute String length stored in RXBUFF even if Reg does not exist */
 380              		.loc 1 123 14 view .LVU99
 381              	.LBE56:
 177:Src/register_interface.c **** }
 382              		.loc 1 177 3 is_stmt 1 view .LVU100
 383 010c CFE7     		b	.L44
 384              	.LVL38:
 385              	.L20:
 386              	.LBB57:
 155:Src/register_interface.c ****             break;
 387              		.loc 1 155 20 is_stmt 0 view .LVU101
 388 010e E828     		cmp	r0, #232
 389 0110 14BF     		ite	ne
 390 0112 0520     		movne	r0, #5
 391              	.LVL39:
 155:Src/register_interface.c ****             break;
 392              		.loc 1 155 20 view .LVU102
 393 0114 0420     		moveq	r0, #4
 394              	.LBE57:
 178:Src/register_interface.c **** 
 395              		.loc 1 178 1 view .LVU103
 396 0116 02B0     		add	sp, sp, #8
 397              	.LCFI14:
 398              		.cfi_remember_state
 399              		.cfi_def_cfa_offset 8
 400              		@ sp needed
 401 0118 10BD     		pop	{r4, pc}
 402              	.LVL40:
 403              	.L42:
 404              	.LCFI15:
 405              		.cfi_restore_state
 406              	.LBB58:
 143:Src/register_interface.c ****         retVal = MCP_ERROR_BAD_RAW_FORMAT; /* This error stop the parsing of the CMD buffer */
 407              		.loc 1 143 9 is_stmt 1 view .LVU104
 143:Src/register_interface.c ****         retVal = MCP_ERROR_BAD_RAW_FORMAT; /* This error stop the parsing of the CMD buffer */
 408              		.loc 1 143 15 is_stmt 0 view .LVU105
 409 011a 0022     		movs	r2, #0
 410 011c 1A80     		strh	r2, [r3]	@ movhi
 144:Src/register_interface.c ****       }
 411              		.loc 1 144 9 is_stmt 1 view .LVU106
 412              	.LVL41:
 144:Src/register_interface.c ****       }
 413              		.loc 1 144 16 is_stmt 0 view .LVU107
 414 011e 0A20     		movs	r0, #10
 415              	.LVL42:
 144:Src/register_interface.c ****       }
 416              		.loc 1 144 16 view .LVU108
ARM GAS  C:\Users\ep_ygh\AppData\Local\Temp\ccSYahLu.s 			page 33


 417 0120 8BE7     		b	.L37
 418              	.LVL43:
 419              	.L24:
 144:Src/register_interface.c ****       }
 420              		.loc 1 144 16 view .LVU109
 421              	.LBE58:
  35:Src/register_interface.c ****   switch(typeID)
 422              		.loc 1 35 11 view .LVU110
 423 0122 0020     		movs	r0, #0
 424              	.LVL44:
  35:Src/register_interface.c ****   switch(typeID)
 425              		.loc 1 35 11 view .LVU111
 426 0124 9EE7     		b	.L14
 427              	.LVL45:
 428              	.L11:
 429              	.LBB59:
  80:Src/register_interface.c ****           break;
 430              		.loc 1 80 11 view .LVU112
 431 0126 0848     		ldr	r0, .L45
 432              	.LVL46:
  80:Src/register_interface.c ****           break;
 433              		.loc 1 80 11 view .LVU113
 434 0128 0193     		str	r3, [sp, #4]
  80:Src/register_interface.c ****           break;
 435              		.loc 1 80 11 is_stmt 1 view .LVU114
 436 012a 0121     		movs	r1, #1
 437 012c FFF7FEFF 		bl	DAC_SetChannelConfig
 438              	.LVL47:
  81:Src/register_interface.c ****         }
 439              		.loc 1 81 11 view .LVU115
 440 0130 019B     		ldr	r3, [sp, #4]
 441              	.LBE59:
  35:Src/register_interface.c ****   switch(typeID)
 442              		.loc 1 35 11 is_stmt 0 view .LVU116
 443 0132 0020     		movs	r0, #0
 444              	.LBB60:
  81:Src/register_interface.c ****         }
 445              		.loc 1 81 11 view .LVU117
 446 0134 96E7     		b	.L14
 447              	.LVL48:
 448              	.L13:
  74:Src/register_interface.c ****           break;
 449              		.loc 1 74 11 view .LVU118
 450 0136 0448     		ldr	r0, .L45
 451              	.LVL49:
  74:Src/register_interface.c ****           break;
 452              		.loc 1 74 11 view .LVU119
 453 0138 0193     		str	r3, [sp, #4]
  74:Src/register_interface.c ****           break;
 454              		.loc 1 74 11 is_stmt 1 view .LVU120
 455 013a 0021     		movs	r1, #0
 456 013c FFF7FEFF 		bl	DAC_SetChannelConfig
 457              	.LVL50:
  75:Src/register_interface.c ****         }
 458              		.loc 1 75 11 view .LVU121
 459 0140 019B     		ldr	r3, [sp, #4]
 460              	.LBE60:
ARM GAS  C:\Users\ep_ygh\AppData\Local\Temp\ccSYahLu.s 			page 34


  35:Src/register_interface.c ****   switch(typeID)
 461              		.loc 1 35 11 is_stmt 0 view .LVU122
 462 0142 0020     		movs	r0, #0
 463              	.LBB61:
  75:Src/register_interface.c ****         }
 464              		.loc 1 75 11 view .LVU123
 465 0144 8EE7     		b	.L14
 466              	.L46:
 467 0146 00BF     		.align	2
 468              	.L45:
 469 0148 00000000 		.word	DAC_Handle
 470              	.LBE61:
 471              		.cfi_endproc
 472              	.LFE1090:
 474              		.section	.text.RI_SetRegisterMotor1,"ax",%progbits
 475              		.align	1
 476              		.p2align 2,,3
 477              		.global	RI_SetRegisterMotor1
 478              		.syntax unified
 479              		.thumb
 480              		.thumb_func
 482              	RI_SetRegisterMotor1:
 483              	.LVL51:
 484              	.LFB1091:
 181:Src/register_interface.c ****   uint8_t retVal = MCP_CMD_OK;
 485              		.loc 1 181 1 is_stmt 1 view -0
 486              		.cfi_startproc
 487              		@ args = 4, pretend = 0, frame = 16
 488              		@ frame_needed = 0, uses_anonymous_args = 0
 182:Src/register_interface.c ****   uint8_t motorID=0;
 489              		.loc 1 182 3 view .LVU125
 183:Src/register_interface.c ****   MCI_Handle_t *pMCIN = &Mci[motorID];
 490              		.loc 1 183 3 view .LVU126
 184:Src/register_interface.c **** 
 491              		.loc 1 184 3 view .LVU127
 186:Src/register_interface.c ****   {
 492              		.loc 1 186 3 view .LVU128
 181:Src/register_interface.c ****   uint8_t retVal = MCP_CMD_OK;
 493              		.loc 1 181 1 is_stmt 0 view .LVU129
 494 0000 30B5     		push	{r4, r5, lr}
 495              	.LCFI16:
 496              		.cfi_def_cfa_offset 12
 497              		.cfi_offset 4, -12
 498              		.cfi_offset 5, -8
 499              		.cfi_offset 14, -4
 500 0002 85B0     		sub	sp, sp, #20
 501              	.LCFI17:
 502              		.cfi_def_cfa_offset 32
 186:Src/register_interface.c ****   {
 503              		.loc 1 186 3 view .LVU130
 504 0004 0839     		subs	r1, r1, #8
 505              	.LVL52:
 181:Src/register_interface.c ****   uint8_t retVal = MCP_CMD_OK;
 506              		.loc 1 181 1 view .LVU131
 507 0006 BDF920E0 		ldrsh	lr, [sp, #32]
 508 000a 9446     		mov	ip, r2
 509 000c 1D46     		mov	r5, r3
ARM GAS  C:\Users\ep_ygh\AppData\Local\Temp\ccSYahLu.s 			page 35


 186:Src/register_interface.c ****   {
 510              		.loc 1 186 3 view .LVU132
 511 000e 2029     		cmp	r1, #32
 512 0010 12D8     		bhi	.L48
 513 0012 DFE801F0 		tbb	[pc, r1]
 514              	.LVL53:
 515              	.L50:
 516 0016 16       		.byte	(.L54-.L50)/2
 517 0017 11       		.byte	(.L48-.L50)/2
 518 0018 11       		.byte	(.L48-.L50)/2
 519 0019 11       		.byte	(.L48-.L50)/2
 520 001a 11       		.byte	(.L48-.L50)/2
 521 001b 11       		.byte	(.L48-.L50)/2
 522 001c 11       		.byte	(.L48-.L50)/2
 523 001d 11       		.byte	(.L48-.L50)/2
 524 001e 28       		.byte	(.L53-.L50)/2
 525 001f 11       		.byte	(.L48-.L50)/2
 526 0020 11       		.byte	(.L48-.L50)/2
 527 0021 11       		.byte	(.L48-.L50)/2
 528 0022 11       		.byte	(.L48-.L50)/2
 529 0023 11       		.byte	(.L48-.L50)/2
 530 0024 11       		.byte	(.L48-.L50)/2
 531 0025 11       		.byte	(.L48-.L50)/2
 532 0026 4F       		.byte	(.L52-.L50)/2
 533 0027 11       		.byte	(.L48-.L50)/2
 534 0028 11       		.byte	(.L48-.L50)/2
 535 0029 11       		.byte	(.L48-.L50)/2
 536 002a 11       		.byte	(.L48-.L50)/2
 537 002b 11       		.byte	(.L48-.L50)/2
 538 002c 11       		.byte	(.L48-.L50)/2
 539 002d 11       		.byte	(.L48-.L50)/2
 540 002e 5D       		.byte	(.L51-.L50)/2
 541 002f 11       		.byte	(.L48-.L50)/2
 542 0030 11       		.byte	(.L48-.L50)/2
 543 0031 11       		.byte	(.L48-.L50)/2
 544 0032 11       		.byte	(.L48-.L50)/2
 545 0033 11       		.byte	(.L48-.L50)/2
 546 0034 11       		.byte	(.L48-.L50)/2
 547 0035 11       		.byte	(.L48-.L50)/2
 548 0036 7A       		.byte	(.L49-.L50)/2
 549 0037 00       		.p2align 1
 550              	.L48:
 581:Src/register_interface.c ****       *size =0; /* From this point we are not able anymore to decode the RX buffer */
 551              		.loc 1 581 7 is_stmt 1 view .LVU133
 582:Src/register_interface.c ****       break;
 552              		.loc 1 582 7 view .LVU134
 582:Src/register_interface.c ****       break;
 553              		.loc 1 582 13 is_stmt 0 view .LVU135
 554 0038 0022     		movs	r2, #0
 555              	.LVL54:
 582:Src/register_interface.c ****       break;
 556              		.loc 1 582 13 view .LVU136
 557 003a 2A80     		strh	r2, [r5]	@ movhi
 583:Src/register_interface.c ****     }
 558              		.loc 1 583 7 is_stmt 1 view .LVU137
 581:Src/register_interface.c ****       *size =0; /* From this point we are not able anymore to decode the RX buffer */
 559              		.loc 1 581 14 is_stmt 0 view .LVU138
ARM GAS  C:\Users\ep_ygh\AppData\Local\Temp\ccSYahLu.s 			page 36


 560 003c 0720     		movs	r0, #7
 561              	.LVL55:
 562              	.L143:
 587:Src/register_interface.c **** 
 563              		.loc 1 587 1 view .LVU139
 564 003e 05B0     		add	sp, sp, #20
 565              	.LCFI18:
 566              		.cfi_remember_state
 567              		.cfi_def_cfa_offset 12
 568              		@ sp needed
 569 0040 30BD     		pop	{r4, r5, pc}
 570              	.LVL56:
 571              	.L54:
 572              	.LCFI19:
 573              		.cfi_restore_state
 190:Src/register_interface.c ****       {
 574              		.loc 1 190 7 is_stmt 1 view .LVU140
 575 0042 8828     		cmp	r0, #136
 576 0044 00F0B681 		beq	.L55
 577 0048 40F28F80 		bls	.L149
 578 004c B0F5A96F 		cmp	r0, #1352
 579 0050 00F0C181 		beq	.L113
 194:Src/register_interface.c ****             break;
 580              		.loc 1 194 20 is_stmt 0 view .LVU141
 581 0054 B0F5B16F 		cmp	r0, #1416
 582 0058 14BF     		ite	ne
 583 005a 0520     		movne	r0, #5
 584              	.LVL57:
 194:Src/register_interface.c ****             break;
 585              		.loc 1 194 20 view .LVU142
 586 005c 0420     		moveq	r0, #4
 587              	.LVL58:
 588              	.L57:
 235:Src/register_interface.c ****       break;
 589              		.loc 1 235 7 is_stmt 1 view .LVU143
 235:Src/register_interface.c ****       break;
 590              		.loc 1 235 13 is_stmt 0 view .LVU144
 591 005e 0122     		movs	r2, #1
 592 0060 2A80     		strh	r2, [r5]	@ movhi
 236:Src/register_interface.c ****     }
 593              		.loc 1 236 7 is_stmt 1 view .LVU145
 587:Src/register_interface.c **** 
 594              		.loc 1 587 1 is_stmt 0 view .LVU146
 595 0062 05B0     		add	sp, sp, #20
 596              	.LCFI20:
 597              		.cfi_remember_state
 598              		.cfi_def_cfa_offset 12
 599              		@ sp needed
 600 0064 30BD     		pop	{r4, r5, pc}
 601              	.LVL59:
 602              	.L53:
 603              	.LCFI21:
 604              		.cfi_restore_state
 605              	.LBB62:
 241:Src/register_interface.c ****       switch (regID)
 606              		.loc 1 241 7 is_stmt 1 view .LVU147
 607 0066 41F29032 		movw	r2, #5008
ARM GAS  C:\Users\ep_ygh\AppData\Local\Temp\ccSYahLu.s 			page 37


 608              	.LVL60:
 241:Src/register_interface.c ****       switch (regID)
 609              		.loc 1 241 7 is_stmt 0 view .LVU148
 610 006a 9042     		cmp	r0, r2
 241:Src/register_interface.c ****       switch (regID)
 611              		.loc 1 241 16 view .LVU149
 612 006c BCF80010 		ldrh	r1, [ip]
 613              	.LVL61:
 242:Src/register_interface.c ****       {
 614              		.loc 1 242 7 is_stmt 1 view .LVU150
 615 0070 00F0F481 		beq	.L60
 616 0074 00F29180 		bhi	.L61
 617 0078 B0F5347F 		cmp	r0, #720
 618 007c 00F01982 		beq	.L62
 619 0080 78D9     		bls	.L150
 620 0082 B0F5156F 		cmp	r0, #2384
 621 0086 00F00682 		beq	.L73
 622 008a 60D9     		bls	.L151
 623 008c B0F5296F 		cmp	r0, #2704
 624 0090 69D0     		beq	.L131
 625 0092 40F2B880 		bls	.L152
 626 0096 B0F5656F 		cmp	r0, #3664
 627 009a 00F07B81 		beq	.L127
 628 009e 40F2A980 		bls	.L153
 629              	.LBE62:
 182:Src/register_interface.c ****   uint8_t motorID=0;
 630              		.loc 1 182 11 is_stmt 0 view .LVU151
 631 00a2 B0F5696F 		cmp	r0, #3728
 632 00a6 14BF     		ite	ne
 633 00a8 0520     		movne	r0, #5
 634              	.LVL62:
 182:Src/register_interface.c ****   uint8_t motorID=0;
 635              		.loc 1 182 11 view .LVU152
 636 00aa 0020     		moveq	r0, #0
 637              	.LVL63:
 638              	.L69:
 639              	.LBB65:
 447:Src/register_interface.c ****       break;
 640              		.loc 1 447 7 is_stmt 1 view .LVU153
 447:Src/register_interface.c ****       break;
 641              		.loc 1 447 13 is_stmt 0 view .LVU154
 642 00ac 0222     		movs	r2, #2
 643 00ae 2A80     		strh	r2, [r5]	@ movhi
 448:Src/register_interface.c ****     }
 644              		.loc 1 448 7 is_stmt 1 view .LVU155
 645              	.LBE65:
 587:Src/register_interface.c **** 
 646              		.loc 1 587 1 is_stmt 0 view .LVU156
 647 00b0 05B0     		add	sp, sp, #20
 648              	.LCFI22:
 649              		.cfi_remember_state
 650              		.cfi_def_cfa_offset 12
 651              		@ sp needed
 652 00b2 30BD     		pop	{r4, r5, pc}
 653              	.LVL64:
 654              	.L52:
 655              	.LCFI23:
ARM GAS  C:\Users\ep_ygh\AppData\Local\Temp\ccSYahLu.s 			page 38


 656              		.cfi_restore_state
 657              	.LBB66:
 453:Src/register_interface.c **** 
 658              		.loc 1 453 7 is_stmt 1 view .LVU157
 455:Src/register_interface.c ****       {
 659              		.loc 1 455 7 view .LVU158
 660 00b4 5828     		cmp	r0, #88
 661 00b6 00F09081 		beq	.L132
 662 00ba 9828     		cmp	r0, #152
 663 00bc 00F06C81 		beq	.L99
 460:Src/register_interface.c ****           break;
 664              		.loc 1 460 18 is_stmt 0 view .LVU159
 665 00c0 1828     		cmp	r0, #24
 666 00c2 14BF     		ite	ne
 667 00c4 0520     		movne	r0, #5
 668              	.LVL65:
 460:Src/register_interface.c ****           break;
 669              		.loc 1 460 18 view .LVU160
 670 00c6 0420     		moveq	r0, #4
 671              	.LVL66:
 672              	.L98:
 476:Src/register_interface.c ****       break;
 673              		.loc 1 476 7 is_stmt 1 view .LVU161
 476:Src/register_interface.c ****       break;
 674              		.loc 1 476 13 is_stmt 0 view .LVU162
 675 00c8 0422     		movs	r2, #4
 676 00ca 2A80     		strh	r2, [r5]	@ movhi
 477:Src/register_interface.c ****     }
 677              		.loc 1 477 7 is_stmt 1 view .LVU163
 678              	.LBE66:
 587:Src/register_interface.c **** 
 679              		.loc 1 587 1 is_stmt 0 view .LVU164
 680 00cc 05B0     		add	sp, sp, #20
 681              	.LCFI24:
 682              		.cfi_remember_state
 683              		.cfi_def_cfa_offset 12
 684              		@ sp needed
 685 00ce 30BD     		pop	{r4, r5, pc}
 686              	.LVL67:
 687              	.L51:
 688              	.LCFI25:
 689              		.cfi_restore_state
 690              	.LBB67:
 482:Src/register_interface.c ****       char_t *dummy = (char_t *)data;
 691              		.loc 1 482 7 is_stmt 1 view .LVU165
 483:Src/register_interface.c ****       retVal = MCP_ERROR_RO_REG;
 692              		.loc 1 483 7 view .LVU166
 484:Src/register_interface.c ****       /* Used to compute String length stored in RXBUFF even if Reg does not exist */
 693              		.loc 1 484 7 view .LVU167
 487:Src/register_interface.c ****       break;
 694              		.loc 1 487 7 view .LVU168
 695              	.LBB68:
 696              	.LBI68:
1312:Src/register_interface.c **** {
 697              		.loc 1 1312 9 view .LVU169
 698              	.LBB69:
1314:Src/register_interface.c ****   const char_t *tempsrcString = srcString;
ARM GAS  C:\Users\ep_ygh\AppData\Local\Temp\ccSYahLu.s 			page 39


 699              		.loc 1 1314 3 view .LVU170
1315:Src/register_interface.c ****   char_t *tempdestString = destString;
 700              		.loc 1 1315 3 view .LVU171
1316:Src/register_interface.c ****   *size= 1U ; /* /0 is the min String size */
 701              		.loc 1 1316 3 view .LVU172
1317:Src/register_interface.c **** 
 702              		.loc 1 1317 3 view .LVU173
1317:Src/register_interface.c **** 
 703              		.loc 1 1317 8 is_stmt 0 view .LVU174
 704 00d0 0122     		movs	r2, #1
 705              	.LVL68:
1317:Src/register_interface.c **** 
 706              		.loc 1 1317 8 view .LVU175
 707 00d2 2A80     		strh	r2, [r5]	@ movhi
1319:Src/register_interface.c ****   {
 708              		.loc 1 1319 3 is_stmt 1 view .LVU176
1319:Src/register_interface.c ****   {
 709              		.loc 1 1319 9 view .LVU177
 710 00d4 9CF90010 		ldrsb	r1, [ip]
 711 00d8 0029     		cmp	r1, #0
 712 00da 00F03C81 		beq	.L100
1319:Src/register_interface.c ****   {
 713              		.loc 1 1319 50 is_stmt 0 view .LVU178
 714 00de 1FFA8EF0 		uxth	r0, lr
 715              	.LVL69:
1319:Src/register_interface.c ****   {
 716              		.loc 1 1319 50 view .LVU179
 717 00e2 0CEB0201 		add	r1, ip, r2
 718 00e6 06E0     		b	.L101
 719              	.LVL70:
 720              	.L102:
1324:Src/register_interface.c ****   }
 721              		.loc 1 1324 11 view .LVU180
 722 00e8 2A80     		strh	r2, [r5]	@ movhi
1319:Src/register_interface.c ****   {
 723              		.loc 1 1319 9 is_stmt 1 view .LVU181
 724 00ea 9CF90040 		ldrsb	r4, [ip]
 725 00ee 0131     		adds	r1, r1, #1
 726              	.LVL71:
1319:Src/register_interface.c ****   {
 727              		.loc 1 1319 9 is_stmt 0 view .LVU182
 728 00f0 002C     		cmp	r4, #0
 729 00f2 00F03081 		beq	.L100
 730              	.L101:
1321:Src/register_interface.c ****     tempdestString++;
 731              		.loc 1 1321 5 is_stmt 1 view .LVU183
1322:Src/register_interface.c ****     tempsrcString++;
 732              		.loc 1 1322 5 view .LVU184
 733              	.LVL72:
1324:Src/register_interface.c ****   }
 734              		.loc 1 1324 19 is_stmt 0 view .LVU185
 735 00f6 02F1010E 		add	lr, r2, #1
1319:Src/register_interface.c ****   {
 736              		.loc 1 1319 40 view .LVU186
 737 00fa 8242     		cmp	r2, r0
1322:Src/register_interface.c ****     tempsrcString++;
 738              		.loc 1 1322 19 view .LVU187
ARM GAS  C:\Users\ep_ygh\AppData\Local\Temp\ccSYahLu.s 			page 40


 739 00fc 8C46     		mov	ip, r1
 740              	.LVL73:
1323:Src/register_interface.c ****     *size = *size + 1U;
 741              		.loc 1 1323 5 is_stmt 1 view .LVU188
1324:Src/register_interface.c ****   }
 742              		.loc 1 1324 5 view .LVU189
1324:Src/register_interface.c ****   }
 743              		.loc 1 1324 19 is_stmt 0 view .LVU190
 744 00fe 1FFA8EF2 		uxth	r2, lr
1319:Src/register_interface.c ****   {
 745              		.loc 1 1319 40 view .LVU191
 746 0102 F1D3     		bcc	.L102
 747              	.LVL74:
 748              	.L147:
1319:Src/register_interface.c ****   {
 749              		.loc 1 1319 40 view .LVU192
 750              	.LBE69:
 751              	.LBE68:
 484:Src/register_interface.c ****       /* Used to compute String length stored in RXBUFF even if Reg does not exist */
 752              		.loc 1 484 14 view .LVU193
 753 0104 0420     		movs	r0, #4
 754              	.LVL75:
 484:Src/register_interface.c ****       /* Used to compute String length stored in RXBUFF even if Reg does not exist */
 755              		.loc 1 484 14 view .LVU194
 756              	.LBE67:
 586:Src/register_interface.c **** }
 757              		.loc 1 586 3 is_stmt 1 view .LVU195
 758              	.L171:
 587:Src/register_interface.c **** 
 759              		.loc 1 587 1 is_stmt 0 view .LVU196
 760 0106 05B0     		add	sp, sp, #20
 761              	.LCFI26:
 762              		.cfi_remember_state
 763              		.cfi_def_cfa_offset 12
 764              		@ sp needed
 765 0108 30BD     		pop	{r4, r5, pc}
 766              	.LVL76:
 767              	.L49:
 768              	.LCFI27:
 769              		.cfi_restore_state
 770              	.LBB72:
 493:Src/register_interface.c ****       /* The size consumed by the structure is the structure size + 2 bytes used to store the size 
 771              		.loc 1 493 7 is_stmt 1 view .LVU197
 495:Src/register_interface.c ****       uint8_t *rawData = data; /* rawData points to the first data (after size extraction) */
 772              		.loc 1 495 7 view .LVU198
 495:Src/register_interface.c ****       uint8_t *rawData = data; /* rawData points to the first data (after size extraction) */
 773              		.loc 1 495 23 is_stmt 0 view .LVU199
 774 010a 1288     		ldrh	r2, [r2]
 775              	.LVL77:
 495:Src/register_interface.c ****       uint8_t *rawData = data; /* rawData points to the first data (after size extraction) */
 776              		.loc 1 495 23 view .LVU200
 777 010c 0232     		adds	r2, r2, #2
 778 010e 92B2     		uxth	r2, r2
 500:Src/register_interface.c ****       {
 779              		.loc 1 500 10 view .LVU201
 780 0110 1FFA8EFE 		uxth	lr, lr
 781 0114 7245     		cmp	r2, lr
ARM GAS  C:\Users\ep_ygh\AppData\Local\Temp\ccSYahLu.s 			page 41


 495:Src/register_interface.c ****       uint8_t *rawData = data; /* rawData points to the first data (after size extraction) */
 782              		.loc 1 495 13 view .LVU202
 783 0116 2A80     		strh	r2, [r5]	@ movhi
 784              	.LVL78:
 496:Src/register_interface.c ****       rawData++;
 785              		.loc 1 496 7 is_stmt 1 view .LVU203
 497:Src/register_interface.c ****       rawData++;
 786              		.loc 1 497 7 view .LVU204
 498:Src/register_interface.c **** 
 787              		.loc 1 498 7 view .LVU205
 500:Src/register_interface.c ****       {
 788              		.loc 1 500 7 view .LVU206
 500:Src/register_interface.c ****       {
 789              		.loc 1 500 10 is_stmt 0 view .LVU207
 790 0118 00F23881 		bhi	.L154
 509:Src/register_interface.c ****         {
 791              		.loc 1 509 9 is_stmt 1 view .LVU208
 792 011c B0F55A7F 		cmp	r0, #872
 793 0120 00F07D81 		beq	.L104
 794 0124 00F21C81 		bhi	.L105
 795 0128 B0F5D47F 		cmp	r0, #424
 796 012c 00F06881 		beq	.L106
 797 0130 40F20781 		bls	.L155
 798 0134 B0F5F47F 		cmp	r0, #488
 799 0138 40F05181 		bne	.L148
 800              	.LBB73:
 533:Src/register_interface.c ****             uint16_t duration;
 801              		.loc 1 533 13 view .LVU209
 534:Src/register_interface.c **** 
 802              		.loc 1 534 13 view .LVU210
 536:Src/register_interface.c ****             duration = *(uint16_t *)&rawData[4]; //cstat !MISRAC2012-Rule-11.3
 803              		.loc 1 536 13 view .LVU211
 804              	.LVL79:
 537:Src/register_interface.c ****             MCI_ExecTorqueRamp(pMCIN, (int16_t)torque, duration);
 805              		.loc 1 537 13 view .LVU212
 538:Src/register_interface.c ****             break;
 806              		.loc 1 538 13 view .LVU213
 807 013c A948     		ldr	r0, .L174
 808              	.LVL80:
 538:Src/register_interface.c ****             break;
 809              		.loc 1 538 13 is_stmt 0 view .LVU214
 810 013e BCF80620 		ldrh	r2, [ip, #6]
 811 0142 BCF90210 		ldrsh	r1, [ip, #2]
 812 0146 FFF7FEFF 		bl	MCI_ExecTorqueRamp
 813              	.LVL81:
 539:Src/register_interface.c ****           }
 814              		.loc 1 539 13 is_stmt 1 view .LVU215
 815              	.LBE73:
 816              	.LBE72:
 182:Src/register_interface.c ****   uint8_t motorID=0;
 817              		.loc 1 182 11 is_stmt 0 view .LVU216
 818 014a 0020     		movs	r0, #0
 819              	.LBB79:
 820              	.LBB74:
 539:Src/register_interface.c ****           }
 821              		.loc 1 539 13 view .LVU217
 822 014c 77E7     		b	.L143
ARM GAS  C:\Users\ep_ygh\AppData\Local\Temp\ccSYahLu.s 			page 42


 823              	.LVL82:
 824              	.L151:
 539:Src/register_interface.c ****           }
 825              		.loc 1 539 13 view .LVU218
 826              	.LBE74:
 827              	.LBE79:
 828              	.LBB80:
 829 014e B0F5BA6F 		cmp	r0, #1488
 830 0152 08D0     		beq	.L131
 831 0154 40F28980 		bls	.L156
 832 0158 B0F5056F 		cmp	r0, #2128
 833 015c 03D0     		beq	.L131
 834 015e 79D9     		bls	.L157
 835 0160 B0F5116F 		cmp	r0, #2320
 836 0164 6ED1     		bne	.L158
 837              	.L131:
 838 0166 0420     		movs	r0, #4
 839              	.LVL83:
 539:Src/register_interface.c ****           }
 840              		.loc 1 539 13 view .LVU219
 841 0168 A0E7     		b	.L69
 842              	.LVL84:
 843              	.L149:
 539:Src/register_interface.c ****           }
 844              		.loc 1 539 13 view .LVU220
 845              	.LBE80:
 194:Src/register_interface.c ****             break;
 846              		.loc 1 194 20 view .LVU221
 847 016a 4828     		cmp	r0, #72
 848 016c 14BF     		ite	ne
 849 016e 0520     		movne	r0, #5
 850              	.LVL85:
 194:Src/register_interface.c ****             break;
 851              		.loc 1 194 20 view .LVU222
 852 0170 0420     		moveq	r0, #4
 853 0172 74E7     		b	.L57
 854              	.LVL86:
 855              	.L150:
 856              	.LBB81:
 194:Src/register_interface.c ****             break;
 857              		.loc 1 194 20 view .LVU223
 858 0174 B0F5C87F 		cmp	r0, #400
 859 0178 00F08781 		beq	.L64
 860 017c 40F28480 		bls	.L159
 861 0180 B0F5047F 		cmp	r0, #528
 862 0184 00F07681 		beq	.L70
 863 0188 B0F5247F 		cmp	r0, #656
 864 018c 20D1     		bne	.L160
 282:Src/register_interface.c ****           break;
 865              		.loc 1 282 11 is_stmt 1 view .LVU224
 866 018e 9648     		ldr	r0, .L174+4
 867              	.LVL87:
 282:Src/register_interface.c ****           break;
 868              		.loc 1 282 11 is_stmt 0 view .LVU225
 869 0190 09B2     		sxth	r1, r1
 282:Src/register_interface.c ****           break;
 870              		.loc 1 282 11 view .LVU226
ARM GAS  C:\Users\ep_ygh\AppData\Local\Temp\ccSYahLu.s 			page 43


 871 0192 FFF7FEFF 		bl	PID_SetKP
 872              	.LVL88:
 283:Src/register_interface.c ****         }
 873              		.loc 1 283 11 is_stmt 1 view .LVU227
 874              	.LBE81:
 182:Src/register_interface.c ****   uint8_t motorID=0;
 875              		.loc 1 182 11 is_stmt 0 view .LVU228
 876 0196 0020     		movs	r0, #0
 877              	.LBB82:
 283:Src/register_interface.c ****         }
 878              		.loc 1 283 11 view .LVU229
 879 0198 88E7     		b	.L69
 880              	.LVL89:
 881              	.L61:
 283:Src/register_interface.c ****         }
 882              		.loc 1 283 11 view .LVU230
 883 019a 41F29052 		movw	r2, #5520
 884 019e 9042     		cmp	r0, r2
 885 01a0 00F06E81 		beq	.L81
 886 01a4 00F28A80 		bhi	.L82
 887 01a8 41F29042 		movw	r2, #5264
 888 01ac 9042     		cmp	r0, r2
 889 01ae 00F08B81 		beq	.L83
 890 01b2 75D9     		bls	.L161
 891 01b4 41F21052 		movw	r2, #5392
 892 01b8 9042     		cmp	r0, r2
 893 01ba 00F08A81 		beq	.L88
 894 01be 41F25052 		movw	r2, #5456
 895 01c2 9042     		cmp	r0, r2
 896 01c4 0DD1     		bne	.L162
 395:Src/register_interface.c ****           break;
 897              		.loc 1 395 11 is_stmt 1 view .LVU231
 898 01c6 8848     		ldr	r0, .L174+4
 899              	.LVL90:
 395:Src/register_interface.c ****           break;
 900              		.loc 1 395 11 is_stmt 0 view .LVU232
 901 01c8 FFF7FEFF 		bl	PID_SetKIDivisorPOW2
 902              	.LVL91:
 396:Src/register_interface.c ****         }
 903              		.loc 1 396 11 is_stmt 1 view .LVU233
 904              	.LBE82:
 182:Src/register_interface.c ****   uint8_t motorID=0;
 905              		.loc 1 182 11 is_stmt 0 view .LVU234
 906 01cc 0020     		movs	r0, #0
 907              	.LBB83:
 396:Src/register_interface.c ****         }
 908              		.loc 1 396 11 view .LVU235
 909 01ce 6DE7     		b	.L69
 910              	.LVL92:
 911              	.L160:
 396:Src/register_interface.c ****         }
 912              		.loc 1 396 11 view .LVU236
 913 01d0 B0F5E87F 		cmp	r0, #464
 914 01d4 29D1     		bne	.L124
 270:Src/register_interface.c ****           break;
 915              		.loc 1 270 11 is_stmt 1 view .LVU237
 916 01d6 8548     		ldr	r0, .L174+8
ARM GAS  C:\Users\ep_ygh\AppData\Local\Temp\ccSYahLu.s 			page 44


 917              	.LVL93:
 270:Src/register_interface.c ****           break;
 918              		.loc 1 270 11 is_stmt 0 view .LVU238
 919 01d8 09B2     		sxth	r1, r1
 270:Src/register_interface.c ****           break;
 920              		.loc 1 270 11 view .LVU239
 921 01da FFF7FEFF 		bl	PID_SetKI
 922              	.LVL94:
 271:Src/register_interface.c ****         }
 923              		.loc 1 271 11 is_stmt 1 view .LVU240
 924              	.LBE83:
 182:Src/register_interface.c ****   uint8_t motorID=0;
 925              		.loc 1 182 11 is_stmt 0 view .LVU241
 926 01de 0020     		movs	r0, #0
 927              	.LBB84:
 271:Src/register_interface.c ****         }
 928              		.loc 1 271 11 view .LVU242
 929 01e0 64E7     		b	.L69
 930              	.LVL95:
 931              	.L162:
 271:Src/register_interface.c ****         }
 932              		.loc 1 271 11 view .LVU243
 933 01e2 41F2D042 		movw	r2, #5328
 934 01e6 9042     		cmp	r0, r2
 935 01e8 1FD1     		bne	.L124
 383:Src/register_interface.c ****           break;
 936              		.loc 1 383 11 is_stmt 1 view .LVU244
 937 01ea 8148     		ldr	r0, .L174+12
 938              	.LVL96:
 383:Src/register_interface.c ****           break;
 939              		.loc 1 383 11 is_stmt 0 view .LVU245
 940 01ec FFF7FEFF 		bl	PID_SetKDDivisorPOW2
 941              	.LVL97:
 384:Src/register_interface.c ****         }
 942              		.loc 1 384 11 is_stmt 1 view .LVU246
 943              	.LBE84:
 182:Src/register_interface.c ****   uint8_t motorID=0;
 944              		.loc 1 182 11 is_stmt 0 view .LVU247
 945 01f0 0020     		movs	r0, #0
 946              	.LBB85:
 384:Src/register_interface.c ****         }
 947              		.loc 1 384 11 view .LVU248
 948 01f2 5BE7     		b	.L69
 949              	.LVL98:
 950              	.L153:
 384:Src/register_interface.c ****         }
 951              		.loc 1 384 11 view .LVU249
 952 01f4 B0F52D6F 		cmp	r0, #2768
 953 01f8 B5D0     		beq	.L131
 954 01fa B0F5316F 		cmp	r0, #2832
 955 01fe 14BF     		ite	ne
 956 0200 0520     		movne	r0, #5
 957              	.LVL99:
 384:Src/register_interface.c ****         }
 958              		.loc 1 384 11 view .LVU250
 959 0202 0420     		moveq	r0, #4
 960 0204 52E7     		b	.L69
ARM GAS  C:\Users\ep_ygh\AppData\Local\Temp\ccSYahLu.s 			page 45


 961              	.LVL100:
 962              	.L152:
 384:Src/register_interface.c ****         }
 963              		.loc 1 384 11 view .LVU251
 964 0206 B0F5196F 		cmp	r0, #2448
 965 020a 0DD1     		bne	.L163
 966              	.LBB63:
 329:Src/register_interface.c ****           currComp = MCI_GetIqdref(pMCIN);
 967              		.loc 1 329 11 is_stmt 1 view .LVU252
 330:Src/register_interface.c ****           currComp.d = (int16_t)regdata16;
 968              		.loc 1 330 11 view .LVU253
 330:Src/register_interface.c ****           currComp.d = (int16_t)regdata16;
 969              		.loc 1 330 22 is_stmt 0 view .LVU254
 970 020c 7548     		ldr	r0, .L174
 971              	.LVL101:
 330:Src/register_interface.c ****           currComp.d = (int16_t)regdata16;
 972              		.loc 1 330 22 view .LVU255
 973 020e 0191     		str	r1, [sp, #4]
 974 0210 FFF7FEFF 		bl	MCI_GetIqdref
 975              	.LVL102:
 331:Src/register_interface.c ****           MCI_SetCurrentReferences(pMCIN,currComp);
 976              		.loc 1 331 22 view .LVU256
 977 0214 0199     		ldr	r1, [sp, #4]
 330:Src/register_interface.c ****           currComp.d = (int16_t)regdata16;
 978              		.loc 1 330 22 view .LVU257
 979 0216 0390     		str	r0, [sp, #12]
 331:Src/register_interface.c ****           MCI_SetCurrentReferences(pMCIN,currComp);
 980              		.loc 1 331 11 is_stmt 1 view .LVU258
 331:Src/register_interface.c ****           MCI_SetCurrentReferences(pMCIN,currComp);
 981              		.loc 1 331 22 is_stmt 0 view .LVU259
 982 0218 ADF80E10 		strh	r1, [sp, #14]	@ movhi
 332:Src/register_interface.c ****           break;
 983              		.loc 1 332 11 is_stmt 1 view .LVU260
 984 021c 7148     		ldr	r0, .L174
 985 021e 0399     		ldr	r1, [sp, #12]
 986 0220 FFF7FEFF 		bl	MCI_SetCurrentReferences
 987              	.LVL103:
 333:Src/register_interface.c ****         }
 988              		.loc 1 333 11 view .LVU261
 989              	.LBE63:
 990              	.LBE85:
 182:Src/register_interface.c ****   uint8_t motorID=0;
 991              		.loc 1 182 11 is_stmt 0 view .LVU262
 992 0224 0020     		movs	r0, #0
 993 0226 41E7     		b	.L69
 994              	.LVL104:
 995              	.L163:
 996              	.LBB86:
 182:Src/register_interface.c ****   uint8_t motorID=0;
 997              		.loc 1 182 11 view .LVU263
 998 0228 01D2     		bcs	.L164
 999              	.L124:
 443:Src/register_interface.c ****           break;
 1000              		.loc 1 443 18 view .LVU264
 1001 022a 0520     		movs	r0, #5
 1002              	.LVL105:
 443:Src/register_interface.c ****           break;
ARM GAS  C:\Users\ep_ygh\AppData\Local\Temp\ccSYahLu.s 			page 46


 1003              		.loc 1 443 18 view .LVU265
 1004 022c 3EE7     		b	.L69
 1005              	.LVL106:
 1006              	.L164:
 443:Src/register_interface.c ****           break;
 1007              		.loc 1 443 18 view .LVU266
 1008 022e 20F04002 		bic	r2, r0, #64
 1009 0232 B2F5216F 		cmp	r2, #2576
 1010 0236 96D0     		beq	.L131
 1011 0238 B0F51D6F 		cmp	r0, #2512
 1012 023c 14BF     		ite	ne
 1013 023e 0520     		movne	r0, #5
 1014              	.LVL107:
 443:Src/register_interface.c ****           break;
 1015              		.loc 1 443 18 view .LVU267
 1016 0240 0420     		moveq	r0, #4
 1017 0242 33E7     		b	.L69
 1018              	.LVL108:
 1019              	.L158:
 443:Src/register_interface.c ****           break;
 1020              		.loc 1 443 18 view .LVU268
 1021 0244 20F04000 		bic	r0, r0, #64
 1022              	.LVL109:
 443:Src/register_interface.c ****           break;
 1023              		.loc 1 443 18 view .LVU269
 1024 0248 B0F5096F 		cmp	r0, #2192
 1025 024c 14BF     		ite	ne
 1026 024e 0520     		movne	r0, #5
 1027 0250 0420     		moveq	r0, #4
 1028 0252 2BE7     		b	.L69
 1029              	.LVL110:
 1030              	.L157:
 443:Src/register_interface.c ****           break;
 1031              		.loc 1 443 18 view .LVU270
 1032 0254 B0F5016F 		cmp	r0, #2064
 1033 0258 85D0     		beq	.L131
 1034 025a 20F04000 		bic	r0, r0, #64
 1035              	.LVL111:
 443:Src/register_interface.c ****           break;
 1036              		.loc 1 443 18 view .LVU271
 1037 025e B0F5F26F 		cmp	r0, #1936
 1038 0262 14BF     		ite	ne
 1039 0264 0520     		movne	r0, #5
 1040 0266 0420     		moveq	r0, #4
 1041 0268 20E7     		b	.L69
 1042              	.LVL112:
 1043              	.L156:
 443:Src/register_interface.c ****           break;
 1044              		.loc 1 443 18 view .LVU272
 1045 026a B0F5447F 		cmp	r0, #784
 1046 026e 05D1     		bne	.L165
 294:Src/register_interface.c ****           break;
 1047              		.loc 1 294 11 is_stmt 1 view .LVU273
 1048 0270 5D48     		ldr	r0, .L174+4
 1049              	.LVL113:
 294:Src/register_interface.c ****           break;
 1050              		.loc 1 294 11 is_stmt 0 view .LVU274
ARM GAS  C:\Users\ep_ygh\AppData\Local\Temp\ccSYahLu.s 			page 47


 1051 0272 09B2     		sxth	r1, r1
 294:Src/register_interface.c ****           break;
 1052              		.loc 1 294 11 view .LVU275
 1053 0274 FFF7FEFF 		bl	PID_SetKD
 1054              	.LVL114:
 295:Src/register_interface.c ****         }
 1055              		.loc 1 295 11 is_stmt 1 view .LVU276
 1056              	.LBE86:
 182:Src/register_interface.c ****   uint8_t motorID=0;
 1057              		.loc 1 182 11 is_stmt 0 view .LVU277
 1058 0278 0020     		movs	r0, #0
 1059              	.LBB87:
 295:Src/register_interface.c ****         }
 1060              		.loc 1 295 11 view .LVU278
 1061 027a 17E7     		b	.L69
 1062              	.LVL115:
 1063              	.L165:
 295:Src/register_interface.c ****         }
 1064              		.loc 1 295 11 view .LVU279
 1065 027c B0F5B26F 		cmp	r0, #1424
 1066 0280 14BF     		ite	ne
 1067 0282 0520     		movne	r0, #5
 1068              	.LVL116:
 295:Src/register_interface.c ****         }
 1069              		.loc 1 295 11 view .LVU280
 1070 0284 0420     		moveq	r0, #4
 1071 0286 11E7     		b	.L69
 1072              	.LVL117:
 1073              	.L159:
 295:Src/register_interface.c ****         }
 1074              		.loc 1 295 11 view .LVU281
 1075 0288 D028     		cmp	r0, #208
 1076 028a 00F02C81 		beq	.L66
 1077 028e B0F5887F 		cmp	r0, #272
 1078 0292 44D1     		bne	.L166
 258:Src/register_interface.c ****           break;
 1079              		.loc 1 258 11 is_stmt 1 view .LVU282
 1080 0294 5648     		ldr	r0, .L174+12
 1081              	.LVL118:
 258:Src/register_interface.c ****           break;
 1082              		.loc 1 258 11 is_stmt 0 view .LVU283
 1083 0296 09B2     		sxth	r1, r1
 258:Src/register_interface.c ****           break;
 1084              		.loc 1 258 11 view .LVU284
 1085 0298 FFF7FEFF 		bl	PID_SetKD
 1086              	.LVL119:
 259:Src/register_interface.c ****         }
 1087              		.loc 1 259 11 is_stmt 1 view .LVU285
 1088              	.LBE87:
 182:Src/register_interface.c ****   uint8_t motorID=0;
 1089              		.loc 1 182 11 is_stmt 0 view .LVU286
 1090 029c 0020     		movs	r0, #0
 1091              	.LBB88:
 259:Src/register_interface.c ****         }
 1092              		.loc 1 259 11 view .LVU287
 1093 029e 05E7     		b	.L69
 1094              	.LVL120:
ARM GAS  C:\Users\ep_ygh\AppData\Local\Temp\ccSYahLu.s 			page 48


 1095              	.L161:
 259:Src/register_interface.c ****         }
 1096              		.loc 1 259 11 view .LVU288
 1097 02a0 41F21042 		movw	r2, #5136
 1098 02a4 9042     		cmp	r0, r2
 1099 02a6 00F0DF80 		beq	.L85
 1100 02aa 41F25042 		movw	r2, #5200
 1101 02ae 9042     		cmp	r0, r2
 1102 02b0 1DD1     		bne	.L167
 371:Src/register_interface.c ****           break;
 1103              		.loc 1 371 11 is_stmt 1 view .LVU289
 1104 02b2 4F48     		ldr	r0, .L174+12
 1105              	.LVL121:
 371:Src/register_interface.c ****           break;
 1106              		.loc 1 371 11 is_stmt 0 view .LVU290
 1107 02b4 FFF7FEFF 		bl	PID_SetKPDivisorPOW2
 1108              	.LVL122:
 372:Src/register_interface.c ****         }
 1109              		.loc 1 372 11 is_stmt 1 view .LVU291
 1110              	.LBE88:
 182:Src/register_interface.c ****   uint8_t motorID=0;
 1111              		.loc 1 182 11 is_stmt 0 view .LVU292
 1112 02b8 0020     		movs	r0, #0
 1113              	.LBB89:
 372:Src/register_interface.c ****         }
 1114              		.loc 1 372 11 view .LVU293
 1115 02ba F7E6     		b	.L69
 1116              	.LVL123:
 1117              	.L82:
 372:Src/register_interface.c ****         }
 1118              		.loc 1 372 11 view .LVU294
 1119 02bc 41F29062 		movw	r2, #5776
 1120 02c0 9042     		cmp	r0, r2
 1121 02c2 00F0FC80 		beq	.L91
 1122 02c6 1CD9     		bls	.L168
 1123 02c8 41F21072 		movw	r2, #5904
 1124 02cc 9042     		cmp	r0, r2
 1125 02ce 00F01081 		beq	.L96
 1126 02d2 41F65832 		movw	r2, #7000
 1127 02d6 9042     		cmp	r0, r2
 1128 02d8 3FF445AF 		beq	.L131
 1129 02dc 41F2D062 		movw	r2, #5840
 1130 02e0 9042     		cmp	r0, r2
 1131 02e2 A2D1     		bne	.L124
 431:Src/register_interface.c ****           break;
 1132              		.loc 1 431 11 is_stmt 1 view .LVU295
 1133 02e4 4348     		ldr	r0, .L174+16
 1134              	.LVL124:
 431:Src/register_interface.c ****           break;
 1135              		.loc 1 431 11 is_stmt 0 view .LVU296
 1136 02e6 FFF7FEFF 		bl	PID_SetKIDivisorPOW2
 1137              	.LVL125:
 432:Src/register_interface.c ****         }
 1138              		.loc 1 432 11 is_stmt 1 view .LVU297
 1139              	.LBE89:
 182:Src/register_interface.c ****   uint8_t motorID=0;
 1140              		.loc 1 182 11 is_stmt 0 view .LVU298
ARM GAS  C:\Users\ep_ygh\AppData\Local\Temp\ccSYahLu.s 			page 49


 1141 02ea 0020     		movs	r0, #0
 1142              	.LBB90:
 432:Src/register_interface.c ****         }
 1143              		.loc 1 432 11 view .LVU299
 1144 02ec DEE6     		b	.L69
 1145              	.LVL126:
 1146              	.L167:
 432:Src/register_interface.c ****         }
 1147              		.loc 1 432 11 view .LVU300
 1148 02ee 41F2D032 		movw	r2, #5072
 1149 02f2 9042     		cmp	r0, r2
 1150 02f4 99D1     		bne	.L124
 359:Src/register_interface.c ****           break;
 1151              		.loc 1 359 11 is_stmt 1 view .LVU301
 1152 02f6 3F48     		ldr	r0, .L174+16
 1153              	.LVL127:
 359:Src/register_interface.c ****           break;
 1154              		.loc 1 359 11 is_stmt 0 view .LVU302
 1155 02f8 09B2     		sxth	r1, r1
 359:Src/register_interface.c ****           break;
 1156              		.loc 1 359 11 view .LVU303
 1157 02fa FFF7FEFF 		bl	PID_SetKI
 1158              	.LVL128:
 360:Src/register_interface.c ****         }
 1159              		.loc 1 360 11 is_stmt 1 view .LVU304
 1160              	.LBE90:
 182:Src/register_interface.c ****   uint8_t motorID=0;
 1161              		.loc 1 182 11 is_stmt 0 view .LVU305
 1162 02fe 0020     		movs	r0, #0
 1163              	.LBB91:
 360:Src/register_interface.c ****         }
 1164              		.loc 1 360 11 view .LVU306
 1165 0300 D4E6     		b	.L69
 1166              	.LVL129:
 1167              	.L168:
 360:Src/register_interface.c ****         }
 1168              		.loc 1 360 11 view .LVU307
 1169 0302 41F21062 		movw	r2, #5648
 1170 0306 9042     		cmp	r0, r2
 1171 0308 00F0E880 		beq	.L93
 1172 030c 41F25062 		movw	r2, #5712
 1173 0310 9042     		cmp	r0, r2
 1174 0312 0CD1     		bne	.L169
 419:Src/register_interface.c ****           break;
 1175              		.loc 1 419 11 is_stmt 1 view .LVU308
 1176 0314 3548     		ldr	r0, .L174+8
 1177              	.LVL130:
 419:Src/register_interface.c ****           break;
 1178              		.loc 1 419 11 is_stmt 0 view .LVU309
 1179 0316 FFF7FEFF 		bl	PID_SetKDDivisorPOW2
 1180              	.LVL131:
 420:Src/register_interface.c ****         }
 1181              		.loc 1 420 11 is_stmt 1 view .LVU310
 1182              	.LBE91:
 182:Src/register_interface.c ****   uint8_t motorID=0;
 1183              		.loc 1 182 11 is_stmt 0 view .LVU311
 1184 031a 0020     		movs	r0, #0
ARM GAS  C:\Users\ep_ygh\AppData\Local\Temp\ccSYahLu.s 			page 50


 1185              	.LBB92:
 420:Src/register_interface.c ****         }
 1186              		.loc 1 420 11 view .LVU312
 1187 031c C6E6     		b	.L69
 1188              	.LVL132:
 1189              	.L166:
 420:Src/register_interface.c ****         }
 1190              		.loc 1 420 11 view .LVU313
 1191 031e 9028     		cmp	r0, #144
 1192 0320 83D1     		bne	.L124
 246:Src/register_interface.c ****           break;
 1193              		.loc 1 246 11 is_stmt 1 view .LVU314
 1194 0322 3348     		ldr	r0, .L174+12
 1195              	.LVL133:
 246:Src/register_interface.c ****           break;
 1196              		.loc 1 246 11 is_stmt 0 view .LVU315
 1197 0324 09B2     		sxth	r1, r1
 246:Src/register_interface.c ****           break;
 1198              		.loc 1 246 11 view .LVU316
 1199 0326 FFF7FEFF 		bl	PID_SetKP
 1200              	.LVL134:
 247:Src/register_interface.c ****         }
 1201              		.loc 1 247 11 is_stmt 1 view .LVU317
 1202              	.LBE92:
 182:Src/register_interface.c ****   uint8_t motorID=0;
 1203              		.loc 1 182 11 is_stmt 0 view .LVU318
 1204 032a 0020     		movs	r0, #0
 1205              	.LBB93:
 247:Src/register_interface.c ****         }
 1206              		.loc 1 247 11 view .LVU319
 1207 032c BEE6     		b	.L69
 1208              	.LVL135:
 1209              	.L169:
 247:Src/register_interface.c ****         }
 1210              		.loc 1 247 11 view .LVU320
 1211 032e 41F2D052 		movw	r2, #5584
 1212 0332 9042     		cmp	r0, r2
 1213 0334 7FF479AF 		bne	.L124
 407:Src/register_interface.c ****           break;
 1214              		.loc 1 407 11 is_stmt 1 view .LVU321
 1215 0338 2C48     		ldr	r0, .L174+8
 1216              	.LVL136:
 407:Src/register_interface.c ****           break;
 1217              		.loc 1 407 11 is_stmt 0 view .LVU322
 1218 033a FFF7FEFF 		bl	PID_SetKPDivisorPOW2
 1219              	.LVL137:
 408:Src/register_interface.c ****         }
 1220              		.loc 1 408 11 is_stmt 1 view .LVU323
 1221              	.LBE93:
 182:Src/register_interface.c ****   uint8_t motorID=0;
 1222              		.loc 1 182 11 is_stmt 0 view .LVU324
 1223 033e 0020     		movs	r0, #0
 1224              	.LBB94:
 408:Src/register_interface.c ****         }
 1225              		.loc 1 408 11 view .LVU325
 1226 0340 B4E6     		b	.L69
 1227              	.LVL138:
ARM GAS  C:\Users\ep_ygh\AppData\Local\Temp\ccSYahLu.s 			page 51


 1228              	.L155:
 408:Src/register_interface.c ****         }
 1229              		.loc 1 408 11 view .LVU326
 1230              	.LBE94:
 1231              	.LBB95:
 1232 0342 A828     		cmp	r0, #168
 1233 0344 3FF4DEAE 		beq	.L147
 1234 0348 18D9     		bls	.L170
 516:Src/register_interface.c ****             break;
 1235              		.loc 1 516 20 view .LVU327
 1236 034a E828     		cmp	r0, #232
 1237 034c 14BF     		ite	ne
 1238 034e 0520     		movne	r0, #5
 1239              	.LVL139:
 516:Src/register_interface.c ****             break;
 1240              		.loc 1 516 20 view .LVU328
 1241 0350 0420     		moveq	r0, #4
 1242              	.LBE95:
 587:Src/register_interface.c **** 
 1243              		.loc 1 587 1 view .LVU329
 1244 0352 05B0     		add	sp, sp, #20
 1245              	.LCFI28:
 1246              		.cfi_remember_state
 1247              		.cfi_def_cfa_offset 12
 1248              		@ sp needed
 1249 0354 30BD     		pop	{r4, r5, pc}
 1250              	.LVL140:
 1251              	.L100:
 1252              	.LCFI29:
 1253              		.cfi_restore_state
 1254              	.LBB96:
 1255              	.LBB71:
 1256              	.LBB70:
1327:Src/register_interface.c ****   { /* Last string char must be 0 */
 1257              		.loc 1 1327 3 is_stmt 1 view .LVU330
 1258              		.loc 1 1333 5 view .LVU331
 1259              		.loc 1 1333 21 is_stmt 0 view .LVU332
 1260 0356 0023     		movs	r3, #0
 1261 0358 8CF80030 		strb	r3, [ip]
 1262              	.LBE70:
 1263              	.LBE71:
 484:Src/register_interface.c ****       /* Used to compute String length stored in RXBUFF even if Reg does not exist */
 1264              		.loc 1 484 14 view .LVU333
 1265 035c 0420     		movs	r0, #4
 1266              	.LVL141:
 484:Src/register_interface.c ****       /* Used to compute String length stored in RXBUFF even if Reg does not exist */
 1267              		.loc 1 484 14 view .LVU334
 1268              	.LBE96:
 586:Src/register_interface.c **** }
 1269              		.loc 1 586 3 is_stmt 1 view .LVU335
 1270 035e D2E6     		b	.L171
 1271              	.LVL142:
 1272              	.L105:
 1273              	.LBB97:
 586:Src/register_interface.c **** }
 1274              		.loc 1 586 3 is_stmt 0 view .LVU336
 1275 0360 B0F56A7F 		cmp	r0, #936
ARM GAS  C:\Users\ep_ygh\AppData\Local\Temp\ccSYahLu.s 			page 52


 1276 0364 63D0     		beq	.L110
 1277 0366 B0F5A56F 		cmp	r0, #1320
 1278 036a 38D1     		bne	.L148
 565:Src/register_interface.c ****             break;
 1279              		.loc 1 565 13 is_stmt 1 view .LVU337
 565:Src/register_interface.c ****             break;
 1280              		.loc 1 565 23 is_stmt 0 view .LVU338
 1281 036c 2248     		ldr	r0, .L174+20
 1282              	.LVL143:
 565:Src/register_interface.c ****             break;
 1283              		.loc 1 565 23 view .LVU339
 1284 036e 0CF10201 		add	r1, ip, #2
 1285              	.LBE97:
 587:Src/register_interface.c **** 
 1286              		.loc 1 587 1 view .LVU340
 1287 0372 05B0     		add	sp, sp, #20
 1288              	.LCFI30:
 1289              		.cfi_remember_state
 1290              		.cfi_def_cfa_offset 12
 1291              		@ sp needed
 1292 0374 BDE83040 		pop	{r4, r5, lr}
 1293              	.LCFI31:
 1294              		.cfi_restore 14
 1295              		.cfi_restore 5
 1296              		.cfi_restore 4
 1297              		.cfi_def_cfa_offset 0
 1298              	.LVL144:
 1299              	.LBB98:
 565:Src/register_interface.c ****             break;
 1300              		.loc 1 565 23 view .LVU341
 1301 0378 FFF7FEBF 		b	MCPA_cfgLog
 1302              	.LVL145:
 1303              	.L170:
 1304              	.LCFI32:
 1305              		.cfi_restore_state
 565:Src/register_interface.c ****             break;
 1306              		.loc 1 565 23 view .LVU342
 1307 037c 20F04000 		bic	r0, r0, #64
 1308              	.LVL146:
 516:Src/register_interface.c ****             break;
 1309              		.loc 1 516 20 view .LVU343
 1310 0380 2828     		cmp	r0, #40
 1311 0382 14BF     		ite	ne
 1312 0384 0520     		movne	r0, #5
 1313 0386 0420     		moveq	r0, #4
 1314              	.LBE98:
 587:Src/register_interface.c **** 
 1315              		.loc 1 587 1 view .LVU344
 1316 0388 05B0     		add	sp, sp, #20
 1317              	.LCFI33:
 1318              		.cfi_remember_state
 1319              		.cfi_def_cfa_offset 12
 1320              		@ sp needed
 1321 038a 30BD     		pop	{r4, r5, pc}
 1322              	.LVL147:
 1323              	.L154:
 1324              	.LCFI34:
ARM GAS  C:\Users\ep_ygh\AppData\Local\Temp\ccSYahLu.s 			page 53


 1325              		.cfi_restore_state
 1326              	.LBB99:
 504:Src/register_interface.c ****         retVal = MCP_ERROR_BAD_RAW_FORMAT; /* This error stop the parsing of the CMD buffer */
 1327              		.loc 1 504 9 is_stmt 1 view .LVU345
 504:Src/register_interface.c ****         retVal = MCP_ERROR_BAD_RAW_FORMAT; /* This error stop the parsing of the CMD buffer */
 1328              		.loc 1 504 15 is_stmt 0 view .LVU346
 1329 038c 0022     		movs	r2, #0
 1330 038e 2A80     		strh	r2, [r5]	@ movhi
 505:Src/register_interface.c ****       }
 1331              		.loc 1 505 9 is_stmt 1 view .LVU347
 1332              	.LVL148:
 505:Src/register_interface.c ****       }
 1333              		.loc 1 505 16 is_stmt 0 view .LVU348
 1334 0390 0A20     		movs	r0, #10
 1335              	.LVL149:
 505:Src/register_interface.c ****       }
 1336              		.loc 1 505 16 view .LVU349
 1337 0392 54E6     		b	.L143
 1338              	.LVL150:
 1339              	.L127:
 505:Src/register_interface.c ****       }
 1340              		.loc 1 505 16 view .LVU350
 1341              	.LBE99:
 182:Src/register_interface.c ****   uint8_t motorID=0;
 1342              		.loc 1 182 11 view .LVU351
 1343 0394 0020     		movs	r0, #0
 1344              	.LVL151:
 182:Src/register_interface.c ****   uint8_t motorID=0;
 1345              		.loc 1 182 11 view .LVU352
 1346 0396 89E6     		b	.L69
 1347              	.LVL152:
 1348              	.L99:
 1349              	.LBB100:
 466:Src/register_interface.c ****           break;
 1350              		.loc 1 466 11 is_stmt 1 view .LVU353
 1351 0398 B2F90020 		ldrsh	r2, [r2]
 1352              	.LVL153:
 466:Src/register_interface.c ****           break;
 1353              		.loc 1 466 11 is_stmt 0 view .LVU354
 1354 039c 1749     		ldr	r1, .L174+24
 1355 039e 1148     		ldr	r0, .L174
 1356              	.LVL154:
 466:Src/register_interface.c ****           break;
 1357              		.loc 1 466 11 view .LVU355
 1358 03a0 81FB0231 		smull	r3, r1, r1, r2
 1359 03a4 A1EBE271 		sub	r1, r1, r2, asr #31
 1360 03a8 09B2     		sxth	r1, r1
 1361 03aa 0022     		movs	r2, #0
 1362 03ac FFF7FEFF 		bl	MCI_ExecSpeedRamp
 1363              	.LVL155:
 467:Src/register_interface.c ****         }
 1364              		.loc 1 467 11 is_stmt 1 view .LVU356
 1365              	.LBE100:
 182:Src/register_interface.c ****   uint8_t motorID=0;
 1366              		.loc 1 182 11 is_stmt 0 view .LVU357
 1367 03b0 0020     		movs	r0, #0
 1368              	.LBB101:
ARM GAS  C:\Users\ep_ygh\AppData\Local\Temp\ccSYahLu.s 			page 54


 467:Src/register_interface.c ****         }
 1369              		.loc 1 467 11 view .LVU358
 1370 03b2 89E6     		b	.L98
 1371              	.LVL156:
 1372              	.L55:
 467:Src/register_interface.c ****         }
 1373              		.loc 1 467 11 view .LVU359
 1374              	.LBE101:
 1375              	.LBB102:
 200:Src/register_interface.c ****           if ((uint8_t)MCM_TORQUE_MODE == regdata8)
 1376              		.loc 1 200 11 is_stmt 1 view .LVU360
 200:Src/register_interface.c ****           if ((uint8_t)MCM_TORQUE_MODE == regdata8)
 1377              		.loc 1 200 19 is_stmt 0 view .LVU361
 1378 03b4 1278     		ldrb	r2, [r2]	@ zero_extendqisi2
 1379              	.LVL157:
 201:Src/register_interface.c ****           {
 1380              		.loc 1 201 11 is_stmt 1 view .LVU362
 201:Src/register_interface.c ****           {
 1381              		.loc 1 201 14 is_stmt 0 view .LVU363
 1382 03b6 042A     		cmp	r2, #4
 1383 03b8 03D0     		beq	.L172
 208:Src/register_interface.c **** 
 1384              		.loc 1 208 11 is_stmt 1 view .LVU364
 210:Src/register_interface.c ****           {
 1385              		.loc 1 210 11 view .LVU365
 210:Src/register_interface.c ****           {
 1386              		.loc 1 210 14 is_stmt 0 view .LVU366
 1387 03ba 032A     		cmp	r2, #3
 1388 03bc 44D0     		beq	.L173
 1389              	.LBE102:
 182:Src/register_interface.c ****   uint8_t motorID=0;
 1390              		.loc 1 182 11 view .LVU367
 1391 03be 0020     		movs	r0, #0
 1392              	.LVL158:
 182:Src/register_interface.c ****   uint8_t motorID=0;
 1393              		.loc 1 182 11 view .LVU368
 1394 03c0 4DE6     		b	.L57
 1395              	.LVL159:
 1396              	.L172:
 1397              	.LBB103:
 203:Src/register_interface.c ****           }
 1398              		.loc 1 203 13 is_stmt 1 view .LVU369
 1399 03c2 0848     		ldr	r0, .L174
 1400              	.LVL160:
 203:Src/register_interface.c ****           }
 1401              		.loc 1 203 13 is_stmt 0 view .LVU370
 1402 03c4 FFF7FEFF 		bl	MCI_GetTeref
 1403              	.LVL161:
 203:Src/register_interface.c ****           }
 1404              		.loc 1 203 13 view .LVU371
 1405 03c8 0022     		movs	r2, #0
 1406 03ca 0146     		mov	r1, r0
 1407 03cc 0548     		ldr	r0, .L174
 1408 03ce FFF7FEFF 		bl	MCI_ExecTorqueRamp
 1409              	.LVL162:
 208:Src/register_interface.c **** 
 1410              		.loc 1 208 11 is_stmt 1 view .LVU372
ARM GAS  C:\Users\ep_ygh\AppData\Local\Temp\ccSYahLu.s 			page 55


 210:Src/register_interface.c ****           {
 1411              		.loc 1 210 11 view .LVU373
 1412              	.LBE103:
 182:Src/register_interface.c ****   uint8_t motorID=0;
 1413              		.loc 1 182 11 is_stmt 0 view .LVU374
 1414 03d2 0020     		movs	r0, #0
 1415 03d4 43E6     		b	.L57
 1416              	.LVL163:
 1417              	.L113:
 194:Src/register_interface.c ****             break;
 1418              		.loc 1 194 20 view .LVU375
 1419 03d6 0420     		movs	r0, #4
 1420              	.LVL164:
 194:Src/register_interface.c ****             break;
 1421              		.loc 1 194 20 view .LVU376
 1422 03d8 41E6     		b	.L57
 1423              	.LVL165:
 1424              	.L132:
 1425              	.LBB104:
 460:Src/register_interface.c ****           break;
 1426              		.loc 1 460 18 view .LVU377
 1427 03da 0420     		movs	r0, #4
 1428              	.LVL166:
 460:Src/register_interface.c ****           break;
 1429              		.loc 1 460 18 view .LVU378
 1430 03dc 74E6     		b	.L98
 1431              	.LVL167:
 1432              	.L148:
 460:Src/register_interface.c ****           break;
 1433              		.loc 1 460 18 view .LVU379
 1434              	.LBE104:
 1435              	.LBB105:
 1436 03de 0520     		movs	r0, #5
 1437              	.LVL168:
 460:Src/register_interface.c ****           break;
 1438              		.loc 1 460 18 view .LVU380
 1439 03e0 2DE6     		b	.L143
 1440              	.L175:
 1441 03e2 00BF     		.align	2
 1442              	.L174:
 1443 03e4 00000000 		.word	Mci
 1444 03e8 00000000 		.word	PIDIdHandle_M1
 1445 03ec 00000000 		.word	PIDIqHandle_M1
 1446 03f0 00000000 		.word	PIDSpeedHandle_M1
 1447 03f4 00000000 		.word	PID_PosParamsM1
 1448 03f8 00000000 		.word	MCPA_UART_A
 1449 03fc ABAAAA2A 		.word	715827883
 1450              	.LVL169:
 1451              	.L106:
 1452              	.LBB75:
 522:Src/register_interface.c ****             uint16_t duration;
 1453              		.loc 1 522 13 is_stmt 1 view .LVU381
 523:Src/register_interface.c **** 
 1454              		.loc 1 523 13 view .LVU382
 525:Src/register_interface.c ****             duration = *(uint16_t *)&rawData[4]; //cstat !MISRAC2012-Rule-11.3
 1455              		.loc 1 525 13 view .LVU383
 526:Src/register_interface.c ****             MCI_ExecSpeedRamp(pMCIN, (int16_t)((rpm * SPEED_UNIT) / U_RPM), duration);
ARM GAS  C:\Users\ep_ygh\AppData\Local\Temp\ccSYahLu.s 			page 56


 1456              		.loc 1 526 13 view .LVU384
 527:Src/register_interface.c ****             break;
 1457              		.loc 1 527 13 view .LVU385
 527:Src/register_interface.c ****             break;
 1458              		.loc 1 527 67 is_stmt 0 view .LVU386
 1459 0400 DCF80210 		ldr	r1, [ip, #2]
 1460 0404 3D4B     		ldr	r3, .L176
 527:Src/register_interface.c ****             break;
 1461              		.loc 1 527 13 view .LVU387
 1462 0406 BCF80620 		ldrh	r2, [ip, #6]
 527:Src/register_interface.c ****             break;
 1463              		.loc 1 527 67 view .LVU388
 1464 040a 83FB0103 		smull	r0, r3, r3, r1
 1465              	.LVL170:
 527:Src/register_interface.c ****             break;
 1466              		.loc 1 527 67 view .LVU389
 1467 040e A3EBE171 		sub	r1, r3, r1, asr #31
 527:Src/register_interface.c ****             break;
 1468              		.loc 1 527 13 view .LVU390
 1469 0412 3B48     		ldr	r0, .L176+4
 1470 0414 09B2     		sxth	r1, r1
 1471 0416 FFF7FEFF 		bl	MCI_ExecSpeedRamp
 1472              	.LVL171:
 528:Src/register_interface.c ****           }
 1473              		.loc 1 528 13 is_stmt 1 view .LVU391
 1474              	.LBE75:
 1475              	.LBE105:
 182:Src/register_interface.c ****   uint8_t motorID=0;
 1476              		.loc 1 182 11 is_stmt 0 view .LVU392
 1477 041a 0020     		movs	r0, #0
 1478              	.LBB106:
 1479              	.LBB76:
 528:Src/register_interface.c ****           }
 1480              		.loc 1 528 13 view .LVU393
 1481 041c 0FE6     		b	.L143
 1482              	.LVL172:
 1483              	.L104:
 528:Src/register_interface.c ****           }
 1484              		.loc 1 528 13 view .LVU394
 1485              	.LBE76:
 1486              	.LBB77:
 556:Src/register_interface.c ****             currComp.q = *((int16_t *) rawData); //cstat !MISRAC2012-Rule-11.3
 1487              		.loc 1 556 13 is_stmt 1 view .LVU395
 557:Src/register_interface.c ****             currComp.d = *((int16_t *) &rawData[2]); //cstat !MISRAC2012-Rule-11.3
 1488              		.loc 1 557 13 view .LVU396
 558:Src/register_interface.c ****             MCI_SetCurrentReferences(pMCIN, currComp);
 1489              		.loc 1 558 13 view .LVU397
 557:Src/register_interface.c ****             currComp.d = *((int16_t *) &rawData[2]); //cstat !MISRAC2012-Rule-11.3
 1490              		.loc 1 557 26 is_stmt 0 view .LVU398
 1491 041e DCF80210 		ldr	r1, [ip, #2]	@ unaligned
 559:Src/register_interface.c ****             break;
 1492              		.loc 1 559 13 view .LVU399
 1493 0422 3748     		ldr	r0, .L176+4
 1494              	.LVL173:
 557:Src/register_interface.c ****             currComp.d = *((int16_t *) &rawData[2]); //cstat !MISRAC2012-Rule-11.3
 1495              		.loc 1 557 24 view .LVU400
 1496 0424 0391     		str	r1, [sp, #12]
ARM GAS  C:\Users\ep_ygh\AppData\Local\Temp\ccSYahLu.s 			page 57


 559:Src/register_interface.c ****             break;
 1497              		.loc 1 559 13 is_stmt 1 view .LVU401
 1498 0426 FFF7FEFF 		bl	MCI_SetCurrentReferences
 1499              	.LVL174:
 560:Src/register_interface.c ****           }
 1500              		.loc 1 560 13 view .LVU402
 1501              	.LBE77:
 1502              	.LBE106:
 182:Src/register_interface.c ****   uint8_t motorID=0;
 1503              		.loc 1 182 11 is_stmt 0 view .LVU403
 1504 042a 0020     		movs	r0, #0
 1505 042c 07E6     		b	.L143
 1506              	.LVL175:
 1507              	.L110:
 1508              	.LBB107:
 1509              	.LBB78:
 544:Src/register_interface.c ****             FloatToU32 Duration;
 1510              		.loc 1 544 13 is_stmt 1 view .LVU404
 545:Src/register_interface.c ****             /* 32 bits access are split into 2x16 bits access */
 1511              		.loc 1 545 13 view .LVU405
 547:Src/register_interface.c ****             /* 32 bits access are split into 2x16 bits access */
 1512              		.loc 1 547 13 view .LVU406
 549:Src/register_interface.c ****             MCI_ExecPositionCommand(pMCIN, Position.Float_Val, Duration.Float_Val);
 1513              		.loc 1 549 13 view .LVU407
 550:Src/register_interface.c ****             break;
 1514              		.loc 1 550 13 view .LVU408
 1515 042e DCF80630 		ldr	r3, [ip, #6]	@ unaligned
 1516 0432 3348     		ldr	r0, .L176+4
 1517              	.LVL176:
 550:Src/register_interface.c ****             break;
 1518              		.loc 1 550 13 is_stmt 0 view .LVU409
 1519 0434 00EE903A 		vmov	s1, r3	@ int
 1520 0438 DCF80230 		ldr	r3, [ip, #2]	@ unaligned
 1521 043c 00EE103A 		vmov	s0, r3	@ int
 1522 0440 FFF7FEFF 		bl	MCI_ExecPositionCommand
 1523              	.LVL177:
 551:Src/register_interface.c ****           }
 1524              		.loc 1 551 13 is_stmt 1 view .LVU410
 551:Src/register_interface.c ****           }
 1525              		.loc 1 551 13 is_stmt 0 view .LVU411
 1526              	.LBE78:
 1527              	.LBE107:
 182:Src/register_interface.c ****   uint8_t motorID=0;
 1528              		.loc 1 182 11 view .LVU412
 1529 0444 0020     		movs	r0, #0
 1530 0446 FAE5     		b	.L143
 1531              	.LVL178:
 1532              	.L173:
 1533              	.LBB108:
 212:Src/register_interface.c ****           }
 1534              		.loc 1 212 13 is_stmt 1 view .LVU413
 1535 0448 2D48     		ldr	r0, .L176+4
 1536              	.LVL179:
 212:Src/register_interface.c ****           }
 1537              		.loc 1 212 13 is_stmt 0 view .LVU414
 1538 044a FFF7FEFF 		bl	MCI_GetMecSpeedRefUnit
 1539              	.LVL180:
ARM GAS  C:\Users\ep_ygh\AppData\Local\Temp\ccSYahLu.s 			page 58


 212:Src/register_interface.c ****           }
 1540              		.loc 1 212 13 view .LVU415
 1541 044e 0022     		movs	r2, #0
 1542 0450 0146     		mov	r1, r0
 1543 0452 2B48     		ldr	r0, .L176+4
 1544 0454 FFF7FEFF 		bl	MCI_ExecSpeedRamp
 1545              	.LVL181:
 1546              	.LBE108:
 182:Src/register_interface.c ****   uint8_t motorID=0;
 1547              		.loc 1 182 11 view .LVU416
 1548 0458 0020     		movs	r0, #0
 1549              	.LBB109:
 1550 045a 00E6     		b	.L57
 1551              	.LVL182:
 1552              	.L60:
 182:Src/register_interface.c ****   uint8_t motorID=0;
 1553              		.loc 1 182 11 view .LVU417
 1554              	.LBE109:
 1555              	.LBB110:
 353:Src/register_interface.c ****           break;
 1556              		.loc 1 353 11 is_stmt 1 view .LVU418
 1557 045c 2948     		ldr	r0, .L176+8
 1558              	.LVL183:
 353:Src/register_interface.c ****           break;
 1559              		.loc 1 353 11 is_stmt 0 view .LVU419
 1560 045e 09B2     		sxth	r1, r1
 353:Src/register_interface.c ****           break;
 1561              		.loc 1 353 11 view .LVU420
 1562 0460 FFF7FEFF 		bl	PID_SetKP
 1563              	.LVL184:
 354:Src/register_interface.c ****         }
 1564              		.loc 1 354 11 is_stmt 1 view .LVU421
 1565              	.LBE110:
 182:Src/register_interface.c ****   uint8_t motorID=0;
 1566              		.loc 1 182 11 is_stmt 0 view .LVU422
 1567 0464 0020     		movs	r0, #0
 1568              	.LBB111:
 354:Src/register_interface.c ****         }
 1569              		.loc 1 354 11 view .LVU423
 1570 0466 21E6     		b	.L69
 1571              	.LVL185:
 1572              	.L85:
 365:Src/register_interface.c ****           break;
 1573              		.loc 1 365 11 is_stmt 1 view .LVU424
 1574 0468 2648     		ldr	r0, .L176+8
 1575              	.LVL186:
 365:Src/register_interface.c ****           break;
 1576              		.loc 1 365 11 is_stmt 0 view .LVU425
 1577 046a 09B2     		sxth	r1, r1
 365:Src/register_interface.c ****           break;
 1578              		.loc 1 365 11 view .LVU426
 1579 046c FFF7FEFF 		bl	PID_SetKD
 1580              	.LVL187:
 366:Src/register_interface.c ****         }
 1581              		.loc 1 366 11 is_stmt 1 view .LVU427
 1582              	.LBE111:
 182:Src/register_interface.c ****   uint8_t motorID=0;
ARM GAS  C:\Users\ep_ygh\AppData\Local\Temp\ccSYahLu.s 			page 59


 1583              		.loc 1 182 11 is_stmt 0 view .LVU428
 1584 0470 0020     		movs	r0, #0
 1585              	.LBB112:
 366:Src/register_interface.c ****         }
 1586              		.loc 1 366 11 view .LVU429
 1587 0472 1BE6     		b	.L69
 1588              	.LVL188:
 1589              	.L70:
 276:Src/register_interface.c ****           break;
 1590              		.loc 1 276 11 is_stmt 1 view .LVU430
 1591 0474 2448     		ldr	r0, .L176+12
 1592              	.LVL189:
 276:Src/register_interface.c ****           break;
 1593              		.loc 1 276 11 is_stmt 0 view .LVU431
 1594 0476 09B2     		sxth	r1, r1
 276:Src/register_interface.c ****           break;
 1595              		.loc 1 276 11 view .LVU432
 1596 0478 FFF7FEFF 		bl	PID_SetKD
 1597              	.LVL190:
 277:Src/register_interface.c ****         }
 1598              		.loc 1 277 11 is_stmt 1 view .LVU433
 1599              	.LBE112:
 182:Src/register_interface.c ****   uint8_t motorID=0;
 1600              		.loc 1 182 11 is_stmt 0 view .LVU434
 1601 047c 0020     		movs	r0, #0
 1602              	.LBB113:
 277:Src/register_interface.c ****         }
 1603              		.loc 1 277 11 view .LVU435
 1604 047e 15E6     		b	.L69
 1605              	.LVL191:
 1606              	.L81:
 401:Src/register_interface.c ****           break;
 1607              		.loc 1 401 11 is_stmt 1 view .LVU436
 1608 0480 2248     		ldr	r0, .L176+16
 1609              	.LVL192:
 401:Src/register_interface.c ****           break;
 1610              		.loc 1 401 11 is_stmt 0 view .LVU437
 1611 0482 FFF7FEFF 		bl	PID_SetKDDivisorPOW2
 1612              	.LVL193:
 402:Src/register_interface.c ****         }
 1613              		.loc 1 402 11 is_stmt 1 view .LVU438
 1614              	.LBE113:
 182:Src/register_interface.c ****   uint8_t motorID=0;
 1615              		.loc 1 182 11 is_stmt 0 view .LVU439
 1616 0486 0020     		movs	r0, #0
 1617              	.LBB114:
 402:Src/register_interface.c ****         }
 1618              		.loc 1 402 11 view .LVU440
 1619 0488 10E6     		b	.L69
 1620              	.LVL194:
 1621              	.L64:
 264:Src/register_interface.c ****           break;
 1622              		.loc 1 264 11 is_stmt 1 view .LVU441
 1623 048a 1F48     		ldr	r0, .L176+12
 1624              	.LVL195:
 264:Src/register_interface.c ****           break;
 1625              		.loc 1 264 11 is_stmt 0 view .LVU442
ARM GAS  C:\Users\ep_ygh\AppData\Local\Temp\ccSYahLu.s 			page 60


 1626 048c 09B2     		sxth	r1, r1
 264:Src/register_interface.c ****           break;
 1627              		.loc 1 264 11 view .LVU443
 1628 048e FFF7FEFF 		bl	PID_SetKP
 1629              	.LVL196:
 265:Src/register_interface.c ****         }
 1630              		.loc 1 265 11 is_stmt 1 view .LVU444
 1631              	.LBE114:
 182:Src/register_interface.c ****   uint8_t motorID=0;
 1632              		.loc 1 182 11 is_stmt 0 view .LVU445
 1633 0492 0020     		movs	r0, #0
 1634              	.LBB115:
 265:Src/register_interface.c ****         }
 1635              		.loc 1 265 11 view .LVU446
 1636 0494 0AE6     		b	.L69
 1637              	.LVL197:
 1638              	.L73:
 1639              	.LBB64:
 320:Src/register_interface.c ****           currComp = MCI_GetIqdref(pMCIN);
 1640              		.loc 1 320 11 is_stmt 1 view .LVU447
 321:Src/register_interface.c ****           currComp.q = (int16_t)regdata16;
 1641              		.loc 1 321 11 view .LVU448
 321:Src/register_interface.c ****           currComp.q = (int16_t)regdata16;
 1642              		.loc 1 321 22 is_stmt 0 view .LVU449
 1643 0496 1A48     		ldr	r0, .L176+4
 1644              	.LVL198:
 321:Src/register_interface.c ****           currComp.q = (int16_t)regdata16;
 1645              		.loc 1 321 22 view .LVU450
 1646 0498 0191     		str	r1, [sp, #4]
 1647 049a FFF7FEFF 		bl	MCI_GetIqdref
 1648              	.LVL199:
 322:Src/register_interface.c ****           MCI_SetCurrentReferences(pMCIN,currComp);
 1649              		.loc 1 322 22 view .LVU451
 1650 049e 0199     		ldr	r1, [sp, #4]
 321:Src/register_interface.c ****           currComp.q = (int16_t)regdata16;
 1651              		.loc 1 321 22 view .LVU452
 1652 04a0 0390     		str	r0, [sp, #12]
 322:Src/register_interface.c ****           MCI_SetCurrentReferences(pMCIN,currComp);
 1653              		.loc 1 322 11 is_stmt 1 view .LVU453
 322:Src/register_interface.c ****           MCI_SetCurrentReferences(pMCIN,currComp);
 1654              		.loc 1 322 22 is_stmt 0 view .LVU454
 1655 04a2 ADF80C10 		strh	r1, [sp, #12]	@ movhi
 323:Src/register_interface.c ****           break;
 1656              		.loc 1 323 11 is_stmt 1 view .LVU455
 1657 04a6 1648     		ldr	r0, .L176+4
 1658 04a8 0399     		ldr	r1, [sp, #12]
 1659 04aa FFF7FEFF 		bl	MCI_SetCurrentReferences
 1660              	.LVL200:
 324:Src/register_interface.c ****         }
 1661              		.loc 1 324 11 view .LVU456
 1662              	.LBE64:
 1663              	.LBE115:
 182:Src/register_interface.c ****   uint8_t motorID=0;
 1664              		.loc 1 182 11 is_stmt 0 view .LVU457
 1665 04ae 0020     		movs	r0, #0
 1666 04b0 FCE5     		b	.L69
 1667              	.LVL201:
ARM GAS  C:\Users\ep_ygh\AppData\Local\Temp\ccSYahLu.s 			page 61


 1668              	.L62:
 1669              	.LBB116:
 288:Src/register_interface.c ****           break;
 1670              		.loc 1 288 11 is_stmt 1 view .LVU458
 1671 04b2 1648     		ldr	r0, .L176+16
 1672              	.LVL202:
 288:Src/register_interface.c ****           break;
 1673              		.loc 1 288 11 is_stmt 0 view .LVU459
 1674 04b4 09B2     		sxth	r1, r1
 288:Src/register_interface.c ****           break;
 1675              		.loc 1 288 11 view .LVU460
 1676 04b6 FFF7FEFF 		bl	PID_SetKI
 1677              	.LVL203:
 289:Src/register_interface.c ****         }
 1678              		.loc 1 289 11 is_stmt 1 view .LVU461
 1679              	.LBE116:
 182:Src/register_interface.c ****   uint8_t motorID=0;
 1680              		.loc 1 182 11 is_stmt 0 view .LVU462
 1681 04ba 0020     		movs	r0, #0
 1682              	.LBB117:
 289:Src/register_interface.c ****         }
 1683              		.loc 1 289 11 view .LVU463
 1684 04bc F6E5     		b	.L69
 1685              	.LVL204:
 1686              	.L91:
 425:Src/register_interface.c ****           break;
 1687              		.loc 1 425 11 is_stmt 1 view .LVU464
 1688 04be 1148     		ldr	r0, .L176+8
 1689              	.LVL205:
 425:Src/register_interface.c ****           break;
 1690              		.loc 1 425 11 is_stmt 0 view .LVU465
 1691 04c0 FFF7FEFF 		bl	PID_SetKPDivisorPOW2
 1692              	.LVL206:
 426:Src/register_interface.c ****         }
 1693              		.loc 1 426 11 is_stmt 1 view .LVU466
 1694              	.LBE117:
 182:Src/register_interface.c ****   uint8_t motorID=0;
 1695              		.loc 1 182 11 is_stmt 0 view .LVU467
 1696 04c4 0020     		movs	r0, #0
 1697              	.LBB118:
 426:Src/register_interface.c ****         }
 1698              		.loc 1 426 11 view .LVU468
 1699 04c6 F1E5     		b	.L69
 1700              	.LVL207:
 1701              	.L83:
 377:Src/register_interface.c ****           break;
 1702              		.loc 1 377 11 is_stmt 1 view .LVU469
 1703 04c8 1148     		ldr	r0, .L176+20
 1704              	.LVL208:
 377:Src/register_interface.c ****           break;
 1705              		.loc 1 377 11 is_stmt 0 view .LVU470
 1706 04ca FFF7FEFF 		bl	PID_SetKIDivisorPOW2
 1707              	.LVL209:
 378:Src/register_interface.c ****         }
 1708              		.loc 1 378 11 is_stmt 1 view .LVU471
 1709              	.LBE118:
 182:Src/register_interface.c ****   uint8_t motorID=0;
ARM GAS  C:\Users\ep_ygh\AppData\Local\Temp\ccSYahLu.s 			page 62


 1710              		.loc 1 182 11 is_stmt 0 view .LVU472
 1711 04ce 0020     		movs	r0, #0
 1712              	.LBB119:
 378:Src/register_interface.c ****         }
 1713              		.loc 1 378 11 view .LVU473
 1714 04d0 ECE5     		b	.L69
 1715              	.LVL210:
 1716              	.L88:
 389:Src/register_interface.c ****           break;
 1717              		.loc 1 389 11 is_stmt 1 view .LVU474
 1718 04d2 0E48     		ldr	r0, .L176+16
 1719              	.LVL211:
 389:Src/register_interface.c ****           break;
 1720              		.loc 1 389 11 is_stmt 0 view .LVU475
 1721 04d4 FFF7FEFF 		bl	PID_SetKPDivisorPOW2
 1722              	.LVL212:
 390:Src/register_interface.c ****         }
 1723              		.loc 1 390 11 is_stmt 1 view .LVU476
 1724              	.LBE119:
 182:Src/register_interface.c ****   uint8_t motorID=0;
 1725              		.loc 1 182 11 is_stmt 0 view .LVU477
 1726 04d8 0020     		movs	r0, #0
 1727              	.LBB120:
 390:Src/register_interface.c ****         }
 1728              		.loc 1 390 11 view .LVU478
 1729 04da E7E5     		b	.L69
 1730              	.LVL213:
 1731              	.L93:
 413:Src/register_interface.c ****           break;
 1732              		.loc 1 413 11 is_stmt 1 view .LVU479
 1733 04dc 0A48     		ldr	r0, .L176+12
 1734              	.LVL214:
 413:Src/register_interface.c ****           break;
 1735              		.loc 1 413 11 is_stmt 0 view .LVU480
 1736 04de FFF7FEFF 		bl	PID_SetKIDivisorPOW2
 1737              	.LVL215:
 414:Src/register_interface.c ****         }
 1738              		.loc 1 414 11 is_stmt 1 view .LVU481
 1739              	.LBE120:
 182:Src/register_interface.c ****   uint8_t motorID=0;
 1740              		.loc 1 182 11 is_stmt 0 view .LVU482
 1741 04e2 0020     		movs	r0, #0
 1742              	.LBB121:
 414:Src/register_interface.c ****         }
 1743              		.loc 1 414 11 view .LVU483
 1744 04e4 E2E5     		b	.L69
 1745              	.LVL216:
 1746              	.L66:
 252:Src/register_interface.c ****           break;
 1747              		.loc 1 252 11 is_stmt 1 view .LVU484
 1748 04e6 0A48     		ldr	r0, .L176+20
 1749              	.LVL217:
 252:Src/register_interface.c ****           break;
 1750              		.loc 1 252 11 is_stmt 0 view .LVU485
 1751 04e8 09B2     		sxth	r1, r1
 252:Src/register_interface.c ****           break;
 1752              		.loc 1 252 11 view .LVU486
ARM GAS  C:\Users\ep_ygh\AppData\Local\Temp\ccSYahLu.s 			page 63


 1753 04ea FFF7FEFF 		bl	PID_SetKI
 1754              	.LVL218:
 253:Src/register_interface.c ****         }
 1755              		.loc 1 253 11 is_stmt 1 view .LVU487
 1756              	.LBE121:
 182:Src/register_interface.c ****   uint8_t motorID=0;
 1757              		.loc 1 182 11 is_stmt 0 view .LVU488
 1758 04ee 0020     		movs	r0, #0
 1759              	.LBB122:
 253:Src/register_interface.c ****         }
 1760              		.loc 1 253 11 view .LVU489
 1761 04f0 DCE5     		b	.L69
 1762              	.LVL219:
 1763              	.L96:
 437:Src/register_interface.c ****           break;
 1764              		.loc 1 437 11 is_stmt 1 view .LVU490
 1765 04f2 0448     		ldr	r0, .L176+8
 1766              	.LVL220:
 437:Src/register_interface.c ****           break;
 1767              		.loc 1 437 11 is_stmt 0 view .LVU491
 1768 04f4 FFF7FEFF 		bl	PID_SetKDDivisorPOW2
 1769              	.LVL221:
 438:Src/register_interface.c ****         }
 1770              		.loc 1 438 11 is_stmt 1 view .LVU492
 1771              	.LBE122:
 182:Src/register_interface.c ****   uint8_t motorID=0;
 1772              		.loc 1 182 11 is_stmt 0 view .LVU493
 1773 04f8 0020     		movs	r0, #0
 1774              	.LBB123:
 438:Src/register_interface.c ****         }
 1775              		.loc 1 438 11 view .LVU494
 1776 04fa D7E5     		b	.L69
 1777              	.L177:
 1778              		.align	2
 1779              	.L176:
 1780 04fc ABAAAA2A 		.word	715827883
 1781 0500 00000000 		.word	Mci
 1782 0504 00000000 		.word	PID_PosParamsM1
 1783 0508 00000000 		.word	PIDIqHandle_M1
 1784 050c 00000000 		.word	PIDIdHandle_M1
 1785 0510 00000000 		.word	PIDSpeedHandle_M1
 1786              	.LBE123:
 1787              		.cfi_endproc
 1788              	.LFE1091:
 1790              		.section	.text.RI_GetRegisterGlobal,"ax",%progbits
 1791              		.align	1
 1792              		.p2align 2,,3
 1793              		.global	RI_GetRegisterGlobal
 1794              		.syntax unified
 1795              		.thumb
 1796              		.thumb_func
 1798              	RI_GetRegisterGlobal:
 1799              	.LVL222:
 1800              	.LFB1092:
 589:Src/register_interface.c ****     uint8_t retVal = MCP_CMD_OK;
 1801              		.loc 1 589 108 is_stmt 1 view -0
 1802              		.cfi_startproc
ARM GAS  C:\Users\ep_ygh\AppData\Local\Temp\ccSYahLu.s 			page 64


 1803              		@ args = 4, pretend = 0, frame = 8
 1804              		@ frame_needed = 0, uses_anonymous_args = 0
 590:Src/register_interface.c ****     uint8_t motorID=0;
 1805              		.loc 1 590 5 view .LVU496
 591:Src/register_interface.c ****     MCI_Handle_t *pMCIN = &Mci[motorID];
 1806              		.loc 1 591 5 view .LVU497
 592:Src/register_interface.c ****     switch (typeID)
 1807              		.loc 1 592 5 view .LVU498
 593:Src/register_interface.c ****     {
 1808              		.loc 1 593 5 view .LVU499
 589:Src/register_interface.c ****     uint8_t retVal = MCP_CMD_OK;
 1809              		.loc 1 589 108 is_stmt 0 view .LVU500
 1810 0000 30B5     		push	{r4, r5, lr}
 1811              	.LCFI35:
 1812              		.cfi_def_cfa_offset 12
 1813              		.cfi_offset 4, -12
 1814              		.cfi_offset 5, -8
 1815              		.cfi_offset 14, -4
 1816 0002 83B0     		sub	sp, sp, #12
 1817              	.LCFI36:
 1818              		.cfi_def_cfa_offset 24
 593:Src/register_interface.c ****     {
 1819              		.loc 1 593 5 view .LVU501
 1820 0004 A1F1080C 		sub	ip, r1, #8
 589:Src/register_interface.c ****     uint8_t retVal = MCP_CMD_OK;
 1821              		.loc 1 589 108 view .LVU502
 1822 0008 BDF918E0 		ldrsh	lr, [sp, #24]
 1823 000c 1446     		mov	r4, r2
 1824 000e 1D46     		mov	r5, r3
 593:Src/register_interface.c ****     {
 1825              		.loc 1 593 5 view .LVU503
 1826 0010 BCF1200F 		cmp	ip, #32
 1827 0014 12D8     		bhi	.L205
 1828 0016 DFE80CF0 		tbb	[pc, ip]
 1829              	.LVL223:
 1830              	.L181:
 1831 001a 1D       		.byte	(.L185-.L181)/2
 1832 001b 11       		.byte	(.L205-.L181)/2
 1833 001c 11       		.byte	(.L205-.L181)/2
 1834 001d 11       		.byte	(.L205-.L181)/2
 1835 001e 11       		.byte	(.L205-.L181)/2
 1836 001f 11       		.byte	(.L205-.L181)/2
 1837 0020 11       		.byte	(.L205-.L181)/2
 1838 0021 11       		.byte	(.L205-.L181)/2
 1839 0022 3B       		.byte	(.L184-.L181)/2
 1840 0023 11       		.byte	(.L205-.L181)/2
 1841 0024 11       		.byte	(.L205-.L181)/2
 1842 0025 11       		.byte	(.L205-.L181)/2
 1843 0026 11       		.byte	(.L205-.L181)/2
 1844 0027 11       		.byte	(.L205-.L181)/2
 1845 0028 11       		.byte	(.L205-.L181)/2
 1846 0029 11       		.byte	(.L205-.L181)/2
 1847 002a 24       		.byte	(.L183-.L181)/2
 1848 002b 11       		.byte	(.L205-.L181)/2
 1849 002c 11       		.byte	(.L205-.L181)/2
 1850 002d 11       		.byte	(.L205-.L181)/2
 1851 002e 11       		.byte	(.L205-.L181)/2
ARM GAS  C:\Users\ep_ygh\AppData\Local\Temp\ccSYahLu.s 			page 65


 1852 002f 11       		.byte	(.L205-.L181)/2
 1853 0030 11       		.byte	(.L205-.L181)/2
 1854 0031 11       		.byte	(.L205-.L181)/2
 1855 0032 4F       		.byte	(.L182-.L181)/2
 1856 0033 11       		.byte	(.L205-.L181)/2
 1857 0034 11       		.byte	(.L205-.L181)/2
 1858 0035 11       		.byte	(.L205-.L181)/2
 1859 0036 11       		.byte	(.L205-.L181)/2
 1860 0037 11       		.byte	(.L205-.L181)/2
 1861 0038 11       		.byte	(.L205-.L181)/2
 1862 0039 11       		.byte	(.L205-.L181)/2
 1863 003a 14       		.byte	(.L180-.L181)/2
 1864 003b 00       		.p2align 1
 1865              	.L205:
 593:Src/register_interface.c ****     {
 1866              		.loc 1 593 5 view .LVU504
 1867 003c 0720     		movs	r0, #7
 1868              	.LVL224:
 1869              	.L225:
 770:Src/register_interface.c **** 
 1870              		.loc 1 770 1 view .LVU505
 1871 003e 03B0     		add	sp, sp, #12
 1872              	.LCFI37:
 1873              		.cfi_remember_state
 1874              		.cfi_def_cfa_offset 12
 1875              		@ sp needed
 1876 0040 30BD     		pop	{r4, r5, pc}
 1877              	.LVL225:
 1878              	.L180:
 1879              	.LCFI38:
 1880              		.cfi_restore_state
 1881              	.LBB124:
 728:Src/register_interface.c ****         uint8_t * rawData = data;
 1882              		.loc 1 728 9 is_stmt 1 view .LVU506
 729:Src/register_interface.c ****         rawData++;
 1883              		.loc 1 729 9 view .LVU507
 730:Src/register_interface.c ****         rawData++;
 1884              		.loc 1 730 9 view .LVU508
 731:Src/register_interface.c **** 
 1885              		.loc 1 731 9 view .LVU509
 733:Src/register_interface.c ****         {
 1886              		.loc 1 733 9 view .LVU510
 1887 0042 2828     		cmp	r0, #40
 1888 0044 51D0     		beq	.L203
 759:Src/register_interface.c ****         break;
 1889              		.loc 1 759 28 is_stmt 0 view .LVU511
 1890 0046 1288     		ldrh	r2, [r2]
 1891              	.LVL226:
 759:Src/register_interface.c ****         break;
 1892              		.loc 1 759 28 view .LVU512
 1893 0048 0232     		adds	r2, r2, #2
 753:Src/register_interface.c ****             break;
 1894              		.loc 1 753 20 view .LVU513
 1895 004a 0520     		movs	r0, #5
 1896              	.LVL227:
 759:Src/register_interface.c ****         break;
 1897              		.loc 1 759 28 view .LVU514
ARM GAS  C:\Users\ep_ygh\AppData\Local\Temp\ccSYahLu.s 			page 66


 1898 004c 92B2     		uxth	r2, r2
 1899              	.LVL228:
 1900              	.L204:
 759:Src/register_interface.c ****         break;
 1901              		.loc 1 759 9 is_stmt 1 view .LVU515
 759:Src/register_interface.c ****         break;
 1902              		.loc 1 759 15 is_stmt 0 view .LVU516
 1903 004e 2A80     		strh	r2, [r5]	@ movhi
 760:Src/register_interface.c ****       }
 1904              		.loc 1 760 9 is_stmt 1 view .LVU517
 1905              	.LBE124:
 770:Src/register_interface.c **** 
 1906              		.loc 1 770 1 is_stmt 0 view .LVU518
 1907 0050 03B0     		add	sp, sp, #12
 1908              	.LCFI39:
 1909              		.cfi_remember_state
 1910              		.cfi_def_cfa_offset 12
 1911              		@ sp needed
 1912 0052 30BD     		pop	{r4, r5, pc}
 1913              	.LVL229:
 1914              	.L185:
 1915              	.LCFI40:
 1916              		.cfi_restore_state
 597:Src/register_interface.c ****         {
 1917              		.loc 1 597 9 is_stmt 1 view .LVU519
 597:Src/register_interface.c ****         {
 1918              		.loc 1 597 12 is_stmt 0 view .LVU520
 1919 0054 BEF1000F 		cmp	lr, #0
 1920 0058 45DD     		ble	.L206
 599:Src/register_interface.c ****           {
 1921              		.loc 1 599 11 is_stmt 1 view .LVU521
 603:Src/register_interface.c ****               break;
 1922              		.loc 1 603 15 view .LVU522
 1923              	.LVL230:
 604:Src/register_interface.c ****             }
 1924              		.loc 1 604 15 view .LVU523
 607:Src/register_interface.c ****         }
 1925              		.loc 1 607 11 view .LVU524
 607:Src/register_interface.c ****         }
 1926              		.loc 1 607 17 is_stmt 0 view .LVU525
 1927 005a 0122     		movs	r2, #1
 1928              	.LVL231:
 607:Src/register_interface.c ****         }
 1929              		.loc 1 607 17 view .LVU526
 1930 005c 2A80     		strh	r2, [r5]	@ movhi
 603:Src/register_interface.c ****               break;
 1931              		.loc 1 603 22 view .LVU527
 1932 005e 0520     		movs	r0, #5
 1933              	.LVL232:
 603:Src/register_interface.c ****               break;
 1934              		.loc 1 603 22 view .LVU528
 1935 0060 EDE7     		b	.L225
 1936              	.LVL233:
 1937              	.L183:
 1938              	.LBB125:
 655:Src/register_interface.c ****         if (freeSpace >= 4)
 1939              		.loc 1 655 9 is_stmt 1 view .LVU529
ARM GAS  C:\Users\ep_ygh\AppData\Local\Temp\ccSYahLu.s 			page 67


 656:Src/register_interface.c ****         {
 1940              		.loc 1 656 9 view .LVU530
 656:Src/register_interface.c ****         {
 1941              		.loc 1 656 12 is_stmt 0 view .LVU531
 1942 0062 BEF1030F 		cmp	lr, #3
 1943 0066 3BDD     		ble	.L210
 658:Src/register_interface.c ****           {
 1944              		.loc 1 658 11 is_stmt 1 view .LVU532
 1945 0068 41F25861 		movw	r1, #5720
 1946              	.LVL234:
 658:Src/register_interface.c ****           {
 1947              		.loc 1 658 11 is_stmt 0 view .LVU533
 1948 006c 8842     		cmp	r0, r1
 1949 006e 00F0A480 		beq	.L190
 1950 0072 41F29861 		movw	r1, #5784
 1951 0076 8842     		cmp	r0, r1
 1952 0078 00F09580 		beq	.L191
 1953 007c 41F21861 		movw	r1, #5656
 1954 0080 8842     		cmp	r0, r1
 1955 0082 00F08680 		beq	.L228
 1956 0086 0520     		movs	r0, #5
 1957              	.LVL235:
 1958              	.L192:
 690:Src/register_interface.c ****         }
 1959              		.loc 1 690 11 is_stmt 1 view .LVU534
 690:Src/register_interface.c ****         }
 1960              		.loc 1 690 17 is_stmt 0 view .LVU535
 1961 0088 0422     		movs	r2, #4
 1962 008a 2A80     		strh	r2, [r5]	@ movhi
 1963              	.LBE125:
 770:Src/register_interface.c **** 
 1964              		.loc 1 770 1 view .LVU536
 1965 008c 03B0     		add	sp, sp, #12
 1966              	.LCFI41:
 1967              		.cfi_remember_state
 1968              		.cfi_def_cfa_offset 12
 1969              		@ sp needed
 1970 008e 30BD     		pop	{r4, r5, pc}
 1971              	.LVL236:
 1972              	.L184:
 1973              	.LCFI42:
 1974              		.cfi_restore_state
 1975              	.LBB129:
 618:Src/register_interface.c ****         if (freeSpace >= 2)
 1976              		.loc 1 618 8 is_stmt 1 view .LVU537
 619:Src/register_interface.c ****         {
 1977              		.loc 1 619 9 view .LVU538
 619:Src/register_interface.c ****         {
 1978              		.loc 1 619 12 is_stmt 0 view .LVU539
 1979 0090 BEF1010F 		cmp	lr, #1
 1980 0094 24DD     		ble	.L210
 621:Src/register_interface.c ****           {
 1981              		.loc 1 621 11 is_stmt 1 view .LVU540
 1982 0096 B0F5D26F 		cmp	r0, #1680
 1983 009a 73D0     		beq	.L186
 1984 009c 14D8     		bhi	.L187
 1985 009e B0F5CA6F 		cmp	r0, #1616
ARM GAS  C:\Users\ep_ygh\AppData\Local\Temp\ccSYahLu.s 			page 68


 1986 00a2 6DD1     		bne	.L229
 625:Src/register_interface.c ****               break;
 1987              		.loc 1 625 15 view .LVU541
 625:Src/register_interface.c ****               break;
 1988              		.loc 1 625 37 is_stmt 0 view .LVU542
 1989 00a4 4A48     		ldr	r0, .L232
 1990              	.LVL237:
 625:Src/register_interface.c ****               break;
 1991              		.loc 1 625 37 view .LVU543
 1992 00a6 0021     		movs	r1, #0
 1993              	.LVL238:
 625:Src/register_interface.c ****               break;
 1994              		.loc 1 625 37 view .LVU544
 1995 00a8 FFF7FEFF 		bl	DAC_GetChannelConfig
 1996              	.LVL239:
 625:Src/register_interface.c ****               break;
 1997              		.loc 1 625 26 view .LVU545
 1998 00ac 2080     		strh	r0, [r4]	@ movhi
 626:Src/register_interface.c ****             }
 1999              		.loc 1 626 15 is_stmt 1 view .LVU546
 2000              	.LBE129:
 590:Src/register_interface.c ****     uint8_t motorID=0;
 2001              		.loc 1 590 13 is_stmt 0 view .LVU547
 2002 00ae 0020     		movs	r0, #0
 2003              	.L189:
 2004              	.LVL240:
 2005              	.LBB130:
 644:Src/register_interface.c ****         }
 2006              		.loc 1 644 11 is_stmt 1 view .LVU548
 644:Src/register_interface.c ****         }
 2007              		.loc 1 644 17 is_stmt 0 view .LVU549
 2008 00b0 0222     		movs	r2, #2
 2009 00b2 2A80     		strh	r2, [r5]	@ movhi
 2010              	.L230:
 644:Src/register_interface.c ****         }
 2011              		.loc 1 644 17 view .LVU550
 2012              	.LBE130:
 770:Src/register_interface.c **** 
 2013              		.loc 1 770 1 view .LVU551
 2014 00b4 03B0     		add	sp, sp, #12
 2015              	.LCFI43:
 2016              		.cfi_remember_state
 2017              		.cfi_def_cfa_offset 12
 2018              		@ sp needed
 2019 00b6 30BD     		pop	{r4, r5, pc}
 2020              	.LVL241:
 2021              	.L182:
 2022              	.LCFI44:
 2023              		.cfi_restore_state
 2024              	.LBB131:
 701:Src/register_interface.c ****         switch (regID)
 2025              		.loc 1 701 9 is_stmt 1 view .LVU552
 702:Src/register_interface.c ****         {
 2026              		.loc 1 702 9 view .LVU553
 2027 00b8 2028     		cmp	r0, #32
 2028 00ba 3AD0     		beq	.L193
 2029 00bc 6028     		cmp	r0, #96
ARM GAS  C:\Users\ep_ygh\AppData\Local\Temp\ccSYahLu.s 			page 69


 2030 00be 1ED0     		beq	.L194
 716:Src/register_interface.c ****             *size= 0 ; /* */
 2031              		.loc 1 716 13 view .LVU554
 2032              	.LVL242:
 717:Src/register_interface.c **** 
 2033              		.loc 1 717 13 view .LVU555
 717:Src/register_interface.c **** 
 2034              		.loc 1 717 18 is_stmt 0 view .LVU556
 2035 00c0 0022     		movs	r2, #0
 2036              	.LVL243:
 717:Src/register_interface.c **** 
 2037              		.loc 1 717 18 view .LVU557
 2038 00c2 2A80     		strh	r2, [r5]	@ movhi
 719:Src/register_interface.c ****           }
 2039              		.loc 1 719 13 is_stmt 1 view .LVU558
 716:Src/register_interface.c ****             *size= 0 ; /* */
 2040              		.loc 1 716 20 is_stmt 0 view .LVU559
 2041 00c4 0520     		movs	r0, #5
 2042              	.LVL244:
 719:Src/register_interface.c ****           }
 2043              		.loc 1 719 13 view .LVU560
 2044 00c6 BAE7     		b	.L225
 2045              	.LVL245:
 2046              	.L187:
 719:Src/register_interface.c ****           }
 2047              		.loc 1 719 13 view .LVU561
 2048              	.LBE131:
 2049              	.LBB144:
 2050 00c8 B0F5656F 		cmp	r0, #3664
 2051 00cc 56D0     		beq	.L208
 2052              	.LBE144:
 590:Src/register_interface.c ****     uint8_t motorID=0;
 2053              		.loc 1 590 13 view .LVU562
 2054 00ce B0F5696F 		cmp	r0, #3728
 2055              	.LBB145:
 644:Src/register_interface.c ****         }
 2056              		.loc 1 644 17 view .LVU563
 2057 00d2 4FF00202 		mov	r2, #2
 2058              	.LVL246:
 644:Src/register_interface.c ****         }
 2059              		.loc 1 644 17 view .LVU564
 2060              	.LBE145:
 590:Src/register_interface.c ****     uint8_t motorID=0;
 2061              		.loc 1 590 13 view .LVU565
 2062 00d6 14BF     		ite	ne
 2063 00d8 0520     		movne	r0, #5
 2064              	.LVL247:
 590:Src/register_interface.c ****     uint8_t motorID=0;
 2065              		.loc 1 590 13 view .LVU566
 2066 00da 0020     		moveq	r0, #0
 2067              	.LVL248:
 2068              	.LBB146:
 644:Src/register_interface.c ****         }
 2069              		.loc 1 644 11 is_stmt 1 view .LVU567
 644:Src/register_interface.c ****         }
 2070              		.loc 1 644 17 is_stmt 0 view .LVU568
 2071 00dc 2A80     		strh	r2, [r5]	@ movhi
ARM GAS  C:\Users\ep_ygh\AppData\Local\Temp\ccSYahLu.s 			page 70


 2072 00de E9E7     		b	.L230
 2073              	.LVL249:
 2074              	.L210:
 644:Src/register_interface.c ****         }
 2075              		.loc 1 644 17 view .LVU569
 2076              	.LBE146:
 611:Src/register_interface.c ****         }
 2077              		.loc 1 611 18 view .LVU570
 2078 00e0 0820     		movs	r0, #8
 2079              	.LVL250:
 770:Src/register_interface.c **** 
 2080              		.loc 1 770 1 view .LVU571
 2081 00e2 03B0     		add	sp, sp, #12
 2082              	.LCFI45:
 2083              		.cfi_remember_state
 2084              		.cfi_def_cfa_offset 12
 2085              		@ sp needed
 2086 00e4 30BD     		pop	{r4, r5, pc}
 2087              	.LVL251:
 2088              	.L206:
 2089              	.LCFI46:
 2090              		.cfi_restore_state
 611:Src/register_interface.c ****         }
 2091              		.loc 1 611 18 view .LVU572
 2092 00e6 0846     		mov	r0, r1
 2093              	.LVL252:
 611:Src/register_interface.c ****         }
 2094              		.loc 1 611 18 view .LVU573
 2095 00e8 A9E7     		b	.L225
 2096              	.LVL253:
 2097              	.L203:
 2098              	.LBB147:
 737:Src/register_interface.c ****             if (((*rawSize) + 2U) > (uint16_t)freeSpace)
 2099              		.loc 1 737 13 is_stmt 1 view .LVU574
 738:Src/register_interface.c ****             {
 2100              		.loc 1 738 16 is_stmt 0 view .LVU575
 2101 00ea 1FFA8EFE 		uxth	lr, lr
 737:Src/register_interface.c ****             if (((*rawSize) + 2U) > (uint16_t)freeSpace)
 2102              		.loc 1 737 22 view .LVU576
 2103 00ee 0A21     		movs	r1, #10
 2104              	.LVL254:
 738:Src/register_interface.c ****             {
 2105              		.loc 1 738 16 view .LVU577
 2106 00f0 BEF10B0F 		cmp	lr, #11
 737:Src/register_interface.c ****             if (((*rawSize) + 2U) > (uint16_t)freeSpace)
 2107              		.loc 1 737 22 view .LVU578
 2108 00f4 1180     		strh	r1, [r2]	@ movhi
 738:Src/register_interface.c ****             {
 2109              		.loc 1 738 13 is_stmt 1 view .LVU579
 738:Src/register_interface.c ****             {
 2110              		.loc 1 738 16 is_stmt 0 view .LVU580
 2111 00f6 34D8     		bhi	.L231
 2112 00f8 0C22     		movs	r2, #12
 2113              	.LVL255:
 740:Src/register_interface.c ****             }
 2114              		.loc 1 740 22 view .LVU581
 2115 00fa 0820     		movs	r0, #8
ARM GAS  C:\Users\ep_ygh\AppData\Local\Temp\ccSYahLu.s 			page 71


 2116              	.LVL256:
 740:Src/register_interface.c ****             }
 2117              		.loc 1 740 22 view .LVU582
 2118 00fc A7E7     		b	.L204
 2119              	.LVL257:
 2120              	.L194:
 740:Src/register_interface.c ****             }
 2121              		.loc 1 740 22 view .LVU583
 2122              	.LBE147:
 2123              	.LBB148:
 710:Src/register_interface.c ****             break;
 2124              		.loc 1 710 13 is_stmt 1 view .LVU584
 2125              	.LBB132:
 2126              	.LBI132:
1312:Src/register_interface.c **** {
 2127              		.loc 1 1312 9 view .LVU585
 2128              	.LBB133:
1314:Src/register_interface.c ****   const char_t *tempsrcString = srcString;
 2129              		.loc 1 1314 3 view .LVU586
1315:Src/register_interface.c ****   char_t *tempdestString = destString;
 2130              		.loc 1 1315 3 view .LVU587
1316:Src/register_interface.c ****   *size= 1U ; /* /0 is the min String size */
 2131              		.loc 1 1316 3 view .LVU588
1317:Src/register_interface.c **** 
 2132              		.loc 1 1317 3 view .LVU589
1319:Src/register_interface.c ****   {
 2133              		.loc 1 1319 11 is_stmt 0 view .LVU590
 2134 00fe 354B     		ldr	r3, .L232+4
 2135 0100 93F90000 		ldrsb	r0, [r3]
 2136              	.LVL258:
1317:Src/register_interface.c **** 
 2137              		.loc 1 1317 8 view .LVU591
 2138 0104 0121     		movs	r1, #1
 2139              	.LVL259:
1317:Src/register_interface.c **** 
 2140              		.loc 1 1317 8 view .LVU592
 2141 0106 2980     		strh	r1, [r5]	@ movhi
1319:Src/register_interface.c ****   {
 2142              		.loc 1 1319 3 is_stmt 1 view .LVU593
1319:Src/register_interface.c ****   {
 2143              		.loc 1 1319 9 view .LVU594
 2144 0108 80B1     		cbz	r0, .L199
 2145              	.LBE133:
 2146              	.LBE132:
 2147              	.LBB136:
 2148              	.LBB137:
1319:Src/register_interface.c ****   {
 2149              		.loc 1 1319 50 is_stmt 0 view .LVU595
 2150 010a 1FFA8EFE 		uxth	lr, lr
1319:Src/register_interface.c ****   {
 2151              		.loc 1 1319 50 view .LVU596
 2152              	.LBE137:
 2153              	.LBE136:
 2154              	.LBB140:
 2155              	.LBB134:
1315:Src/register_interface.c ****   char_t *tempdestString = destString;
 2156              		.loc 1 1315 17 view .LVU597
ARM GAS  C:\Users\ep_ygh\AppData\Local\Temp\ccSYahLu.s 			page 72


 2157 010e 9C46     		mov	ip, r3
 2158 0110 08E0     		b	.L200
 2159              	.LVL260:
 2160              	.L201:
1321:Src/register_interface.c ****     tempdestString++;
 2161              		.loc 1 1321 21 view .LVU598
 2162 0112 04F8010B 		strb	r0, [r4], #1
 2163              	.LVL261:
1322:Src/register_interface.c ****     tempsrcString++;
 2164              		.loc 1 1322 5 is_stmt 1 view .LVU599
1323:Src/register_interface.c ****     *size = *size + 1U;
 2165              		.loc 1 1323 5 view .LVU600
1324:Src/register_interface.c ****   }
 2166              		.loc 1 1324 5 view .LVU601
1324:Src/register_interface.c ****   }
 2167              		.loc 1 1324 19 is_stmt 0 view .LVU602
 2168 0116 2988     		ldrh	r1, [r5]
 2169 0118 0131     		adds	r1, r1, #1
 2170 011a 89B2     		uxth	r1, r1
1324:Src/register_interface.c ****   }
 2171              		.loc 1 1324 11 view .LVU603
 2172 011c 2980     		strh	r1, [r5]	@ movhi
1319:Src/register_interface.c ****   {
 2173              		.loc 1 1319 9 is_stmt 1 view .LVU604
1319:Src/register_interface.c ****   {
 2174              		.loc 1 1319 11 is_stmt 0 view .LVU605
 2175 011e 1CF9010F 		ldrsb	r0, [ip, #1]!
 2176              	.LVL262:
1319:Src/register_interface.c ****   {
 2177              		.loc 1 1319 9 view .LVU606
 2178 0122 18B1     		cbz	r0, .L199
 2179              	.LVL263:
 2180              	.L200:
1321:Src/register_interface.c ****     tempdestString++;
 2181              		.loc 1 1321 5 is_stmt 1 view .LVU607
1319:Src/register_interface.c ****   {
 2182              		.loc 1 1319 40 is_stmt 0 view .LVU608
 2183 0124 8E45     		cmp	lr, r1
 2184 0126 F4D8     		bhi	.L201
 2185              	.LVL264:
 2186              	.L202:
1319:Src/register_interface.c ****   {
 2187              		.loc 1 1319 40 view .LVU609
 2188              	.LBE134:
 2189              	.LBE140:
 2190              	.LBB141:
 2191              	.LBB138:
1329:Src/register_interface.c ****   }
 2192              		.loc 1 1329 12 view .LVU610
 2193 0128 0620     		movs	r0, #6
 2194 012a 88E7     		b	.L225
 2195              	.L199:
 2196              	.LBE138:
 2197              	.LBE141:
 2198              	.LBB142:
 2199              	.LBB135:
1327:Src/register_interface.c ****   { /* Last string char must be 0 */
ARM GAS  C:\Users\ep_ygh\AppData\Local\Temp\ccSYahLu.s 			page 73


 2200              		.loc 1 1327 3 is_stmt 1 view .LVU611
 2201              		.loc 1 1333 5 view .LVU612
 2202              		.loc 1 1333 21 is_stmt 0 view .LVU613
 2203 012c 0020     		movs	r0, #0
 2204 012e 2070     		strb	r0, [r4]
 2205              	.LVL265:
 2206              		.loc 1 1333 21 view .LVU614
 2207              	.LBE135:
 2208              	.LBE142:
 2209              	.LBE148:
 769:Src/register_interface.c **** }
 2210              		.loc 1 769 3 is_stmt 1 view .LVU615
 769:Src/register_interface.c **** }
 2211              		.loc 1 769 10 is_stmt 0 view .LVU616
 2212 0130 85E7     		b	.L225
 2213              	.LVL266:
 2214              	.L193:
 2215              	.LBB149:
 705:Src/register_interface.c ****             break;
 2216              		.loc 1 705 13 is_stmt 1 view .LVU617
 2217              	.LBB143:
 2218              	.LBI136:
1312:Src/register_interface.c **** {
 2219              		.loc 1 1312 9 view .LVU618
 2220              	.LBB139:
1314:Src/register_interface.c ****   const char_t *tempsrcString = srcString;
 2221              		.loc 1 1314 3 view .LVU619
1315:Src/register_interface.c ****   char_t *tempdestString = destString;
 2222              		.loc 1 1315 3 view .LVU620
1316:Src/register_interface.c ****   *size= 1U ; /* /0 is the min String size */
 2223              		.loc 1 1316 3 view .LVU621
1317:Src/register_interface.c **** 
 2224              		.loc 1 1317 3 view .LVU622
1319:Src/register_interface.c ****   {
 2225              		.loc 1 1319 11 is_stmt 0 view .LVU623
 2226 0132 294B     		ldr	r3, .L232+8
 2227 0134 93F90000 		ldrsb	r0, [r3]
 2228              	.LVL267:
1317:Src/register_interface.c **** 
 2229              		.loc 1 1317 8 view .LVU624
 2230 0138 0121     		movs	r1, #1
 2231              	.LVL268:
1317:Src/register_interface.c **** 
 2232              		.loc 1 1317 8 view .LVU625
 2233 013a 2980     		strh	r1, [r5]	@ movhi
1319:Src/register_interface.c ****   {
 2234              		.loc 1 1319 3 is_stmt 1 view .LVU626
1319:Src/register_interface.c ****   {
 2235              		.loc 1 1319 9 view .LVU627
 2236 013c 0028     		cmp	r0, #0
 2237 013e F5D0     		beq	.L199
1319:Src/register_interface.c ****   {
 2238              		.loc 1 1319 50 is_stmt 0 view .LVU628
 2239 0140 1FFA8EFE 		uxth	lr, lr
1315:Src/register_interface.c ****   char_t *tempdestString = destString;
 2240              		.loc 1 1315 17 view .LVU629
 2241 0144 9C46     		mov	ip, r3
ARM GAS  C:\Users\ep_ygh\AppData\Local\Temp\ccSYahLu.s 			page 74


 2242 0146 09E0     		b	.L197
 2243              	.LVL269:
 2244              	.L198:
1321:Src/register_interface.c ****     tempdestString++;
 2245              		.loc 1 1321 21 view .LVU630
 2246 0148 04F8010B 		strb	r0, [r4], #1
 2247              	.LVL270:
1322:Src/register_interface.c ****     tempsrcString++;
 2248              		.loc 1 1322 5 is_stmt 1 view .LVU631
1323:Src/register_interface.c ****     *size = *size + 1U;
 2249              		.loc 1 1323 5 view .LVU632
1324:Src/register_interface.c ****   }
 2250              		.loc 1 1324 5 view .LVU633
1324:Src/register_interface.c ****   }
 2251              		.loc 1 1324 19 is_stmt 0 view .LVU634
 2252 014c 2988     		ldrh	r1, [r5]
 2253 014e 0131     		adds	r1, r1, #1
 2254 0150 89B2     		uxth	r1, r1
1324:Src/register_interface.c ****   }
 2255              		.loc 1 1324 11 view .LVU635
 2256 0152 2980     		strh	r1, [r5]	@ movhi
1319:Src/register_interface.c ****   {
 2257              		.loc 1 1319 9 is_stmt 1 view .LVU636
1319:Src/register_interface.c ****   {
 2258              		.loc 1 1319 11 is_stmt 0 view .LVU637
 2259 0154 1CF9010F 		ldrsb	r0, [ip, #1]!
 2260              	.LVL271:
1319:Src/register_interface.c ****   {
 2261              		.loc 1 1319 9 view .LVU638
 2262 0158 0028     		cmp	r0, #0
 2263 015a E7D0     		beq	.L199
 2264              	.LVL272:
 2265              	.L197:
1321:Src/register_interface.c ****     tempdestString++;
 2266              		.loc 1 1321 5 is_stmt 1 view .LVU639
1319:Src/register_interface.c ****   {
 2267              		.loc 1 1319 40 is_stmt 0 view .LVU640
 2268 015c 7145     		cmp	r1, lr
 2269 015e F3D3     		bcc	.L198
1319:Src/register_interface.c ****   {
 2270              		.loc 1 1319 40 view .LVU641
 2271 0160 E2E7     		b	.L202
 2272              	.LVL273:
 2273              	.L231:
1319:Src/register_interface.c ****   {
 2274              		.loc 1 1319 40 view .LVU642
 2275              	.LBE139:
 2276              	.LBE143:
 2277              	.LBE149:
 2278              	.LBB150:
 744:Src/register_interface.c ****             }
 2279              		.loc 1 744 15 is_stmt 1 view .LVU643
 744:Src/register_interface.c ****             }
 2280              		.loc 1 744 21 is_stmt 0 view .LVU644
 2281 0162 1E49     		ldr	r1, .L232+12
 2282 0164 4868     		ldr	r0, [r1, #4]	@ unaligned
 2283              	.LVL274:
ARM GAS  C:\Users\ep_ygh\AppData\Local\Temp\ccSYahLu.s 			page 75


 744:Src/register_interface.c ****             }
 2284              		.loc 1 744 21 view .LVU645
 2285 0166 D1F800C0 		ldr	ip, [r1]	@ unaligned
 2286 016a 0989     		ldrh	r1, [r1, #8]	@ unaligned
 2287 016c C2F80600 		str	r0, [r2, #6]	@ unaligned
 2288 0170 C2F802C0 		str	ip, [r2, #2]	@ unaligned
 2289 0174 5181     		strh	r1, [r2, #10]	@ unaligned
 2290              	.LBE150:
 590:Src/register_interface.c ****     uint8_t motorID=0;
 2291              		.loc 1 590 13 view .LVU646
 2292 0176 0020     		movs	r0, #0
 2293              	.LBB151:
 744:Src/register_interface.c ****             }
 2294              		.loc 1 744 21 view .LVU647
 2295 0178 0C22     		movs	r2, #12
 2296              	.LVL275:
 744:Src/register_interface.c ****             }
 2297              		.loc 1 744 21 view .LVU648
 2298 017a 68E7     		b	.L204
 2299              	.LVL276:
 2300              	.L208:
 744:Src/register_interface.c ****             }
 2301              		.loc 1 744 21 view .LVU649
 2302              	.LBE151:
 590:Src/register_interface.c ****     uint8_t motorID=0;
 2303              		.loc 1 590 13 view .LVU650
 2304 017c 0020     		movs	r0, #0
 2305              	.LVL277:
 590:Src/register_interface.c ****     uint8_t motorID=0;
 2306              		.loc 1 590 13 view .LVU651
 2307 017e 97E7     		b	.L189
 2308              	.LVL278:
 2309              	.L229:
 2310              	.LBB152:
 590:Src/register_interface.c ****     uint8_t motorID=0;
 2311              		.loc 1 590 13 view .LVU652
 2312 0180 0520     		movs	r0, #5
 2313              	.LVL279:
 590:Src/register_interface.c ****     uint8_t motorID=0;
 2314              		.loc 1 590 13 view .LVU653
 2315 0182 95E7     		b	.L189
 2316              	.LVL280:
 2317              	.L186:
 631:Src/register_interface.c ****               break;
 2318              		.loc 1 631 15 is_stmt 1 view .LVU654
 631:Src/register_interface.c ****               break;
 2319              		.loc 1 631 37 is_stmt 0 view .LVU655
 2320 0184 1248     		ldr	r0, .L232
 2321              	.LVL281:
 631:Src/register_interface.c ****               break;
 2322              		.loc 1 631 37 view .LVU656
 2323 0186 0121     		movs	r1, #1
 2324              	.LVL282:
 631:Src/register_interface.c ****               break;
 2325              		.loc 1 631 37 view .LVU657
 2326 0188 FFF7FEFF 		bl	DAC_GetChannelConfig
 2327              	.LVL283:
ARM GAS  C:\Users\ep_ygh\AppData\Local\Temp\ccSYahLu.s 			page 76


 631:Src/register_interface.c ****               break;
 2328              		.loc 1 631 26 view .LVU658
 2329 018c 2080     		strh	r0, [r4]	@ movhi
 632:Src/register_interface.c ****             }
 2330              		.loc 1 632 15 is_stmt 1 view .LVU659
 2331              	.LBE152:
 590:Src/register_interface.c ****     uint8_t motorID=0;
 2332              		.loc 1 590 13 is_stmt 0 view .LVU660
 2333 018e 0020     		movs	r0, #0
 2334              	.LBB153:
 632:Src/register_interface.c ****             }
 2335              		.loc 1 632 15 view .LVU661
 2336 0190 8EE7     		b	.L189
 2337              	.LVL284:
 2338              	.L228:
 632:Src/register_interface.c ****             }
 2339              		.loc 1 632 15 view .LVU662
 2340              	.LBE153:
 2341              	.LBB154:
 2342              	.LBB126:
 662:Src/register_interface.c ****               ReadVal.Float_Val = MC_Perf_GetCPU_Load(pMCIN->pPerfMeasure);
 2343              		.loc 1 662 15 is_stmt 1 view .LVU663
 663:Src/register_interface.c ****               *regdataU32 = ReadVal.U32_Val;
 2344              		.loc 1 663 15 view .LVU664
 663:Src/register_interface.c ****               *regdataU32 = ReadVal.U32_Val;
 2345              		.loc 1 663 60 is_stmt 0 view .LVU665
 2346 0192 1349     		ldr	r1, .L232+16
 663:Src/register_interface.c ****               *regdataU32 = ReadVal.U32_Val;
 2347              		.loc 1 663 35 view .LVU666
 2348 0194 C868     		ldr	r0, [r1, #12]
 2349              	.LVL285:
 663:Src/register_interface.c ****               *regdataU32 = ReadVal.U32_Val;
 2350              		.loc 1 663 35 view .LVU667
 2351 0196 FFF7FEFF 		bl	MC_Perf_GetCPU_Load
 2352              	.LVL286:
 663:Src/register_interface.c ****               *regdataU32 = ReadVal.U32_Val;
 2353              		.loc 1 663 35 view .LVU668
 2354 019a 8DED010A 		vstr.32	s0, [sp, #4]
 2355              	.LVL287:
 664:Src/register_interface.c ****               break;
 2356              		.loc 1 664 15 is_stmt 1 view .LVU669
 664:Src/register_interface.c ****               break;
 2357              		.loc 1 664 27 is_stmt 0 view .LVU670
 2358 019e 0199     		ldr	r1, [sp, #4]
 2359 01a0 2160     		str	r1, [r4]
 665:Src/register_interface.c ****             }
 2360              		.loc 1 665 15 is_stmt 1 view .LVU671
 2361              	.LVL288:
 665:Src/register_interface.c ****             }
 2362              		.loc 1 665 15 is_stmt 0 view .LVU672
 2363              	.LBE126:
 2364              	.LBE154:
 590:Src/register_interface.c ****     uint8_t motorID=0;
 2365              		.loc 1 590 13 view .LVU673
 2366 01a2 0020     		movs	r0, #0
 2367 01a4 70E7     		b	.L192
 2368              	.LVL289:
ARM GAS  C:\Users\ep_ygh\AppData\Local\Temp\ccSYahLu.s 			page 77


 2369              	.L191:
 2370              	.LBB155:
 2371              	.LBB127:
 678:Src/register_interface.c ****               ReadVal.Float_Val = MC_Perf_GetMaxCPU_Load(pMCIN->pPerfMeasure);
 2372              		.loc 1 678 15 is_stmt 1 view .LVU674
 679:Src/register_interface.c ****               *regdataU32 = ReadVal.U32_Val;
 2373              		.loc 1 679 15 view .LVU675
 679:Src/register_interface.c ****               *regdataU32 = ReadVal.U32_Val;
 2374              		.loc 1 679 63 is_stmt 0 view .LVU676
 2375 01a6 0E49     		ldr	r1, .L232+16
 679:Src/register_interface.c ****               *regdataU32 = ReadVal.U32_Val;
 2376              		.loc 1 679 35 view .LVU677
 2377 01a8 C868     		ldr	r0, [r1, #12]
 2378              	.LVL290:
 679:Src/register_interface.c ****               *regdataU32 = ReadVal.U32_Val;
 2379              		.loc 1 679 35 view .LVU678
 2380 01aa FFF7FEFF 		bl	MC_Perf_GetMaxCPU_Load
 2381              	.LVL291:
 679:Src/register_interface.c ****               *regdataU32 = ReadVal.U32_Val;
 2382              		.loc 1 679 35 view .LVU679
 2383 01ae 8DED010A 		vstr.32	s0, [sp, #4]
 2384              	.LVL292:
 680:Src/register_interface.c ****               break;
 2385              		.loc 1 680 15 is_stmt 1 view .LVU680
 680:Src/register_interface.c ****               break;
 2386              		.loc 1 680 27 is_stmt 0 view .LVU681
 2387 01b2 0199     		ldr	r1, [sp, #4]
 2388 01b4 2160     		str	r1, [r4]
 681:Src/register_interface.c ****             }
 2389              		.loc 1 681 15 is_stmt 1 view .LVU682
 2390              	.LVL293:
 681:Src/register_interface.c ****             }
 2391              		.loc 1 681 15 is_stmt 0 view .LVU683
 2392              	.LBE127:
 2393              	.LBE155:
 590:Src/register_interface.c ****     uint8_t motorID=0;
 2394              		.loc 1 590 13 view .LVU684
 2395 01b6 0020     		movs	r0, #0
 2396 01b8 66E7     		b	.L192
 2397              	.LVL294:
 2398              	.L190:
 2399              	.LBB156:
 2400              	.LBB128:
 670:Src/register_interface.c ****               ReadVal.Float_Val = MC_Perf_GetMinCPU_Load(pMCIN->pPerfMeasure);
 2401              		.loc 1 670 15 is_stmt 1 view .LVU685
 671:Src/register_interface.c ****               *regdataU32 = ReadVal.U32_Val;
 2402              		.loc 1 671 15 view .LVU686
 671:Src/register_interface.c ****               *regdataU32 = ReadVal.U32_Val;
 2403              		.loc 1 671 63 is_stmt 0 view .LVU687
 2404 01ba 0949     		ldr	r1, .L232+16
 671:Src/register_interface.c ****               *regdataU32 = ReadVal.U32_Val;
 2405              		.loc 1 671 35 view .LVU688
 2406 01bc C868     		ldr	r0, [r1, #12]
 2407              	.LVL295:
 671:Src/register_interface.c ****               *regdataU32 = ReadVal.U32_Val;
 2408              		.loc 1 671 35 view .LVU689
 2409 01be FFF7FEFF 		bl	MC_Perf_GetMinCPU_Load
ARM GAS  C:\Users\ep_ygh\AppData\Local\Temp\ccSYahLu.s 			page 78


 2410              	.LVL296:
 671:Src/register_interface.c ****               *regdataU32 = ReadVal.U32_Val;
 2411              		.loc 1 671 35 view .LVU690
 2412 01c2 8DED010A 		vstr.32	s0, [sp, #4]
 2413              	.LVL297:
 672:Src/register_interface.c ****               break;
 2414              		.loc 1 672 15 is_stmt 1 view .LVU691
 672:Src/register_interface.c ****               break;
 2415              		.loc 1 672 27 is_stmt 0 view .LVU692
 2416 01c6 0199     		ldr	r1, [sp, #4]
 2417 01c8 2160     		str	r1, [r4]
 673:Src/register_interface.c ****             }
 2418              		.loc 1 673 15 is_stmt 1 view .LVU693
 2419              	.LVL298:
 673:Src/register_interface.c ****             }
 2420              		.loc 1 673 15 is_stmt 0 view .LVU694
 2421              	.LBE128:
 2422              	.LBE156:
 590:Src/register_interface.c ****     uint8_t motorID=0;
 2423              		.loc 1 590 13 view .LVU695
 2424 01ca 0020     		movs	r0, #0
 2425 01cc 5CE7     		b	.L192
 2426              	.L233:
 2427 01ce 00BF     		.align	2
 2428              	.L232:
 2429 01d0 00000000 		.word	DAC_Handle
 2430 01d4 00000000 		.word	CTL_BOARD
 2431 01d8 00000000 		.word	FIRMWARE_NAME
 2432 01dc 00000000 		.word	globalConfig_reg
 2433 01e0 00000000 		.word	Mci
 2434              		.cfi_endproc
 2435              	.LFE1092:
 2437              		.section	.text.RI_GetRegisterMotor1,"ax",%progbits
 2438              		.align	1
 2439              		.p2align 2,,3
 2440              		.global	RI_GetRegisterMotor1
 2441              		.syntax unified
 2442              		.thumb
 2443              		.thumb_func
 2445              	RI_GetRegisterMotor1:
 2446              	.LVL299:
 2447              	.LFB1093:
 772:Src/register_interface.c ****     uint8_t retVal = MCP_CMD_OK;
 2448              		.loc 1 772 111 is_stmt 1 view -0
 2449              		.cfi_startproc
 2450              		@ args = 4, pretend = 0, frame = 64
 2451              		@ frame_needed = 0, uses_anonymous_args = 0
 773:Src/register_interface.c ****     uint8_t motorID=0;
 2452              		.loc 1 773 5 view .LVU697
 774:Src/register_interface.c ****     MCI_Handle_t *pMCIN = &Mci[motorID];
 2453              		.loc 1 774 5 view .LVU698
 775:Src/register_interface.c ****     BusVoltageSensor_Handle_t* BusVoltageSensor= &BusVoltageSensor_M1._Super;
 2454              		.loc 1 775 5 view .LVU699
 776:Src/register_interface.c ****     switch (typeID)
 2455              		.loc 1 776 5 view .LVU700
 777:Src/register_interface.c ****     {
 2456              		.loc 1 777 5 view .LVU701
ARM GAS  C:\Users\ep_ygh\AppData\Local\Temp\ccSYahLu.s 			page 79


 772:Src/register_interface.c ****     uint8_t retVal = MCP_CMD_OK;
 2457              		.loc 1 772 111 is_stmt 0 view .LVU702
 2458 0000 70B5     		push	{r4, r5, r6, lr}
 2459              	.LCFI47:
 2460              		.cfi_def_cfa_offset 16
 2461              		.cfi_offset 4, -16
 2462              		.cfi_offset 5, -12
 2463              		.cfi_offset 6, -8
 2464              		.cfi_offset 14, -4
 2465 0002 90B0     		sub	sp, sp, #64
 2466              	.LCFI48:
 2467              		.cfi_def_cfa_offset 80
 772:Src/register_interface.c ****     uint8_t retVal = MCP_CMD_OK;
 2468              		.loc 1 772 111 view .LVU703
 2469 0004 1D46     		mov	r5, r3
 777:Src/register_interface.c ****     {
 2470              		.loc 1 777 5 view .LVU704
 2471 0006 A1F10803 		sub	r3, r1, #8
 2472              	.LVL300:
 772:Src/register_interface.c ****     uint8_t retVal = MCP_CMD_OK;
 2473              		.loc 1 772 111 view .LVU705
 2474 000a BDF950C0 		ldrsh	ip, [sp, #80]
 2475 000e 1446     		mov	r4, r2
 777:Src/register_interface.c ****     {
 2476              		.loc 1 777 5 view .LVU706
 2477 0010 202B     		cmp	r3, #32
 2478 0012 12D8     		bhi	.L334
 2479 0014 DFE803F0 		tbb	[pc, r3]
 2480              	.LVL301:
 2481              	.L237:
 2482 0018 33       		.byte	(.L241-.L237)/2
 2483 0019 11       		.byte	(.L334-.L237)/2
 2484 001a 11       		.byte	(.L334-.L237)/2
 2485 001b 11       		.byte	(.L334-.L237)/2
 2486 001c 11       		.byte	(.L334-.L237)/2
 2487 001d 11       		.byte	(.L334-.L237)/2
 2488 001e 11       		.byte	(.L334-.L237)/2
 2489 001f 11       		.byte	(.L334-.L237)/2
 2490 0020 71       		.byte	(.L240-.L237)/2
 2491 0021 11       		.byte	(.L334-.L237)/2
 2492 0022 11       		.byte	(.L334-.L237)/2
 2493 0023 11       		.byte	(.L334-.L237)/2
 2494 0024 11       		.byte	(.L334-.L237)/2
 2495 0025 11       		.byte	(.L334-.L237)/2
 2496 0026 11       		.byte	(.L334-.L237)/2
 2497 0027 11       		.byte	(.L334-.L237)/2
 2498 0028 4C       		.byte	(.L239-.L237)/2
 2499 0029 11       		.byte	(.L334-.L237)/2
 2500 002a 11       		.byte	(.L334-.L237)/2
 2501 002b 11       		.byte	(.L334-.L237)/2
 2502 002c 11       		.byte	(.L334-.L237)/2
 2503 002d 11       		.byte	(.L334-.L237)/2
 2504 002e 11       		.byte	(.L334-.L237)/2
 2505 002f 11       		.byte	(.L334-.L237)/2
 2506 0030 67       		.byte	(.L238-.L237)/2
 2507 0031 11       		.byte	(.L334-.L237)/2
 2508 0032 11       		.byte	(.L334-.L237)/2
ARM GAS  C:\Users\ep_ygh\AppData\Local\Temp\ccSYahLu.s 			page 80


 2509 0033 11       		.byte	(.L334-.L237)/2
 2510 0034 11       		.byte	(.L334-.L237)/2
 2511 0035 11       		.byte	(.L334-.L237)/2
 2512 0036 11       		.byte	(.L334-.L237)/2
 2513 0037 11       		.byte	(.L334-.L237)/2
 2514 0038 14       		.byte	(.L236-.L237)/2
 2515 0039 00       		.p2align 1
 2516              	.L334:
 777:Src/register_interface.c ****     {
 2517              		.loc 1 777 5 view .LVU707
 2518 003a 0720     		movs	r0, #7
 2519              	.LVL302:
 2520              	.L357:
1310:Src/register_interface.c **** 
 2521              		.loc 1 1310 3 view .LVU708
 2522 003c 10B0     		add	sp, sp, #64
 2523              	.LCFI49:
 2524              		.cfi_remember_state
 2525              		.cfi_def_cfa_offset 16
 2526              		@ sp needed
 2527 003e 70BD     		pop	{r4, r5, r6, pc}
 2528              	.LVL303:
 2529              	.L236:
 2530              	.LCFI50:
 2531              		.cfi_restore_state
 2532              	.LBB157:
1178:Src/register_interface.c ****         uint8_t * rawData = data;
 2533              		.loc 1 1178 9 is_stmt 1 view .LVU709
1179:Src/register_interface.c ****         rawData++;
 2534              		.loc 1 1179 9 view .LVU710
1180:Src/register_interface.c ****         rawData++;
 2535              		.loc 1 1180 9 view .LVU711
1181:Src/register_interface.c **** 
 2536              		.loc 1 1181 9 view .LVU712
 2537 0040 B0F5D47F 		cmp	r0, #424
1181:Src/register_interface.c **** 
 2538              		.loc 1 1181 16 is_stmt 0 view .LVU713
 2539 0044 04F10203 		add	r3, r4, #2
 2540              	.LVL304:
1183:Src/register_interface.c ****         {
 2541              		.loc 1 1183 9 is_stmt 1 view .LVU714
 2542 0048 00F0A982 		beq	.L321
 2543 004c 00F28A80 		bhi	.L322
 2544 0050 E828     		cmp	r0, #232
 2545 0052 00F09A82 		beq	.L323
 2546 0056 76D8     		bhi	.L324
 2547 0058 6828     		cmp	r0, #104
 2548 005a 00F0B182 		beq	.L325
 2549 005e A828     		cmp	r0, #168
 2550 0060 40F08E82 		bne	.L327
1187:Src/register_interface.c ****             if (((*rawSize) + 2U) > (uint16_t)freeSpace)
 2551              		.loc 1 1187 13 view .LVU715
1188:Src/register_interface.c ****             {
 2552              		.loc 1 1188 16 is_stmt 0 view .LVU716
 2553 0064 1FFA8CFC 		uxth	ip, ip
1187:Src/register_interface.c ****             if (((*rawSize) + 2U) > (uint16_t)freeSpace)
 2554              		.loc 1 1187 22 view .LVU717
ARM GAS  C:\Users\ep_ygh\AppData\Local\Temp\ccSYahLu.s 			page 81


 2555 0068 1022     		movs	r2, #16
1188:Src/register_interface.c ****             {
 2556              		.loc 1 1188 16 view .LVU718
 2557 006a BCF1110F 		cmp	ip, #17
1187:Src/register_interface.c ****             if (((*rawSize) + 2U) > (uint16_t)freeSpace)
 2558              		.loc 1 1187 22 view .LVU719
 2559 006e 2280     		strh	r2, [r4]	@ movhi
1188:Src/register_interface.c ****             {
 2560              		.loc 1 1188 13 is_stmt 1 view .LVU720
1188:Src/register_interface.c ****             {
 2561              		.loc 1 1188 16 is_stmt 0 view .LVU721
 2562 0070 00F25682 		bhi	.L363
 2563 0074 1223     		movs	r3, #18
 2564              	.LVL305:
1190:Src/register_interface.c ****             }
 2565              		.loc 1 1190 22 view .LVU722
 2566 0076 0820     		movs	r0, #8
 2567              	.LVL306:
 2568              	.L332:
1299:Src/register_interface.c ****         break;
 2569              		.loc 1 1299 9 is_stmt 1 view .LVU723
1299:Src/register_interface.c ****         break;
 2570              		.loc 1 1299 15 is_stmt 0 view .LVU724
 2571 0078 2B80     		strh	r3, [r5]	@ movhi
1300:Src/register_interface.c ****       }
 2572              		.loc 1 1300 9 is_stmt 1 view .LVU725
 2573              	.LBE157:
1310:Src/register_interface.c **** 
 2574              		.loc 1 1310 3 is_stmt 0 view .LVU726
 2575 007a 10B0     		add	sp, sp, #64
 2576              	.LCFI51:
 2577              		.cfi_remember_state
 2578              		.cfi_def_cfa_offset 16
 2579              		@ sp needed
 2580 007c 70BD     		pop	{r4, r5, r6, pc}
 2581              	.LVL307:
 2582              	.L241:
 2583              	.LCFI52:
 2584              		.cfi_restore_state
 781:Src/register_interface.c ****         {
 2585              		.loc 1 781 9 is_stmt 1 view .LVU727
 781:Src/register_interface.c ****         {
 2586              		.loc 1 781 12 is_stmt 0 view .LVU728
 2587 007e BCF1000F 		cmp	ip, #0
 2588 0082 40F35A82 		ble	.L335
 783:Src/register_interface.c ****           {
 2589              		.loc 1 783 11 is_stmt 1 view .LVU729
 2590 0086 B0F5A96F 		cmp	r0, #1352
 2591 008a 00F06282 		beq	.L242
 2592 008e 00F29880 		bhi	.L243
 2593 0092 4828     		cmp	r0, #72
 2594 0094 00F05782 		beq	.L244
 2595 0098 8828     		cmp	r0, #136
 2596 009a 40F05282 		bne	.L360
 793:Src/register_interface.c ****               break;
 2597              		.loc 1 793 15 view .LVU730
 793:Src/register_interface.c ****               break;
ARM GAS  C:\Users\ep_ygh\AppData\Local\Temp\ccSYahLu.s 			page 82


 2598              		.loc 1 793 32 is_stmt 0 view .LVU731
 2599 009e B348     		ldr	r0, .L391
 2600              	.LVL308:
 793:Src/register_interface.c ****               break;
 2601              		.loc 1 793 32 view .LVU732
 2602 00a0 FFF7FEFF 		bl	MCI_GetControlMode
 2603              	.LVL309:
 793:Src/register_interface.c ****               break;
 2604              		.loc 1 793 21 view .LVU733
 2605 00a4 2070     		strb	r0, [r4]
 794:Src/register_interface.c ****             }
 2606              		.loc 1 794 15 is_stmt 1 view .LVU734
 773:Src/register_interface.c ****     uint8_t motorID=0;
 2607              		.loc 1 773 13 is_stmt 0 view .LVU735
 2608 00a6 0020     		movs	r0, #0
 2609              	.L246:
 2610              	.LVL310:
 815:Src/register_interface.c ****         }
 2611              		.loc 1 815 11 is_stmt 1 view .LVU736
 815:Src/register_interface.c ****         }
 2612              		.loc 1 815 17 is_stmt 0 view .LVU737
 2613 00a8 0123     		movs	r3, #1
 2614 00aa 2B80     		strh	r3, [r5]	@ movhi
1310:Src/register_interface.c **** 
 2615              		.loc 1 1310 3 view .LVU738
 2616 00ac 10B0     		add	sp, sp, #64
 2617              	.LCFI53:
 2618              		.cfi_remember_state
 2619              		.cfi_def_cfa_offset 16
 2620              		@ sp needed
 2621 00ae 70BD     		pop	{r4, r5, r6, pc}
 2622              	.LVL311:
 2623              	.L239:
 2624              	.LCFI54:
 2625              		.cfi_restore_state
 2626              	.LBB176:
1093:Src/register_interface.c ****         int32_t *regdata32 = (int32_t *)data; //cstat !MISRAC2012-Rule-11.3
 2627              		.loc 1 1093 9 is_stmt 1 view .LVU739
1094:Src/register_interface.c **** 
 2628              		.loc 1 1094 9 view .LVU740
1096:Src/register_interface.c ****         {
 2629              		.loc 1 1096 9 view .LVU741
1096:Src/register_interface.c ****         {
 2630              		.loc 1 1096 12 is_stmt 0 view .LVU742
 2631 00b0 BCF1030F 		cmp	ip, #3
 2632 00b4 40F3F181 		ble	.L339
1098:Src/register_interface.c ****           {
 2633              		.loc 1 1098 11 is_stmt 1 view .LVU743
 2634 00b8 9828     		cmp	r0, #152
 2635 00ba 00F08B82 		beq	.L304
 2636 00be 00F2D881 		bhi	.L305
 2637 00c2 1828     		cmp	r0, #24
 2638 00c4 00F09882 		beq	.L306
 2639 00c8 5828     		cmp	r0, #88
 2640 00ca 40F03983 		bne	.L362
1107:Src/register_interface.c ****               break;
 2641              		.loc 1 1107 15 view .LVU744
ARM GAS  C:\Users\ep_ygh\AppData\Local\Temp\ccSYahLu.s 			page 83


1107:Src/register_interface.c ****               break;
 2642              		.loc 1 1107 39 is_stmt 0 view .LVU745
 2643 00ce A748     		ldr	r0, .L391
 2644              	.LVL312:
1107:Src/register_interface.c ****               break;
 2645              		.loc 1 1107 39 view .LVU746
 2646 00d0 FFF7FEFF 		bl	MCI_GetAvrgMecSpeedUnit
 2647              	.LVL313:
1107:Src/register_interface.c ****               break;
 2648              		.loc 1 1107 79 view .LVU747
 2649 00d4 00EB4000 		add	r0, r0, r0, lsl #1
 2650 00d8 4000     		lsls	r0, r0, #1
1107:Src/register_interface.c ****               break;
 2651              		.loc 1 1107 26 view .LVU748
 2652 00da 2060     		str	r0, [r4]
1108:Src/register_interface.c ****             }
 2653              		.loc 1 1108 15 is_stmt 1 view .LVU749
 2654              	.LBE176:
 773:Src/register_interface.c ****     uint8_t motorID=0;
 2655              		.loc 1 773 13 is_stmt 0 view .LVU750
 2656 00dc 0020     		movs	r0, #0
 2657              	.L308:
 2658              	.LVL314:
 2659              	.LBB179:
1139:Src/register_interface.c ****         }
 2660              		.loc 1 1139 11 is_stmt 1 view .LVU751
1139:Src/register_interface.c ****         }
 2661              		.loc 1 1139 17 is_stmt 0 view .LVU752
 2662 00de 0423     		movs	r3, #4
 2663 00e0 2B80     		strh	r3, [r5]	@ movhi
 2664              	.LBE179:
1310:Src/register_interface.c **** 
 2665              		.loc 1 1310 3 view .LVU753
 2666 00e2 10B0     		add	sp, sp, #64
 2667              	.LCFI55:
 2668              		.cfi_remember_state
 2669              		.cfi_def_cfa_offset 16
 2670              		@ sp needed
 2671 00e4 70BD     		pop	{r4, r5, r6, pc}
 2672              	.LVL315:
 2673              	.L238:
 2674              	.LCFI56:
 2675              		.cfi_restore_state
 2676              	.LBB180:
1150:Src/register_interface.c ****         switch (regID)
 2677              		.loc 1 1150 9 is_stmt 1 view .LVU754
1151:Src/register_interface.c ****         {
 2678              		.loc 1 1151 9 view .LVU755
 2679 00e6 A028     		cmp	r0, #160
 2680 00e8 00F0F681 		beq	.L311
 2681 00ec E028     		cmp	r0, #224
 2682 00ee 00F0D781 		beq	.L312
1167:Src/register_interface.c ****             *size= 0 ; /* */
 2683              		.loc 1 1167 13 view .LVU756
 2684              	.LVL316:
1168:Src/register_interface.c ****             break;
 2685              		.loc 1 1168 13 view .LVU757
ARM GAS  C:\Users\ep_ygh\AppData\Local\Temp\ccSYahLu.s 			page 84


1168:Src/register_interface.c ****             break;
 2686              		.loc 1 1168 18 is_stmt 0 view .LVU758
 2687 00f2 0023     		movs	r3, #0
 2688 00f4 2B80     		strh	r3, [r5]	@ movhi
1169:Src/register_interface.c ****           }
 2689              		.loc 1 1169 13 is_stmt 1 view .LVU759
1167:Src/register_interface.c ****             *size= 0 ; /* */
 2690              		.loc 1 1167 20 is_stmt 0 view .LVU760
 2691 00f6 0520     		movs	r0, #5
 2692              	.LVL317:
1169:Src/register_interface.c ****           }
 2693              		.loc 1 1169 13 view .LVU761
 2694 00f8 A0E7     		b	.L357
 2695              	.LVL318:
 2696              	.L240:
1169:Src/register_interface.c ****           }
 2697              		.loc 1 1169 13 view .LVU762
 2698              	.LBE180:
 2699              	.LBB197:
 826:Src/register_interface.c ****         int16_t *regdata16 = (int16_t *) data; //cstat !MISRAC2012-Rule-11.3
 2700              		.loc 1 826 9 is_stmt 1 view .LVU763
 827:Src/register_interface.c **** 
 2701              		.loc 1 827 9 view .LVU764
 829:Src/register_interface.c ****         {
 2702              		.loc 1 829 9 view .LVU765
 829:Src/register_interface.c ****         {
 2703              		.loc 1 829 12 is_stmt 0 view .LVU766
 2704 00fa BCF1010F 		cmp	ip, #1
 2705 00fe 40F3CC81 		ble	.L339
 831:Src/register_interface.c ****           {
 2706              		.loc 1 831 11 is_stmt 1 view .LVU767
 2707 0102 B0F5216F 		cmp	r0, #2576
 2708 0106 00F0E182 		beq	.L248
 2709 010a 00F29280 		bhi	.L249
 2710 010e B0F5BA6F 		cmp	r0, #1488
 2711 0112 00F0D582 		beq	.L250
 2712 0116 78D8     		bhi	.L251
 2713 0118 B0F5047F 		cmp	r0, #528
 2714 011c 00F0CA82 		beq	.L252
 2715 0120 63D9     		bls	.L364
 2716 0122 B0F5447F 		cmp	r0, #784
 2717 0126 00F0BF82 		beq	.L261
 2718 012a 54D9     		bls	.L365
 2719 012c B0F5B26F 		cmp	r0, #1424
 2720 0130 40F00582 		bne	.L361
 889:Src/register_interface.c ****               break;
 2721              		.loc 1 889 15 view .LVU768
 889:Src/register_interface.c ****               break;
 2722              		.loc 1 889 29 is_stmt 0 view .LVU769
 2723 0134 8E48     		ldr	r0, .L391+4
 2724              	.LVL319:
 889:Src/register_interface.c ****               break;
 2725              		.loc 1 889 29 view .LVU770
 2726 0136 FFF7FEFF 		bl	VBS_GetAvBusVoltage_V
 2727              	.LVL320:
 889:Src/register_interface.c ****               break;
 2728              		.loc 1 889 27 view .LVU771
ARM GAS  C:\Users\ep_ygh\AppData\Local\Temp\ccSYahLu.s 			page 85


 2729 013a 2080     		strh	r0, [r4]	@ movhi
 2730              	.LVL321:
 890:Src/register_interface.c ****             }
 2731              		.loc 1 890 15 is_stmt 1 view .LVU772
 2732              	.LBE197:
 773:Src/register_interface.c ****     uint8_t motorID=0;
 2733              		.loc 1 773 13 is_stmt 0 view .LVU773
 2734 013c 0020     		movs	r0, #0
 2735              	.L258:
 2736              	.LVL322:
 2737              	.LBB198:
1082:Src/register_interface.c ****         }
 2738              		.loc 1 1082 11 is_stmt 1 view .LVU774
1082:Src/register_interface.c ****         }
 2739              		.loc 1 1082 17 is_stmt 0 view .LVU775
 2740 013e 0223     		movs	r3, #2
 2741 0140 2B80     		strh	r3, [r5]	@ movhi
 2742              	.L379:
1082:Src/register_interface.c ****         }
 2743              		.loc 1 1082 17 view .LVU776
 2744              	.LBE198:
1310:Src/register_interface.c **** 
 2745              		.loc 1 1310 3 view .LVU777
 2746 0142 10B0     		add	sp, sp, #64
 2747              	.LCFI57:
 2748              		.cfi_remember_state
 2749              		.cfi_def_cfa_offset 16
 2750              		@ sp needed
 2751 0144 70BD     		pop	{r4, r5, r6, pc}
 2752              	.LVL323:
 2753              	.L324:
 2754              	.LCFI58:
 2755              		.cfi_restore_state
 2756              	.LBB199:
1310:Src/register_interface.c **** 
 2757              		.loc 1 1310 3 view .LVU778
 2758 0146 B0F5947F 		cmp	r0, #296
 2759 014a 40F01982 		bne	.L327
1232:Src/register_interface.c ****             if ((*rawSize) +2U > (uint16_t)freeSpace)
 2760              		.loc 1 1232 13 is_stmt 1 view .LVU779
1233:Src/register_interface.c ****             {
 2761              		.loc 1 1233 16 is_stmt 0 view .LVU780
 2762 014e 1FFA8CFC 		uxth	ip, ip
1232:Src/register_interface.c ****             if ((*rawSize) +2U > (uint16_t)freeSpace)
 2763              		.loc 1 1232 22 view .LVU781
 2764 0152 0C22     		movs	r2, #12
1233:Src/register_interface.c ****             {
 2765              		.loc 1 1233 16 view .LVU782
 2766 0154 BCF10D0F 		cmp	ip, #13
1232:Src/register_interface.c ****             if ((*rawSize) +2U > (uint16_t)freeSpace)
 2767              		.loc 1 1232 22 view .LVU783
 2768 0158 2280     		strh	r2, [r4]	@ movhi
1233:Src/register_interface.c ****             {
 2769              		.loc 1 1233 13 is_stmt 1 view .LVU784
1233:Src/register_interface.c ****             {
 2770              		.loc 1 1233 16 is_stmt 0 view .LVU785
 2771 015a 00F2D581 		bhi	.L366
ARM GAS  C:\Users\ep_ygh\AppData\Local\Temp\ccSYahLu.s 			page 86


 2772 015e 0E23     		movs	r3, #14
 2773              	.LVL324:
1235:Src/register_interface.c ****             }
 2774              		.loc 1 1235 22 view .LVU786
 2775 0160 0820     		movs	r0, #8
 2776              	.LVL325:
1235:Src/register_interface.c ****             }
 2777              		.loc 1 1235 22 view .LVU787
 2778 0162 89E7     		b	.L332
 2779              	.LVL326:
 2780              	.L322:
1235:Src/register_interface.c ****             }
 2781              		.loc 1 1235 22 view .LVU788
 2782 0164 B0F55A7F 		cmp	r0, #872
 2783 0168 00F0F981 		beq	.L329
 2784 016c B0F56A7F 		cmp	r0, #936
 2785 0170 14D1     		bne	.L367
 2786              	.LBB158:
1277:Src/register_interface.c ****             float Duration;
 2787              		.loc 1 1277 13 is_stmt 1 view .LVU789
1278:Src/register_interface.c **** 
 2788              		.loc 1 1278 13 view .LVU790
1280:Src/register_interface.c ****             Position = TC_GetMoveDuration(&PosCtrlM1);   /* Does this duration make sense ? */
 2789              		.loc 1 1280 13 view .LVU791
1280:Src/register_interface.c ****             Position = TC_GetMoveDuration(&PosCtrlM1);   /* Does this duration make sense ? */
 2790              		.loc 1 1280 22 is_stmt 0 view .LVU792
 2791 0172 0823     		movs	r3, #8
 2792              	.LVL327:
1280:Src/register_interface.c ****             Position = TC_GetMoveDuration(&PosCtrlM1);   /* Does this duration make sense ? */
 2793              		.loc 1 1280 22 view .LVU793
 2794 0174 2380     		strh	r3, [r4]	@ movhi
1281:Src/register_interface.c ****             Duration = TC_GetTargetPosition(&PosCtrlM1);
 2795              		.loc 1 1281 13 is_stmt 1 view .LVU794
1281:Src/register_interface.c ****             Duration = TC_GetTargetPosition(&PosCtrlM1);
 2796              		.loc 1 1281 24 is_stmt 0 view .LVU795
 2797 0176 7F48     		ldr	r0, .L391+8
 2798              	.LVL328:
1281:Src/register_interface.c ****             Duration = TC_GetTargetPosition(&PosCtrlM1);
 2799              		.loc 1 1281 24 view .LVU796
 2800 0178 FFF7FEFF 		bl	TC_GetMoveDuration
 2801              	.LVL329:
1282:Src/register_interface.c ****             (void)memcpy(rawData, &Position, 4);
 2802              		.loc 1 1282 24 view .LVU797
 2803 017c 7D48     		ldr	r0, .L391+8
1281:Src/register_interface.c ****             Duration = TC_GetTargetPosition(&PosCtrlM1);
 2804              		.loc 1 1281 24 view .LVU798
 2805 017e 10EE106A 		vmov	r6, s0
 2806              	.LVL330:
1282:Src/register_interface.c ****             (void)memcpy(rawData, &Position, 4);
 2807              		.loc 1 1282 13 is_stmt 1 view .LVU799
1282:Src/register_interface.c ****             (void)memcpy(rawData, &Position, 4);
 2808              		.loc 1 1282 24 is_stmt 0 view .LVU800
 2809 0182 FFF7FEFF 		bl	TC_GetTargetPosition
 2810              	.LVL331:
1283:Src/register_interface.c ****             (void)memcpy(&rawData[4], &Duration, 4);
 2811              		.loc 1 1283 13 is_stmt 1 view .LVU801
 2812              	.LBE158:
ARM GAS  C:\Users\ep_ygh\AppData\Local\Temp\ccSYahLu.s 			page 87


1299:Src/register_interface.c ****         break;
 2813              		.loc 1 1299 28 is_stmt 0 view .LVU802
 2814 0186 2388     		ldrh	r3, [r4]
 2815              	.LBB159:
1283:Src/register_interface.c ****             (void)memcpy(&rawData[4], &Duration, 4);
 2816              		.loc 1 1283 19 view .LVU803
 2817 0188 C4F80260 		str	r6, [r4, #2]	@ unaligned
1284:Src/register_interface.c ****             break;
 2818              		.loc 1 1284 13 is_stmt 1 view .LVU804
1284:Src/register_interface.c ****             break;
 2819              		.loc 1 1284 19 is_stmt 0 view .LVU805
 2820 018c 10EE102A 		vmov	r2, s0	@ int
 2821              	.LBE159:
1299:Src/register_interface.c ****         break;
 2822              		.loc 1 1299 28 view .LVU806
 2823 0190 0233     		adds	r3, r3, #2
 2824              	.LBB160:
1284:Src/register_interface.c ****             break;
 2825              		.loc 1 1284 19 view .LVU807
 2826 0192 C4F80620 		str	r2, [r4, #6]	@ unaligned
1285:Src/register_interface.c ****           }
 2827              		.loc 1 1285 13 is_stmt 1 view .LVU808
 2828              	.LBE160:
1299:Src/register_interface.c ****         break;
 2829              		.loc 1 1299 28 is_stmt 0 view .LVU809
 2830 0196 9BB2     		uxth	r3, r3
 2831              	.LBE199:
 773:Src/register_interface.c ****     uint8_t motorID=0;
 2832              		.loc 1 773 13 view .LVU810
 2833 0198 0020     		movs	r0, #0
 2834 019a 6DE7     		b	.L332
 2835              	.LVL332:
 2836              	.L367:
 2837              	.LBB200:
 773:Src/register_interface.c ****     uint8_t motorID=0;
 2838              		.loc 1 773 13 view .LVU811
 2839 019c B0F5F47F 		cmp	r0, #488
 2840 01a0 40F0EE81 		bne	.L327
 2841              	.LBB161:
1255:Src/register_interface.c ****             uint16_t *duration = (uint16_t *)&rawData[2]; //cstat !MISRAC2012-Rule-11.3
 2842              		.loc 1 1255 13 is_stmt 1 view .LVU812
 2843              	.LVL333:
1256:Src/register_interface.c **** 
 2844              		.loc 1 1256 13 view .LVU813
1258:Src/register_interface.c ****             *torque = MCI_GetLastRampFinalTorque(pMCIN);
 2845              		.loc 1 1258 13 view .LVU814
1258:Src/register_interface.c ****             *torque = MCI_GetLastRampFinalTorque(pMCIN);
 2846              		.loc 1 1258 22 is_stmt 0 view .LVU815
 2847 01a4 0423     		movs	r3, #4
 2848              	.LVL334:
1258:Src/register_interface.c ****             *torque = MCI_GetLastRampFinalTorque(pMCIN);
 2849              		.loc 1 1258 22 view .LVU816
 2850 01a6 2380     		strh	r3, [r4]	@ movhi
1259:Src/register_interface.c ****             *duration = MCI_GetLastRampFinalDuration(pMCIN) ;
 2851              		.loc 1 1259 13 is_stmt 1 view .LVU817
1259:Src/register_interface.c ****             *duration = MCI_GetLastRampFinalDuration(pMCIN) ;
 2852              		.loc 1 1259 23 is_stmt 0 view .LVU818
ARM GAS  C:\Users\ep_ygh\AppData\Local\Temp\ccSYahLu.s 			page 88


 2853 01a8 7048     		ldr	r0, .L391
 2854              	.LVL335:
1259:Src/register_interface.c ****             *duration = MCI_GetLastRampFinalDuration(pMCIN) ;
 2855              		.loc 1 1259 23 view .LVU819
 2856 01aa FFF7FEFF 		bl	MCI_GetLastRampFinalTorque
 2857              	.LVL336:
1259:Src/register_interface.c ****             *duration = MCI_GetLastRampFinalDuration(pMCIN) ;
 2858              		.loc 1 1259 21 view .LVU820
 2859 01ae 6080     		strh	r0, [r4, #2]	@ movhi
1260:Src/register_interface.c ****             break;
 2860              		.loc 1 1260 13 is_stmt 1 view .LVU821
1260:Src/register_interface.c ****             break;
 2861              		.loc 1 1260 25 is_stmt 0 view .LVU822
 2862 01b0 6E48     		ldr	r0, .L391
 2863 01b2 FFF7FEFF 		bl	MCI_GetLastRampFinalDuration
 2864              	.LVL337:
 2865              	.LBE161:
1299:Src/register_interface.c ****         break;
 2866              		.loc 1 1299 28 view .LVU823
 2867 01b6 2388     		ldrh	r3, [r4]
 2868              	.LBB162:
1260:Src/register_interface.c ****             break;
 2869              		.loc 1 1260 23 view .LVU824
 2870 01b8 A080     		strh	r0, [r4, #4]	@ movhi
1261:Src/register_interface.c ****           }
 2871              		.loc 1 1261 13 is_stmt 1 view .LVU825
 2872              	.LBE162:
1299:Src/register_interface.c ****         break;
 2873              		.loc 1 1299 28 is_stmt 0 view .LVU826
 2874 01ba 0233     		adds	r3, r3, #2
 2875 01bc 9BB2     		uxth	r3, r3
 2876              	.LBE200:
 773:Src/register_interface.c ****     uint8_t motorID=0;
 2877              		.loc 1 773 13 view .LVU827
 2878 01be 0020     		movs	r0, #0
 2879              	.LBB201:
 2880              	.LBB163:
1261:Src/register_interface.c ****           }
 2881              		.loc 1 1261 13 view .LVU828
 2882 01c0 5AE7     		b	.L332
 2883              	.LVL338:
 2884              	.L243:
1261:Src/register_interface.c ****           }
 2885              		.loc 1 1261 13 view .LVU829
 2886              	.LBE163:
 2887              	.LBE201:
 2888 01c2 B0F5B16F 		cmp	r0, #1416
 2889 01c6 40F0BC81 		bne	.L360
 805:Src/register_interface.c ****               break;
 2890              		.loc 1 805 15 is_stmt 1 view .LVU830
 805:Src/register_interface.c ****               break;
 2891              		.loc 1 805 33 is_stmt 0 view .LVU831
 2892 01ca 6A48     		ldr	r0, .L391+8
 2893              	.LVL339:
 805:Src/register_interface.c ****               break;
 2894              		.loc 1 805 33 view .LVU832
 2895 01cc FFF7FEFF 		bl	TC_GetAlignmentStatus
ARM GAS  C:\Users\ep_ygh\AppData\Local\Temp\ccSYahLu.s 			page 89


 2896              	.LVL340:
 805:Src/register_interface.c ****               break;
 2897              		.loc 1 805 21 view .LVU833
 2898 01d0 2070     		strb	r0, [r4]
 806:Src/register_interface.c ****             }
 2899              		.loc 1 806 15 is_stmt 1 view .LVU834
 773:Src/register_interface.c ****     uint8_t motorID=0;
 2900              		.loc 1 773 13 is_stmt 0 view .LVU835
 2901 01d2 0020     		movs	r0, #0
 806:Src/register_interface.c ****             }
 2902              		.loc 1 806 15 view .LVU836
 2903 01d4 68E7     		b	.L246
 2904              	.LVL341:
 2905              	.L365:
 2906              	.LBB202:
 806:Src/register_interface.c ****             }
 2907              		.loc 1 806 15 view .LVU837
 2908 01d6 B0F5247F 		cmp	r0, #656
 2909 01da 40F01C81 		bne	.L368
 871:Src/register_interface.c ****               break;
 2910              		.loc 1 871 15 is_stmt 1 view .LVU838
 871:Src/register_interface.c ****               break;
 2911              		.loc 1 871 28 is_stmt 0 view .LVU839
 2912 01de 6648     		ldr	r0, .L391+12
 2913              	.LVL342:
 871:Src/register_interface.c ****               break;
 2914              		.loc 1 871 28 view .LVU840
 2915 01e0 FFF7FEFF 		bl	PID_GetKP
 2916              	.LVL343:
 871:Src/register_interface.c ****               break;
 2917              		.loc 1 871 26 view .LVU841
 2918 01e4 2080     		strh	r0, [r4]	@ movhi
 2919              	.LVL344:
 872:Src/register_interface.c ****             }
 2920              		.loc 1 872 15 is_stmt 1 view .LVU842
 2921              	.LBE202:
 773:Src/register_interface.c ****     uint8_t motorID=0;
 2922              		.loc 1 773 13 is_stmt 0 view .LVU843
 2923 01e6 0020     		movs	r0, #0
 2924              	.LBB203:
 872:Src/register_interface.c ****             }
 2925              		.loc 1 872 15 view .LVU844
 2926 01e8 A9E7     		b	.L258
 2927              	.LVL345:
 2928              	.L364:
 872:Src/register_interface.c ****             }
 2929              		.loc 1 872 15 view .LVU845
 2930 01ea B0F5887F 		cmp	r0, #272
 2931 01ee 00F0A182 		beq	.L254
 2932 01f2 40F22481 		bls	.L369
 2933 01f6 B0F5C87F 		cmp	r0, #400
 2934 01fa 40F01681 		bne	.L370
 853:Src/register_interface.c ****               break;
 2935              		.loc 1 853 15 is_stmt 1 view .LVU846
 853:Src/register_interface.c ****               break;
 2936              		.loc 1 853 28 is_stmt 0 view .LVU847
 2937 01fe 5F48     		ldr	r0, .L391+16
ARM GAS  C:\Users\ep_ygh\AppData\Local\Temp\ccSYahLu.s 			page 90


 2938              	.LVL346:
 853:Src/register_interface.c ****               break;
 2939              		.loc 1 853 28 view .LVU848
 2940 0200 FFF7FEFF 		bl	PID_GetKP
 2941              	.LVL347:
 853:Src/register_interface.c ****               break;
 2942              		.loc 1 853 26 view .LVU849
 2943 0204 2080     		strh	r0, [r4]	@ movhi
 2944              	.LVL348:
 854:Src/register_interface.c ****             }
 2945              		.loc 1 854 15 is_stmt 1 view .LVU850
 2946              	.LBE203:
 773:Src/register_interface.c ****     uint8_t motorID=0;
 2947              		.loc 1 773 13 is_stmt 0 view .LVU851
 2948 0206 0020     		movs	r0, #0
 2949              	.LBB204:
 854:Src/register_interface.c ****             }
 2950              		.loc 1 854 15 view .LVU852
 2951 0208 99E7     		b	.L258
 2952              	.LVL349:
 2953              	.L251:
 854:Src/register_interface.c ****             }
 2954              		.loc 1 854 15 view .LVU853
 2955 020a B0F50D6F 		cmp	r0, #2256
 2956 020e 00F08B82 		beq	.L266
 2957 0212 36D9     		bls	.L371
 2958 0214 B0F5196F 		cmp	r0, #2448
 2959 0218 00F07E82 		beq	.L273
 2960 021c 26D9     		bls	.L372
 2961 021e B0F51D6F 		cmp	r0, #2512
 2962 0222 40F08C81 		bne	.L361
 949:Src/register_interface.c ****               break;
 2963              		.loc 1 949 15 is_stmt 1 view .LVU854
 949:Src/register_interface.c ****               break;
 2964              		.loc 1 949 28 is_stmt 0 view .LVU855
 2965 0226 5148     		ldr	r0, .L391
 2966              	.LVL350:
 949:Src/register_interface.c ****               break;
 2967              		.loc 1 949 28 view .LVU856
 2968 0228 FFF7FEFF 		bl	MCI_GetVqd
 2969              	.LVL351:
 949:Src/register_interface.c ****               break;
 2970              		.loc 1 949 26 view .LVU857
 2971 022c 2080     		strh	r0, [r4]	@ movhi
 2972              	.LVL352:
 950:Src/register_interface.c ****             }
 2973              		.loc 1 950 15 is_stmt 1 view .LVU858
 2974              	.LBE204:
 773:Src/register_interface.c ****     uint8_t motorID=0;
 2975              		.loc 1 773 13 is_stmt 0 view .LVU859
 2976 022e 0020     		movs	r0, #0
 2977              	.LBB205:
 950:Src/register_interface.c ****             }
 2978              		.loc 1 950 15 view .LVU860
 2979 0230 85E7     		b	.L258
 2980              	.LVL353:
 2981              	.L249:
ARM GAS  C:\Users\ep_ygh\AppData\Local\Temp\ccSYahLu.s 			page 91


 950:Src/register_interface.c ****             }
 2982              		.loc 1 950 15 view .LVU861
 2983 0232 41F2D043 		movw	r3, #5328
 2984 0236 9842     		cmp	r0, r3
 2985 0238 00F06882 		beq	.L278
 2986 023c 7FD8     		bhi	.L279
 2987 023e 41F29033 		movw	r3, #5008
 2988 0242 9842     		cmp	r0, r3
 2989 0244 00F05C82 		beq	.L280
 2990 0248 2CD9     		bls	.L373
 2991 024a 41F25043 		movw	r3, #5200
 2992 024e 9842     		cmp	r0, r3
 2993 0250 00F05082 		beq	.L287
 2994 0254 54D9     		bls	.L374
 2995 0256 41F29043 		movw	r3, #5264
 2996 025a 9842     		cmp	r0, r3
 2997 025c 40F06F81 		bne	.L361
1013:Src/register_interface.c ****               break;
 2998              		.loc 1 1013 15 is_stmt 1 view .LVU862
1013:Src/register_interface.c ****               break;
 2999              		.loc 1 1013 39 is_stmt 0 view .LVU863
 3000 0260 4748     		ldr	r0, .L391+20
 3001              	.LVL354:
1013:Src/register_interface.c ****               break;
 3002              		.loc 1 1013 39 view .LVU864
 3003 0262 FFF7FEFF 		bl	PID_GetKIDivisorPOW2
 3004              	.LVL355:
1013:Src/register_interface.c ****               break;
 3005              		.loc 1 1013 27 view .LVU865
 3006 0266 2080     		strh	r0, [r4]	@ movhi
 3007              	.LVL356:
1014:Src/register_interface.c ****             }
 3008              		.loc 1 1014 15 is_stmt 1 view .LVU866
 3009              	.LBE205:
 773:Src/register_interface.c ****     uint8_t motorID=0;
 3010              		.loc 1 773 13 is_stmt 0 view .LVU867
 3011 0268 0020     		movs	r0, #0
 3012              	.LBB206:
1014:Src/register_interface.c ****             }
 3013              		.loc 1 1014 15 view .LVU868
 3014 026a 68E7     		b	.L258
 3015              	.LVL357:
 3016              	.L372:
1014:Src/register_interface.c ****             }
 3017              		.loc 1 1014 15 view .LVU869
 3018 026c B0F5116F 		cmp	r0, #2320
 3019 0270 50D1     		bne	.L375
 931:Src/register_interface.c ****               break;
 3020              		.loc 1 931 15 is_stmt 1 view .LVU870
 931:Src/register_interface.c ****               break;
 3021              		.loc 1 931 28 is_stmt 0 view .LVU871
 3022 0272 3E48     		ldr	r0, .L391
 3023              	.LVL358:
 931:Src/register_interface.c ****               break;
 3024              		.loc 1 931 28 view .LVU872
 3025 0274 FFF7FEFF 		bl	MCI_GetIqd
 3026              	.LVL359:
ARM GAS  C:\Users\ep_ygh\AppData\Local\Temp\ccSYahLu.s 			page 92


 931:Src/register_interface.c ****               break;
 3027              		.loc 1 931 28 view .LVU873
 3028 0278 C0F30F40 		ubfx	r0, r0, #16, #16
 931:Src/register_interface.c ****               break;
 3029              		.loc 1 931 26 view .LVU874
 3030 027c 2080     		strh	r0, [r4]	@ movhi
 3031              	.LVL360:
 932:Src/register_interface.c ****             }
 3032              		.loc 1 932 15 is_stmt 1 view .LVU875
 3033              	.LBE206:
 773:Src/register_interface.c ****     uint8_t motorID=0;
 3034              		.loc 1 773 13 is_stmt 0 view .LVU876
 3035 027e 0020     		movs	r0, #0
 3036              	.LBB207:
 932:Src/register_interface.c ****             }
 3037              		.loc 1 932 15 view .LVU877
 3038 0280 5DE7     		b	.L258
 3039              	.LVL361:
 3040              	.L371:
 932:Src/register_interface.c ****             }
 3041              		.loc 1 932 15 view .LVU878
 3042 0282 B0F5056F 		cmp	r0, #2128
 3043 0286 00F02F82 		beq	.L268
 3044 028a 7FD9     		bls	.L376
 3045 028c B0F5096F 		cmp	r0, #2192
 3046 0290 40F05581 		bne	.L361
 919:Src/register_interface.c ****               break;
 3047              		.loc 1 919 15 is_stmt 1 view .LVU879
 919:Src/register_interface.c ****               break;
 3048              		.loc 1 919 28 is_stmt 0 view .LVU880
 3049 0294 3548     		ldr	r0, .L391
 3050              	.LVL362:
 919:Src/register_interface.c ****               break;
 3051              		.loc 1 919 28 view .LVU881
 3052 0296 FFF7FEFF 		bl	MCI_GetIalphabeta
 3053              	.LVL363:
 919:Src/register_interface.c ****               break;
 3054              		.loc 1 919 28 view .LVU882
 3055 029a C0F30F40 		ubfx	r0, r0, #16, #16
 919:Src/register_interface.c ****               break;
 3056              		.loc 1 919 26 view .LVU883
 3057 029e 2080     		strh	r0, [r4]	@ movhi
 3058              	.LVL364:
 920:Src/register_interface.c ****             }
 3059              		.loc 1 920 15 is_stmt 1 view .LVU884
 3060              	.LBE207:
 773:Src/register_interface.c ****     uint8_t motorID=0;
 3061              		.loc 1 773 13 is_stmt 0 view .LVU885
 3062 02a0 0020     		movs	r0, #0
 3063              	.LBB208:
 920:Src/register_interface.c ****             }
 3064              		.loc 1 920 15 view .LVU886
 3065 02a2 4CE7     		b	.L258
 3066              	.LVL365:
 3067              	.L373:
 920:Src/register_interface.c ****             }
 3068              		.loc 1 920 15 view .LVU887
ARM GAS  C:\Users\ep_ygh\AppData\Local\Temp\ccSYahLu.s 			page 93


 3069 02a4 B0F52D6F 		cmp	r0, #2768
 3070 02a8 00F01882 		beq	.L282
 3071 02ac 09D9     		bls	.L377
 3072 02ae B0F5656F 		cmp	r0, #3664
 3073 02b2 02D0     		beq	.L338
 3074 02b4 B0F5696F 		cmp	r0, #3728
 3075 02b8 0CD1     		bne	.L378
 3076              	.L338:
1082:Src/register_interface.c ****         }
 3077              		.loc 1 1082 17 view .LVU888
 3078 02ba 0223     		movs	r3, #2
 3079              	.LBE208:
 773:Src/register_interface.c ****     uint8_t motorID=0;
 3080              		.loc 1 773 13 view .LVU889
 3081 02bc 0020     		movs	r0, #0
 3082              	.LVL366:
 3083              	.LBB209:
1082:Src/register_interface.c ****         }
 3084              		.loc 1 1082 11 is_stmt 1 view .LVU890
1082:Src/register_interface.c ****         }
 3085              		.loc 1 1082 17 is_stmt 0 view .LVU891
 3086 02be 2B80     		strh	r3, [r5]	@ movhi
 3087 02c0 3FE7     		b	.L379
 3088              	.LVL367:
 3089              	.L377:
1082:Src/register_interface.c ****         }
 3090              		.loc 1 1082 17 view .LVU892
 3091 02c2 B0F5256F 		cmp	r0, #2640
 3092 02c6 0FD1     		bne	.L380
 961:Src/register_interface.c ****               break;
 3093              		.loc 1 961 15 is_stmt 1 view .LVU893
 961:Src/register_interface.c ****               break;
 3094              		.loc 1 961 28 is_stmt 0 view .LVU894
 3095 02c8 2848     		ldr	r0, .L391
 3096              	.LVL368:
 961:Src/register_interface.c ****               break;
 3097              		.loc 1 961 28 view .LVU895
 3098 02ca FFF7FEFF 		bl	MCI_GetValphabeta
 3099              	.LVL369:
 961:Src/register_interface.c ****               break;
 3100              		.loc 1 961 26 view .LVU896
 3101 02ce 2080     		strh	r0, [r4]	@ movhi
 3102              	.LVL370:
 962:Src/register_interface.c ****             }
 3103              		.loc 1 962 15 is_stmt 1 view .LVU897
 3104              	.LBE209:
 773:Src/register_interface.c ****     uint8_t motorID=0;
 3105              		.loc 1 773 13 is_stmt 0 view .LVU898
 3106 02d0 0020     		movs	r0, #0
 3107              	.LBB210:
 962:Src/register_interface.c ****             }
 3108              		.loc 1 962 15 view .LVU899
 3109 02d2 34E7     		b	.L258
 3110              	.LVL371:
 3111              	.L378:
 962:Src/register_interface.c ****             }
 3112              		.loc 1 962 15 view .LVU900
ARM GAS  C:\Users\ep_ygh\AppData\Local\Temp\ccSYahLu.s 			page 94


 3113 02d4 B0F5316F 		cmp	r0, #2832
 3114 02d8 40F03181 		bne	.L361
 979:Src/register_interface.c ****               break;
 3115              		.loc 1 979 15 is_stmt 1 view .LVU901
 979:Src/register_interface.c ****               break;
 3116              		.loc 1 979 28 is_stmt 0 view .LVU902
 3117 02dc 2948     		ldr	r0, .L391+24
 3118              	.LVL372:
 979:Src/register_interface.c ****               break;
 3119              		.loc 1 979 28 view .LVU903
 3120 02de FFF7FEFF 		bl	SPD_GetS16Speed
 3121              	.LVL373:
 979:Src/register_interface.c ****               break;
 3122              		.loc 1 979 26 view .LVU904
 3123 02e2 2080     		strh	r0, [r4]	@ movhi
 3124              	.LVL374:
 980:Src/register_interface.c ****             }
 3125              		.loc 1 980 15 is_stmt 1 view .LVU905
 3126              	.LBE210:
 773:Src/register_interface.c ****     uint8_t motorID=0;
 3127              		.loc 1 773 13 is_stmt 0 view .LVU906
 3128 02e4 0020     		movs	r0, #0
 3129              	.LBB211:
 980:Src/register_interface.c ****             }
 3130              		.loc 1 980 15 view .LVU907
 3131 02e6 2AE7     		b	.L258
 3132              	.LVL375:
 3133              	.L380:
 980:Src/register_interface.c ****             }
 3134              		.loc 1 980 15 view .LVU908
 3135 02e8 B0F5296F 		cmp	r0, #2704
 3136 02ec 40F02781 		bne	.L361
 967:Src/register_interface.c ****               break;
 3137              		.loc 1 967 15 is_stmt 1 view .LVU909
 967:Src/register_interface.c ****               break;
 3138              		.loc 1 967 28 is_stmt 0 view .LVU910
 3139 02f0 1E48     		ldr	r0, .L391
 3140              	.LVL376:
 967:Src/register_interface.c ****               break;
 3141              		.loc 1 967 28 view .LVU911
 3142 02f2 FFF7FEFF 		bl	MCI_GetValphabeta
 3143              	.LVL377:
 967:Src/register_interface.c ****               break;
 3144              		.loc 1 967 28 view .LVU912
 3145 02f6 C0F30F40 		ubfx	r0, r0, #16, #16
 967:Src/register_interface.c ****               break;
 3146              		.loc 1 967 26 view .LVU913
 3147 02fa 2080     		strh	r0, [r4]	@ movhi
 3148              	.LVL378:
 968:Src/register_interface.c ****             }
 3149              		.loc 1 968 15 is_stmt 1 view .LVU914
 3150              	.LBE211:
 773:Src/register_interface.c ****     uint8_t motorID=0;
 3151              		.loc 1 773 13 is_stmt 0 view .LVU915
 3152 02fc 0020     		movs	r0, #0
 3153              	.LBB212:
 968:Src/register_interface.c ****             }
ARM GAS  C:\Users\ep_ygh\AppData\Local\Temp\ccSYahLu.s 			page 95


 3154              		.loc 1 968 15 view .LVU916
 3155 02fe 1EE7     		b	.L258
 3156              	.LVL379:
 3157              	.L374:
 968:Src/register_interface.c ****             }
 3158              		.loc 1 968 15 view .LVU917
 3159 0300 41F2D033 		movw	r3, #5072
 3160 0304 9842     		cmp	r0, r3
 3161 0306 0FD1     		bne	.L381
 995:Src/register_interface.c ****               break;
 3162              		.loc 1 995 15 is_stmt 1 view .LVU918
 995:Src/register_interface.c ****               break;
 3163              		.loc 1 995 28 is_stmt 0 view .LVU919
 3164 0308 1F48     		ldr	r0, .L391+28
 3165              	.LVL380:
 995:Src/register_interface.c ****               break;
 3166              		.loc 1 995 28 view .LVU920
 3167 030a FFF7FEFF 		bl	PID_GetKI
 3168              	.LVL381:
 995:Src/register_interface.c ****               break;
 3169              		.loc 1 995 26 view .LVU921
 3170 030e 2080     		strh	r0, [r4]	@ movhi
 3171              	.LVL382:
 996:Src/register_interface.c ****             }
 3172              		.loc 1 996 15 is_stmt 1 view .LVU922
 3173              	.LBE212:
 773:Src/register_interface.c ****     uint8_t motorID=0;
 3174              		.loc 1 773 13 is_stmt 0 view .LVU923
 3175 0310 0020     		movs	r0, #0
 3176              	.LBB213:
 996:Src/register_interface.c ****             }
 3177              		.loc 1 996 15 view .LVU924
 3178 0312 14E7     		b	.L258
 3179              	.LVL383:
 3180              	.L375:
 996:Src/register_interface.c ****             }
 3181              		.loc 1 996 15 view .LVU925
 3182 0314 B0F5156F 		cmp	r0, #2384
 3183 0318 40F01181 		bne	.L361
 937:Src/register_interface.c ****               break;
 3184              		.loc 1 937 15 is_stmt 1 view .LVU926
 937:Src/register_interface.c ****               break;
 3185              		.loc 1 937 28 is_stmt 0 view .LVU927
 3186 031c 1348     		ldr	r0, .L391
 3187              	.LVL384:
 937:Src/register_interface.c ****               break;
 3188              		.loc 1 937 28 view .LVU928
 3189 031e FFF7FEFF 		bl	MCI_GetIqdref
 3190              	.LVL385:
 937:Src/register_interface.c ****               break;
 3191              		.loc 1 937 26 view .LVU929
 3192 0322 2080     		strh	r0, [r4]	@ movhi
 3193              	.LVL386:
 938:Src/register_interface.c ****             }
 3194              		.loc 1 938 15 is_stmt 1 view .LVU930
 3195              	.LBE213:
 773:Src/register_interface.c ****     uint8_t motorID=0;
ARM GAS  C:\Users\ep_ygh\AppData\Local\Temp\ccSYahLu.s 			page 96


 3196              		.loc 1 773 13 is_stmt 0 view .LVU931
 3197 0324 0020     		movs	r0, #0
 3198              	.LBB214:
 938:Src/register_interface.c ****             }
 3199              		.loc 1 938 15 view .LVU932
 3200 0326 0AE7     		b	.L258
 3201              	.LVL387:
 3202              	.L381:
 938:Src/register_interface.c ****             }
 3203              		.loc 1 938 15 view .LVU933
 3204 0328 41F21043 		movw	r3, #5136
 3205 032c 9842     		cmp	r0, r3
 3206 032e 40F00681 		bne	.L361
1001:Src/register_interface.c ****               break;
 3207              		.loc 1 1001 15 is_stmt 1 view .LVU934
1001:Src/register_interface.c ****               break;
 3208              		.loc 1 1001 28 is_stmt 0 view .LVU935
 3209 0332 1548     		ldr	r0, .L391+28
 3210              	.LVL388:
1001:Src/register_interface.c ****               break;
 3211              		.loc 1 1001 28 view .LVU936
 3212 0334 FFF7FEFF 		bl	PID_GetKD
 3213              	.LVL389:
1001:Src/register_interface.c ****               break;
 3214              		.loc 1 1001 26 view .LVU937
 3215 0338 2080     		strh	r0, [r4]	@ movhi
 3216              	.LVL390:
1002:Src/register_interface.c ****             }
 3217              		.loc 1 1002 15 is_stmt 1 view .LVU938
 3218              	.LBE214:
 773:Src/register_interface.c ****     uint8_t motorID=0;
 3219              		.loc 1 773 13 is_stmt 0 view .LVU939
 3220 033a 0020     		movs	r0, #0
 3221              	.LBB215:
1002:Src/register_interface.c ****             }
 3222              		.loc 1 1002 15 view .LVU940
 3223 033c FFE6     		b	.L258
 3224              	.LVL391:
 3225              	.L279:
1002:Src/register_interface.c ****             }
 3226              		.loc 1 1002 15 view .LVU941
 3227 033e 41F21063 		movw	r3, #5648
 3228 0342 9842     		cmp	r0, r3
 3229 0344 00F0A481 		beq	.L292
 3230 0348 33D9     		bls	.L382
 3231 034a 41F2D063 		movw	r3, #5840
 3232 034e 9842     		cmp	r0, r3
 3233 0350 00F07F81 		beq	.L299
 3234 0354 23D9     		bls	.L383
 3235 0356 41F21073 		movw	r3, #5904
 3236 035a 9842     		cmp	r0, r3
 3237 035c 40F0EF80 		bne	.L361
1072:Src/register_interface.c ****               break;
 3238              		.loc 1 1072 15 is_stmt 1 view .LVU942
1072:Src/register_interface.c ****               break;
 3239              		.loc 1 1072 29 is_stmt 0 view .LVU943
 3240 0360 0948     		ldr	r0, .L391+28
ARM GAS  C:\Users\ep_ygh\AppData\Local\Temp\ccSYahLu.s 			page 97


 3241              	.LVL392:
1072:Src/register_interface.c ****               break;
 3242              		.loc 1 1072 29 view .LVU944
 3243 0362 FFF7FEFF 		bl	PID_GetKDDivisorPOW2
 3244              	.LVL393:
1072:Src/register_interface.c ****               break;
 3245              		.loc 1 1072 27 view .LVU945
 3246 0366 2080     		strh	r0, [r4]	@ movhi
 3247              	.LVL394:
1073:Src/register_interface.c ****             }
 3248              		.loc 1 1073 15 is_stmt 1 view .LVU946
 3249              	.LBE215:
 773:Src/register_interface.c ****     uint8_t motorID=0;
 3250              		.loc 1 773 13 is_stmt 0 view .LVU947
 3251 0368 0020     		movs	r0, #0
 3252              	.LBB216:
1073:Src/register_interface.c ****             }
 3253              		.loc 1 1073 15 view .LVU948
 3254 036a E8E6     		b	.L258
 3255              	.L392:
 3256              		.align	2
 3257              	.L391:
 3258 036c 00000000 		.word	Mci
 3259 0370 00000000 		.word	BusVoltageSensor_M1
 3260 0374 00000000 		.word	PosCtrlM1
 3261 0378 00000000 		.word	PIDIdHandle_M1
 3262 037c 00000000 		.word	PIDIqHandle_M1
 3263 0380 00000000 		.word	PIDSpeedHandle_M1
 3264 0384 00000000 		.word	ENCODER_M1
 3265 0388 00000000 		.word	PID_PosParamsM1
 3266              	.LVL395:
 3267              	.L376:
1073:Src/register_interface.c ****             }
 3268              		.loc 1 1073 15 view .LVU949
 3269 038c B0F5FA6F 		cmp	r0, #2000
 3270 0390 20D1     		bne	.L384
 901:Src/register_interface.c ****               break;
 3271              		.loc 1 901 15 is_stmt 1 view .LVU950
 901:Src/register_interface.c ****               break;
 3272              		.loc 1 901 28 is_stmt 0 view .LVU951
 3273 0392 B348     		ldr	r0, .L393
 3274              	.LVL396:
 901:Src/register_interface.c ****               break;
 3275              		.loc 1 901 28 view .LVU952
 3276 0394 FFF7FEFF 		bl	MCI_GetIab
 3277              	.LVL397:
 901:Src/register_interface.c ****               break;
 3278              		.loc 1 901 26 view .LVU953
 3279 0398 2080     		strh	r0, [r4]	@ movhi
 3280              	.LVL398:
 902:Src/register_interface.c ****             }
 3281              		.loc 1 902 15 is_stmt 1 view .LVU954
 3282              	.LBE216:
 773:Src/register_interface.c ****     uint8_t motorID=0;
 3283              		.loc 1 773 13 is_stmt 0 view .LVU955
 3284 039a 0020     		movs	r0, #0
 3285              	.LBB217:
ARM GAS  C:\Users\ep_ygh\AppData\Local\Temp\ccSYahLu.s 			page 98


 902:Src/register_interface.c ****             }
 3286              		.loc 1 902 15 view .LVU956
 3287 039c CFE6     		b	.L258
 3288              	.LVL399:
 3289              	.L383:
 902:Src/register_interface.c ****             }
 3290              		.loc 1 902 15 view .LVU957
 3291 039e 41F25063 		movw	r3, #5712
 3292 03a2 9842     		cmp	r0, r3
 3293 03a4 22D1     		bne	.L385
1054:Src/register_interface.c ****               break;
 3294              		.loc 1 1054 15 is_stmt 1 view .LVU958
1054:Src/register_interface.c ****               break;
 3295              		.loc 1 1054 29 is_stmt 0 view .LVU959
 3296 03a6 AF48     		ldr	r0, .L393+4
 3297              	.LVL400:
1054:Src/register_interface.c ****               break;
 3298              		.loc 1 1054 29 view .LVU960
 3299 03a8 FFF7FEFF 		bl	PID_GetKDDivisorPOW2
 3300              	.LVL401:
1054:Src/register_interface.c ****               break;
 3301              		.loc 1 1054 27 view .LVU961
 3302 03ac 2080     		strh	r0, [r4]	@ movhi
 3303              	.LVL402:
1055:Src/register_interface.c ****             }
 3304              		.loc 1 1055 15 is_stmt 1 view .LVU962
 3305              	.LBE217:
 773:Src/register_interface.c ****     uint8_t motorID=0;
 3306              		.loc 1 773 13 is_stmt 0 view .LVU963
 3307 03ae 0020     		movs	r0, #0
 3308              	.LBB218:
1055:Src/register_interface.c ****             }
 3309              		.loc 1 1055 15 view .LVU964
 3310 03b0 C5E6     		b	.L258
 3311              	.LVL403:
 3312              	.L382:
1055:Src/register_interface.c ****             }
 3313              		.loc 1 1055 15 view .LVU965
 3314 03b2 41F29053 		movw	r3, #5520
 3315 03b6 9842     		cmp	r0, r3
 3316 03b8 00F07081 		beq	.L294
 3317 03bc 21D9     		bls	.L386
 3318 03be 41F2D053 		movw	r3, #5584
 3319 03c2 9842     		cmp	r0, r3
 3320 03c4 40F0BB80 		bne	.L361
1042:Src/register_interface.c ****               break;
 3321              		.loc 1 1042 15 is_stmt 1 view .LVU966
1042:Src/register_interface.c ****               break;
 3322              		.loc 1 1042 29 is_stmt 0 view .LVU967
 3323 03c8 A648     		ldr	r0, .L393+4
 3324              	.LVL404:
1042:Src/register_interface.c ****               break;
 3325              		.loc 1 1042 29 view .LVU968
 3326 03ca FFF7FEFF 		bl	PID_GetKPDivisorPOW2
 3327              	.LVL405:
1042:Src/register_interface.c ****               break;
 3328              		.loc 1 1042 27 view .LVU969
ARM GAS  C:\Users\ep_ygh\AppData\Local\Temp\ccSYahLu.s 			page 99


 3329 03ce 2080     		strh	r0, [r4]	@ movhi
 3330              	.LVL406:
1043:Src/register_interface.c ****             }
 3331              		.loc 1 1043 15 is_stmt 1 view .LVU970
 3332              	.LBE218:
 773:Src/register_interface.c ****     uint8_t motorID=0;
 3333              		.loc 1 773 13 is_stmt 0 view .LVU971
 3334 03d0 0020     		movs	r0, #0
 3335              	.LBB219:
1043:Src/register_interface.c ****             }
 3336              		.loc 1 1043 15 view .LVU972
 3337 03d2 B4E6     		b	.L258
 3338              	.LVL407:
 3339              	.L384:
1043:Src/register_interface.c ****             }
 3340              		.loc 1 1043 15 view .LVU973
 3341 03d4 B0F5016F 		cmp	r0, #2064
 3342 03d8 40F0B180 		bne	.L361
 907:Src/register_interface.c ****               break;
 3343              		.loc 1 907 15 is_stmt 1 view .LVU974
 907:Src/register_interface.c ****               break;
 3344              		.loc 1 907 28 is_stmt 0 view .LVU975
 3345 03dc A048     		ldr	r0, .L393
 3346              	.LVL408:
 907:Src/register_interface.c ****               break;
 3347              		.loc 1 907 28 view .LVU976
 3348 03de FFF7FEFF 		bl	MCI_GetIab
 3349              	.LVL409:
 907:Src/register_interface.c ****               break;
 3350              		.loc 1 907 28 view .LVU977
 3351 03e2 C0F30F40 		ubfx	r0, r0, #16, #16
 907:Src/register_interface.c ****               break;
 3352              		.loc 1 907 26 view .LVU978
 3353 03e6 2080     		strh	r0, [r4]	@ movhi
 3354              	.LVL410:
 908:Src/register_interface.c ****             }
 3355              		.loc 1 908 15 is_stmt 1 view .LVU979
 3356              	.LBE219:
 773:Src/register_interface.c ****     uint8_t motorID=0;
 3357              		.loc 1 773 13 is_stmt 0 view .LVU980
 3358 03e8 0020     		movs	r0, #0
 3359              	.LBB220:
 908:Src/register_interface.c ****             }
 3360              		.loc 1 908 15 view .LVU981
 3361 03ea A8E6     		b	.L258
 3362              	.LVL411:
 3363              	.L385:
 908:Src/register_interface.c ****             }
 3364              		.loc 1 908 15 view .LVU982
 3365 03ec 41F29063 		movw	r3, #5776
 3366 03f0 9842     		cmp	r0, r3
 3367 03f2 40F0A480 		bne	.L361
1060:Src/register_interface.c ****               break;
 3368              		.loc 1 1060 15 is_stmt 1 view .LVU983
1060:Src/register_interface.c ****               break;
 3369              		.loc 1 1060 29 is_stmt 0 view .LVU984
 3370 03f6 9C48     		ldr	r0, .L393+8
ARM GAS  C:\Users\ep_ygh\AppData\Local\Temp\ccSYahLu.s 			page 100


 3371              	.LVL412:
1060:Src/register_interface.c ****               break;
 3372              		.loc 1 1060 29 view .LVU985
 3373 03f8 FFF7FEFF 		bl	PID_GetKPDivisorPOW2
 3374              	.LVL413:
1060:Src/register_interface.c ****               break;
 3375              		.loc 1 1060 27 view .LVU986
 3376 03fc 2080     		strh	r0, [r4]	@ movhi
 3377              	.LVL414:
1061:Src/register_interface.c ****             }
 3378              		.loc 1 1061 15 is_stmt 1 view .LVU987
 3379              	.LBE220:
 773:Src/register_interface.c ****     uint8_t motorID=0;
 3380              		.loc 1 773 13 is_stmt 0 view .LVU988
 3381 03fe 0020     		movs	r0, #0
 3382              	.LBB221:
1061:Src/register_interface.c ****             }
 3383              		.loc 1 1061 15 view .LVU989
 3384 0400 9DE6     		b	.L258
 3385              	.LVL415:
 3386              	.L386:
1061:Src/register_interface.c ****             }
 3387              		.loc 1 1061 15 view .LVU990
 3388 0402 41F21053 		movw	r3, #5392
 3389 0406 9842     		cmp	r0, r3
 3390 0408 21D1     		bne	.L387
1024:Src/register_interface.c ****               break;
 3391              		.loc 1 1024 15 is_stmt 1 view .LVU991
1024:Src/register_interface.c ****               break;
 3392              		.loc 1 1024 29 is_stmt 0 view .LVU992
 3393 040a 9848     		ldr	r0, .L393+12
 3394              	.LVL416:
1024:Src/register_interface.c ****               break;
 3395              		.loc 1 1024 29 view .LVU993
 3396 040c FFF7FEFF 		bl	PID_GetKPDivisorPOW2
 3397              	.LVL417:
1024:Src/register_interface.c ****               break;
 3398              		.loc 1 1024 27 view .LVU994
 3399 0410 2080     		strh	r0, [r4]	@ movhi
 3400              	.LVL418:
1025:Src/register_interface.c ****             }
 3401              		.loc 1 1025 15 is_stmt 1 view .LVU995
 3402              	.LBE221:
 773:Src/register_interface.c ****     uint8_t motorID=0;
 3403              		.loc 1 773 13 is_stmt 0 view .LVU996
 3404 0412 0020     		movs	r0, #0
 3405              	.LBB222:
1025:Src/register_interface.c ****             }
 3406              		.loc 1 1025 15 view .LVU997
 3407 0414 93E6     		b	.L258
 3408              	.LVL419:
 3409              	.L368:
1025:Src/register_interface.c ****             }
 3410              		.loc 1 1025 15 view .LVU998
 3411 0416 B0F5347F 		cmp	r0, #720
 3412 041a 40F09080 		bne	.L361
 877:Src/register_interface.c ****               break;
ARM GAS  C:\Users\ep_ygh\AppData\Local\Temp\ccSYahLu.s 			page 101


 3413              		.loc 1 877 15 is_stmt 1 view .LVU999
 877:Src/register_interface.c ****               break;
 3414              		.loc 1 877 28 is_stmt 0 view .LVU1000
 3415 041e 9348     		ldr	r0, .L393+12
 3416              	.LVL420:
 877:Src/register_interface.c ****               break;
 3417              		.loc 1 877 28 view .LVU1001
 3418 0420 FFF7FEFF 		bl	PID_GetKI
 3419              	.LVL421:
 877:Src/register_interface.c ****               break;
 3420              		.loc 1 877 26 view .LVU1002
 3421 0424 2080     		strh	r0, [r4]	@ movhi
 3422              	.LVL422:
 878:Src/register_interface.c ****             }
 3423              		.loc 1 878 15 is_stmt 1 view .LVU1003
 3424              	.LBE222:
 773:Src/register_interface.c ****     uint8_t motorID=0;
 3425              		.loc 1 773 13 is_stmt 0 view .LVU1004
 3426 0426 0020     		movs	r0, #0
 3427              	.LBB223:
 878:Src/register_interface.c ****             }
 3428              		.loc 1 878 15 view .LVU1005
 3429 0428 89E6     		b	.L258
 3430              	.LVL423:
 3431              	.L370:
 878:Src/register_interface.c ****             }
 3432              		.loc 1 878 15 view .LVU1006
 3433 042a B0F5E87F 		cmp	r0, #464
 3434 042e 40F08680 		bne	.L361
 859:Src/register_interface.c ****               break;
 3435              		.loc 1 859 15 is_stmt 1 view .LVU1007
 859:Src/register_interface.c ****               break;
 3436              		.loc 1 859 28 is_stmt 0 view .LVU1008
 3437 0432 8C48     		ldr	r0, .L393+4
 3438              	.LVL424:
 859:Src/register_interface.c ****               break;
 3439              		.loc 1 859 28 view .LVU1009
 3440 0434 FFF7FEFF 		bl	PID_GetKI
 3441              	.LVL425:
 859:Src/register_interface.c ****               break;
 3442              		.loc 1 859 26 view .LVU1010
 3443 0438 2080     		strh	r0, [r4]	@ movhi
 3444              	.LVL426:
 860:Src/register_interface.c ****             }
 3445              		.loc 1 860 15 is_stmt 1 view .LVU1011
 3446              	.LBE223:
 773:Src/register_interface.c ****     uint8_t motorID=0;
 3447              		.loc 1 773 13 is_stmt 0 view .LVU1012
 3448 043a 0020     		movs	r0, #0
 3449              	.LBB224:
 860:Src/register_interface.c ****             }
 3450              		.loc 1 860 15 view .LVU1013
 3451 043c 7FE6     		b	.L258
 3452              	.LVL427:
 3453              	.L369:
 860:Src/register_interface.c ****             }
 3454              		.loc 1 860 15 view .LVU1014
ARM GAS  C:\Users\ep_ygh\AppData\Local\Temp\ccSYahLu.s 			page 102


 3455 043e 9028     		cmp	r0, #144
 3456 0440 0FD1     		bne	.L388
 835:Src/register_interface.c ****               break;
 3457              		.loc 1 835 15 is_stmt 1 view .LVU1015
 835:Src/register_interface.c ****               break;
 3458              		.loc 1 835 28 is_stmt 0 view .LVU1016
 3459 0442 8B48     		ldr	r0, .L393+16
 3460              	.LVL428:
 835:Src/register_interface.c ****               break;
 3461              		.loc 1 835 28 view .LVU1017
 3462 0444 FFF7FEFF 		bl	PID_GetKP
 3463              	.LVL429:
 835:Src/register_interface.c ****               break;
 3464              		.loc 1 835 26 view .LVU1018
 3465 0448 2080     		strh	r0, [r4]	@ movhi
 3466              	.LVL430:
 836:Src/register_interface.c ****             }
 3467              		.loc 1 836 15 is_stmt 1 view .LVU1019
 3468              	.LBE224:
 773:Src/register_interface.c ****     uint8_t motorID=0;
 3469              		.loc 1 773 13 is_stmt 0 view .LVU1020
 3470 044a 0020     		movs	r0, #0
 3471              	.LBB225:
 836:Src/register_interface.c ****             }
 3472              		.loc 1 836 15 view .LVU1021
 3473 044c 77E6     		b	.L258
 3474              	.LVL431:
 3475              	.L387:
 836:Src/register_interface.c ****             }
 3476              		.loc 1 836 15 view .LVU1022
 3477 044e 41F25053 		movw	r3, #5456
 3478 0452 9842     		cmp	r0, r3
 3479 0454 73D1     		bne	.L361
1030:Src/register_interface.c ****               break;
 3480              		.loc 1 1030 15 is_stmt 1 view .LVU1023
1030:Src/register_interface.c ****               break;
 3481              		.loc 1 1030 29 is_stmt 0 view .LVU1024
 3482 0456 8548     		ldr	r0, .L393+12
 3483              	.LVL432:
1030:Src/register_interface.c ****               break;
 3484              		.loc 1 1030 29 view .LVU1025
 3485 0458 FFF7FEFF 		bl	PID_GetKIDivisorPOW2
 3486              	.LVL433:
1030:Src/register_interface.c ****               break;
 3487              		.loc 1 1030 27 view .LVU1026
 3488 045c 2080     		strh	r0, [r4]	@ movhi
 3489              	.LVL434:
1031:Src/register_interface.c ****             }
 3490              		.loc 1 1031 15 is_stmt 1 view .LVU1027
 3491              	.LBE225:
 773:Src/register_interface.c ****     uint8_t motorID=0;
 3492              		.loc 1 773 13 is_stmt 0 view .LVU1028
 3493 045e 0020     		movs	r0, #0
 3494              	.LBB226:
1031:Src/register_interface.c ****             }
 3495              		.loc 1 1031 15 view .LVU1029
 3496 0460 6DE6     		b	.L258
ARM GAS  C:\Users\ep_ygh\AppData\Local\Temp\ccSYahLu.s 			page 103


 3497              	.LVL435:
 3498              	.L388:
1031:Src/register_interface.c ****             }
 3499              		.loc 1 1031 15 view .LVU1030
 3500 0462 D028     		cmp	r0, #208
 3501 0464 6BD1     		bne	.L361
 841:Src/register_interface.c ****               break;
 3502              		.loc 1 841 15 is_stmt 1 view .LVU1031
 841:Src/register_interface.c ****               break;
 3503              		.loc 1 841 28 is_stmt 0 view .LVU1032
 3504 0466 8248     		ldr	r0, .L393+16
 3505              	.LVL436:
 841:Src/register_interface.c ****               break;
 3506              		.loc 1 841 28 view .LVU1033
 3507 0468 FFF7FEFF 		bl	PID_GetKI
 3508              	.LVL437:
 841:Src/register_interface.c ****               break;
 3509              		.loc 1 841 26 view .LVU1034
 3510 046c 2080     		strh	r0, [r4]	@ movhi
 3511              	.LVL438:
 842:Src/register_interface.c ****             }
 3512              		.loc 1 842 15 is_stmt 1 view .LVU1035
 3513              	.LBE226:
 773:Src/register_interface.c ****     uint8_t motorID=0;
 3514              		.loc 1 773 13 is_stmt 0 view .LVU1036
 3515 046e 0020     		movs	r0, #0
 3516              	.LBB227:
 842:Src/register_interface.c ****             }
 3517              		.loc 1 842 15 view .LVU1037
 3518 0470 65E6     		b	.L258
 3519              	.LVL439:
 3520              	.L305:
 842:Src/register_interface.c ****             }
 3521              		.loc 1 842 15 view .LVU1038
 3522              	.LBE227:
 3523              	.LBB228:
 3524 0472 40F65823 		movw	r3, #2648
 3525 0476 9842     		cmp	r0, r3
 3526 0478 00F0B580 		beq	.L309
 3527 047c 41F65833 		movw	r3, #7000
 3528 0480 9842     		cmp	r0, r3
 3529 0482 40F05D81 		bne	.L362
 3530              	.LBB177:
1127:Src/register_interface.c ****               ReadVal.Float_Val = PQD_GetAvrgElMotorPowerW(pMPM[M1]);
 3531              		.loc 1 1127 15 is_stmt 1 view .LVU1039
1128:Src/register_interface.c ****               *regdataU32 = ReadVal.U32_Val; //cstat !UNION-type-punning
 3532              		.loc 1 1128 15 view .LVU1040
1128:Src/register_interface.c ****               *regdataU32 = ReadVal.U32_Val; //cstat !UNION-type-punning
 3533              		.loc 1 1128 64 is_stmt 0 view .LVU1041
 3534 0486 7B4B     		ldr	r3, .L393+20
1128:Src/register_interface.c ****               *regdataU32 = ReadVal.U32_Val; //cstat !UNION-type-punning
 3535              		.loc 1 1128 35 view .LVU1042
 3536 0488 1868     		ldr	r0, [r3]
 3537              	.LVL440:
1128:Src/register_interface.c ****               *regdataU32 = ReadVal.U32_Val; //cstat !UNION-type-punning
 3538              		.loc 1 1128 35 view .LVU1043
 3539 048a FFF7FEFF 		bl	PQD_GetAvrgElMotorPowerW
ARM GAS  C:\Users\ep_ygh\AppData\Local\Temp\ccSYahLu.s 			page 104


 3540              	.LVL441:
1128:Src/register_interface.c ****               *regdataU32 = ReadVal.U32_Val; //cstat !UNION-type-punning
 3541              		.loc 1 1128 35 view .LVU1044
 3542 048e 8DED010A 		vstr.32	s0, [sp, #4]
 3543              	.LVL442:
1129:Src/register_interface.c ****               break;
 3544              		.loc 1 1129 15 is_stmt 1 view .LVU1045
1129:Src/register_interface.c ****               break;
 3545              		.loc 1 1129 27 is_stmt 0 view .LVU1046
 3546 0492 019B     		ldr	r3, [sp, #4]
 3547 0494 2360     		str	r3, [r4]
1130:Src/register_interface.c ****             }
 3548              		.loc 1 1130 15 is_stmt 1 view .LVU1047
 3549              	.LVL443:
1130:Src/register_interface.c ****             }
 3550              		.loc 1 1130 15 is_stmt 0 view .LVU1048
 3551              	.LBE177:
 3552              	.LBE228:
 773:Src/register_interface.c ****     uint8_t motorID=0;
 3553              		.loc 1 773 13 view .LVU1049
 3554 0496 0020     		movs	r0, #0
 3555 0498 21E6     		b	.L308
 3556              	.LVL444:
 3557              	.L339:
 819:Src/register_interface.c ****         }
 3558              		.loc 1 819 18 view .LVU1050
 3559 049a 0820     		movs	r0, #8
 3560              	.LVL445:
1310:Src/register_interface.c **** 
 3561              		.loc 1 1310 3 view .LVU1051
 3562 049c 10B0     		add	sp, sp, #64
 3563              	.LCFI59:
 3564              		.cfi_remember_state
 3565              		.cfi_def_cfa_offset 16
 3566              		@ sp needed
 3567 049e 70BD     		pop	{r4, r5, r6, pc}
 3568              	.LVL446:
 3569              	.L312:
 3570              	.LCFI60:
 3571              		.cfi_restore_state
 3572              	.LBB229:
1161:Src/register_interface.c ****             break;
 3573              		.loc 1 1161 13 is_stmt 1 view .LVU1052
1161:Src/register_interface.c ****             break;
 3574              		.loc 1 1161 51 is_stmt 0 view .LVU1053
 3575 04a0 754B     		ldr	r3, .L393+24
 3576 04a2 1A68     		ldr	r2, [r3]
 3577              	.LBB181:
 3578              	.LBB182:
1317:Src/register_interface.c **** 
 3579              		.loc 1 1317 8 view .LVU1054
 3580 04a4 0123     		movs	r3, #1
 3581 04a6 2B80     		strh	r3, [r5]	@ movhi
 3582              	.LBE182:
 3583              	.LBE181:
1161:Src/register_interface.c ****             break;
 3584              		.loc 1 1161 60 view .LVU1055
ARM GAS  C:\Users\ep_ygh\AppData\Local\Temp\ccSYahLu.s 			page 105


 3585 04a8 02F12401 		add	r1, r2, #36
 3586              	.LVL447:
 3587              	.LBB186:
 3588              	.LBI181:
1312:Src/register_interface.c **** {
 3589              		.loc 1 1312 9 is_stmt 1 view .LVU1056
 3590              	.LBB183:
1314:Src/register_interface.c ****   const char_t *tempsrcString = srcString;
 3591              		.loc 1 1314 3 view .LVU1057
1315:Src/register_interface.c ****   char_t *tempdestString = destString;
 3592              		.loc 1 1315 3 view .LVU1058
1316:Src/register_interface.c ****   *size= 1U ; /* /0 is the min String size */
 3593              		.loc 1 1316 3 view .LVU1059
1317:Src/register_interface.c **** 
 3594              		.loc 1 1317 3 view .LVU1060
1319:Src/register_interface.c ****   {
 3595              		.loc 1 1319 3 view .LVU1061
1319:Src/register_interface.c ****   {
 3596              		.loc 1 1319 9 view .LVU1062
1319:Src/register_interface.c ****   {
 3597              		.loc 1 1319 11 is_stmt 0 view .LVU1063
 3598 04ac 92F92420 		ldrsb	r2, [r2, #36]
1319:Src/register_interface.c ****   {
 3599              		.loc 1 1319 9 view .LVU1064
 3600 04b0 7AB1     		cbz	r2, .L317
 3601              	.LBE183:
 3602              	.LBE186:
 3603              	.LBB187:
 3604              	.LBB188:
1319:Src/register_interface.c ****   {
 3605              		.loc 1 1319 50 view .LVU1065
 3606 04b2 1FFA8CFC 		uxth	ip, ip
1319:Src/register_interface.c ****   {
 3607              		.loc 1 1319 50 view .LVU1066
 3608 04b6 08E0     		b	.L318
 3609              	.LVL448:
 3610              	.L319:
1319:Src/register_interface.c ****   {
 3611              		.loc 1 1319 50 view .LVU1067
 3612              	.LBE188:
 3613              	.LBE187:
 3614              	.LBB192:
 3615              	.LBB184:
1321:Src/register_interface.c ****     tempdestString++;
 3616              		.loc 1 1321 21 view .LVU1068
 3617 04b8 04F8012B 		strb	r2, [r4], #1
 3618              	.LVL449:
1322:Src/register_interface.c ****     tempsrcString++;
 3619              		.loc 1 1322 5 is_stmt 1 view .LVU1069
1323:Src/register_interface.c ****     *size = *size + 1U;
 3620              		.loc 1 1323 5 view .LVU1070
1324:Src/register_interface.c ****   }
 3621              		.loc 1 1324 5 view .LVU1071
1324:Src/register_interface.c ****   }
 3622              		.loc 1 1324 19 is_stmt 0 view .LVU1072
 3623 04bc 2B88     		ldrh	r3, [r5]
 3624 04be 0133     		adds	r3, r3, #1
ARM GAS  C:\Users\ep_ygh\AppData\Local\Temp\ccSYahLu.s 			page 106


 3625 04c0 9BB2     		uxth	r3, r3
1324:Src/register_interface.c ****   }
 3626              		.loc 1 1324 11 view .LVU1073
 3627 04c2 2B80     		strh	r3, [r5]	@ movhi
1319:Src/register_interface.c ****   {
 3628              		.loc 1 1319 9 is_stmt 1 view .LVU1074
1319:Src/register_interface.c ****   {
 3629              		.loc 1 1319 11 is_stmt 0 view .LVU1075
 3630 04c4 11F9012F 		ldrsb	r2, [r1, #1]!
 3631              	.LVL450:
1319:Src/register_interface.c ****   {
 3632              		.loc 1 1319 9 view .LVU1076
 3633 04c8 1AB1     		cbz	r2, .L317
 3634              	.L318:
1321:Src/register_interface.c ****     tempdestString++;
 3635              		.loc 1 1321 5 is_stmt 1 view .LVU1077
1319:Src/register_interface.c ****   {
 3636              		.loc 1 1319 40 is_stmt 0 view .LVU1078
 3637 04ca 6345     		cmp	r3, ip
 3638 04cc F4D3     		bcc	.L319
 3639              	.LVL451:
 3640              	.L320:
1319:Src/register_interface.c ****   {
 3641              		.loc 1 1319 40 view .LVU1079
 3642              	.LBE184:
 3643              	.LBE192:
 3644              	.LBB193:
 3645              	.LBB189:
1329:Src/register_interface.c ****   }
 3646              		.loc 1 1329 12 view .LVU1080
 3647 04ce 0620     		movs	r0, #6
 3648              	.LVL452:
1329:Src/register_interface.c ****   }
 3649              		.loc 1 1329 12 view .LVU1081
 3650 04d0 B4E5     		b	.L357
 3651              	.LVL453:
 3652              	.L317:
1329:Src/register_interface.c ****   }
 3653              		.loc 1 1329 12 view .LVU1082
 3654              	.LBE189:
 3655              	.LBE193:
 3656              	.LBB194:
 3657              	.LBB185:
1327:Src/register_interface.c ****   { /* Last string char must be 0 */
 3658              		.loc 1 1327 3 is_stmt 1 view .LVU1083
 3659              		.loc 1 1333 5 view .LVU1084
 3660              		.loc 1 1333 21 is_stmt 0 view .LVU1085
 3661 04d2 0020     		movs	r0, #0
 3662              	.LVL454:
 3663              		.loc 1 1333 21 view .LVU1086
 3664 04d4 2070     		strb	r0, [r4]
 3665              	.LVL455:
 3666              		.loc 1 1333 21 view .LVU1087
 3667              	.LBE185:
 3668              	.LBE194:
 3669              	.LBE229:
1309:Src/register_interface.c ****   }
ARM GAS  C:\Users\ep_ygh\AppData\Local\Temp\ccSYahLu.s 			page 107


 3670              		.loc 1 1309 5 is_stmt 1 view .LVU1088
1309:Src/register_interface.c ****   }
 3671              		.loc 1 1309 12 is_stmt 0 view .LVU1089
 3672 04d6 B1E5     		b	.L357
 3673              	.LVL456:
 3674              	.L311:
 3675              	.LBB230:
1155:Src/register_interface.c ****             break;
 3676              		.loc 1 1155 13 is_stmt 1 view .LVU1090
1155:Src/register_interface.c ****             break;
 3677              		.loc 1 1155 22 is_stmt 0 view .LVU1091
 3678 04d8 684A     		ldr	r2, .L393+28
 3679              	.LBB195:
 3680              	.LBB190:
1317:Src/register_interface.c **** 
 3681              		.loc 1 1317 8 view .LVU1092
 3682 04da 0123     		movs	r3, #1
 3683              	.LBE190:
 3684              	.LBE195:
1155:Src/register_interface.c ****             break;
 3685              		.loc 1 1155 22 view .LVU1093
 3686 04dc 1168     		ldr	r1, [r2]
 3687              	.LVL457:
 3688              	.LBB196:
 3689              	.LBI187:
1312:Src/register_interface.c **** {
 3690              		.loc 1 1312 9 is_stmt 1 view .LVU1094
 3691              	.LBB191:
1314:Src/register_interface.c ****   const char_t *tempsrcString = srcString;
 3692              		.loc 1 1314 3 view .LVU1095
1315:Src/register_interface.c ****   char_t *tempdestString = destString;
 3693              		.loc 1 1315 3 view .LVU1096
1316:Src/register_interface.c ****   *size= 1U ; /* /0 is the min String size */
 3694              		.loc 1 1316 3 view .LVU1097
1317:Src/register_interface.c **** 
 3695              		.loc 1 1317 3 view .LVU1098
1317:Src/register_interface.c **** 
 3696              		.loc 1 1317 8 is_stmt 0 view .LVU1099
 3697 04de 2B80     		strh	r3, [r5]	@ movhi
1319:Src/register_interface.c ****   {
 3698              		.loc 1 1319 3 is_stmt 1 view .LVU1100
1319:Src/register_interface.c ****   {
 3699              		.loc 1 1319 9 view .LVU1101
1319:Src/register_interface.c ****   {
 3700              		.loc 1 1319 11 is_stmt 0 view .LVU1102
 3701 04e0 91F90020 		ldrsb	r2, [r1]
1319:Src/register_interface.c ****   {
 3702              		.loc 1 1319 9 view .LVU1103
 3703 04e4 002A     		cmp	r2, #0
 3704 04e6 F4D0     		beq	.L317
1319:Src/register_interface.c ****   {
 3705              		.loc 1 1319 50 view .LVU1104
 3706 04e8 1FFA8CFC 		uxth	ip, ip
1319:Src/register_interface.c ****   {
 3707              		.loc 1 1319 50 view .LVU1105
 3708 04ec 09E0     		b	.L315
 3709              	.LVL458:
ARM GAS  C:\Users\ep_ygh\AppData\Local\Temp\ccSYahLu.s 			page 108


 3710              	.L316:
1321:Src/register_interface.c ****     tempdestString++;
 3711              		.loc 1 1321 21 view .LVU1106
 3712 04ee 04F8012B 		strb	r2, [r4], #1
 3713              	.LVL459:
1322:Src/register_interface.c ****     tempsrcString++;
 3714              		.loc 1 1322 5 is_stmt 1 view .LVU1107
1323:Src/register_interface.c ****     *size = *size + 1U;
 3715              		.loc 1 1323 5 view .LVU1108
1324:Src/register_interface.c ****   }
 3716              		.loc 1 1324 5 view .LVU1109
1324:Src/register_interface.c ****   }
 3717              		.loc 1 1324 19 is_stmt 0 view .LVU1110
 3718 04f2 2B88     		ldrh	r3, [r5]
 3719 04f4 0133     		adds	r3, r3, #1
 3720 04f6 9BB2     		uxth	r3, r3
1324:Src/register_interface.c ****   }
 3721              		.loc 1 1324 11 view .LVU1111
 3722 04f8 2B80     		strh	r3, [r5]	@ movhi
1319:Src/register_interface.c ****   {
 3723              		.loc 1 1319 9 is_stmt 1 view .LVU1112
1319:Src/register_interface.c ****   {
 3724              		.loc 1 1319 11 is_stmt 0 view .LVU1113
 3725 04fa 11F9012F 		ldrsb	r2, [r1, #1]!
 3726              	.LVL460:
1319:Src/register_interface.c ****   {
 3727              		.loc 1 1319 9 view .LVU1114
 3728 04fe 002A     		cmp	r2, #0
 3729 0500 E7D0     		beq	.L317
 3730              	.L315:
1321:Src/register_interface.c ****     tempdestString++;
 3731              		.loc 1 1321 5 is_stmt 1 view .LVU1115
1319:Src/register_interface.c ****   {
 3732              		.loc 1 1319 40 is_stmt 0 view .LVU1116
 3733 0502 9C45     		cmp	ip, r3
 3734 0504 F3D8     		bhi	.L316
1319:Src/register_interface.c ****   {
 3735              		.loc 1 1319 40 view .LVU1117
 3736 0506 E2E7     		b	.L320
 3737              	.LVL461:
 3738              	.L366:
1319:Src/register_interface.c ****   {
 3739              		.loc 1 1319 40 view .LVU1118
 3740              	.LBE191:
 3741              	.LBE196:
 3742              	.LBE230:
 3743              	.LBB231:
1239:Src/register_interface.c ****             }
 3744              		.loc 1 1239 15 is_stmt 1 view .LVU1119
 3745 0508 5D4A     		ldr	r2, .L393+32
 3746 050a 5068     		ldr	r0, [r2, #4]	@ unaligned
 3747              	.LVL462:
1239:Src/register_interface.c ****             }
 3748              		.loc 1 1239 15 is_stmt 0 view .LVU1120
 3749 050c 1468     		ldr	r4, [r2]	@ unaligned
 3750              	.LVL463:
1239:Src/register_interface.c ****             }
ARM GAS  C:\Users\ep_ygh\AppData\Local\Temp\ccSYahLu.s 			page 109


 3751              		.loc 1 1239 15 view .LVU1121
 3752 050e 9168     		ldr	r1, [r2, #8]	@ unaligned
 3753              	.LVL464:
1239:Src/register_interface.c ****             }
 3754              		.loc 1 1239 15 view .LVU1122
 3755 0510 D268     		ldr	r2, [r2, #12]	@ unaligned
 3756 0512 DA60     		str	r2, [r3, #12]	@ unaligned
 3757 0514 5860     		str	r0, [r3, #4]	@ unaligned
 3758 0516 1C60     		str	r4, [r3]	@ unaligned
 3759 0518 9960     		str	r1, [r3, #8]	@ unaligned
 3760              	.LBE231:
 773:Src/register_interface.c ****     uint8_t motorID=0;
 3761              		.loc 1 773 13 view .LVU1123
 3762 051a 0020     		movs	r0, #0
 3763              	.LBB232:
1239:Src/register_interface.c ****             }
 3764              		.loc 1 1239 15 view .LVU1124
 3765 051c 0E23     		movs	r3, #14
 3766              	.LVL465:
1239:Src/register_interface.c ****             }
 3767              		.loc 1 1239 15 view .LVU1125
 3768 051e ABE5     		b	.L332
 3769              	.LVL466:
 3770              	.L363:
 3771              	.LBB164:
1194:Src/register_interface.c ****               (void)memcpy(rawData, (const uint8_t *)pApplicationConfig_reg, sizeof(ApplicationConf
 3772              		.loc 1 1194 15 is_stmt 1 view .LVU1126
1195:Src/register_interface.c ****             }
 3773              		.loc 1 1195 15 view .LVU1127
1194:Src/register_interface.c ****               (void)memcpy(rawData, (const uint8_t *)pApplicationConfig_reg, sizeof(ApplicationConf
 3774              		.loc 1 1194 46 is_stmt 0 view .LVU1128
 3775 0520 584A     		ldr	r2, .L393+36
 3776              	.LVL467:
1195:Src/register_interface.c ****             }
 3777              		.loc 1 1195 21 view .LVU1129
 3778 0522 1268     		ldr	r2, [r2]
 3779              	.LVL468:
1195:Src/register_interface.c ****             }
 3780              		.loc 1 1195 21 view .LVU1130
 3781 0524 5068     		ldr	r0, [r2, #4]	@ unaligned
 3782              	.LVL469:
1195:Src/register_interface.c ****             }
 3783              		.loc 1 1195 21 view .LVU1131
 3784 0526 1468     		ldr	r4, [r2]	@ unaligned
 3785              	.LVL470:
1195:Src/register_interface.c ****             }
 3786              		.loc 1 1195 21 view .LVU1132
 3787 0528 9168     		ldr	r1, [r2, #8]	@ unaligned
 3788              	.LVL471:
1195:Src/register_interface.c ****             }
 3789              		.loc 1 1195 21 view .LVU1133
 3790 052a D268     		ldr	r2, [r2, #12]	@ unaligned
 3791              	.LVL472:
1195:Src/register_interface.c ****             }
 3792              		.loc 1 1195 21 view .LVU1134
 3793 052c DA60     		str	r2, [r3, #12]	@ unaligned
 3794 052e 5860     		str	r0, [r3, #4]	@ unaligned
ARM GAS  C:\Users\ep_ygh\AppData\Local\Temp\ccSYahLu.s 			page 110


 3795 0530 1C60     		str	r4, [r3]	@ unaligned
 3796              	.LVL473:
1195:Src/register_interface.c ****             }
 3797              		.loc 1 1195 21 view .LVU1135
 3798 0532 9960     		str	r1, [r3, #8]	@ unaligned
 3799              	.LBE164:
 3800              	.LBE232:
 773:Src/register_interface.c ****     uint8_t motorID=0;
 3801              		.loc 1 773 13 view .LVU1136
 3802 0534 0020     		movs	r0, #0
 3803              	.LBB233:
 3804              	.LBB165:
1195:Src/register_interface.c ****             }
 3805              		.loc 1 1195 21 view .LVU1137
 3806 0536 1223     		movs	r3, #18
 3807              	.LVL474:
1195:Src/register_interface.c ****             }
 3808              		.loc 1 1195 21 view .LVU1138
 3809 0538 9EE5     		b	.L332
 3810              	.LVL475:
 3811              	.L335:
1195:Src/register_interface.c ****             }
 3812              		.loc 1 1195 21 view .LVU1139
 3813              	.LBE165:
 3814              	.LBE233:
 819:Src/register_interface.c ****         }
 3815              		.loc 1 819 18 view .LVU1140
 3816 053a 0846     		mov	r0, r1
 3817              	.LVL476:
 819:Src/register_interface.c ****         }
 3818              		.loc 1 819 18 view .LVU1141
 3819 053c 7EE5     		b	.L357
 3820              	.LVL477:
 3821              	.L361:
 3822              	.LBB234:
 819:Src/register_interface.c ****         }
 3823              		.loc 1 819 18 view .LVU1142
 3824 053e 0520     		movs	r0, #5
 3825              	.LVL478:
 819:Src/register_interface.c ****         }
 3826              		.loc 1 819 18 view .LVU1143
 3827 0540 FDE5     		b	.L258
 3828              	.LVL479:
 3829              	.L360:
 819:Src/register_interface.c ****         }
 3830              		.loc 1 819 18 view .LVU1144
 3831              	.LBE234:
 3832 0542 0520     		movs	r0, #5
 3833              	.LVL480:
 819:Src/register_interface.c ****         }
 3834              		.loc 1 819 18 view .LVU1145
 3835 0544 B0E5     		b	.L246
 3836              	.LVL481:
 3837              	.L244:
 787:Src/register_interface.c ****               break;
 3838              		.loc 1 787 15 is_stmt 1 view .LVU1146
 787:Src/register_interface.c ****               break;
ARM GAS  C:\Users\ep_ygh\AppData\Local\Temp\ccSYahLu.s 			page 111


 3839              		.loc 1 787 32 is_stmt 0 view .LVU1147
 3840 0546 4648     		ldr	r0, .L393
 3841              	.LVL482:
 787:Src/register_interface.c ****               break;
 3842              		.loc 1 787 32 view .LVU1148
 3843 0548 FFF7FEFF 		bl	MCI_GetSTMState
 3844              	.LVL483:
 787:Src/register_interface.c ****               break;
 3845              		.loc 1 787 21 view .LVU1149
 3846 054c 2070     		strb	r0, [r4]
 788:Src/register_interface.c ****             }
 3847              		.loc 1 788 15 is_stmt 1 view .LVU1150
 773:Src/register_interface.c ****     uint8_t motorID=0;
 3848              		.loc 1 773 13 is_stmt 0 view .LVU1151
 3849 054e 0020     		movs	r0, #0
 788:Src/register_interface.c ****             }
 3850              		.loc 1 788 15 view .LVU1152
 3851 0550 AAE5     		b	.L246
 3852              	.LVL484:
 3853              	.L242:
 799:Src/register_interface.c ****               break;
 3854              		.loc 1 799 15 is_stmt 1 view .LVU1153
 799:Src/register_interface.c ****               break;
 3855              		.loc 1 799 33 is_stmt 0 view .LVU1154
 3856 0552 4D48     		ldr	r0, .L393+40
 3857              	.LVL485:
 799:Src/register_interface.c ****               break;
 3858              		.loc 1 799 33 view .LVU1155
 3859 0554 FFF7FEFF 		bl	TC_GetControlPositionStatus
 3860              	.LVL486:
 799:Src/register_interface.c ****               break;
 3861              		.loc 1 799 21 view .LVU1156
 3862 0558 2070     		strb	r0, [r4]
 800:Src/register_interface.c ****             }
 3863              		.loc 1 800 15 is_stmt 1 view .LVU1157
 773:Src/register_interface.c ****     uint8_t motorID=0;
 3864              		.loc 1 773 13 is_stmt 0 view .LVU1158
 3865 055a 0020     		movs	r0, #0
 800:Src/register_interface.c ****             }
 3866              		.loc 1 800 15 view .LVU1159
 3867 055c A4E5     		b	.L246
 3868              	.LVL487:
 3869              	.L329:
 3870              	.LBB235:
 3871              	.LBB166:
1266:Src/register_interface.c ****             uint16_t *idref = (uint16_t *)&rawData[2]; //cstat !MISRAC2012-Rule-11.3
 3872              		.loc 1 1266 13 is_stmt 1 view .LVU1160
1267:Src/register_interface.c **** 
 3873              		.loc 1 1267 13 view .LVU1161
1269:Src/register_interface.c ****             *iqref = (uint16_t)MCI_GetIqdref(pMCIN).q;
 3874              		.loc 1 1269 13 view .LVU1162
1269:Src/register_interface.c ****             *iqref = (uint16_t)MCI_GetIqdref(pMCIN).q;
 3875              		.loc 1 1269 22 is_stmt 0 view .LVU1163
 3876 055e 0423     		movs	r3, #4
 3877              	.LVL488:
1269:Src/register_interface.c ****             *iqref = (uint16_t)MCI_GetIqdref(pMCIN).q;
 3878              		.loc 1 1269 22 view .LVU1164
ARM GAS  C:\Users\ep_ygh\AppData\Local\Temp\ccSYahLu.s 			page 112


 3879 0560 2380     		strh	r3, [r4]	@ movhi
1270:Src/register_interface.c ****             *idref = (uint16_t)MCI_GetIqdref(pMCIN).d;
 3880              		.loc 1 1270 13 is_stmt 1 view .LVU1165
1270:Src/register_interface.c ****             *idref = (uint16_t)MCI_GetIqdref(pMCIN).d;
 3881              		.loc 1 1270 32 is_stmt 0 view .LVU1166
 3882 0562 3F48     		ldr	r0, .L393
 3883              	.LVL489:
1270:Src/register_interface.c ****             *idref = (uint16_t)MCI_GetIqdref(pMCIN).d;
 3884              		.loc 1 1270 32 view .LVU1167
 3885 0564 FFF7FEFF 		bl	MCI_GetIqdref
 3886              	.LVL490:
1270:Src/register_interface.c ****             *idref = (uint16_t)MCI_GetIqdref(pMCIN).d;
 3887              		.loc 1 1270 20 view .LVU1168
 3888 0568 6080     		strh	r0, [r4, #2]	@ movhi
1271:Src/register_interface.c ****             break;
 3889              		.loc 1 1271 13 is_stmt 1 view .LVU1169
1271:Src/register_interface.c ****             break;
 3890              		.loc 1 1271 32 is_stmt 0 view .LVU1170
 3891 056a 3D48     		ldr	r0, .L393
 3892 056c FFF7FEFF 		bl	MCI_GetIqdref
 3893              	.LVL491:
 3894              	.LBE166:
1299:Src/register_interface.c ****         break;
 3895              		.loc 1 1299 28 view .LVU1171
 3896 0570 2388     		ldrh	r3, [r4]
 3897              	.LBB167:
1271:Src/register_interface.c ****             break;
 3898              		.loc 1 1271 32 view .LVU1172
 3899 0572 C0F30F40 		ubfx	r0, r0, #16, #16
 3900              	.LBE167:
1299:Src/register_interface.c ****         break;
 3901              		.loc 1 1299 28 view .LVU1173
 3902 0576 0233     		adds	r3, r3, #2
 3903              	.LBB168:
1271:Src/register_interface.c ****             break;
 3904              		.loc 1 1271 20 view .LVU1174
 3905 0578 A080     		strh	r0, [r4, #4]	@ movhi
1272:Src/register_interface.c ****           }
 3906              		.loc 1 1272 13 is_stmt 1 view .LVU1175
 3907              	.LBE168:
1299:Src/register_interface.c ****         break;
 3908              		.loc 1 1299 28 is_stmt 0 view .LVU1176
 3909 057a 9BB2     		uxth	r3, r3
 3910              	.LBE235:
 773:Src/register_interface.c ****     uint8_t motorID=0;
 3911              		.loc 1 773 13 view .LVU1177
 3912 057c 0020     		movs	r0, #0
 3913              	.LBB236:
 3914              	.LBB169:
1272:Src/register_interface.c ****           }
 3915              		.loc 1 1272 13 view .LVU1178
 3916 057e 7BE5     		b	.L332
 3917              	.LVL492:
 3918              	.L327:
1272:Src/register_interface.c ****           }
 3919              		.loc 1 1272 13 view .LVU1179
 3920              	.LBE169:
ARM GAS  C:\Users\ep_ygh\AppData\Local\Temp\ccSYahLu.s 			page 113


1299:Src/register_interface.c ****         break;
 3921              		.loc 1 1299 28 view .LVU1180
 3922 0580 2388     		ldrh	r3, [r4]
 3923              	.LVL493:
1299:Src/register_interface.c ****         break;
 3924              		.loc 1 1299 28 view .LVU1181
 3925 0582 0233     		adds	r3, r3, #2
1293:Src/register_interface.c ****             break;
 3926              		.loc 1 1293 20 view .LVU1182
 3927 0584 0520     		movs	r0, #5
 3928              	.LVL494:
1299:Src/register_interface.c ****         break;
 3929              		.loc 1 1299 28 view .LVU1183
 3930 0586 9BB2     		uxth	r3, r3
 3931 0588 76E5     		b	.L332
 3932              	.LVL495:
 3933              	.L323:
1217:Src/register_interface.c ****             if (((*rawSize) + 2U) > (uint16_t)freeSpace)
 3934              		.loc 1 1217 13 is_stmt 1 view .LVU1184
1218:Src/register_interface.c ****             {
 3935              		.loc 1 1218 16 is_stmt 0 view .LVU1185
 3936 058a 1FFA8CFC 		uxth	ip, ip
1217:Src/register_interface.c ****             if (((*rawSize) + 2U) > (uint16_t)freeSpace)
 3937              		.loc 1 1217 22 view .LVU1186
 3938 058e 0E22     		movs	r2, #14
1218:Src/register_interface.c ****             {
 3939              		.loc 1 1218 16 view .LVU1187
 3940 0590 BCF10F0F 		cmp	ip, #15
1217:Src/register_interface.c ****             if (((*rawSize) + 2U) > (uint16_t)freeSpace)
 3941              		.loc 1 1217 22 view .LVU1188
 3942 0594 2280     		strh	r2, [r4]	@ movhi
1218:Src/register_interface.c ****             {
 3943              		.loc 1 1218 13 is_stmt 1 view .LVU1189
1218:Src/register_interface.c ****             {
 3944              		.loc 1 1218 16 is_stmt 0 view .LVU1190
 3945 0596 35D8     		bhi	.L389
 3946 0598 1023     		movs	r3, #16
 3947              	.LVL496:
1220:Src/register_interface.c ****             }
 3948              		.loc 1 1220 22 view .LVU1191
 3949 059a 0820     		movs	r0, #8
 3950              	.LVL497:
1220:Src/register_interface.c ****             }
 3951              		.loc 1 1220 22 view .LVU1192
 3952 059c 6CE5     		b	.L332
 3953              	.LVL498:
 3954              	.L321:
 3955              	.LBB170:
1245:Src/register_interface.c ****             uint16_t *duration = (uint16_t *)&rawData[4]; //cstat !MISRAC2012-Rule-11.3
 3956              		.loc 1 1245 13 is_stmt 1 view .LVU1193
1246:Src/register_interface.c ****             *rpm = (((int32_t)MCI_GetLastRampFinalSpeed(pMCIN) * U_RPM) / (int32_t)SPEED_UNIT);
 3957              		.loc 1 1246 13 view .LVU1194
1247:Src/register_interface.c ****             *duration = MCI_GetLastRampFinalDuration(pMCIN);
 3958              		.loc 1 1247 13 view .LVU1195
1247:Src/register_interface.c ****             *duration = MCI_GetLastRampFinalDuration(pMCIN);
 3959              		.loc 1 1247 31 is_stmt 0 view .LVU1196
 3960 059e 3048     		ldr	r0, .L393
ARM GAS  C:\Users\ep_ygh\AppData\Local\Temp\ccSYahLu.s 			page 114


 3961              	.LVL499:
1247:Src/register_interface.c ****             *duration = MCI_GetLastRampFinalDuration(pMCIN);
 3962              		.loc 1 1247 31 view .LVU1197
 3963 05a0 FFF7FEFF 		bl	MCI_GetLastRampFinalSpeed
 3964              	.LVL500:
1247:Src/register_interface.c ****             *duration = MCI_GetLastRampFinalDuration(pMCIN);
 3965              		.loc 1 1247 73 view .LVU1198
 3966 05a4 00EB4000 		add	r0, r0, r0, lsl #1
 3967 05a8 4300     		lsls	r3, r0, #1
1247:Src/register_interface.c ****             *duration = MCI_GetLastRampFinalDuration(pMCIN);
 3968              		.loc 1 1247 18 view .LVU1199
 3969 05aa C4F80230 		str	r3, [r4, #2]
1248:Src/register_interface.c ****             *rawSize = 6;
 3970              		.loc 1 1248 13 is_stmt 1 view .LVU1200
1248:Src/register_interface.c ****             *rawSize = 6;
 3971              		.loc 1 1248 25 is_stmt 0 view .LVU1201
 3972 05ae 2C48     		ldr	r0, .L393
 3973 05b0 FFF7FEFF 		bl	MCI_GetLastRampFinalDuration
 3974              	.LVL501:
1249:Src/register_interface.c ****             break;
 3975              		.loc 1 1249 22 view .LVU1202
 3976 05b4 0623     		movs	r3, #6
1248:Src/register_interface.c ****             *rawSize = 6;
 3977              		.loc 1 1248 23 view .LVU1203
 3978 05b6 E080     		strh	r0, [r4, #6]	@ movhi
1249:Src/register_interface.c ****             break;
 3979              		.loc 1 1249 13 is_stmt 1 view .LVU1204
1249:Src/register_interface.c ****             break;
 3980              		.loc 1 1249 22 is_stmt 0 view .LVU1205
 3981 05b8 2380     		strh	r3, [r4]	@ movhi
1250:Src/register_interface.c ****           }
 3982              		.loc 1 1250 13 is_stmt 1 view .LVU1206
 3983              	.LBE170:
 3984              	.LBE236:
 773:Src/register_interface.c ****     uint8_t motorID=0;
 3985              		.loc 1 773 13 is_stmt 0 view .LVU1207
 3986 05ba 0020     		movs	r0, #0
 3987              	.LBB237:
 3988              	.LBB171:
1250:Src/register_interface.c ****           }
 3989              		.loc 1 1250 13 view .LVU1208
 3990 05bc 0823     		movs	r3, #8
 3991 05be 5BE5     		b	.L332
 3992              	.LVL502:
 3993              	.L325:
1250:Src/register_interface.c ****           }
 3994              		.loc 1 1250 13 view .LVU1209
 3995              	.LBE171:
1202:Src/register_interface.c ****             if (((*rawSize) + 2U) > (uint16_t)freeSpace)
 3996              		.loc 1 1202 13 is_stmt 1 view .LVU1210
1203:Src/register_interface.c ****             {
 3997              		.loc 1 1203 16 is_stmt 0 view .LVU1211
 3998 05c0 1FFA8CFC 		uxth	ip, ip
1202:Src/register_interface.c ****             if (((*rawSize) + 2U) > (uint16_t)freeSpace)
 3999              		.loc 1 1202 22 view .LVU1212
 4000 05c4 3C22     		movs	r2, #60
1203:Src/register_interface.c ****             {
ARM GAS  C:\Users\ep_ygh\AppData\Local\Temp\ccSYahLu.s 			page 115


 4001              		.loc 1 1203 16 view .LVU1213
 4002 05c6 BCF13D0F 		cmp	ip, #61
1202:Src/register_interface.c ****             if (((*rawSize) + 2U) > (uint16_t)freeSpace)
 4003              		.loc 1 1202 22 view .LVU1214
 4004 05ca 2280     		strh	r2, [r4]	@ movhi
1203:Src/register_interface.c ****             {
 4005              		.loc 1 1203 13 is_stmt 1 view .LVU1215
1203:Src/register_interface.c ****             {
 4006              		.loc 1 1203 16 is_stmt 0 view .LVU1216
 4007 05cc 27D8     		bhi	.L390
 4008 05ce 3E23     		movs	r3, #62
 4009              	.LVL503:
1205:Src/register_interface.c ****             }
 4010              		.loc 1 1205 22 view .LVU1217
 4011 05d0 0820     		movs	r0, #8
 4012              	.LVL504:
1205:Src/register_interface.c ****             }
 4013              		.loc 1 1205 22 view .LVU1218
 4014 05d2 51E5     		b	.L332
 4015              	.LVL505:
 4016              	.L304:
1205:Src/register_interface.c ****             }
 4017              		.loc 1 1205 22 view .LVU1219
 4018              	.LBE237:
 4019              	.LBB238:
1113:Src/register_interface.c ****               break;
 4020              		.loc 1 1113 15 is_stmt 1 view .LVU1220
1113:Src/register_interface.c ****               break;
 4021              		.loc 1 1113 39 is_stmt 0 view .LVU1221
 4022 05d4 2248     		ldr	r0, .L393
 4023              	.LVL506:
1113:Src/register_interface.c ****               break;
 4024              		.loc 1 1113 39 view .LVU1222
 4025 05d6 FFF7FEFF 		bl	MCI_GetMecSpeedRefUnit
 4026              	.LVL507:
1113:Src/register_interface.c ****               break;
 4027              		.loc 1 1113 78 view .LVU1223
 4028 05da 00EB4000 		add	r0, r0, r0, lsl #1
 4029 05de 4000     		lsls	r0, r0, #1
1113:Src/register_interface.c ****               break;
 4030              		.loc 1 1113 26 view .LVU1224
 4031 05e0 2060     		str	r0, [r4]
1114:Src/register_interface.c ****             }
 4032              		.loc 1 1114 15 is_stmt 1 view .LVU1225
 4033              	.LBE238:
 773:Src/register_interface.c ****     uint8_t motorID=0;
 4034              		.loc 1 773 13 is_stmt 0 view .LVU1226
 4035 05e2 0020     		movs	r0, #0
 4036              	.LBB239:
1114:Src/register_interface.c ****             }
 4037              		.loc 1 1114 15 view .LVU1227
 4038 05e4 7BE5     		b	.L308
 4039              	.LVL508:
 4040              	.L309:
 4041              	.LBB178:
1119:Src/register_interface.c ****               ReadVal.Float_Val = MCI_GetCurrentPosition(pMCIN);
 4042              		.loc 1 1119 15 is_stmt 1 view .LVU1228
ARM GAS  C:\Users\ep_ygh\AppData\Local\Temp\ccSYahLu.s 			page 116


1120:Src/register_interface.c ****               *regdataU32 = ReadVal.U32_Val;
 4043              		.loc 1 1120 15 view .LVU1229
1120:Src/register_interface.c ****               *regdataU32 = ReadVal.U32_Val;
 4044              		.loc 1 1120 35 is_stmt 0 view .LVU1230
 4045 05e6 1E48     		ldr	r0, .L393
 4046              	.LVL509:
1120:Src/register_interface.c ****               *regdataU32 = ReadVal.U32_Val;
 4047              		.loc 1 1120 35 view .LVU1231
 4048 05e8 FFF7FEFF 		bl	MCI_GetCurrentPosition
 4049              	.LVL510:
1120:Src/register_interface.c ****               *regdataU32 = ReadVal.U32_Val;
 4050              		.loc 1 1120 35 view .LVU1232
 4051 05ec 8DED010A 		vstr.32	s0, [sp, #4]
 4052              	.LVL511:
1121:Src/register_interface.c ****               break;
 4053              		.loc 1 1121 15 is_stmt 1 view .LVU1233
1121:Src/register_interface.c ****               break;
 4054              		.loc 1 1121 27 is_stmt 0 view .LVU1234
 4055 05f0 019B     		ldr	r3, [sp, #4]
 4056 05f2 2360     		str	r3, [r4]
1122:Src/register_interface.c ****             }
 4057              		.loc 1 1122 15 is_stmt 1 view .LVU1235
 4058              	.LVL512:
1122:Src/register_interface.c ****             }
 4059              		.loc 1 1122 15 is_stmt 0 view .LVU1236
 4060              	.LBE178:
 4061              	.LBE239:
 773:Src/register_interface.c ****     uint8_t motorID=0;
 4062              		.loc 1 773 13 view .LVU1237
 4063 05f4 0020     		movs	r0, #0
 4064 05f6 72E5     		b	.L308
 4065              	.LVL513:
 4066              	.L306:
 4067              	.LBB240:
1102:Src/register_interface.c ****               break;
 4068              		.loc 1 1102 15 is_stmt 1 view .LVU1238
1102:Src/register_interface.c ****               break;
 4069              		.loc 1 1102 29 is_stmt 0 view .LVU1239
 4070 05f8 1948     		ldr	r0, .L393
 4071              	.LVL514:
1102:Src/register_interface.c ****               break;
 4072              		.loc 1 1102 29 view .LVU1240
 4073 05fa FFF7FEFF 		bl	MCI_GetFaultState
 4074              	.LVL515:
1102:Src/register_interface.c ****               break;
 4075              		.loc 1 1102 27 view .LVU1241
 4076 05fe 2060     		str	r0, [r4]
1103:Src/register_interface.c ****             }
 4077              		.loc 1 1103 15 is_stmt 1 view .LVU1242
 4078              	.LBE240:
 773:Src/register_interface.c ****     uint8_t motorID=0;
 4079              		.loc 1 773 13 is_stmt 0 view .LVU1243
 4080 0600 0020     		movs	r0, #0
 4081              	.LBB241:
1103:Src/register_interface.c ****             }
 4082              		.loc 1 1103 15 view .LVU1244
 4083 0602 6CE5     		b	.L308
ARM GAS  C:\Users\ep_ygh\AppData\Local\Temp\ccSYahLu.s 			page 117


 4084              	.LVL516:
 4085              	.L389:
1103:Src/register_interface.c ****             }
 4086              		.loc 1 1103 15 view .LVU1245
 4087              	.LBE241:
 4088              	.LBB242:
 4089              	.LBB172:
1224:Src/register_interface.c ****               (void)memcpy(rawData, (const uint8_t *)pFOCConfig_reg, sizeof(FOCFwConfig_reg_t));
 4090              		.loc 1 1224 15 is_stmt 1 view .LVU1246
1225:Src/register_interface.c ****             }
 4091              		.loc 1 1225 15 view .LVU1247
1224:Src/register_interface.c ****               (void)memcpy(rawData, (const uint8_t *)pFOCConfig_reg, sizeof(FOCFwConfig_reg_t));
 4092              		.loc 1 1224 40 is_stmt 0 view .LVU1248
 4093 0604 214A     		ldr	r2, .L393+44
 4094              	.LVL517:
1225:Src/register_interface.c ****             }
 4095              		.loc 1 1225 21 view .LVU1249
 4096 0606 1268     		ldr	r2, [r2]
 4097              	.LVL518:
1225:Src/register_interface.c ****             }
 4098              		.loc 1 1225 21 view .LVU1250
 4099 0608 1068     		ldr	r0, [r2]	@ unaligned
 4100              	.LVL519:
1225:Src/register_interface.c ****             }
 4101              		.loc 1 1225 21 view .LVU1251
 4102 060a 5168     		ldr	r1, [r2, #4]	@ unaligned
 4103              	.LVL520:
1225:Src/register_interface.c ****             }
 4104              		.loc 1 1225 21 view .LVU1252
 4105 060c 9468     		ldr	r4, [r2, #8]	@ unaligned
 4106              	.LVL521:
1225:Src/register_interface.c ****             }
 4107              		.loc 1 1225 21 view .LVU1253
 4108 060e 9C60     		str	r4, [r3, #8]	@ unaligned
 4109 0610 1860     		str	r0, [r3]	@ unaligned
 4110 0612 5960     		str	r1, [r3, #4]	@ unaligned
 4111 0614 9289     		ldrh	r2, [r2, #12]	@ unaligned
 4112              	.LVL522:
1225:Src/register_interface.c ****             }
 4113              		.loc 1 1225 21 view .LVU1254
 4114 0616 9A81     		strh	r2, [r3, #12]	@ unaligned
 4115              	.LBE172:
 4116              	.LBE242:
 773:Src/register_interface.c ****     uint8_t motorID=0;
 4117              		.loc 1 773 13 view .LVU1255
 4118 0618 0020     		movs	r0, #0
 4119              	.LBB243:
 4120              	.LBB173:
1225:Src/register_interface.c ****             }
 4121              		.loc 1 1225 21 view .LVU1256
 4122 061a 1023     		movs	r3, #16
 4123              	.LVL523:
1225:Src/register_interface.c ****             }
 4124              		.loc 1 1225 21 view .LVU1257
 4125 061c 2CE5     		b	.L332
 4126              	.LVL524:
 4127              	.L390:
ARM GAS  C:\Users\ep_ygh\AppData\Local\Temp\ccSYahLu.s 			page 118


1225:Src/register_interface.c ****             }
 4128              		.loc 1 1225 21 view .LVU1258
 4129              	.LBE173:
 4130              	.LBB174:
1209:Src/register_interface.c ****               (void)memcpy(rawData, (const uint8_t *)pMotorConfig_reg, sizeof(MotorConfig_reg_t));
 4131              		.loc 1 1209 15 is_stmt 1 view .LVU1259
1210:Src/register_interface.c ****             }
 4132              		.loc 1 1210 15 view .LVU1260
1209:Src/register_interface.c ****               (void)memcpy(rawData, (const uint8_t *)pMotorConfig_reg, sizeof(MotorConfig_reg_t));
 4133              		.loc 1 1209 40 is_stmt 0 view .LVU1261
 4134 061e 164A     		ldr	r2, .L393+24
 4135              	.LVL525:
1210:Src/register_interface.c ****             }
 4136              		.loc 1 1210 21 view .LVU1262
 4137 0620 1268     		ldr	r2, [r2]
 4138              	.LVL526:
1210:Src/register_interface.c ****             }
 4139              		.loc 1 1210 21 view .LVU1263
 4140 0622 02F1300C 		add	ip, r2, #48
 4141              	.LVL527:
 4142              	.L333:
1210:Src/register_interface.c ****             }
 4143              		.loc 1 1210 21 view .LVU1264
 4144 0626 1468     		ldr	r4, [r2]	@ unaligned
 4145 0628 5068     		ldr	r0, [r2, #4]	@ unaligned
 4146 062a 9168     		ldr	r1, [r2, #8]	@ unaligned
 4147 062c D668     		ldr	r6, [r2, #12]	@ unaligned
 4148 062e DE60     		str	r6, [r3, #12]	@ unaligned
 4149 0630 1032     		adds	r2, r2, #16
 4150 0632 6245     		cmp	r2, ip
 4151 0634 1C60     		str	r4, [r3]	@ unaligned
 4152 0636 5860     		str	r0, [r3, #4]	@ unaligned
 4153 0638 9960     		str	r1, [r3, #8]	@ unaligned
 4154 063a 03F11003 		add	r3, r3, #16
 4155 063e F2D1     		bne	.L333
 4156 0640 1068     		ldr	r0, [r2]	@ unaligned
 4157 0642 5168     		ldr	r1, [r2, #4]	@ unaligned
 4158 0644 9268     		ldr	r2, [r2, #8]	@ unaligned
 4159 0646 9A60     		str	r2, [r3, #8]	@ unaligned
 4160 0648 1860     		str	r0, [r3]	@ unaligned
 4161 064a 5960     		str	r1, [r3, #4]	@ unaligned
 4162              	.LBE174:
 4163              	.LBE243:
 773:Src/register_interface.c ****     uint8_t motorID=0;
 4164              		.loc 1 773 13 view .LVU1265
 4165 064c 0020     		movs	r0, #0
 4166              	.LBB244:
 4167              	.LBB175:
1210:Src/register_interface.c ****             }
 4168              		.loc 1 1210 21 view .LVU1266
 4169 064e 3E23     		movs	r3, #62
 4170 0650 12E5     		b	.L332
 4171              	.LVL528:
 4172              	.L299:
1210:Src/register_interface.c ****             }
 4173              		.loc 1 1210 21 view .LVU1267
 4174              	.LBE175:
ARM GAS  C:\Users\ep_ygh\AppData\Local\Temp\ccSYahLu.s 			page 119


 4175              	.LBE244:
 4176              	.LBB245:
1066:Src/register_interface.c ****               break;
 4177              		.loc 1 1066 15 is_stmt 1 view .LVU1268
1066:Src/register_interface.c ****               break;
 4178              		.loc 1 1066 29 is_stmt 0 view .LVU1269
 4179 0652 0548     		ldr	r0, .L393+8
 4180              	.LVL529:
1066:Src/register_interface.c ****               break;
 4181              		.loc 1 1066 29 view .LVU1270
 4182 0654 FFF7FEFF 		bl	PID_GetKIDivisorPOW2
 4183              	.LVL530:
1066:Src/register_interface.c ****               break;
 4184              		.loc 1 1066 27 view .LVU1271
 4185 0658 2080     		strh	r0, [r4]	@ movhi
 4186              	.LVL531:
1067:Src/register_interface.c ****             }
 4187              		.loc 1 1067 15 is_stmt 1 view .LVU1272
 4188              	.LBE245:
 773:Src/register_interface.c ****     uint8_t motorID=0;
 4189              		.loc 1 773 13 is_stmt 0 view .LVU1273
 4190 065a 0020     		movs	r0, #0
 4191              	.LBB246:
1067:Src/register_interface.c ****             }
 4192              		.loc 1 1067 15 view .LVU1274
 4193 065c 6FE5     		b	.L258
 4194              	.L394:
 4195 065e 00BF     		.align	2
 4196              	.L393:
 4197 0660 00000000 		.word	Mci
 4198 0664 00000000 		.word	PIDIqHandle_M1
 4199 0668 00000000 		.word	PID_PosParamsM1
 4200 066c 00000000 		.word	PIDIdHandle_M1
 4201 0670 00000000 		.word	PIDSpeedHandle_M1
 4202 0674 00000000 		.word	pMPM
 4203 0678 00000000 		.word	MotorConfig_reg
 4204 067c 00000000 		.word	PWR_BOARD_NAME
 4205 0680 00000000 		.word	scaleParams_M1
 4206 0684 00000000 		.word	ApplicationConfig_reg
 4207 0688 00000000 		.word	PosCtrlM1
 4208 068c 00000000 		.word	FOCConfig_reg
 4209              	.LVL532:
 4210              	.L292:
1048:Src/register_interface.c ****               break;
 4211              		.loc 1 1048 15 is_stmt 1 view .LVU1275
1048:Src/register_interface.c ****               break;
 4212              		.loc 1 1048 29 is_stmt 0 view .LVU1276
 4213 0690 2C48     		ldr	r0, .L395
 4214              	.LVL533:
1048:Src/register_interface.c ****               break;
 4215              		.loc 1 1048 29 view .LVU1277
 4216 0692 FFF7FEFF 		bl	PID_GetKIDivisorPOW2
 4217              	.LVL534:
1048:Src/register_interface.c ****               break;
 4218              		.loc 1 1048 27 view .LVU1278
 4219 0696 2080     		strh	r0, [r4]	@ movhi
 4220              	.LVL535:
ARM GAS  C:\Users\ep_ygh\AppData\Local\Temp\ccSYahLu.s 			page 120


1049:Src/register_interface.c ****             }
 4221              		.loc 1 1049 15 is_stmt 1 view .LVU1279
 4222              	.LBE246:
 773:Src/register_interface.c ****     uint8_t motorID=0;
 4223              		.loc 1 773 13 is_stmt 0 view .LVU1280
 4224 0698 0020     		movs	r0, #0
 4225              	.LBB247:
1049:Src/register_interface.c ****             }
 4226              		.loc 1 1049 15 view .LVU1281
 4227 069a 50E5     		b	.L258
 4228              	.LVL536:
 4229              	.L294:
1036:Src/register_interface.c ****               break;
 4230              		.loc 1 1036 15 is_stmt 1 view .LVU1282
1036:Src/register_interface.c ****               break;
 4231              		.loc 1 1036 29 is_stmt 0 view .LVU1283
 4232 069c 2A48     		ldr	r0, .L395+4
 4233              	.LVL537:
1036:Src/register_interface.c ****               break;
 4234              		.loc 1 1036 29 view .LVU1284
 4235 069e FFF7FEFF 		bl	PID_GetKDDivisorPOW2
 4236              	.LVL538:
1036:Src/register_interface.c ****               break;
 4237              		.loc 1 1036 27 view .LVU1285
 4238 06a2 2080     		strh	r0, [r4]	@ movhi
 4239              	.LVL539:
1037:Src/register_interface.c ****             }
 4240              		.loc 1 1037 15 is_stmt 1 view .LVU1286
 4241              	.LBE247:
 773:Src/register_interface.c ****     uint8_t motorID=0;
 4242              		.loc 1 773 13 is_stmt 0 view .LVU1287
 4243 06a4 0020     		movs	r0, #0
 4244              	.LBB248:
1037:Src/register_interface.c ****             }
 4245              		.loc 1 1037 15 view .LVU1288
 4246 06a6 4AE5     		b	.L258
 4247              	.LVL540:
 4248              	.L261:
 883:Src/register_interface.c ****               break;
 4249              		.loc 1 883 15 is_stmt 1 view .LVU1289
 883:Src/register_interface.c ****               break;
 4250              		.loc 1 883 28 is_stmt 0 view .LVU1290
 4251 06a8 2748     		ldr	r0, .L395+4
 4252              	.LVL541:
 883:Src/register_interface.c ****               break;
 4253              		.loc 1 883 28 view .LVU1291
 4254 06aa FFF7FEFF 		bl	PID_GetKD
 4255              	.LVL542:
 883:Src/register_interface.c ****               break;
 4256              		.loc 1 883 26 view .LVU1292
 4257 06ae 2080     		strh	r0, [r4]	@ movhi
 4258              	.LVL543:
 884:Src/register_interface.c ****             }
 4259              		.loc 1 884 15 is_stmt 1 view .LVU1293
 4260              	.LBE248:
 773:Src/register_interface.c ****     uint8_t motorID=0;
 4261              		.loc 1 773 13 is_stmt 0 view .LVU1294
ARM GAS  C:\Users\ep_ygh\AppData\Local\Temp\ccSYahLu.s 			page 121


 4262 06b0 0020     		movs	r0, #0
 4263              	.LBB249:
 884:Src/register_interface.c ****             }
 4264              		.loc 1 884 15 view .LVU1295
 4265 06b2 44E5     		b	.L258
 4266              	.LVL544:
 4267              	.L252:
 865:Src/register_interface.c ****               break;
 4268              		.loc 1 865 15 is_stmt 1 view .LVU1296
 865:Src/register_interface.c ****               break;
 4269              		.loc 1 865 28 is_stmt 0 view .LVU1297
 4270 06b4 2348     		ldr	r0, .L395
 4271              	.LVL545:
 865:Src/register_interface.c ****               break;
 4272              		.loc 1 865 28 view .LVU1298
 4273 06b6 FFF7FEFF 		bl	PID_GetKD
 4274              	.LVL546:
 865:Src/register_interface.c ****               break;
 4275              		.loc 1 865 26 view .LVU1299
 4276 06ba 2080     		strh	r0, [r4]	@ movhi
 4277              	.LVL547:
 866:Src/register_interface.c ****             }
 4278              		.loc 1 866 15 is_stmt 1 view .LVU1300
 4279              	.LBE249:
 773:Src/register_interface.c ****     uint8_t motorID=0;
 4280              		.loc 1 773 13 is_stmt 0 view .LVU1301
 4281 06bc 0020     		movs	r0, #0
 4282              	.LBB250:
 866:Src/register_interface.c ****             }
 4283              		.loc 1 866 15 view .LVU1302
 4284 06be 3EE5     		b	.L258
 4285              	.LVL548:
 4286              	.L250:
 895:Src/register_interface.c ****               break;
 4287              		.loc 1 895 15 is_stmt 1 view .LVU1303
 895:Src/register_interface.c ****               break;
 4288              		.loc 1 895 28 is_stmt 0 view .LVU1304
 4289 06c0 2248     		ldr	r0, .L395+8
 4290              	.LVL549:
 895:Src/register_interface.c ****               break;
 4291              		.loc 1 895 28 view .LVU1305
 4292 06c2 FFF7FEFF 		bl	NTC_GetAvTemp_C
 4293              	.LVL550:
 895:Src/register_interface.c ****               break;
 4294              		.loc 1 895 26 view .LVU1306
 4295 06c6 2080     		strh	r0, [r4]	@ movhi
 4296              	.LVL551:
 896:Src/register_interface.c ****             }
 4297              		.loc 1 896 15 is_stmt 1 view .LVU1307
 4298              	.LBE250:
 773:Src/register_interface.c ****     uint8_t motorID=0;
 4299              		.loc 1 773 13 is_stmt 0 view .LVU1308
 4300 06c8 0020     		movs	r0, #0
 4301              	.LBB251:
 896:Src/register_interface.c ****             }
 4302              		.loc 1 896 15 view .LVU1309
 4303 06ca 38E5     		b	.L258
ARM GAS  C:\Users\ep_ygh\AppData\Local\Temp\ccSYahLu.s 			page 122


 4304              	.LVL552:
 4305              	.L248:
 955:Src/register_interface.c ****               break;
 4306              		.loc 1 955 15 is_stmt 1 view .LVU1310
 955:Src/register_interface.c ****               break;
 4307              		.loc 1 955 28 is_stmt 0 view .LVU1311
 4308 06cc 2048     		ldr	r0, .L395+12
 4309              	.LVL553:
 955:Src/register_interface.c ****               break;
 4310              		.loc 1 955 28 view .LVU1312
 4311 06ce FFF7FEFF 		bl	MCI_GetVqd
 4312              	.LVL554:
 955:Src/register_interface.c ****               break;
 4313              		.loc 1 955 28 view .LVU1313
 4314 06d2 C0F30F40 		ubfx	r0, r0, #16, #16
 955:Src/register_interface.c ****               break;
 4315              		.loc 1 955 26 view .LVU1314
 4316 06d6 2080     		strh	r0, [r4]	@ movhi
 4317              	.LVL555:
 956:Src/register_interface.c ****             }
 4318              		.loc 1 956 15 is_stmt 1 view .LVU1315
 4319              	.LBE251:
 773:Src/register_interface.c ****     uint8_t motorID=0;
 4320              		.loc 1 773 13 is_stmt 0 view .LVU1316
 4321 06d8 0020     		movs	r0, #0
 4322              	.LBB252:
 956:Src/register_interface.c ****             }
 4323              		.loc 1 956 15 view .LVU1317
 4324 06da 30E5     		b	.L258
 4325              	.LVL556:
 4326              	.L282:
 973:Src/register_interface.c ****               break;
 4327              		.loc 1 973 15 is_stmt 1 view .LVU1318
 973:Src/register_interface.c ****               break;
 4328              		.loc 1 973 28 is_stmt 0 view .LVU1319
 4329 06dc 1D48     		ldr	r0, .L395+16
 4330              	.LVL557:
 973:Src/register_interface.c ****               break;
 4331              		.loc 1 973 28 view .LVU1320
 4332 06de FFF7FEFF 		bl	SPD_GetElAngle
 4333              	.LVL558:
 973:Src/register_interface.c ****               break;
 4334              		.loc 1 973 26 view .LVU1321
 4335 06e2 2080     		strh	r0, [r4]	@ movhi
 4336              	.LVL559:
 974:Src/register_interface.c ****             }
 4337              		.loc 1 974 15 is_stmt 1 view .LVU1322
 4338              	.LBE252:
 773:Src/register_interface.c ****     uint8_t motorID=0;
 4339              		.loc 1 773 13 is_stmt 0 view .LVU1323
 4340 06e4 0020     		movs	r0, #0
 4341              	.LBB253:
 974:Src/register_interface.c ****             }
 4342              		.loc 1 974 15 view .LVU1324
 4343 06e6 2AE5     		b	.L258
 4344              	.LVL560:
 4345              	.L268:
ARM GAS  C:\Users\ep_ygh\AppData\Local\Temp\ccSYahLu.s 			page 123


 913:Src/register_interface.c ****               break;
 4346              		.loc 1 913 15 is_stmt 1 view .LVU1325
 913:Src/register_interface.c ****               break;
 4347              		.loc 1 913 28 is_stmt 0 view .LVU1326
 4348 06e8 1948     		ldr	r0, .L395+12
 4349              	.LVL561:
 913:Src/register_interface.c ****               break;
 4350              		.loc 1 913 28 view .LVU1327
 4351 06ea FFF7FEFF 		bl	MCI_GetIalphabeta
 4352              	.LVL562:
 913:Src/register_interface.c ****               break;
 4353              		.loc 1 913 26 view .LVU1328
 4354 06ee 2080     		strh	r0, [r4]	@ movhi
 4355              	.LVL563:
 914:Src/register_interface.c ****             }
 4356              		.loc 1 914 15 is_stmt 1 view .LVU1329
 4357              	.LBE253:
 773:Src/register_interface.c ****     uint8_t motorID=0;
 4358              		.loc 1 773 13 is_stmt 0 view .LVU1330
 4359 06f0 0020     		movs	r0, #0
 4360              	.LBB254:
 914:Src/register_interface.c ****             }
 4361              		.loc 1 914 15 view .LVU1331
 4362 06f2 24E5     		b	.L258
 4363              	.LVL564:
 4364              	.L287:
1007:Src/register_interface.c ****               break;
 4365              		.loc 1 1007 15 is_stmt 1 view .LVU1332
1007:Src/register_interface.c ****               break;
 4366              		.loc 1 1007 39 is_stmt 0 view .LVU1333
 4367 06f4 1848     		ldr	r0, .L395+20
 4368              	.LVL565:
1007:Src/register_interface.c ****               break;
 4369              		.loc 1 1007 39 view .LVU1334
 4370 06f6 FFF7FEFF 		bl	PID_GetKPDivisorPOW2
 4371              	.LVL566:
1007:Src/register_interface.c ****               break;
 4372              		.loc 1 1007 27 view .LVU1335
 4373 06fa 2080     		strh	r0, [r4]	@ movhi
 4374              	.LVL567:
1008:Src/register_interface.c ****             }
 4375              		.loc 1 1008 15 is_stmt 1 view .LVU1336
 4376              	.LBE254:
 773:Src/register_interface.c ****     uint8_t motorID=0;
 4377              		.loc 1 773 13 is_stmt 0 view .LVU1337
 4378 06fc 0020     		movs	r0, #0
 4379              	.LBB255:
1008:Src/register_interface.c ****             }
 4380              		.loc 1 1008 15 view .LVU1338
 4381 06fe 1EE5     		b	.L258
 4382              	.LVL568:
 4383              	.L280:
 989:Src/register_interface.c ****               break;
 4384              		.loc 1 989 15 is_stmt 1 view .LVU1339
 989:Src/register_interface.c ****               break;
 4385              		.loc 1 989 28 is_stmt 0 view .LVU1340
 4386 0700 1648     		ldr	r0, .L395+24
ARM GAS  C:\Users\ep_ygh\AppData\Local\Temp\ccSYahLu.s 			page 124


 4387              	.LVL569:
 989:Src/register_interface.c ****               break;
 4388              		.loc 1 989 28 view .LVU1341
 4389 0702 FFF7FEFF 		bl	PID_GetKP
 4390              	.LVL570:
 989:Src/register_interface.c ****               break;
 4391              		.loc 1 989 26 view .LVU1342
 4392 0706 2080     		strh	r0, [r4]	@ movhi
 4393              	.LVL571:
 990:Src/register_interface.c ****             }
 4394              		.loc 1 990 15 is_stmt 1 view .LVU1343
 4395              	.LBE255:
 773:Src/register_interface.c ****     uint8_t motorID=0;
 4396              		.loc 1 773 13 is_stmt 0 view .LVU1344
 4397 0708 0020     		movs	r0, #0
 4398              	.LBB256:
 990:Src/register_interface.c ****             }
 4399              		.loc 1 990 15 view .LVU1345
 4400 070a 18E5     		b	.L258
 4401              	.LVL572:
 4402              	.L278:
1019:Src/register_interface.c ****               break;
 4403              		.loc 1 1019 15 is_stmt 1 view .LVU1346
1019:Src/register_interface.c ****               break;
 4404              		.loc 1 1019 29 is_stmt 0 view .LVU1347
 4405 070c 1248     		ldr	r0, .L395+20
 4406              	.LVL573:
1019:Src/register_interface.c ****               break;
 4407              		.loc 1 1019 29 view .LVU1348
 4408 070e FFF7FEFF 		bl	PID_GetKDDivisorPOW2
 4409              	.LVL574:
1019:Src/register_interface.c ****               break;
 4410              		.loc 1 1019 27 view .LVU1349
 4411 0712 2080     		strh	r0, [r4]	@ movhi
 4412              	.LVL575:
1020:Src/register_interface.c ****             }
 4413              		.loc 1 1020 15 is_stmt 1 view .LVU1350
 4414              	.LBE256:
 773:Src/register_interface.c ****     uint8_t motorID=0;
 4415              		.loc 1 773 13 is_stmt 0 view .LVU1351
 4416 0714 0020     		movs	r0, #0
 4417              	.LBB257:
1020:Src/register_interface.c ****             }
 4418              		.loc 1 1020 15 view .LVU1352
 4419 0716 12E5     		b	.L258
 4420              	.LVL576:
 4421              	.L273:
 943:Src/register_interface.c ****               break;
 4422              		.loc 1 943 15 is_stmt 1 view .LVU1353
 943:Src/register_interface.c ****               break;
 4423              		.loc 1 943 28 is_stmt 0 view .LVU1354
 4424 0718 0D48     		ldr	r0, .L395+12
 4425              	.LVL577:
 943:Src/register_interface.c ****               break;
 4426              		.loc 1 943 28 view .LVU1355
 4427 071a FFF7FEFF 		bl	MCI_GetIqdref
 4428              	.LVL578:
ARM GAS  C:\Users\ep_ygh\AppData\Local\Temp\ccSYahLu.s 			page 125


 943:Src/register_interface.c ****               break;
 4429              		.loc 1 943 28 view .LVU1356
 4430 071e C0F30F40 		ubfx	r0, r0, #16, #16
 943:Src/register_interface.c ****               break;
 4431              		.loc 1 943 26 view .LVU1357
 4432 0722 2080     		strh	r0, [r4]	@ movhi
 4433              	.LVL579:
 944:Src/register_interface.c ****             }
 4434              		.loc 1 944 15 is_stmt 1 view .LVU1358
 4435              	.LBE257:
 773:Src/register_interface.c ****     uint8_t motorID=0;
 4436              		.loc 1 773 13 is_stmt 0 view .LVU1359
 4437 0724 0020     		movs	r0, #0
 4438              	.LBB258:
 944:Src/register_interface.c ****             }
 4439              		.loc 1 944 15 view .LVU1360
 4440 0726 0AE5     		b	.L258
 4441              	.LVL580:
 4442              	.L266:
 925:Src/register_interface.c ****               break;
 4443              		.loc 1 925 15 is_stmt 1 view .LVU1361
 925:Src/register_interface.c ****               break;
 4444              		.loc 1 925 28 is_stmt 0 view .LVU1362
 4445 0728 0948     		ldr	r0, .L395+12
 4446              	.LVL581:
 925:Src/register_interface.c ****               break;
 4447              		.loc 1 925 28 view .LVU1363
 4448 072a FFF7FEFF 		bl	MCI_GetIqd
 4449              	.LVL582:
 925:Src/register_interface.c ****               break;
 4450              		.loc 1 925 26 view .LVU1364
 4451 072e 2080     		strh	r0, [r4]	@ movhi
 4452              	.LVL583:
 926:Src/register_interface.c ****             }
 4453              		.loc 1 926 15 is_stmt 1 view .LVU1365
 4454              	.LBE258:
 773:Src/register_interface.c ****     uint8_t motorID=0;
 4455              		.loc 1 773 13 is_stmt 0 view .LVU1366
 4456 0730 0020     		movs	r0, #0
 4457              	.LBB259:
 926:Src/register_interface.c ****             }
 4458              		.loc 1 926 15 view .LVU1367
 4459 0732 04E5     		b	.L258
 4460              	.LVL584:
 4461              	.L254:
 847:Src/register_interface.c ****               break;
 4462              		.loc 1 847 15 is_stmt 1 view .LVU1368
 847:Src/register_interface.c ****               break;
 4463              		.loc 1 847 28 is_stmt 0 view .LVU1369
 4464 0734 0848     		ldr	r0, .L395+20
 4465              	.LVL585:
 847:Src/register_interface.c ****               break;
 4466              		.loc 1 847 28 view .LVU1370
 4467 0736 FFF7FEFF 		bl	PID_GetKD
 4468              	.LVL586:
 847:Src/register_interface.c ****               break;
 4469              		.loc 1 847 26 view .LVU1371
ARM GAS  C:\Users\ep_ygh\AppData\Local\Temp\ccSYahLu.s 			page 126


 4470 073a 2080     		strh	r0, [r4]	@ movhi
 4471              	.LVL587:
 848:Src/register_interface.c ****             }
 4472              		.loc 1 848 15 is_stmt 1 view .LVU1372
 4473              	.LBE259:
 773:Src/register_interface.c ****     uint8_t motorID=0;
 4474              		.loc 1 773 13 is_stmt 0 view .LVU1373
 4475 073c 0020     		movs	r0, #0
 4476              	.LBB260:
 848:Src/register_interface.c ****             }
 4477              		.loc 1 848 15 view .LVU1374
 4478 073e FEE4     		b	.L258
 4479              	.LVL588:
 4480              	.L362:
 848:Src/register_interface.c ****             }
 4481              		.loc 1 848 15 view .LVU1375
 4482              	.LBE260:
 4483              	.LBB261:
 4484 0740 0520     		movs	r0, #5
 4485              	.LVL589:
 848:Src/register_interface.c ****             }
 4486              		.loc 1 848 15 view .LVU1376
 4487 0742 CCE4     		b	.L308
 4488              	.L396:
 4489              		.align	2
 4490              	.L395:
 4491 0744 00000000 		.word	PIDIqHandle_M1
 4492 0748 00000000 		.word	PIDIdHandle_M1
 4493 074c 00000000 		.word	TempSensor_M1
 4494 0750 00000000 		.word	Mci
 4495 0754 00000000 		.word	ENCODER_M1
 4496 0758 00000000 		.word	PIDSpeedHandle_M1
 4497 075c 00000000 		.word	PID_PosParamsM1
 4498              	.LBE261:
 4499              		.cfi_endproc
 4500              	.LFE1093:
 4502              		.section	.text.RI_MovString,"ax",%progbits
 4503              		.align	1
 4504              		.p2align 2,,3
 4505              		.global	RI_MovString
 4506              		.syntax unified
 4507              		.thumb
 4508              		.thumb_func
 4510              	RI_MovString:
 4511              	.LVL590:
 4512              	.LFB1094:
1313:Src/register_interface.c ****   uint8_t retVal = MCP_CMD_OK;
 4513              		.loc 1 1313 1 is_stmt 1 view -0
 4514              		.cfi_startproc
 4515              		@ args = 0, pretend = 0, frame = 0
 4516              		@ frame_needed = 0, uses_anonymous_args = 0
1314:Src/register_interface.c ****   const char_t *tempsrcString = srcString;
 4517              		.loc 1 1314 3 view .LVU1378
1315:Src/register_interface.c ****   char_t *tempdestString = destString;
 4518              		.loc 1 1315 3 view .LVU1379
1316:Src/register_interface.c ****   *size= 1U ; /* /0 is the min String size */
 4519              		.loc 1 1316 3 view .LVU1380
ARM GAS  C:\Users\ep_ygh\AppData\Local\Temp\ccSYahLu.s 			page 127


1313:Src/register_interface.c ****   uint8_t retVal = MCP_CMD_OK;
 4520              		.loc 1 1313 1 is_stmt 0 view .LVU1381
 4521 0000 10B5     		push	{r4, lr}
 4522              	.LCFI61:
 4523              		.cfi_def_cfa_offset 8
 4524              		.cfi_offset 4, -8
 4525              		.cfi_offset 14, -4
1317:Src/register_interface.c **** 
 4526              		.loc 1 1317 8 view .LVU1382
 4527 0002 4FF0010C 		mov	ip, #1
 4528 0006 A2F800C0 		strh	ip, [r2]	@ movhi
 4529              	.LVL591:
1317:Src/register_interface.c **** 
 4530              		.loc 1 1317 3 is_stmt 1 view .LVU1383
1319:Src/register_interface.c ****   {
 4531              		.loc 1 1319 3 view .LVU1384
1319:Src/register_interface.c ****   {
 4532              		.loc 1 1319 9 view .LVU1385
1319:Src/register_interface.c ****   {
 4533              		.loc 1 1319 11 is_stmt 0 view .LVU1386
 4534 000a 90F90040 		ldrsb	r4, [r0]
1319:Src/register_interface.c ****   {
 4535              		.loc 1 1319 9 view .LVU1387
 4536 000e 84B1     		cbz	r4, .L398
1319:Src/register_interface.c ****   {
 4537              		.loc 1 1319 50 view .LVU1388
 4538 0010 1FFA83FE 		uxth	lr, r3
 4539 0014 6346     		mov	r3, ip
 4540              	.LVL592:
1319:Src/register_interface.c ****   {
 4541              		.loc 1 1319 50 view .LVU1389
 4542 0016 08E0     		b	.L399
 4543              	.LVL593:
 4544              	.L400:
1321:Src/register_interface.c ****     tempdestString++;
 4545              		.loc 1 1321 21 view .LVU1390
 4546 0018 01F8014B 		strb	r4, [r1], #1
 4547              	.LVL594:
1322:Src/register_interface.c ****     tempsrcString++;
 4548              		.loc 1 1322 5 is_stmt 1 view .LVU1391
1323:Src/register_interface.c ****     *size = *size + 1U;
 4549              		.loc 1 1323 5 view .LVU1392
1324:Src/register_interface.c ****   }
 4550              		.loc 1 1324 5 view .LVU1393
1324:Src/register_interface.c ****   }
 4551              		.loc 1 1324 19 is_stmt 0 view .LVU1394
 4552 001c 1388     		ldrh	r3, [r2]
 4553 001e 0133     		adds	r3, r3, #1
 4554 0020 9BB2     		uxth	r3, r3
1324:Src/register_interface.c ****   }
 4555              		.loc 1 1324 11 view .LVU1395
 4556 0022 1380     		strh	r3, [r2]	@ movhi
1319:Src/register_interface.c ****   {
 4557              		.loc 1 1319 9 is_stmt 1 view .LVU1396
1319:Src/register_interface.c ****   {
 4558              		.loc 1 1319 11 is_stmt 0 view .LVU1397
 4559 0024 10F9014F 		ldrsb	r4, [r0, #1]!
ARM GAS  C:\Users\ep_ygh\AppData\Local\Temp\ccSYahLu.s 			page 128


 4560              	.LVL595:
1319:Src/register_interface.c ****   {
 4561              		.loc 1 1319 9 view .LVU1398
 4562 0028 1CB1     		cbz	r4, .L398
 4563              	.L399:
1321:Src/register_interface.c ****     tempdestString++;
 4564              		.loc 1 1321 5 is_stmt 1 discriminator 1 view .LVU1399
1319:Src/register_interface.c ****   {
 4565              		.loc 1 1319 40 is_stmt 0 discriminator 1 view .LVU1400
 4566 002a 9E45     		cmp	lr, r3
 4567 002c F4D8     		bhi	.L400
1329:Src/register_interface.c ****   }
 4568              		.loc 1 1329 12 view .LVU1401
 4569 002e 0620     		movs	r0, #6
 4570              	.LVL596:
1334:Src/register_interface.c ****   }
1335:Src/register_interface.c ****   return (retVal);
1336:Src/register_interface.c **** }
 4571              		.loc 1 1336 1 view .LVU1402
 4572 0030 10BD     		pop	{r4, pc}
 4573              	.LVL597:
 4574              	.L398:
1327:Src/register_interface.c ****   { /* Last string char must be 0 */
 4575              		.loc 1 1327 3 is_stmt 1 view .LVU1403
1333:Src/register_interface.c ****   }
 4576              		.loc 1 1333 5 view .LVU1404
1333:Src/register_interface.c ****   }
 4577              		.loc 1 1333 21 is_stmt 0 view .LVU1405
 4578 0032 0020     		movs	r0, #0
 4579              	.LVL598:
1333:Src/register_interface.c ****   }
 4580              		.loc 1 1333 21 view .LVU1406
 4581 0034 0870     		strb	r0, [r1]
1335:Src/register_interface.c **** }
 4582              		.loc 1 1335 3 is_stmt 1 view .LVU1407
 4583              		.loc 1 1336 1 is_stmt 0 view .LVU1408
 4584 0036 10BD     		pop	{r4, pc}
 4585              		.cfi_endproc
 4586              	.LFE1094:
 4588              		.section	.text.RI_GetIDSize,"ax",%progbits
 4589              		.align	1
 4590              		.p2align 2,,3
 4591              		.global	RI_GetIDSize
 4592              		.syntax unified
 4593              		.thumb
 4594              		.thumb_func
 4596              	RI_GetIDSize:
 4597              	.LVL599:
 4598              	.LFB1095:
1337:Src/register_interface.c **** 
1338:Src/register_interface.c **** uint8_t RI_GetIDSize(uint16_t dataID)
1339:Src/register_interface.c **** {
 4599              		.loc 1 1339 1 is_stmt 1 view -0
 4600              		.cfi_startproc
 4601              		@ args = 0, pretend = 0, frame = 0
 4602              		@ frame_needed = 0, uses_anonymous_args = 0
 4603              		@ link register save eliminated.
ARM GAS  C:\Users\ep_ygh\AppData\Local\Temp\ccSYahLu.s 			page 129


1340:Src/register_interface.c ****   uint8_t typeID = ((uint8_t)dataID) & TYPE_MASK;
 4604              		.loc 1 1340 3 view .LVU1410
1341:Src/register_interface.c ****   uint8_t result;
 4605              		.loc 1 1341 3 view .LVU1411
1342:Src/register_interface.c **** 
1343:Src/register_interface.c ****   switch (typeID)
 4606              		.loc 1 1343 3 view .LVU1412
1340:Src/register_interface.c ****   uint8_t result;
 4607              		.loc 1 1340 11 is_stmt 0 view .LVU1413
 4608 0000 00F03800 		and	r0, r0, #56
 4609              	.LVL600:
1340:Src/register_interface.c ****   uint8_t result;
 4610              		.loc 1 1340 11 view .LVU1414
 4611 0004 0838     		subs	r0, r0, #8
 4612 0006 C0B2     		uxtb	r0, r0
 4613 0008 1028     		cmp	r0, #16
 4614 000a 9ABF     		itte	ls
 4615 000c 014B     		ldrls	r3, .L413
 4616 000e 185C     		ldrbls	r0, [r3, r0]	@ zero_extendqisi2
 4617 0010 0020     		movhi	r0, #0
 4618              	.LVL601:
1344:Src/register_interface.c ****   {
1345:Src/register_interface.c ****     case TYPE_DATA_8BIT:
1346:Src/register_interface.c ****     {
1347:Src/register_interface.c ****       result = 1;
1348:Src/register_interface.c ****       break;
1349:Src/register_interface.c ****     }
1350:Src/register_interface.c **** 
1351:Src/register_interface.c ****     case TYPE_DATA_16BIT:
1352:Src/register_interface.c ****     {
1353:Src/register_interface.c ****       result = 2;
1354:Src/register_interface.c ****       break;
1355:Src/register_interface.c ****     }
1356:Src/register_interface.c **** 
1357:Src/register_interface.c ****     case TYPE_DATA_32BIT:
1358:Src/register_interface.c ****     {
1359:Src/register_interface.c ****       result = 4;
1360:Src/register_interface.c ****       break;
1361:Src/register_interface.c ****     }
1362:Src/register_interface.c **** 
1363:Src/register_interface.c ****     default:
1364:Src/register_interface.c ****     {
1365:Src/register_interface.c ****       result=0;
1366:Src/register_interface.c ****       break;
1367:Src/register_interface.c ****     }
1368:Src/register_interface.c ****   }
1369:Src/register_interface.c **** 
1370:Src/register_interface.c ****   return (result);
 4619              		.loc 1 1370 3 is_stmt 1 view .LVU1415
1371:Src/register_interface.c **** }
 4620              		.loc 1 1371 1 is_stmt 0 view .LVU1416
 4621 0012 7047     		bx	lr
 4622              	.L414:
 4623              		.align	2
 4624              	.L413:
 4625 0014 00000000 		.word	.LANCHOR0
 4626              		.cfi_endproc
ARM GAS  C:\Users\ep_ygh\AppData\Local\Temp\ccSYahLu.s 			page 130


 4627              	.LFE1095:
 4629              		.section	.text.RI_GetPtrReg,"ax",%progbits
 4630              		.align	1
 4631              		.p2align 2,,3
 4632              		.weak	RI_GetPtrReg
 4633              		.syntax unified
 4634              		.thumb
 4635              		.thumb_func
 4637              	RI_GetPtrReg:
 4638              	.LVL602:
 4639              	.LFB1096:
1372:Src/register_interface.c **** 
1373:Src/register_interface.c **** __weak uint8_t RI_GetPtrReg(uint16_t dataID, void **dataPtr)
1374:Src/register_interface.c **** {
 4640              		.loc 1 1374 1 is_stmt 1 view -0
 4641              		.cfi_startproc
 4642              		@ args = 0, pretend = 0, frame = 0
 4643              		@ frame_needed = 0, uses_anonymous_args = 0
 4644              		@ link register save eliminated.
1375:Src/register_interface.c **** 
1376:Src/register_interface.c ****   uint8_t retVal = MCP_CMD_OK;
 4645              		.loc 1 1376 3 view .LVU1418
1377:Src/register_interface.c ****   static uint16_t nullData16=0;
 4646              		.loc 1 1377 3 view .LVU1419
1378:Src/register_interface.c **** 
1379:Src/register_interface.c **** #ifdef NULL_PTR_CHECK_REG_INT
1380:Src/register_interface.c ****   if (MC_NULL == dataPtr)
1381:Src/register_interface.c ****   {
1382:Src/register_interface.c ****     retVal = MCP_CMD_NOK;
1383:Src/register_interface.c ****   }
1384:Src/register_interface.c ****   else
1385:Src/register_interface.c ****   {
1386:Src/register_interface.c **** #endif
1387:Src/register_interface.c **** 
1388:Src/register_interface.c ****     MCI_Handle_t *pMCIN = &Mci[0];
 4647              		.loc 1 1388 5 view .LVU1420
1389:Src/register_interface.c ****     uint16_t regID = dataID & REG_MASK;
 4648              		.loc 1 1389 5 view .LVU1421
1390:Src/register_interface.c ****     uint8_t typeID = ((uint8_t)dataID) & TYPE_MASK;
 4649              		.loc 1 1390 5 view .LVU1422
1391:Src/register_interface.c **** 
1392:Src/register_interface.c ****     switch (typeID)
 4650              		.loc 1 1392 5 view .LVU1423
 4651 0000 00F03803 		and	r3, r0, #56
 4652 0004 102B     		cmp	r3, #16
 4653 0006 03D0     		beq	.L435
 4654              	.LVL603:
 4655              	.L416:
1393:Src/register_interface.c ****     {
1394:Src/register_interface.c ****       case TYPE_DATA_16BIT:
1395:Src/register_interface.c ****       {
1396:Src/register_interface.c ****         switch (regID)
1397:Src/register_interface.c ****         {
1398:Src/register_interface.c ****           case MC_REG_I_A:
1399:Src/register_interface.c ****           {
1400:Src/register_interface.c ****             *dataPtr = &(pMCIN->pFOCVars->Iab.a);
1401:Src/register_interface.c ****              break;
ARM GAS  C:\Users\ep_ygh\AppData\Local\Temp\ccSYahLu.s 			page 131


1402:Src/register_interface.c ****           }
1403:Src/register_interface.c **** 
1404:Src/register_interface.c ****           case MC_REG_I_B:
1405:Src/register_interface.c ****           {
1406:Src/register_interface.c ****             *dataPtr = &(pMCIN->pFOCVars->Iab.b);
1407:Src/register_interface.c ****             break;
1408:Src/register_interface.c ****           }
1409:Src/register_interface.c **** 
1410:Src/register_interface.c ****           case MC_REG_I_ALPHA_MEAS:
1411:Src/register_interface.c ****           {
1412:Src/register_interface.c ****             *dataPtr = &(pMCIN->pFOCVars->Ialphabeta.alpha);
1413:Src/register_interface.c ****             break;
1414:Src/register_interface.c ****           }
1415:Src/register_interface.c **** 
1416:Src/register_interface.c ****           case MC_REG_I_BETA_MEAS:
1417:Src/register_interface.c ****           {
1418:Src/register_interface.c ****             *dataPtr = &(pMCIN->pFOCVars->Ialphabeta.beta);
1419:Src/register_interface.c ****             break;
1420:Src/register_interface.c ****           }
1421:Src/register_interface.c **** 
1422:Src/register_interface.c ****           case MC_REG_I_Q_MEAS:
1423:Src/register_interface.c ****           {
1424:Src/register_interface.c ****             *dataPtr = &(pMCIN->pFOCVars->Iqd.q);
1425:Src/register_interface.c ****             break;
1426:Src/register_interface.c ****           }
1427:Src/register_interface.c **** 
1428:Src/register_interface.c ****           case MC_REG_I_D_MEAS:
1429:Src/register_interface.c ****           {
1430:Src/register_interface.c ****             *dataPtr = &(pMCIN->pFOCVars->Iqd.d);
1431:Src/register_interface.c ****             break;
1432:Src/register_interface.c ****           }
1433:Src/register_interface.c **** 
1434:Src/register_interface.c ****           case MC_REG_I_Q_REF:
1435:Src/register_interface.c ****           {
1436:Src/register_interface.c ****             *dataPtr = &(pMCIN->pFOCVars->Iqdref.q);
1437:Src/register_interface.c ****             break;
1438:Src/register_interface.c ****           }
1439:Src/register_interface.c **** 
1440:Src/register_interface.c ****           case MC_REG_I_D_REF:
1441:Src/register_interface.c ****           {
1442:Src/register_interface.c ****             *dataPtr = &(pMCIN->pFOCVars->Iqdref.d);
1443:Src/register_interface.c ****             break;
1444:Src/register_interface.c ****           }
1445:Src/register_interface.c **** 
1446:Src/register_interface.c ****           case MC_REG_V_Q:
1447:Src/register_interface.c ****           {
1448:Src/register_interface.c ****             *dataPtr = &(pMCIN->pFOCVars->Vqd.q);
1449:Src/register_interface.c ****             break;
1450:Src/register_interface.c ****           }
1451:Src/register_interface.c **** 
1452:Src/register_interface.c ****           case MC_REG_V_D:
1453:Src/register_interface.c ****           {
1454:Src/register_interface.c ****             *dataPtr = &(pMCIN->pFOCVars->Vqd.d);
1455:Src/register_interface.c ****             break;
1456:Src/register_interface.c ****           }
1457:Src/register_interface.c **** 
1458:Src/register_interface.c ****           case MC_REG_V_ALPHA:
ARM GAS  C:\Users\ep_ygh\AppData\Local\Temp\ccSYahLu.s 			page 132


1459:Src/register_interface.c ****           {
1460:Src/register_interface.c ****             *dataPtr = &(pMCIN->pFOCVars->Valphabeta.alpha);
1461:Src/register_interface.c ****             break;
1462:Src/register_interface.c ****           }
1463:Src/register_interface.c **** 
1464:Src/register_interface.c ****           case MC_REG_V_BETA:
1465:Src/register_interface.c ****           {
1466:Src/register_interface.c ****             *dataPtr = &(pMCIN->pFOCVars->Valphabeta.beta);
1467:Src/register_interface.c ****             break;
1468:Src/register_interface.c ****           }
1469:Src/register_interface.c **** 
1470:Src/register_interface.c ****           case MC_REG_ENCODER_SPEED:
1471:Src/register_interface.c ****           {
1472:Src/register_interface.c ****             *dataPtr = &((&ENCODER_M1)->_Super.hAvrMecSpeedUnit);
1473:Src/register_interface.c ****             break;
1474:Src/register_interface.c ****           }
1475:Src/register_interface.c **** 
1476:Src/register_interface.c ****           case MC_REG_ENCODER_EL_ANGLE:
1477:Src/register_interface.c ****           {
1478:Src/register_interface.c ****             *dataPtr = &((&ENCODER_M1)->_Super.hElAngle);
1479:Src/register_interface.c ****             break;
1480:Src/register_interface.c ****           }
1481:Src/register_interface.c **** 
1482:Src/register_interface.c ****           default:
1483:Src/register_interface.c ****           {
1484:Src/register_interface.c ****             *dataPtr = &nullData16;
 4656              		.loc 1 1484 13 view .LVU1424
 4657              		.loc 1 1484 22 is_stmt 0 view .LVU1425
 4658 0008 414B     		ldr	r3, .L441
 4659 000a 0B60     		str	r3, [r1]
1485:Src/register_interface.c ****             retVal = MCP_ERROR_UNKNOWN_REG;
 4660              		.loc 1 1485 13 is_stmt 1 view .LVU1426
 4661              	.LVL604:
1486:Src/register_interface.c ****             break;
 4662              		.loc 1 1486 13 view .LVU1427
1485:Src/register_interface.c ****             retVal = MCP_ERROR_UNKNOWN_REG;
 4663              		.loc 1 1485 20 is_stmt 0 view .LVU1428
 4664 000c 0520     		movs	r0, #5
 4665              	.LVL605:
1487:Src/register_interface.c ****           }
1488:Src/register_interface.c ****         }
1489:Src/register_interface.c ****         break;
1490:Src/register_interface.c ****       }
1491:Src/register_interface.c **** 
1492:Src/register_interface.c ****       default:
1493:Src/register_interface.c ****       {
1494:Src/register_interface.c ****         *dataPtr = &nullData16;
1495:Src/register_interface.c ****         retVal = MCP_ERROR_UNKNOWN_REG;
1496:Src/register_interface.c ****         break;
1497:Src/register_interface.c ****       }
1498:Src/register_interface.c ****     }
1499:Src/register_interface.c **** #ifdef NULL_PTR_CHECK_REG_INT
1500:Src/register_interface.c ****   }
1501:Src/register_interface.c **** #endif
1502:Src/register_interface.c ****   return (retVal);
 4666              		.loc 1 1502 3 is_stmt 1 view .LVU1429
1503:Src/register_interface.c **** }
ARM GAS  C:\Users\ep_ygh\AppData\Local\Temp\ccSYahLu.s 			page 133


 4667              		.loc 1 1503 1 is_stmt 0 view .LVU1430
 4668 000e 7047     		bx	lr
 4669              	.LVL606:
 4670              	.L435:
1396:Src/register_interface.c ****         {
 4671              		.loc 1 1396 9 is_stmt 1 view .LVU1431
1389:Src/register_interface.c ****     uint8_t typeID = ((uint8_t)dataID) & TYPE_MASK;
 4672              		.loc 1 1389 14 is_stmt 0 view .LVU1432
 4673 0010 20F00700 		bic	r0, r0, #7
 4674              	.LVL607:
1389:Src/register_interface.c ****     uint8_t typeID = ((uint8_t)dataID) & TYPE_MASK;
 4675              		.loc 1 1389 14 view .LVU1433
 4676 0014 B0F5196F 		cmp	r0, #2448
 4677 0018 83B2     		uxth	r3, r0
 4678 001a 50D0     		beq	.L417
 4679 001c 0FD8     		bhi	.L418
 4680 001e B3F5096F 		cmp	r3, #2192
 4681 0022 52D0     		beq	.L419
 4682 0024 22D9     		bls	.L436
 4683 0026 B3F5116F 		cmp	r3, #2320
 4684 002a 54D0     		beq	.L424
 4685 002c B3F5156F 		cmp	r3, #2384
 4686 0030 13D1     		bne	.L437
1436:Src/register_interface.c ****             break;
 4687              		.loc 1 1436 13 is_stmt 1 view .LVU1434
1436:Src/register_interface.c ****             break;
 4688              		.loc 1 1436 31 is_stmt 0 view .LVU1435
 4689 0032 384B     		ldr	r3, .L441+4
1436:Src/register_interface.c ****             break;
 4690              		.loc 1 1436 24 view .LVU1436
 4691 0034 5B68     		ldr	r3, [r3, #4]
 4692 0036 1033     		adds	r3, r3, #16
1376:Src/register_interface.c ****   static uint16_t nullData16=0;
 4693              		.loc 1 1376 11 view .LVU1437
 4694 0038 0020     		movs	r0, #0
1436:Src/register_interface.c ****             break;
 4695              		.loc 1 1436 22 view .LVU1438
 4696 003a 0B60     		str	r3, [r1]
1437:Src/register_interface.c ****           }
 4697              		.loc 1 1437 13 is_stmt 1 view .LVU1439
 4698 003c 7047     		bx	lr
 4699              	.L418:
1437:Src/register_interface.c ****           }
 4700              		.loc 1 1437 13 is_stmt 0 view .LVU1440
 4701 003e B3F5296F 		cmp	r3, #2704
 4702 0042 4ED0     		beq	.L427
 4703 0044 1ED9     		bls	.L438
 4704 0046 B3F52D6F 		cmp	r3, #2768
 4705 004a 5CD0     		beq	.L432
 4706 004c B3F5316F 		cmp	r3, #2832
 4707 0050 DAD1     		bne	.L416
1472:Src/register_interface.c ****             break;
 4708              		.loc 1 1472 13 is_stmt 1 view .LVU1441
1472:Src/register_interface.c ****             break;
 4709              		.loc 1 1472 22 is_stmt 0 view .LVU1442
 4710 0052 314B     		ldr	r3, .L441+8
 4711 0054 0B60     		str	r3, [r1]
ARM GAS  C:\Users\ep_ygh\AppData\Local\Temp\ccSYahLu.s 			page 134


1473:Src/register_interface.c ****           }
 4712              		.loc 1 1473 13 is_stmt 1 view .LVU1443
1376:Src/register_interface.c ****   static uint16_t nullData16=0;
 4713              		.loc 1 1376 11 is_stmt 0 view .LVU1444
 4714 0056 0020     		movs	r0, #0
1473:Src/register_interface.c ****           }
 4715              		.loc 1 1473 13 view .LVU1445
 4716 0058 7047     		bx	lr
 4717              	.L437:
1473:Src/register_interface.c ****           }
 4718              		.loc 1 1473 13 view .LVU1446
 4719 005a B3F50D6F 		cmp	r3, #2256
 4720 005e D3D1     		bne	.L416
1424:Src/register_interface.c ****             break;
 4721              		.loc 1 1424 13 is_stmt 1 view .LVU1447
1424:Src/register_interface.c ****             break;
 4722              		.loc 1 1424 31 is_stmt 0 view .LVU1448
 4723 0060 2C4B     		ldr	r3, .L441+4
1424:Src/register_interface.c ****             break;
 4724              		.loc 1 1424 24 view .LVU1449
 4725 0062 5B68     		ldr	r3, [r3, #4]
 4726 0064 0C33     		adds	r3, r3, #12
1376:Src/register_interface.c ****   static uint16_t nullData16=0;
 4727              		.loc 1 1376 11 view .LVU1450
 4728 0066 0020     		movs	r0, #0
1424:Src/register_interface.c ****             break;
 4729              		.loc 1 1424 22 view .LVU1451
 4730 0068 0B60     		str	r3, [r1]
1425:Src/register_interface.c ****           }
 4731              		.loc 1 1425 13 is_stmt 1 view .LVU1452
 4732 006a 7047     		bx	lr
 4733              	.L436:
1425:Src/register_interface.c ****           }
 4734              		.loc 1 1425 13 is_stmt 0 view .LVU1453
 4735 006c B3F5016F 		cmp	r3, #2064
 4736 0070 3DD0     		beq	.L421
 4737 0072 B3F5056F 		cmp	r3, #2128
 4738 0076 11D1     		bne	.L439
1412:Src/register_interface.c ****             break;
 4739              		.loc 1 1412 13 is_stmt 1 view .LVU1454
1412:Src/register_interface.c ****             break;
 4740              		.loc 1 1412 31 is_stmt 0 view .LVU1455
 4741 0078 264B     		ldr	r3, .L441+4
1412:Src/register_interface.c ****             break;
 4742              		.loc 1 1412 24 view .LVU1456
 4743 007a 5B68     		ldr	r3, [r3, #4]
 4744 007c 0433     		adds	r3, r3, #4
1376:Src/register_interface.c ****   static uint16_t nullData16=0;
 4745              		.loc 1 1376 11 view .LVU1457
 4746 007e 0020     		movs	r0, #0
1412:Src/register_interface.c ****             break;
 4747              		.loc 1 1412 22 view .LVU1458
 4748 0080 0B60     		str	r3, [r1]
1413:Src/register_interface.c ****           }
 4749              		.loc 1 1413 13 is_stmt 1 view .LVU1459
 4750 0082 7047     		bx	lr
 4751              	.L438:
ARM GAS  C:\Users\ep_ygh\AppData\Local\Temp\ccSYahLu.s 			page 135


1413:Src/register_interface.c ****           }
 4752              		.loc 1 1413 13 is_stmt 0 view .LVU1460
 4753 0084 B3F5216F 		cmp	r3, #2576
 4754 0088 37D0     		beq	.L429
 4755 008a B3F5256F 		cmp	r3, #2640
 4756 008e 0DD1     		bne	.L440
1460:Src/register_interface.c ****             break;
 4757              		.loc 1 1460 13 is_stmt 1 view .LVU1461
1460:Src/register_interface.c ****             break;
 4758              		.loc 1 1460 31 is_stmt 0 view .LVU1462
 4759 0090 204B     		ldr	r3, .L441+4
1460:Src/register_interface.c ****             break;
 4760              		.loc 1 1460 24 view .LVU1463
 4761 0092 5B68     		ldr	r3, [r3, #4]
 4762 0094 1A33     		adds	r3, r3, #26
1376:Src/register_interface.c ****   static uint16_t nullData16=0;
 4763              		.loc 1 1376 11 view .LVU1464
 4764 0096 0020     		movs	r0, #0
1460:Src/register_interface.c ****             break;
 4765              		.loc 1 1460 22 view .LVU1465
 4766 0098 0B60     		str	r3, [r1]
1461:Src/register_interface.c ****           }
 4767              		.loc 1 1461 13 is_stmt 1 view .LVU1466
 4768 009a 7047     		bx	lr
 4769              	.L439:
1461:Src/register_interface.c ****           }
 4770              		.loc 1 1461 13 is_stmt 0 view .LVU1467
 4771 009c B3F5FA6F 		cmp	r3, #2000
 4772 00a0 B2D1     		bne	.L416
1400:Src/register_interface.c ****              break;
 4773              		.loc 1 1400 13 is_stmt 1 view .LVU1468
1400:Src/register_interface.c ****              break;
 4774              		.loc 1 1400 31 is_stmt 0 view .LVU1469
 4775 00a2 1C4B     		ldr	r3, .L441+4
1400:Src/register_interface.c ****              break;
 4776              		.loc 1 1400 22 view .LVU1470
 4777 00a4 5B68     		ldr	r3, [r3, #4]
 4778 00a6 0B60     		str	r3, [r1]
1401:Src/register_interface.c ****           }
 4779              		.loc 1 1401 14 is_stmt 1 view .LVU1471
1376:Src/register_interface.c ****   static uint16_t nullData16=0;
 4780              		.loc 1 1376 11 is_stmt 0 view .LVU1472
 4781 00a8 0020     		movs	r0, #0
1401:Src/register_interface.c ****           }
 4782              		.loc 1 1401 14 view .LVU1473
 4783 00aa 7047     		bx	lr
 4784              	.L440:
1401:Src/register_interface.c ****           }
 4785              		.loc 1 1401 14 view .LVU1474
 4786 00ac B3F51D6F 		cmp	r3, #2512
 4787 00b0 AAD1     		bne	.L416
1448:Src/register_interface.c ****             break;
 4788              		.loc 1 1448 13 is_stmt 1 view .LVU1475
1448:Src/register_interface.c ****             break;
 4789              		.loc 1 1448 31 is_stmt 0 view .LVU1476
 4790 00b2 184B     		ldr	r3, .L441+4
1448:Src/register_interface.c ****             break;
ARM GAS  C:\Users\ep_ygh\AppData\Local\Temp\ccSYahLu.s 			page 136


 4791              		.loc 1 1448 24 view .LVU1477
 4792 00b4 5B68     		ldr	r3, [r3, #4]
 4793 00b6 1633     		adds	r3, r3, #22
1376:Src/register_interface.c ****   static uint16_t nullData16=0;
 4794              		.loc 1 1376 11 view .LVU1478
 4795 00b8 0020     		movs	r0, #0
1448:Src/register_interface.c ****             break;
 4796              		.loc 1 1448 22 view .LVU1479
 4797 00ba 0B60     		str	r3, [r1]
1449:Src/register_interface.c ****           }
 4798              		.loc 1 1449 13 is_stmt 1 view .LVU1480
 4799 00bc 7047     		bx	lr
 4800              	.L417:
1442:Src/register_interface.c ****             break;
 4801              		.loc 1 1442 13 view .LVU1481
1442:Src/register_interface.c ****             break;
 4802              		.loc 1 1442 31 is_stmt 0 view .LVU1482
 4803 00be 154B     		ldr	r3, .L441+4
1442:Src/register_interface.c ****             break;
 4804              		.loc 1 1442 24 view .LVU1483
 4805 00c0 5B68     		ldr	r3, [r3, #4]
 4806 00c2 1233     		adds	r3, r3, #18
1376:Src/register_interface.c ****   static uint16_t nullData16=0;
 4807              		.loc 1 1376 11 view .LVU1484
 4808 00c4 0020     		movs	r0, #0
1442:Src/register_interface.c ****             break;
 4809              		.loc 1 1442 22 view .LVU1485
 4810 00c6 0B60     		str	r3, [r1]
1443:Src/register_interface.c ****           }
 4811              		.loc 1 1443 13 is_stmt 1 view .LVU1486
 4812 00c8 7047     		bx	lr
 4813              	.L419:
1418:Src/register_interface.c ****             break;
 4814              		.loc 1 1418 13 view .LVU1487
1418:Src/register_interface.c ****             break;
 4815              		.loc 1 1418 31 is_stmt 0 view .LVU1488
 4816 00ca 124B     		ldr	r3, .L441+4
1418:Src/register_interface.c ****             break;
 4817              		.loc 1 1418 24 view .LVU1489
 4818 00cc 5B68     		ldr	r3, [r3, #4]
 4819 00ce 0633     		adds	r3, r3, #6
1376:Src/register_interface.c ****   static uint16_t nullData16=0;
 4820              		.loc 1 1376 11 view .LVU1490
 4821 00d0 0020     		movs	r0, #0
1418:Src/register_interface.c ****             break;
 4822              		.loc 1 1418 22 view .LVU1491
 4823 00d2 0B60     		str	r3, [r1]
1419:Src/register_interface.c ****           }
 4824              		.loc 1 1419 13 is_stmt 1 view .LVU1492
 4825 00d4 7047     		bx	lr
 4826              	.L424:
1430:Src/register_interface.c ****             break;
 4827              		.loc 1 1430 13 view .LVU1493
1430:Src/register_interface.c ****             break;
 4828              		.loc 1 1430 31 is_stmt 0 view .LVU1494
 4829 00d6 0F4B     		ldr	r3, .L441+4
1430:Src/register_interface.c ****             break;
ARM GAS  C:\Users\ep_ygh\AppData\Local\Temp\ccSYahLu.s 			page 137


 4830              		.loc 1 1430 24 view .LVU1495
 4831 00d8 5B68     		ldr	r3, [r3, #4]
 4832 00da 0E33     		adds	r3, r3, #14
1376:Src/register_interface.c ****   static uint16_t nullData16=0;
 4833              		.loc 1 1376 11 view .LVU1496
 4834 00dc 0020     		movs	r0, #0
1430:Src/register_interface.c ****             break;
 4835              		.loc 1 1430 22 view .LVU1497
 4836 00de 0B60     		str	r3, [r1]
1431:Src/register_interface.c ****           }
 4837              		.loc 1 1431 13 is_stmt 1 view .LVU1498
 4838 00e0 7047     		bx	lr
 4839              	.L427:
1466:Src/register_interface.c ****             break;
 4840              		.loc 1 1466 13 view .LVU1499
1466:Src/register_interface.c ****             break;
 4841              		.loc 1 1466 31 is_stmt 0 view .LVU1500
 4842 00e2 0C4B     		ldr	r3, .L441+4
1466:Src/register_interface.c ****             break;
 4843              		.loc 1 1466 24 view .LVU1501
 4844 00e4 5B68     		ldr	r3, [r3, #4]
 4845 00e6 1C33     		adds	r3, r3, #28
1376:Src/register_interface.c ****   static uint16_t nullData16=0;
 4846              		.loc 1 1376 11 view .LVU1502
 4847 00e8 0020     		movs	r0, #0
1466:Src/register_interface.c ****             break;
 4848              		.loc 1 1466 22 view .LVU1503
 4849 00ea 0B60     		str	r3, [r1]
1467:Src/register_interface.c ****           }
 4850              		.loc 1 1467 13 is_stmt 1 view .LVU1504
 4851 00ec 7047     		bx	lr
 4852              	.L421:
1406:Src/register_interface.c ****             break;
 4853              		.loc 1 1406 13 view .LVU1505
1406:Src/register_interface.c ****             break;
 4854              		.loc 1 1406 31 is_stmt 0 view .LVU1506
 4855 00ee 094B     		ldr	r3, .L441+4
1406:Src/register_interface.c ****             break;
 4856              		.loc 1 1406 24 view .LVU1507
 4857 00f0 5B68     		ldr	r3, [r3, #4]
 4858 00f2 0233     		adds	r3, r3, #2
1376:Src/register_interface.c ****   static uint16_t nullData16=0;
 4859              		.loc 1 1376 11 view .LVU1508
 4860 00f4 0020     		movs	r0, #0
1406:Src/register_interface.c ****             break;
 4861              		.loc 1 1406 22 view .LVU1509
 4862 00f6 0B60     		str	r3, [r1]
1407:Src/register_interface.c ****           }
 4863              		.loc 1 1407 13 is_stmt 1 view .LVU1510
 4864 00f8 7047     		bx	lr
 4865              	.L429:
1454:Src/register_interface.c ****             break;
 4866              		.loc 1 1454 13 view .LVU1511
1454:Src/register_interface.c ****             break;
 4867              		.loc 1 1454 31 is_stmt 0 view .LVU1512
 4868 00fa 064B     		ldr	r3, .L441+4
1454:Src/register_interface.c ****             break;
ARM GAS  C:\Users\ep_ygh\AppData\Local\Temp\ccSYahLu.s 			page 138


 4869              		.loc 1 1454 24 view .LVU1513
 4870 00fc 5B68     		ldr	r3, [r3, #4]
 4871 00fe 1833     		adds	r3, r3, #24
1376:Src/register_interface.c ****   static uint16_t nullData16=0;
 4872              		.loc 1 1376 11 view .LVU1514
 4873 0100 0020     		movs	r0, #0
1454:Src/register_interface.c ****             break;
 4874              		.loc 1 1454 22 view .LVU1515
 4875 0102 0B60     		str	r3, [r1]
1455:Src/register_interface.c ****           }
 4876              		.loc 1 1455 13 is_stmt 1 view .LVU1516
 4877 0104 7047     		bx	lr
 4878              	.L432:
1478:Src/register_interface.c ****             break;
 4879              		.loc 1 1478 13 view .LVU1517
1478:Src/register_interface.c ****             break;
 4880              		.loc 1 1478 22 is_stmt 0 view .LVU1518
 4881 0106 054B     		ldr	r3, .L441+12
 4882 0108 0B60     		str	r3, [r1]
1479:Src/register_interface.c ****           }
 4883              		.loc 1 1479 13 is_stmt 1 view .LVU1519
1376:Src/register_interface.c ****   static uint16_t nullData16=0;
 4884              		.loc 1 1376 11 is_stmt 0 view .LVU1520
 4885 010a 0020     		movs	r0, #0
1479:Src/register_interface.c ****           }
 4886              		.loc 1 1479 13 view .LVU1521
 4887 010c 7047     		bx	lr
 4888              	.L442:
 4889 010e 00BF     		.align	2
 4890              	.L441:
 4891 0110 00000000 		.word	.LANCHOR1
 4892 0114 00000000 		.word	Mci
 4893 0118 0C000000 		.word	ENCODER_M1+12
 4894 011c 04000000 		.word	ENCODER_M1+4
 4895              		.cfi_endproc
 4896              	.LFE1096:
 4898              		.section	.bss.nullData16.0,"aw",%nobits
 4899              		.align	1
 4900              		.set	.LANCHOR1,. + 0
 4903              	nullData16.0:
 4904 0000 0000     		.space	2
 4905              		.section	.rodata.CSWTCH.35,"a"
 4906              		.align	2
 4907              		.set	.LANCHOR0,. + 0
 4910              	CSWTCH.35:
 4911 0000 01       		.byte	1
 4912 0001 00       		.byte	0
 4913 0002 00       		.byte	0
 4914 0003 00       		.byte	0
 4915 0004 00       		.byte	0
 4916 0005 00       		.byte	0
 4917 0006 00       		.byte	0
 4918 0007 00       		.byte	0
 4919 0008 02       		.byte	2
 4920 0009 00       		.byte	0
 4921 000a 00       		.byte	0
 4922 000b 00       		.byte	0
ARM GAS  C:\Users\ep_ygh\AppData\Local\Temp\ccSYahLu.s 			page 139


 4923 000c 00       		.byte	0
 4924 000d 00       		.byte	0
 4925 000e 00       		.byte	0
 4926 000f 00       		.byte	0
 4927 0010 04       		.byte	4
 4928              		.text
 4929              	.Letext0:
 4930              		.file 2 "c:\\programdata\\chocolatey\\lib\\gcc-arm-embedded\\tools\\gcc-arm-none-eabi-10.3-2021.10
 4931              		.file 3 "c:\\programdata\\chocolatey\\lib\\gcc-arm-embedded\\tools\\gcc-arm-none-eabi-10.3-2021.10
 4932              		.file 4 "Drivers/CMSIS/Device/ST/STM32L4xx/Include/stm32l476xx.h"
 4933              		.file 5 "Drivers/STM32L4xx_HAL_Driver/Inc/stm32l4xx_ll_tim.h"
 4934              		.file 6 "Drivers/STM32L4xx_HAL_Driver/Inc/stm32l4xx_ll_dma.h"
 4935              		.file 7 "Inc/mc_type.h"
 4936              		.file 8 "MCSDK_v6.2.1-Full/MotorControl/MCSDK/MCLib/Any/Inc/mcptl.h"
 4937              		.file 9 "Inc/pwm_curr_fdbk.h"
 4938              		.file 10 "MCSDK_v6.2.1-Full/MotorControl/MCSDK/MCLib/Any/Inc/pid_regulator.h"
 4939              		.file 11 "MCSDK_v6.2.1-Full/MotorControl/MCSDK/MCLib/Any/Inc/speed_pos_fdbk.h"
 4940              		.file 12 "MCSDK_v6.2.1-Full/MotorControl/MCSDK/MCLib/Any/Inc/speed_torq_ctrl.h"
 4941              		.file 13 "Inc/mc_perf.h"
 4942              		.file 14 "MCSDK_v6.2.1-Full/MotorControl/MCSDK/MCLib/Any/Inc/encoder_speed_pos_fdbk.h"
 4943              		.file 15 "MCSDK_v6.2.1-Full/MotorControl/MCSDK/MCLib/Any/Inc/trajectory_ctrl.h"
 4944              		.file 16 "Inc/mc_interface.h"
 4945              		.file 17 "MCSDK_v6.2.1-Full/MotorControl/MCSDK/MCLib/Any/Inc/ntc_temperature_sensor.h"
 4946              		.file 18 "Inc/mc_configuration_registers.h"
 4947              		.file 19 "Inc/mc_parameters.h"
 4948              		.file 20 "MCSDK_v6.2.1-Full/MotorControl/MCSDK/MCLib/Any/Inc/bus_voltage_sensor.h"
 4949              		.file 21 "MCSDK_v6.2.1-Full/MotorControl/MCSDK/MCLib/Any/Inc/r_divider_bus_voltage_sensor.h"
 4950              		.file 22 "MCSDK_v6.2.1-Full/MotorControl/MCSDK/MCLib/Any/Inc/pqd_motor_power_measurement.h"
 4951              		.file 23 "Inc/mc_config.h"
 4952              		.file 24 "MCSDK_v6.2.1-Full/MotorControl/MCSDK/MCLib/Any/Inc/mcpa.h"
 4953              		.file 25 "Inc/mcp_config.h"
 4954              		.file 26 "Inc/dac_ui.h"
ARM GAS  C:\Users\ep_ygh\AppData\Local\Temp\ccSYahLu.s 			page 140


DEFINED SYMBOLS
                            *ABS*:00000000 register_interface.c
C:\Users\ep_ygh\AppData\Local\Temp\ccSYahLu.s:20     .text.RI_SetRegisterGlobal:00000000 $t
C:\Users\ep_ygh\AppData\Local\Temp\ccSYahLu.s:27     .text.RI_SetRegisterGlobal:00000000 RI_SetRegisterGlobal
C:\Users\ep_ygh\AppData\Local\Temp\ccSYahLu.s:56     .text.RI_SetRegisterGlobal:00000012 $d
C:\Users\ep_ygh\AppData\Local\Temp\ccSYahLu.s:469    .text.RI_SetRegisterGlobal:00000148 $d
C:\Users\ep_ygh\AppData\Local\Temp\ccSYahLu.s:475    .text.RI_SetRegisterMotor1:00000000 $t
C:\Users\ep_ygh\AppData\Local\Temp\ccSYahLu.s:482    .text.RI_SetRegisterMotor1:00000000 RI_SetRegisterMotor1
C:\Users\ep_ygh\AppData\Local\Temp\ccSYahLu.s:516    .text.RI_SetRegisterMotor1:00000016 $d
C:\Users\ep_ygh\AppData\Local\Temp\ccSYahLu.s:1443   .text.RI_SetRegisterMotor1:000003e4 $d
C:\Users\ep_ygh\AppData\Local\Temp\ccSYahLu.s:1459   .text.RI_SetRegisterMotor1:00000400 $t
C:\Users\ep_ygh\AppData\Local\Temp\ccSYahLu.s:1780   .text.RI_SetRegisterMotor1:000004fc $d
C:\Users\ep_ygh\AppData\Local\Temp\ccSYahLu.s:1791   .text.RI_GetRegisterGlobal:00000000 $t
C:\Users\ep_ygh\AppData\Local\Temp\ccSYahLu.s:1798   .text.RI_GetRegisterGlobal:00000000 RI_GetRegisterGlobal
C:\Users\ep_ygh\AppData\Local\Temp\ccSYahLu.s:1831   .text.RI_GetRegisterGlobal:0000001a $d
C:\Users\ep_ygh\AppData\Local\Temp\ccSYahLu.s:2429   .text.RI_GetRegisterGlobal:000001d0 $d
C:\Users\ep_ygh\AppData\Local\Temp\ccSYahLu.s:2438   .text.RI_GetRegisterMotor1:00000000 $t
C:\Users\ep_ygh\AppData\Local\Temp\ccSYahLu.s:2445   .text.RI_GetRegisterMotor1:00000000 RI_GetRegisterMotor1
C:\Users\ep_ygh\AppData\Local\Temp\ccSYahLu.s:2482   .text.RI_GetRegisterMotor1:00000018 $d
C:\Users\ep_ygh\AppData\Local\Temp\ccSYahLu.s:3258   .text.RI_GetRegisterMotor1:0000036c $d
C:\Users\ep_ygh\AppData\Local\Temp\ccSYahLu.s:3269   .text.RI_GetRegisterMotor1:0000038c $t
C:\Users\ep_ygh\AppData\Local\Temp\ccSYahLu.s:4197   .text.RI_GetRegisterMotor1:00000660 $d
C:\Users\ep_ygh\AppData\Local\Temp\ccSYahLu.s:4213   .text.RI_GetRegisterMotor1:00000690 $t
C:\Users\ep_ygh\AppData\Local\Temp\ccSYahLu.s:4491   .text.RI_GetRegisterMotor1:00000744 $d
C:\Users\ep_ygh\AppData\Local\Temp\ccSYahLu.s:4503   .text.RI_MovString:00000000 $t
C:\Users\ep_ygh\AppData\Local\Temp\ccSYahLu.s:4510   .text.RI_MovString:00000000 RI_MovString
C:\Users\ep_ygh\AppData\Local\Temp\ccSYahLu.s:4589   .text.RI_GetIDSize:00000000 $t
C:\Users\ep_ygh\AppData\Local\Temp\ccSYahLu.s:4596   .text.RI_GetIDSize:00000000 RI_GetIDSize
C:\Users\ep_ygh\AppData\Local\Temp\ccSYahLu.s:4625   .text.RI_GetIDSize:00000014 $d
C:\Users\ep_ygh\AppData\Local\Temp\ccSYahLu.s:4630   .text.RI_GetPtrReg:00000000 $t
C:\Users\ep_ygh\AppData\Local\Temp\ccSYahLu.s:4637   .text.RI_GetPtrReg:00000000 RI_GetPtrReg
C:\Users\ep_ygh\AppData\Local\Temp\ccSYahLu.s:4891   .text.RI_GetPtrReg:00000110 $d
C:\Users\ep_ygh\AppData\Local\Temp\ccSYahLu.s:4899   .bss.nullData16.0:00000000 $d
C:\Users\ep_ygh\AppData\Local\Temp\ccSYahLu.s:4903   .bss.nullData16.0:00000000 nullData16.0
C:\Users\ep_ygh\AppData\Local\Temp\ccSYahLu.s:4906   .rodata.CSWTCH.35:00000000 $d
C:\Users\ep_ygh\AppData\Local\Temp\ccSYahLu.s:4910   .rodata.CSWTCH.35:00000000 CSWTCH.35
C:\Users\ep_ygh\AppData\Local\Temp\ccSYahLu.s:89     .text.RI_SetRegisterGlobal:00000033 $d
C:\Users\ep_ygh\AppData\Local\Temp\ccSYahLu.s:89     .text.RI_SetRegisterGlobal:00000034 $t
C:\Users\ep_ygh\AppData\Local\Temp\ccSYahLu.s:549    .text.RI_SetRegisterMotor1:00000037 $d
C:\Users\ep_ygh\AppData\Local\Temp\ccSYahLu.s:549    .text.RI_SetRegisterMotor1:00000038 $t
C:\Users\ep_ygh\AppData\Local\Temp\ccSYahLu.s:1864   .text.RI_GetRegisterGlobal:0000003b $d
C:\Users\ep_ygh\AppData\Local\Temp\ccSYahLu.s:1864   .text.RI_GetRegisterGlobal:0000003c $t
C:\Users\ep_ygh\AppData\Local\Temp\ccSYahLu.s:2515   .text.RI_GetRegisterMotor1:00000039 $d
C:\Users\ep_ygh\AppData\Local\Temp\ccSYahLu.s:2515   .text.RI_GetRegisterMotor1:0000003a $t

UNDEFINED SYMBOLS
DAC_SetChannelConfig
DAC_Handle
MCI_ExecTorqueRamp
PID_SetKP
PID_SetKIDivisorPOW2
PID_SetKI
PID_SetKDDivisorPOW2
MCI_GetIqdref
MCI_SetCurrentReferences
PID_SetKD
PID_SetKPDivisorPOW2
ARM GAS  C:\Users\ep_ygh\AppData\Local\Temp\ccSYahLu.s 			page 141


MCPA_cfgLog
MCI_ExecSpeedRamp
MCI_GetTeref
Mci
PIDIdHandle_M1
PIDIqHandle_M1
PIDSpeedHandle_M1
PID_PosParamsM1
MCPA_UART_A
MCI_ExecPositionCommand
MCI_GetMecSpeedRefUnit
DAC_GetChannelConfig
MC_Perf_GetCPU_Load
MC_Perf_GetMaxCPU_Load
MC_Perf_GetMinCPU_Load
CTL_BOARD
FIRMWARE_NAME
globalConfig_reg
MCI_GetControlMode
MCI_GetAvrgMecSpeedUnit
VBS_GetAvBusVoltage_V
TC_GetMoveDuration
TC_GetTargetPosition
MCI_GetLastRampFinalTorque
MCI_GetLastRampFinalDuration
TC_GetAlignmentStatus
PID_GetKP
MCI_GetVqd
PID_GetKIDivisorPOW2
MCI_GetIqd
MCI_GetIalphabeta
MCI_GetValphabeta
SPD_GetS16Speed
PID_GetKI
PID_GetKD
PID_GetKDDivisorPOW2
BusVoltageSensor_M1
PosCtrlM1
ENCODER_M1
MCI_GetIab
PID_GetKPDivisorPOW2
PQD_GetAvrgElMotorPowerW
MCI_GetSTMState
TC_GetControlPositionStatus
MCI_GetLastRampFinalSpeed
MCI_GetCurrentPosition
MCI_GetFaultState
pMPM
MotorConfig_reg
PWR_BOARD_NAME
scaleParams_M1
ApplicationConfig_reg
FOCConfig_reg
NTC_GetAvTemp_C
SPD_GetElAngle
TempSensor_M1
