ARM GAS  C:\Users\ep_ygh\AppData\Local\Temp\ccaRZNy5.s 			page 1


   1              		.cpu cortex-m4
   2              		.arch armv7e-m
   3              		.fpu fpv4-sp-d16
   4              		.eabi_attribute 27, 1
   5              		.eabi_attribute 28, 1
   6              		.eabi_attribute 20, 1
   7              		.eabi_attribute 21, 1
   8              		.eabi_attribute 23, 3
   9              		.eabi_attribute 24, 1
  10              		.eabi_attribute 25, 1
  11              		.eabi_attribute 26, 1
  12              		.eabi_attribute 30, 2
  13              		.eabi_attribute 34, 1
  14              		.eabi_attribute 18, 4
  15              		.file	"register_interface.c"
  16              		.text
  17              	.Ltext0:
  18              		.cfi_sections	.debug_frame
  19              		.section	.text.RI_SetRegisterGlobal,"ax",%progbits
  20              		.align	1
  21              		.p2align 2,,3
  22              		.global	RI_SetRegisterGlobal
  23              		.syntax unified
  24              		.thumb
  25              		.thumb_func
  27              	RI_SetRegisterGlobal:
  28              	.LVL0:
  29              	.LFB1090:
  30              		.file 1 "Src/register_interface.c"
   1:Src/register_interface.c **** 
   2:Src/register_interface.c **** /**
   3:Src/register_interface.c ****   ******************************************************************************
   4:Src/register_interface.c ****   * @file    register_interface.c
   5:Src/register_interface.c ****   * @author  Motor Control SDK Team, ST Microelectronics
   6:Src/register_interface.c ****   * @brief   This file provides firmware functions that implement the register access for the MCP p
   7:Src/register_interface.c ****   *
   8:Src/register_interface.c ****   *
   9:Src/register_interface.c ****   ******************************************************************************
  10:Src/register_interface.c ****   * @attention
  11:Src/register_interface.c ****   *
  12:Src/register_interface.c ****   * <h2><center>&copy; Copyright (c) 2023 STMicroelectronics.
  13:Src/register_interface.c ****   * All rights reserved.</center></h2>
  14:Src/register_interface.c ****   *
  15:Src/register_interface.c ****   * This software component is licensed by ST under Ultimate Liberty license
  16:Src/register_interface.c ****   * SLA0044, the "License"; You may not use this file except in compliance with
  17:Src/register_interface.c ****   * the License. You may obtain a copy of the License at:
  18:Src/register_interface.c ****   *                             www.st.com/SLA0044
  19:Src/register_interface.c ****   *
  20:Src/register_interface.c ****   ******************************************************************************
  21:Src/register_interface.c ****   */
  22:Src/register_interface.c **** 
  23:Src/register_interface.c **** #include "mc_type.h"
  24:Src/register_interface.c **** #include "string.h"
  25:Src/register_interface.c **** #include "register_interface.h"
  26:Src/register_interface.c **** #include "mc_config.h"
  27:Src/register_interface.c **** #include "mcp.h"
  28:Src/register_interface.c **** #include "mcp_config.h"
ARM GAS  C:\Users\ep_ygh\AppData\Local\Temp\ccaRZNy5.s 			page 2


  29:Src/register_interface.c **** #include "mcpa.h"
  30:Src/register_interface.c **** #include "mc_configuration_registers.h"
  31:Src/register_interface.c **** 
  32:Src/register_interface.c **** uint8_t RI_SetRegisterGlobal(uint16_t regID, uint8_t typeID, uint8_t *data, uint16_t *size, int16_t
  33:Src/register_interface.c **** {
  31              		.loc 1 33 1 view -0
  32              		.cfi_startproc
  33              		@ args = 4, pretend = 0, frame = 0
  34              		@ frame_needed = 0, uses_anonymous_args = 0
  34:Src/register_interface.c ****   uint8_t retVal = MCP_CMD_OK;
  35              		.loc 1 34 3 view .LVU1
  35:Src/register_interface.c ****   switch(typeID)
  36              		.loc 1 35 3 view .LVU2
  33:Src/register_interface.c ****   uint8_t retVal = MCP_CMD_OK;
  37              		.loc 1 33 1 is_stmt 0 view .LVU3
  38 0000 10B5     		push	{r4, lr}
  39              	.LCFI0:
  40              		.cfi_def_cfa_offset 8
  41              		.cfi_offset 4, -8
  42              		.cfi_offset 14, -4
  43              		.loc 1 35 3 view .LVU4
  44 0002 0839     		subs	r1, r1, #8
  45              	.LVL1:
  33:Src/register_interface.c ****   uint8_t retVal = MCP_CMD_OK;
  46              		.loc 1 33 1 view .LVU5
  47 0004 BDF908C0 		ldrsh	ip, [sp, #8]
  48              		.loc 1 35 3 view .LVU6
  49 0008 2029     		cmp	r1, #32
  50 000a 12D8     		bhi	.L2
  51 000c DFE801F0 		tbb	[pc, r1]
  52              	.L4:
  53 0010 15       		.byte	(.L8-.L4)/2
  54 0011 11       		.byte	(.L2-.L4)/2
  55 0012 11       		.byte	(.L2-.L4)/2
  56 0013 11       		.byte	(.L2-.L4)/2
  57 0014 11       		.byte	(.L2-.L4)/2
  58 0015 11       		.byte	(.L2-.L4)/2
  59 0016 11       		.byte	(.L2-.L4)/2
  60 0017 11       		.byte	(.L2-.L4)/2
  61 0018 1D       		.byte	(.L7-.L4)/2
  62 0019 11       		.byte	(.L2-.L4)/2
  63 001a 11       		.byte	(.L2-.L4)/2
  64 001b 11       		.byte	(.L2-.L4)/2
  65 001c 11       		.byte	(.L2-.L4)/2
  66 001d 11       		.byte	(.L2-.L4)/2
  67 001e 11       		.byte	(.L2-.L4)/2
  68 001f 11       		.byte	(.L2-.L4)/2
  69 0020 2D       		.byte	(.L6-.L4)/2
  70 0021 11       		.byte	(.L2-.L4)/2
  71 0022 11       		.byte	(.L2-.L4)/2
  72 0023 11       		.byte	(.L2-.L4)/2
  73 0024 11       		.byte	(.L2-.L4)/2
  74 0025 11       		.byte	(.L2-.L4)/2
  75 0026 11       		.byte	(.L2-.L4)/2
  76 0027 11       		.byte	(.L2-.L4)/2
  77 0028 35       		.byte	(.L5-.L4)/2
  78 0029 11       		.byte	(.L2-.L4)/2
ARM GAS  C:\Users\ep_ygh\AppData\Local\Temp\ccaRZNy5.s 			page 3


  79 002a 11       		.byte	(.L2-.L4)/2
  80 002b 11       		.byte	(.L2-.L4)/2
  81 002c 11       		.byte	(.L2-.L4)/2
  82 002d 11       		.byte	(.L2-.L4)/2
  83 002e 11       		.byte	(.L2-.L4)/2
  84 002f 11       		.byte	(.L2-.L4)/2
  85 0030 4C       		.byte	(.L3-.L4)/2
  86 0031 00       		.p2align 1
  87              	.L2:
  36:Src/register_interface.c ****   {
  37:Src/register_interface.c ****     case TYPE_DATA_8BIT:
  38:Src/register_interface.c ****     {
  39:Src/register_interface.c ****       switch (regID)
  40:Src/register_interface.c ****       {
  41:Src/register_interface.c ****         case MC_REG_STATUS:
  42:Src/register_interface.c ****         {
  43:Src/register_interface.c ****           retVal = MCP_ERROR_RO_REG;
  44:Src/register_interface.c ****           break;
  45:Src/register_interface.c ****         }
  46:Src/register_interface.c **** 
  47:Src/register_interface.c ****         default:
  48:Src/register_interface.c ****         {
  49:Src/register_interface.c ****           retVal = MCP_ERROR_UNKNOWN_REG;
  50:Src/register_interface.c ****           break;
  51:Src/register_interface.c ****         }
  52:Src/register_interface.c ****       }
  53:Src/register_interface.c ****       *size = 1;
  54:Src/register_interface.c ****       break;
  55:Src/register_interface.c ****     }
  56:Src/register_interface.c **** 
  57:Src/register_interface.c ****     case TYPE_DATA_16BIT:
  58:Src/register_interface.c ****     {
  59:Src/register_interface.c ****       switch (regID)
  60:Src/register_interface.c ****       {
  61:Src/register_interface.c **** 
  62:Src/register_interface.c ****         case MC_REG_BUS_VOLTAGE:
  63:Src/register_interface.c ****         case MC_REG_HEATS_TEMP:
  64:Src/register_interface.c ****         case MC_REG_MOTOR_POWER:
  65:Src/register_interface.c ****         {
  66:Src/register_interface.c ****           retVal = MCP_ERROR_RO_REG;
  67:Src/register_interface.c ****           break;
  68:Src/register_interface.c ****         }
  69:Src/register_interface.c **** 
  70:Src/register_interface.c ****         case MC_REG_DAC_USER1:
  71:Src/register_interface.c ****         case MC_REG_DAC_USER2:
  72:Src/register_interface.c ****         break;
  73:Src/register_interface.c **** 
  74:Src/register_interface.c ****         default:
  75:Src/register_interface.c ****         {
  76:Src/register_interface.c ****           retVal = MCP_ERROR_UNKNOWN_REG;
  77:Src/register_interface.c ****           break;
  78:Src/register_interface.c ****         }
  79:Src/register_interface.c ****       }
  80:Src/register_interface.c ****       *size = 2;
  81:Src/register_interface.c ****       break;
  82:Src/register_interface.c ****     }
  83:Src/register_interface.c **** 
ARM GAS  C:\Users\ep_ygh\AppData\Local\Temp\ccaRZNy5.s 			page 4


  84:Src/register_interface.c ****     case TYPE_DATA_32BIT:
  85:Src/register_interface.c ****     {
  86:Src/register_interface.c **** 
  87:Src/register_interface.c ****       switch (regID)
  88:Src/register_interface.c ****       {
  89:Src/register_interface.c ****         case MC_REG_FAULTS_FLAGS:
  90:Src/register_interface.c ****         {
  91:Src/register_interface.c ****           retVal = MCP_ERROR_RO_REG;
  92:Src/register_interface.c ****           break;
  93:Src/register_interface.c ****         }
  94:Src/register_interface.c **** 
  95:Src/register_interface.c ****         default:
  96:Src/register_interface.c ****         {
  97:Src/register_interface.c ****           retVal = MCP_ERROR_UNKNOWN_REG;
  98:Src/register_interface.c ****           break;
  99:Src/register_interface.c ****         }
 100:Src/register_interface.c ****       }
 101:Src/register_interface.c ****       *size = 4;
 102:Src/register_interface.c ****       break;
 103:Src/register_interface.c ****     }
 104:Src/register_interface.c **** 
 105:Src/register_interface.c ****     case TYPE_DATA_STRING:
 106:Src/register_interface.c ****     {
 107:Src/register_interface.c ****       const char_t *charData = (const char_t *)data;
 108:Src/register_interface.c ****       char_t *dummy = (char_t *)data;
 109:Src/register_interface.c ****       retVal = MCP_ERROR_RO_REG;
 110:Src/register_interface.c ****       /* Used to compute String length stored in RXBUFF even if Reg does not exist */
 111:Src/register_interface.c ****       /* It allows to jump to the next command in the buffer */
 112:Src/register_interface.c ****       (void)RI_MovString(charData, dummy, size, dataAvailable);
 113:Src/register_interface.c ****       break;
 114:Src/register_interface.c ****     }
 115:Src/register_interface.c **** 
 116:Src/register_interface.c ****     case TYPE_DATA_RAW:
 117:Src/register_interface.c ****     {
 118:Src/register_interface.c ****       uint16_t rawSize = *(uint16_t *)data; //cstat !MISRAC2012-Rule-11.3
 119:Src/register_interface.c ****       /* The size consumed by the structure is the structure size + 2 bytes used to store the size 
 120:Src/register_interface.c ****       *size = rawSize + 2U;
 121:Src/register_interface.c ****       uint8_t *rawData = data; /* rawData points to the first data (after size extraction) */
 122:Src/register_interface.c ****       rawData++;
 123:Src/register_interface.c ****       rawData++;
 124:Src/register_interface.c **** 
 125:Src/register_interface.c ****       if (*size > (uint16_t)dataAvailable)
 126:Src/register_interface.c ****       {
 127:Src/register_interface.c ****         /* The decoded size of the raw structure can not match with transmitted buffer, error in bu
 128:Src/register_interface.c ****            construction */
 129:Src/register_interface.c ****         *size = 0;
 130:Src/register_interface.c ****         retVal = MCP_ERROR_BAD_RAW_FORMAT; /* This error stop the parsing of the CMD buffer */
 131:Src/register_interface.c ****       }
 132:Src/register_interface.c ****       else
 133:Src/register_interface.c ****       {
 134:Src/register_interface.c ****         switch (regID)
 135:Src/register_interface.c ****         {
 136:Src/register_interface.c ****           case MC_REG_APPLICATION_CONFIG:
 137:Src/register_interface.c ****           case MC_REG_MOTOR_CONFIG:
 138:Src/register_interface.c ****           case MC_REG_GLOBAL_CONFIG:
 139:Src/register_interface.c ****           case MC_REG_FOCFW_CONFIG:
 140:Src/register_interface.c ****           {
ARM GAS  C:\Users\ep_ygh\AppData\Local\Temp\ccaRZNy5.s 			page 5


 141:Src/register_interface.c ****             retVal = MCP_ERROR_RO_REG;
 142:Src/register_interface.c ****             break;
 143:Src/register_interface.c ****           }
 144:Src/register_interface.c **** 
 145:Src/register_interface.c ****           default:
 146:Src/register_interface.c ****           {
 147:Src/register_interface.c ****             retVal = MCP_ERROR_UNKNOWN_REG;
 148:Src/register_interface.c ****             break;
 149:Src/register_interface.c ****           }
 150:Src/register_interface.c ****         }
 151:Src/register_interface.c **** 
 152:Src/register_interface.c ****       }
 153:Src/register_interface.c ****       break;
 154:Src/register_interface.c ****     }
 155:Src/register_interface.c **** 
 156:Src/register_interface.c ****     default:
 157:Src/register_interface.c ****     {
 158:Src/register_interface.c ****       retVal = MCP_ERROR_BAD_DATA_TYPE;
  88              		.loc 1 158 7 is_stmt 1 view .LVU7
  89              	.LVL2:
 159:Src/register_interface.c ****       *size =0; /* From this point we are not able anymore to decode the RX buffer */
  90              		.loc 1 159 7 view .LVU8
  91              		.loc 1 159 13 is_stmt 0 view .LVU9
  92 0032 0022     		movs	r2, #0
  93              	.LVL3:
  94              		.loc 1 159 13 view .LVU10
  95 0034 1A80     		strh	r2, [r3]	@ movhi
 160:Src/register_interface.c ****       break;
  96              		.loc 1 160 7 is_stmt 1 view .LVU11
 158:Src/register_interface.c ****       *size =0; /* From this point we are not able anymore to decode the RX buffer */
  97              		.loc 1 158 14 is_stmt 0 view .LVU12
  98 0036 0720     		movs	r0, #7
  99              	.LVL4:
 161:Src/register_interface.c ****     }
 162:Src/register_interface.c ****   }
 163:Src/register_interface.c ****   return (retVal);
 164:Src/register_interface.c **** }
 100              		.loc 1 164 1 view .LVU13
 101 0038 10BD     		pop	{r4, pc}
 102              	.LVL5:
 103              	.L8:
  39:Src/register_interface.c ****       {
 104              		.loc 1 39 7 is_stmt 1 view .LVU14
  49:Src/register_interface.c ****           break;
 105              		.loc 1 49 18 is_stmt 0 view .LVU15
 106 003a 4828     		cmp	r0, #72
  53:Src/register_interface.c ****       break;
 107              		.loc 1 53 13 view .LVU16
 108 003c 4FF00102 		mov	r2, #1
 109              	.LVL6:
  49:Src/register_interface.c ****           break;
 110              		.loc 1 49 18 view .LVU17
 111 0040 0CBF     		ite	eq
 112 0042 0420     		moveq	r0, #4
 113              	.LVL7:
  49:Src/register_interface.c ****           break;
 114              		.loc 1 49 18 view .LVU18
ARM GAS  C:\Users\ep_ygh\AppData\Local\Temp\ccaRZNy5.s 			page 6


 115 0044 0520     		movne	r0, #5
 116              	.LVL8:
  53:Src/register_interface.c ****       break;
 117              		.loc 1 53 7 is_stmt 1 view .LVU19
  53:Src/register_interface.c ****       break;
 118              		.loc 1 53 13 is_stmt 0 view .LVU20
 119 0046 1A80     		strh	r2, [r3]	@ movhi
  54:Src/register_interface.c ****     }
 120              		.loc 1 54 7 is_stmt 1 view .LVU21
 121              		.loc 1 164 1 is_stmt 0 view .LVU22
 122 0048 10BD     		pop	{r4, pc}
 123              	.LVL9:
 124              	.L7:
  59:Src/register_interface.c ****       {
 125              		.loc 1 59 7 is_stmt 1 view .LVU23
 126 004a B0F5656F 		cmp	r0, #3664
 127 004e 4ED0     		beq	.L22
 128 0050 3CD9     		bls	.L38
 129 0052 B0F5696F 		cmp	r0, #3728
 130 0056 4AD0     		beq	.L22
 131 0058 41F65832 		movw	r2, #7000
 132              	.LVL10:
  59:Src/register_interface.c ****       {
 133              		.loc 1 59 7 is_stmt 0 view .LVU24
 134 005c 9042     		cmp	r0, r2
 135 005e 14BF     		ite	ne
 136 0060 0520     		movne	r0, #5
 137 0062 0420     		moveq	r0, #4
 138              	.LVL11:
 139              	.L11:
  80:Src/register_interface.c ****       break;
 140              		.loc 1 80 7 is_stmt 1 view .LVU25
  80:Src/register_interface.c ****       break;
 141              		.loc 1 80 13 is_stmt 0 view .LVU26
 142 0064 0222     		movs	r2, #2
 143 0066 1A80     		strh	r2, [r3]	@ movhi
  81:Src/register_interface.c ****     }
 144              		.loc 1 81 7 is_stmt 1 view .LVU27
 145              		.loc 1 164 1 is_stmt 0 view .LVU28
 146 0068 10BD     		pop	{r4, pc}
 147              	.LVL12:
 148              	.L6:
  87:Src/register_interface.c ****       {
 149              		.loc 1 87 7 is_stmt 1 view .LVU29
  97:Src/register_interface.c ****           break;
 150              		.loc 1 97 18 is_stmt 0 view .LVU30
 151 006a 1828     		cmp	r0, #24
 101:Src/register_interface.c ****       break;
 152              		.loc 1 101 13 view .LVU31
 153 006c 4FF00402 		mov	r2, #4
 154              	.LVL13:
  97:Src/register_interface.c ****           break;
 155              		.loc 1 97 18 view .LVU32
 156 0070 0CBF     		ite	eq
 157 0072 1046     		moveq	r0, r2
 158              	.LVL14:
  97:Src/register_interface.c ****           break;
ARM GAS  C:\Users\ep_ygh\AppData\Local\Temp\ccaRZNy5.s 			page 7


 159              		.loc 1 97 18 view .LVU33
 160 0074 0520     		movne	r0, #5
 161              	.LVL15:
 101:Src/register_interface.c ****       break;
 162              		.loc 1 101 7 is_stmt 1 view .LVU34
 101:Src/register_interface.c ****       break;
 163              		.loc 1 101 13 is_stmt 0 view .LVU35
 164 0076 1A80     		strh	r2, [r3]	@ movhi
 102:Src/register_interface.c ****     }
 165              		.loc 1 102 7 is_stmt 1 view .LVU36
 166              		.loc 1 164 1 is_stmt 0 view .LVU37
 167 0078 10BD     		pop	{r4, pc}
 168              	.LVL16:
 169              	.L5:
 170              	.LBB45:
 107:Src/register_interface.c ****       char_t *dummy = (char_t *)data;
 171              		.loc 1 107 7 is_stmt 1 view .LVU38
 108:Src/register_interface.c ****       retVal = MCP_ERROR_RO_REG;
 172              		.loc 1 108 7 view .LVU39
 109:Src/register_interface.c ****       /* Used to compute String length stored in RXBUFF even if Reg does not exist */
 173              		.loc 1 109 7 view .LVU40
 112:Src/register_interface.c ****       break;
 174              		.loc 1 112 7 view .LVU41
 175              	.LBB46:
 176              	.LBI46:
 165:Src/register_interface.c **** 
 166:Src/register_interface.c **** uint8_t RI_SetRegisterMotor1(uint16_t regID, uint8_t typeID, uint8_t *data, uint16_t *size, int16_t
 167:Src/register_interface.c **** {
 168:Src/register_interface.c ****   uint8_t retVal = MCP_CMD_OK;
 169:Src/register_interface.c ****   uint8_t motorID=0;
 170:Src/register_interface.c ****   MCI_Handle_t *pMCIN = &Mci[motorID];
 171:Src/register_interface.c **** 
 172:Src/register_interface.c ****   switch(typeID)
 173:Src/register_interface.c ****   {
 174:Src/register_interface.c ****     case TYPE_DATA_8BIT:
 175:Src/register_interface.c ****     {
 176:Src/register_interface.c ****       switch (regID)
 177:Src/register_interface.c ****       {
 178:Src/register_interface.c ****         case MC_REG_STATUS:
 179:Src/register_interface.c ****           {
 180:Src/register_interface.c ****             retVal = MCP_ERROR_RO_REG;
 181:Src/register_interface.c ****             break;
 182:Src/register_interface.c ****           }
 183:Src/register_interface.c **** 
 184:Src/register_interface.c ****         case MC_REG_CONTROL_MODE:
 185:Src/register_interface.c ****         {
 186:Src/register_interface.c ****           uint8_t regdata8 = *data;
 187:Src/register_interface.c ****           if ((uint8_t)MCM_TORQUE_MODE == regdata8)
 188:Src/register_interface.c ****           {
 189:Src/register_interface.c ****             MCI_ExecTorqueRamp(pMCIN, MCI_GetTeref(pMCIN), 0);
 190:Src/register_interface.c ****           }
 191:Src/register_interface.c ****           else
 192:Src/register_interface.c ****           {
 193:Src/register_interface.c ****             /* Nothing to do */
 194:Src/register_interface.c ****           }
 195:Src/register_interface.c **** 
 196:Src/register_interface.c ****           if ((uint8_t)MCM_SPEED_MODE == regdata8)
ARM GAS  C:\Users\ep_ygh\AppData\Local\Temp\ccaRZNy5.s 			page 8


 197:Src/register_interface.c ****           {
 198:Src/register_interface.c ****             MCI_SetSpeedMode(pMCIN);
 199:Src/register_interface.c ****           }
 200:Src/register_interface.c ****           else
 201:Src/register_interface.c ****           {
 202:Src/register_interface.c ****             /* Nothing to do */
 203:Src/register_interface.c ****           }
 204:Src/register_interface.c **** 
 205:Src/register_interface.c ****           if ((uint8_t)regdata8 == MCM_OPEN_LOOP_CURRENT_MODE)
 206:Src/register_interface.c ****           {
 207:Src/register_interface.c ****             MCI_SetOpenLoopCurrent(pMCIN);
 208:Src/register_interface.c ****           }
 209:Src/register_interface.c ****           else
 210:Src/register_interface.c ****           {
 211:Src/register_interface.c ****             /* Nothing to do */
 212:Src/register_interface.c ****           }
 213:Src/register_interface.c **** 
 214:Src/register_interface.c ****           if ((uint8_t)regdata8 == MCM_OPEN_LOOP_VOLTAGE_MODE)
 215:Src/register_interface.c ****           {
 216:Src/register_interface.c ****             MCI_SetOpenLoopVoltage(pMCIN);
 217:Src/register_interface.c ****           }
 218:Src/register_interface.c ****           else
 219:Src/register_interface.c ****           {
 220:Src/register_interface.c ****             /* Nothing to do */
 221:Src/register_interface.c ****           }
 222:Src/register_interface.c ****           break;
 223:Src/register_interface.c ****         }
 224:Src/register_interface.c **** 
 225:Src/register_interface.c ****         case MC_REG_RUC_STAGE_NBR:
 226:Src/register_interface.c ****         {
 227:Src/register_interface.c ****           retVal = MCP_ERROR_RO_REG;
 228:Src/register_interface.c ****           break;
 229:Src/register_interface.c ****         }
 230:Src/register_interface.c **** 
 231:Src/register_interface.c ****         default:
 232:Src/register_interface.c ****         {
 233:Src/register_interface.c ****           retVal = MCP_ERROR_UNKNOWN_REG;
 234:Src/register_interface.c ****           break;
 235:Src/register_interface.c ****         }
 236:Src/register_interface.c ****       }
 237:Src/register_interface.c ****       *size = 1;
 238:Src/register_interface.c ****       break;
 239:Src/register_interface.c ****     }
 240:Src/register_interface.c **** 
 241:Src/register_interface.c ****     case TYPE_DATA_16BIT:
 242:Src/register_interface.c ****     {
 243:Src/register_interface.c ****       uint16_t regdata16 = *(uint16_t *)data; //cstat !MISRAC2012-Rule-11.3
 244:Src/register_interface.c ****       switch (regID)
 245:Src/register_interface.c ****       {
 246:Src/register_interface.c ****         case MC_REG_SPEED_KP:
 247:Src/register_interface.c ****         {
 248:Src/register_interface.c ****           PID_SetKP(&PIDSpeedHandle_M1, (int16_t)regdata16);
 249:Src/register_interface.c ****           break;
 250:Src/register_interface.c ****         }
 251:Src/register_interface.c **** 
 252:Src/register_interface.c ****         case MC_REG_SPEED_KI:
 253:Src/register_interface.c ****         {
ARM GAS  C:\Users\ep_ygh\AppData\Local\Temp\ccaRZNy5.s 			page 9


 254:Src/register_interface.c ****           PID_SetKI(&PIDSpeedHandle_M1, (int16_t)regdata16);
 255:Src/register_interface.c ****           break;
 256:Src/register_interface.c ****         }
 257:Src/register_interface.c **** 
 258:Src/register_interface.c ****         case MC_REG_SPEED_KD:
 259:Src/register_interface.c ****         {
 260:Src/register_interface.c ****           PID_SetKD(&PIDSpeedHandle_M1, (int16_t)regdata16);
 261:Src/register_interface.c ****           break;
 262:Src/register_interface.c ****         }
 263:Src/register_interface.c **** 
 264:Src/register_interface.c ****         case MC_REG_I_Q_KP:
 265:Src/register_interface.c ****         {
 266:Src/register_interface.c ****           PID_SetKP(&PIDIqHandle_M1, (int16_t)regdata16);
 267:Src/register_interface.c ****           break;
 268:Src/register_interface.c ****         }
 269:Src/register_interface.c **** 
 270:Src/register_interface.c ****         case MC_REG_I_Q_KI:
 271:Src/register_interface.c ****         {
 272:Src/register_interface.c ****           PID_SetKI(&PIDIqHandle_M1, (int16_t)regdata16);
 273:Src/register_interface.c ****           break;
 274:Src/register_interface.c ****         }
 275:Src/register_interface.c **** 
 276:Src/register_interface.c ****         case MC_REG_I_Q_KD:
 277:Src/register_interface.c ****         {
 278:Src/register_interface.c ****           PID_SetKD(&PIDIqHandle_M1, (int16_t)regdata16);
 279:Src/register_interface.c ****           break;
 280:Src/register_interface.c ****         }
 281:Src/register_interface.c **** 
 282:Src/register_interface.c ****         case MC_REG_I_D_KP:
 283:Src/register_interface.c ****         {
 284:Src/register_interface.c ****           PID_SetKP(&PIDIdHandle_M1, (int16_t)regdata16);
 285:Src/register_interface.c ****           break;
 286:Src/register_interface.c ****         }
 287:Src/register_interface.c **** 
 288:Src/register_interface.c ****         case MC_REG_I_D_KI:
 289:Src/register_interface.c ****         {
 290:Src/register_interface.c ****           PID_SetKI(&PIDIdHandle_M1, (int16_t)regdata16);
 291:Src/register_interface.c ****           break;
 292:Src/register_interface.c ****         }
 293:Src/register_interface.c **** 
 294:Src/register_interface.c ****         case MC_REG_I_D_KD:
 295:Src/register_interface.c ****         {
 296:Src/register_interface.c ****           PID_SetKD(&PIDIdHandle_M1, (int16_t)regdata16);
 297:Src/register_interface.c ****           break;
 298:Src/register_interface.c ****         }
 299:Src/register_interface.c **** 
 300:Src/register_interface.c ****         case MC_REG_BUS_VOLTAGE:
 301:Src/register_interface.c ****         case MC_REG_HEATS_TEMP:
 302:Src/register_interface.c ****         case MC_REG_MOTOR_POWER:
 303:Src/register_interface.c ****         {
 304:Src/register_interface.c ****           retVal = MCP_ERROR_RO_REG;
 305:Src/register_interface.c ****           break;
 306:Src/register_interface.c ****         }
 307:Src/register_interface.c **** 
 308:Src/register_interface.c ****         case MC_REG_I_A:
 309:Src/register_interface.c ****         case MC_REG_I_B:
 310:Src/register_interface.c ****         case MC_REG_I_ALPHA_MEAS:
ARM GAS  C:\Users\ep_ygh\AppData\Local\Temp\ccaRZNy5.s 			page 10


 311:Src/register_interface.c ****         case MC_REG_I_BETA_MEAS:
 312:Src/register_interface.c ****         case MC_REG_I_Q_MEAS:
 313:Src/register_interface.c ****         case MC_REG_I_D_MEAS:
 314:Src/register_interface.c ****         case MC_REG_FLUXWK_BUS_MEAS:
 315:Src/register_interface.c ****         {
 316:Src/register_interface.c ****           retVal = MCP_ERROR_RO_REG;
 317:Src/register_interface.c ****           break;
 318:Src/register_interface.c ****         }
 319:Src/register_interface.c **** 
 320:Src/register_interface.c ****         case MC_REG_I_Q_REF:
 321:Src/register_interface.c ****         {
 322:Src/register_interface.c ****           qd_t currComp;
 323:Src/register_interface.c ****           currComp = MCI_GetIqdref(pMCIN);
 324:Src/register_interface.c ****           currComp.q = (int16_t)regdata16;
 325:Src/register_interface.c ****           MCI_SetCurrentReferences(pMCIN,currComp);
 326:Src/register_interface.c ****           break;
 327:Src/register_interface.c ****         }
 328:Src/register_interface.c **** 
 329:Src/register_interface.c ****         case MC_REG_I_D_REF:
 330:Src/register_interface.c ****         {
 331:Src/register_interface.c ****           qd_t currComp;
 332:Src/register_interface.c ****           currComp = MCI_GetIqdref(pMCIN);
 333:Src/register_interface.c ****           currComp.d = (int16_t)regdata16;
 334:Src/register_interface.c ****           MCI_SetCurrentReferences(pMCIN,currComp);
 335:Src/register_interface.c ****           break;
 336:Src/register_interface.c ****         }
 337:Src/register_interface.c **** 
 338:Src/register_interface.c ****         case MC_REG_V_Q:
 339:Src/register_interface.c ****         case MC_REG_V_D:
 340:Src/register_interface.c ****         case MC_REG_V_ALPHA:
 341:Src/register_interface.c ****         case MC_REG_V_BETA:
 342:Src/register_interface.c ****         {
 343:Src/register_interface.c ****           retVal = MCP_ERROR_RO_REG;
 344:Src/register_interface.c ****           break;
 345:Src/register_interface.c ****         }
 346:Src/register_interface.c **** 
 347:Src/register_interface.c ****         case MC_REG_STOPLL_C1:
 348:Src/register_interface.c ****         {
 349:Src/register_interface.c ****           int16_t hC1;
 350:Src/register_interface.c ****           int16_t hC2;
 351:Src/register_interface.c ****           STO_PLL_GetObserverGains(&STO_PLL_M1, &hC1, &hC2);
 352:Src/register_interface.c ****           STO_PLL_SetObserverGains(&STO_PLL_M1, (int16_t)regdata16, hC2);
 353:Src/register_interface.c ****           break;
 354:Src/register_interface.c ****         }
 355:Src/register_interface.c **** 
 356:Src/register_interface.c ****         case MC_REG_STOPLL_C2:
 357:Src/register_interface.c ****         {
 358:Src/register_interface.c ****           int16_t hC1;
 359:Src/register_interface.c ****           int16_t hC2;
 360:Src/register_interface.c ****           STO_PLL_GetObserverGains(&STO_PLL_M1, &hC1, &hC2);
 361:Src/register_interface.c ****           STO_PLL_SetObserverGains(&STO_PLL_M1, hC1, (int16_t)regdata16);
 362:Src/register_interface.c ****           break;
 363:Src/register_interface.c ****         }
 364:Src/register_interface.c **** 
 365:Src/register_interface.c ****         case MC_REG_STOPLL_KI:
 366:Src/register_interface.c ****         {
 367:Src/register_interface.c ****           PID_SetKI (&(&STO_PLL_M1)->PIRegulator, (int16_t)regdata16);
ARM GAS  C:\Users\ep_ygh\AppData\Local\Temp\ccaRZNy5.s 			page 11


 368:Src/register_interface.c ****           break;
 369:Src/register_interface.c ****         }
 370:Src/register_interface.c **** 
 371:Src/register_interface.c ****         case MC_REG_STOPLL_KP:
 372:Src/register_interface.c ****         {
 373:Src/register_interface.c ****           PID_SetKP (&(&STO_PLL_M1)->PIRegulator, (int16_t)regdata16);
 374:Src/register_interface.c ****           break;
 375:Src/register_interface.c ****         }
 376:Src/register_interface.c **** 
 377:Src/register_interface.c ****         case MC_REG_STOPLL_EL_ANGLE:
 378:Src/register_interface.c ****         case MC_REG_STOPLL_ROT_SPEED:
 379:Src/register_interface.c ****         case MC_REG_STOPLL_I_ALPHA:
 380:Src/register_interface.c ****         case MC_REG_STOPLL_I_BETA:
 381:Src/register_interface.c ****         case MC_REG_STOPLL_BEMF_ALPHA:
 382:Src/register_interface.c ****         case MC_REG_STOPLL_BEMF_BETA:
 383:Src/register_interface.c ****         {
 384:Src/register_interface.c ****           retVal = MCP_ERROR_RO_REG;
 385:Src/register_interface.c ****           break;
 386:Src/register_interface.c ****         }
 387:Src/register_interface.c **** 
 388:Src/register_interface.c ****         case MC_REG_DAC_USER1:
 389:Src/register_interface.c ****         case MC_REG_DAC_USER2:
 390:Src/register_interface.c ****           break;
 391:Src/register_interface.c **** 
 392:Src/register_interface.c ****         case MC_REG_SPEED_KP_DIV:
 393:Src/register_interface.c ****         {
 394:Src/register_interface.c ****           PID_SetKPDivisorPOW2(&PIDSpeedHandle_M1, regdata16);
 395:Src/register_interface.c ****           break;
 396:Src/register_interface.c ****         }
 397:Src/register_interface.c **** 
 398:Src/register_interface.c ****         case MC_REG_SPEED_KI_DIV:
 399:Src/register_interface.c ****         {
 400:Src/register_interface.c ****           PID_SetKIDivisorPOW2(&PIDSpeedHandle_M1, regdata16);
 401:Src/register_interface.c ****           break;
 402:Src/register_interface.c ****         }
 403:Src/register_interface.c **** 
 404:Src/register_interface.c ****         case MC_REG_SPEED_KD_DIV:
 405:Src/register_interface.c ****         {
 406:Src/register_interface.c ****           PID_SetKDDivisorPOW2(&PIDSpeedHandle_M1, regdata16);
 407:Src/register_interface.c ****           break;
 408:Src/register_interface.c ****         }
 409:Src/register_interface.c **** 
 410:Src/register_interface.c ****         case MC_REG_I_D_KP_DIV:
 411:Src/register_interface.c ****         {
 412:Src/register_interface.c ****           PID_SetKPDivisorPOW2(&PIDIdHandle_M1, regdata16);
 413:Src/register_interface.c ****           break;
 414:Src/register_interface.c ****         }
 415:Src/register_interface.c **** 
 416:Src/register_interface.c ****         case MC_REG_I_D_KI_DIV:
 417:Src/register_interface.c ****         {
 418:Src/register_interface.c ****           PID_SetKIDivisorPOW2(&PIDIdHandle_M1, regdata16);
 419:Src/register_interface.c ****           break;
 420:Src/register_interface.c ****         }
 421:Src/register_interface.c **** 
 422:Src/register_interface.c ****         case MC_REG_I_D_KD_DIV:
 423:Src/register_interface.c ****         {
 424:Src/register_interface.c ****           PID_SetKDDivisorPOW2(&PIDIdHandle_M1, regdata16);
ARM GAS  C:\Users\ep_ygh\AppData\Local\Temp\ccaRZNy5.s 			page 12


 425:Src/register_interface.c ****           break;
 426:Src/register_interface.c ****         }
 427:Src/register_interface.c **** 
 428:Src/register_interface.c ****         case MC_REG_I_Q_KP_DIV:
 429:Src/register_interface.c ****         {
 430:Src/register_interface.c ****           PID_SetKPDivisorPOW2(&PIDIqHandle_M1, regdata16);
 431:Src/register_interface.c ****           break;
 432:Src/register_interface.c ****         }
 433:Src/register_interface.c **** 
 434:Src/register_interface.c ****         case MC_REG_I_Q_KI_DIV:
 435:Src/register_interface.c ****         {
 436:Src/register_interface.c ****           PID_SetKIDivisorPOW2(&PIDIqHandle_M1, regdata16);
 437:Src/register_interface.c ****           break;
 438:Src/register_interface.c ****         }
 439:Src/register_interface.c **** 
 440:Src/register_interface.c ****         case MC_REG_I_Q_KD_DIV:
 441:Src/register_interface.c ****         {
 442:Src/register_interface.c ****           PID_SetKDDivisorPOW2(&PIDIqHandle_M1, regdata16);
 443:Src/register_interface.c ****           break;
 444:Src/register_interface.c ****         }
 445:Src/register_interface.c **** 
 446:Src/register_interface.c ****         case MC_REG_STOPLL_KI_DIV:
 447:Src/register_interface.c ****         {
 448:Src/register_interface.c ****           PID_SetKIDivisorPOW2 (&(&STO_PLL_M1)->PIRegulator,regdata16);
 449:Src/register_interface.c ****           break;
 450:Src/register_interface.c ****         }
 451:Src/register_interface.c **** 
 452:Src/register_interface.c ****         case MC_REG_STOPLL_KP_DIV:
 453:Src/register_interface.c ****         {
 454:Src/register_interface.c ****           PID_SetKPDivisorPOW2 (&(&STO_PLL_M1)->PIRegulator,regdata16);
 455:Src/register_interface.c ****           break;
 456:Src/register_interface.c ****         }
 457:Src/register_interface.c **** 
 458:Src/register_interface.c ****         case MC_REG_FOC_VQREF:
 459:Src/register_interface.c ****         {
 460:Src/register_interface.c ****           OL_UpdateVoltage(&OpenLoop_ParamsM1, ((regdata16 * 32767) / 100));
 461:Src/register_interface.c ****           break;
 462:Src/register_interface.c ****         }
 463:Src/register_interface.c **** 
 464:Src/register_interface.c ****         case MC_REG_PULSE_VALUE:
 465:Src/register_interface.c ****         case MC_REG_BEMF_ZCR:
 466:Src/register_interface.c ****         case MC_REG_BEMF_U:
 467:Src/register_interface.c ****         case MC_REG_BEMF_V:
 468:Src/register_interface.c ****         case MC_REG_BEMF_W:
 469:Src/register_interface.c ****         {
 470:Src/register_interface.c ****           retVal = MCP_ERROR_RO_REG;
 471:Src/register_interface.c ****           break;
 472:Src/register_interface.c ****         }
 473:Src/register_interface.c **** 
 474:Src/register_interface.c ****         default:
 475:Src/register_interface.c ****         {
 476:Src/register_interface.c ****           retVal = MCP_ERROR_UNKNOWN_REG;
 477:Src/register_interface.c ****           break;
 478:Src/register_interface.c ****         }
 479:Src/register_interface.c ****       }
 480:Src/register_interface.c ****       *size = 2;
 481:Src/register_interface.c ****       break;
ARM GAS  C:\Users\ep_ygh\AppData\Local\Temp\ccaRZNy5.s 			page 13


 482:Src/register_interface.c ****     }
 483:Src/register_interface.c **** 
 484:Src/register_interface.c ****     case TYPE_DATA_32BIT:
 485:Src/register_interface.c ****     {
 486:Src/register_interface.c ****       uint32_t regdata32 = *(uint32_t *)data; //cstat !MISRAC2012-Rule-11.3
 487:Src/register_interface.c **** 
 488:Src/register_interface.c ****       switch (regID)
 489:Src/register_interface.c ****       {
 490:Src/register_interface.c ****         case MC_REG_FAULTS_FLAGS:
 491:Src/register_interface.c ****         case MC_REG_SPEED_MEAS:
 492:Src/register_interface.c ****         {
 493:Src/register_interface.c ****           retVal = MCP_ERROR_RO_REG;
 494:Src/register_interface.c ****           break;
 495:Src/register_interface.c ****         }
 496:Src/register_interface.c **** 
 497:Src/register_interface.c ****         case MC_REG_SPEED_REF:
 498:Src/register_interface.c ****         {
 499:Src/register_interface.c ****           MCI_ExecSpeedRamp(pMCIN,((((int16_t)regdata32) * ((int16_t)SPEED_UNIT)) / (int16_t)U_RPM)
 500:Src/register_interface.c ****           break;
 501:Src/register_interface.c ****         }
 502:Src/register_interface.c **** 
 503:Src/register_interface.c ****         case MC_REG_STOPLL_EST_BEMF:
 504:Src/register_interface.c ****         case MC_REG_STOPLL_OBS_BEMF:
 505:Src/register_interface.c ****         {
 506:Src/register_interface.c ****           retVal = MCP_ERROR_RO_REG;
 507:Src/register_interface.c ****           break;
 508:Src/register_interface.c ****         }
 509:Src/register_interface.c **** 
 510:Src/register_interface.c ****         default:
 511:Src/register_interface.c ****         {
 512:Src/register_interface.c ****           retVal = MCP_ERROR_UNKNOWN_REG;
 513:Src/register_interface.c ****           break;
 514:Src/register_interface.c ****         }
 515:Src/register_interface.c ****       }
 516:Src/register_interface.c ****       *size = 4;
 517:Src/register_interface.c ****       break;
 518:Src/register_interface.c ****     }
 519:Src/register_interface.c **** 
 520:Src/register_interface.c ****     case TYPE_DATA_STRING:
 521:Src/register_interface.c ****     {
 522:Src/register_interface.c ****       const char_t *charData = (const char_t *)data;
 523:Src/register_interface.c ****       char_t *dummy = (char_t *)data;
 524:Src/register_interface.c ****       retVal = MCP_ERROR_RO_REG;
 525:Src/register_interface.c ****       /* Used to compute String length stored in RXBUFF even if Reg does not exist */
 526:Src/register_interface.c ****       /* It allows to jump to the next command in the buffer */
 527:Src/register_interface.c ****       (void)RI_MovString(charData, dummy, size, dataAvailable);
 528:Src/register_interface.c ****       break;
 529:Src/register_interface.c ****     }
 530:Src/register_interface.c **** 
 531:Src/register_interface.c ****     case TYPE_DATA_RAW:
 532:Src/register_interface.c ****     {
 533:Src/register_interface.c ****       uint16_t rawSize = *(uint16_t *)data; //cstat !MISRAC2012-Rule-11.3
 534:Src/register_interface.c ****       /* The size consumed by the structure is the structure size + 2 bytes used to store the size 
 535:Src/register_interface.c ****       *size = rawSize + 2U;
 536:Src/register_interface.c ****       uint8_t *rawData = data; /* rawData points to the first data (after size extraction) */
 537:Src/register_interface.c ****       rawData++;
 538:Src/register_interface.c ****       rawData++;
ARM GAS  C:\Users\ep_ygh\AppData\Local\Temp\ccaRZNy5.s 			page 14


 539:Src/register_interface.c **** 
 540:Src/register_interface.c ****       if (*size > (uint16_t)dataAvailable)
 541:Src/register_interface.c ****       {
 542:Src/register_interface.c ****         /* The decoded size of the raw structure can not match with transmitted buffer, error in bu
 543:Src/register_interface.c ****            construction */
 544:Src/register_interface.c ****         *size = 0;
 545:Src/register_interface.c ****         retVal = MCP_ERROR_BAD_RAW_FORMAT; /* This error stop the parsing of the CMD buffer */
 546:Src/register_interface.c ****       }
 547:Src/register_interface.c ****       else
 548:Src/register_interface.c ****       {
 549:Src/register_interface.c ****         switch (regID)
 550:Src/register_interface.c ****         {
 551:Src/register_interface.c ****           case MC_REG_APPLICATION_CONFIG:
 552:Src/register_interface.c ****           case MC_REG_MOTOR_CONFIG:
 553:Src/register_interface.c ****           case MC_REG_GLOBAL_CONFIG:
 554:Src/register_interface.c ****           case MC_REG_FOCFW_CONFIG:
 555:Src/register_interface.c ****           {
 556:Src/register_interface.c ****             retVal = MCP_ERROR_RO_REG;
 557:Src/register_interface.c ****             break;
 558:Src/register_interface.c ****           }
 559:Src/register_interface.c **** 
 560:Src/register_interface.c ****           case MC_REG_SPEED_RAMP:
 561:Src/register_interface.c ****           {
 562:Src/register_interface.c ****             int32_t rpm;
 563:Src/register_interface.c ****             uint16_t duration;
 564:Src/register_interface.c **** 
 565:Src/register_interface.c ****             rpm = *(int32_t *)rawData; //cstat !MISRAC2012-Rule-11.3
 566:Src/register_interface.c ****             duration = *(uint16_t *)&rawData[4]; //cstat !MISRAC2012-Rule-11.3
 567:Src/register_interface.c ****             MCI_ExecSpeedRamp(pMCIN, (int16_t)((rpm * SPEED_UNIT) / U_RPM), duration);
 568:Src/register_interface.c ****             break;
 569:Src/register_interface.c ****           }
 570:Src/register_interface.c **** 
 571:Src/register_interface.c ****           case MC_REG_TORQUE_RAMP:
 572:Src/register_interface.c ****           {
 573:Src/register_interface.c ****             uint32_t torque;
 574:Src/register_interface.c ****             uint16_t duration;
 575:Src/register_interface.c **** 
 576:Src/register_interface.c ****             torque = *(uint32_t *)rawData; //cstat !MISRAC2012-Rule-11.3
 577:Src/register_interface.c ****             duration = *(uint16_t *)&rawData[4]; //cstat !MISRAC2012-Rule-11.3
 578:Src/register_interface.c ****             MCI_ExecTorqueRamp(pMCIN, (int16_t)torque, duration);
 579:Src/register_interface.c ****             break;
 580:Src/register_interface.c ****           }
 581:Src/register_interface.c **** 
 582:Src/register_interface.c ****           case MC_REG_REVUP_DATA:
 583:Src/register_interface.c ****           {
 584:Src/register_interface.c ****             int32_t rpm;
 585:Src/register_interface.c ****             RevUpCtrl_PhaseParams_t revUpPhase;
 586:Src/register_interface.c ****             uint8_t i;
 587:Src/register_interface.c ****             uint8_t nbrOfPhase = (((uint8_t)rawSize) / 8U);
 588:Src/register_interface.c **** 
 589:Src/register_interface.c ****             if (((0U != ((rawSize) % 8U))) || ((nbrOfPhase > RUC_MAX_PHASE_NUMBER) != 0))
 590:Src/register_interface.c ****             {
 591:Src/register_interface.c ****               retVal = MCP_ERROR_BAD_RAW_FORMAT;
 592:Src/register_interface.c ****             }
 593:Src/register_interface.c ****             else
 594:Src/register_interface.c ****             {
 595:Src/register_interface.c ****               for (i = 0; i <nbrOfPhase; i++)
ARM GAS  C:\Users\ep_ygh\AppData\Local\Temp\ccaRZNy5.s 			page 15


 596:Src/register_interface.c ****               {
 597:Src/register_interface.c ****               rpm = *(int32_t *) &rawData[i * 8U]; //cstat !MISRAC2012-Rule-11.3
 598:Src/register_interface.c ****               revUpPhase.hFinalMecSpeedUnit = (((int16_t)rpm) * ((int16_t)SPEED_UNIT)) / ((int16_t)
 599:Src/register_interface.c ****               revUpPhase.hFinalTorque = *((int16_t *) &rawData[4U + (i * 8U)]); //cstat !MISRAC2012
 600:Src/register_interface.c ****               revUpPhase.hDurationms  = *((uint16_t *) &rawData[6U +(i * 8U)]); //cstat !MISRAC2012
 601:Src/register_interface.c ****               (void)RUC_SetPhase(&RevUpControlM1, i, &revUpPhase);
 602:Src/register_interface.c ****               }
 603:Src/register_interface.c ****             }
 604:Src/register_interface.c ****             break;
 605:Src/register_interface.c ****           }
 606:Src/register_interface.c **** 
 607:Src/register_interface.c ****           case MC_REG_CURRENT_REF:
 608:Src/register_interface.c ****           {
 609:Src/register_interface.c ****             qd_t currComp;
 610:Src/register_interface.c ****             currComp.q = *((int16_t *) rawData); //cstat !MISRAC2012-Rule-11.3
 611:Src/register_interface.c ****             currComp.d = *((int16_t *) &rawData[2]); //cstat !MISRAC2012-Rule-11.3
 612:Src/register_interface.c ****             MCI_SetCurrentReferences(pMCIN, currComp);
 613:Src/register_interface.c ****             break;
 614:Src/register_interface.c ****           }
 615:Src/register_interface.c **** 
 616:Src/register_interface.c ****           case MC_REG_ASYNC_UARTA:
 617:Src/register_interface.c ****           {
 618:Src/register_interface.c ****             retVal =  MCPA_cfgLog (&MCPA_UART_A, rawData);
 619:Src/register_interface.c ****             break;
 620:Src/register_interface.c ****           }
 621:Src/register_interface.c **** 
 622:Src/register_interface.c ****           default:
 623:Src/register_interface.c ****           {
 624:Src/register_interface.c ****             retVal = MCP_ERROR_UNKNOWN_REG;
 625:Src/register_interface.c ****             break;
 626:Src/register_interface.c ****           }
 627:Src/register_interface.c ****         }
 628:Src/register_interface.c ****       }
 629:Src/register_interface.c ****       break;
 630:Src/register_interface.c ****     }
 631:Src/register_interface.c **** 
 632:Src/register_interface.c ****     default:
 633:Src/register_interface.c ****     {
 634:Src/register_interface.c ****       retVal = MCP_ERROR_BAD_DATA_TYPE;
 635:Src/register_interface.c ****       *size =0; /* From this point we are not able anymore to decode the RX buffer */
 636:Src/register_interface.c ****       break;
 637:Src/register_interface.c ****     }
 638:Src/register_interface.c ****   }
 639:Src/register_interface.c ****   return (retVal);
 640:Src/register_interface.c **** }
 641:Src/register_interface.c **** 
 642:Src/register_interface.c **** uint8_t RI_GetRegisterGlobal(uint16_t regID,uint8_t typeID,uint8_t * data,uint16_t *size,int16_t fr
 643:Src/register_interface.c ****     uint8_t retVal = MCP_CMD_OK;
 644:Src/register_interface.c ****     switch (typeID)
 645:Src/register_interface.c ****     {
 646:Src/register_interface.c ****       case TYPE_DATA_8BIT:
 647:Src/register_interface.c ****       {
 648:Src/register_interface.c ****         if (freeSpace > 0)
 649:Src/register_interface.c ****         {
 650:Src/register_interface.c ****           switch (regID)
 651:Src/register_interface.c ****           {
 652:Src/register_interface.c ****             default:
ARM GAS  C:\Users\ep_ygh\AppData\Local\Temp\ccaRZNy5.s 			page 16


 653:Src/register_interface.c ****             {
 654:Src/register_interface.c ****               retVal = MCP_ERROR_UNKNOWN_REG;
 655:Src/register_interface.c ****               break;
 656:Src/register_interface.c ****             }
 657:Src/register_interface.c ****           }
 658:Src/register_interface.c ****           *size = 1;
 659:Src/register_interface.c ****         }
 660:Src/register_interface.c ****         else
 661:Src/register_interface.c ****         {
 662:Src/register_interface.c ****           retVal = MCP_ERROR_NO_TXSYNC_SPACE;
 663:Src/register_interface.c ****         }
 664:Src/register_interface.c ****         break;
 665:Src/register_interface.c ****       }
 666:Src/register_interface.c **** 
 667:Src/register_interface.c ****       case TYPE_DATA_16BIT:
 668:Src/register_interface.c ****       {
 669:Src/register_interface.c ****         if (freeSpace >= 2)
 670:Src/register_interface.c ****         {
 671:Src/register_interface.c ****           switch (regID)
 672:Src/register_interface.c ****           {
 673:Src/register_interface.c ****             case MC_REG_DAC_USER1:
 674:Src/register_interface.c ****             case MC_REG_DAC_USER2:
 675:Src/register_interface.c ****               break;
 676:Src/register_interface.c **** 
 677:Src/register_interface.c ****             default:
 678:Src/register_interface.c ****             {
 679:Src/register_interface.c ****               retVal = MCP_ERROR_UNKNOWN_REG;
 680:Src/register_interface.c ****               break;
 681:Src/register_interface.c ****             }
 682:Src/register_interface.c ****           }
 683:Src/register_interface.c ****           *size = 2;
 684:Src/register_interface.c ****         }
 685:Src/register_interface.c ****         else
 686:Src/register_interface.c ****         {
 687:Src/register_interface.c ****           retVal = MCP_ERROR_NO_TXSYNC_SPACE;
 688:Src/register_interface.c ****         }
 689:Src/register_interface.c ****         break;
 690:Src/register_interface.c ****       }
 691:Src/register_interface.c **** 
 692:Src/register_interface.c ****       case TYPE_DATA_32BIT:
 693:Src/register_interface.c ****       {
 694:Src/register_interface.c ****         if (freeSpace >= 4)
 695:Src/register_interface.c ****         {
 696:Src/register_interface.c ****           switch (regID)
 697:Src/register_interface.c ****           {
 698:Src/register_interface.c **** 
 699:Src/register_interface.c ****             default:
 700:Src/register_interface.c ****             {
 701:Src/register_interface.c ****               retVal = MCP_ERROR_UNKNOWN_REG;
 702:Src/register_interface.c ****               break;
 703:Src/register_interface.c ****             }
 704:Src/register_interface.c ****           }
 705:Src/register_interface.c ****           *size = 4;
 706:Src/register_interface.c ****         }
 707:Src/register_interface.c ****         else
 708:Src/register_interface.c ****         {
 709:Src/register_interface.c ****           retVal = MCP_ERROR_NO_TXSYNC_SPACE;
ARM GAS  C:\Users\ep_ygh\AppData\Local\Temp\ccaRZNy5.s 			page 17


 710:Src/register_interface.c ****         }
 711:Src/register_interface.c ****         break;
 712:Src/register_interface.c ****       }
 713:Src/register_interface.c **** 
 714:Src/register_interface.c ****       case TYPE_DATA_STRING:
 715:Src/register_interface.c ****       {
 716:Src/register_interface.c ****         char_t *charData = (char_t *)data;
 717:Src/register_interface.c ****         switch (regID)
 718:Src/register_interface.c ****         {
 719:Src/register_interface.c ****           case MC_REG_FW_NAME:
 720:Src/register_interface.c ****             retVal = RI_MovString (FIRMWARE_NAME ,charData, size, freeSpace);
 721:Src/register_interface.c ****             break;
 722:Src/register_interface.c **** 
 723:Src/register_interface.c ****           case MC_REG_CTRL_STAGE_NAME:
 724:Src/register_interface.c ****           {
 725:Src/register_interface.c ****             retVal = RI_MovString (CTL_BOARD ,charData, size, freeSpace);
 726:Src/register_interface.c ****             break;
 727:Src/register_interface.c ****           }
 728:Src/register_interface.c ****           default:
 729:Src/register_interface.c ****           {
 730:Src/register_interface.c **** 
 731:Src/register_interface.c ****             retVal = MCP_ERROR_UNKNOWN_REG;
 732:Src/register_interface.c ****             *size= 0 ; /* */
 733:Src/register_interface.c **** 
 734:Src/register_interface.c ****             break;
 735:Src/register_interface.c ****           }
 736:Src/register_interface.c ****         }
 737:Src/register_interface.c ****         break;
 738:Src/register_interface.c **** 
 739:Src/register_interface.c ****       }
 740:Src/register_interface.c ****       case TYPE_DATA_RAW:
 741:Src/register_interface.c ****       {
 742:Src/register_interface.c ****         /* First 2 bytes of the answer is reserved to the size */
 743:Src/register_interface.c ****         uint16_t *rawSize = (uint16_t *)data; //cstat !MISRAC2012-Rule-11.3
 744:Src/register_interface.c ****         uint8_t * rawData = data;
 745:Src/register_interface.c ****         rawData++;
 746:Src/register_interface.c ****         rawData++;
 747:Src/register_interface.c **** 
 748:Src/register_interface.c ****         switch (regID)
 749:Src/register_interface.c ****         {
 750:Src/register_interface.c ****           case MC_REG_GLOBAL_CONFIG:
 751:Src/register_interface.c ****           {
 752:Src/register_interface.c ****             *rawSize = (uint16_t)sizeof(GlobalConfig_reg_t);
 753:Src/register_interface.c ****             if (((*rawSize) + 2U) > (uint16_t)freeSpace)
 754:Src/register_interface.c ****             {
 755:Src/register_interface.c ****               retVal = MCP_ERROR_NO_TXSYNC_SPACE;
 756:Src/register_interface.c ****             }
 757:Src/register_interface.c ****             else
 758:Src/register_interface.c ****             {
 759:Src/register_interface.c ****               (void)memcpy(rawData, &globalConfig_reg, sizeof(GlobalConfig_reg_t));
 760:Src/register_interface.c ****             }
 761:Src/register_interface.c ****             break;
 762:Src/register_interface.c ****           }
 763:Src/register_interface.c ****           case MC_REG_ASYNC_UARTA:
 764:Src/register_interface.c ****           case MC_REG_ASYNC_UARTB:
 765:Src/register_interface.c ****           case MC_REG_ASYNC_STLNK:
 766:Src/register_interface.c ****           default:
ARM GAS  C:\Users\ep_ygh\AppData\Local\Temp\ccaRZNy5.s 			page 18


 767:Src/register_interface.c ****           {
 768:Src/register_interface.c ****             retVal = MCP_ERROR_UNKNOWN_REG;
 769:Src/register_interface.c ****             break;
 770:Src/register_interface.c ****           }
 771:Src/register_interface.c ****         }
 772:Src/register_interface.c **** 
 773:Src/register_interface.c ****         /* Size of the answer is size of the data + 2 bytes containing data size */
 774:Src/register_interface.c ****         *size = (*rawSize) + 2U;
 775:Src/register_interface.c ****         break;
 776:Src/register_interface.c ****       }
 777:Src/register_interface.c **** 
 778:Src/register_interface.c ****       default:
 779:Src/register_interface.c ****       {
 780:Src/register_interface.c ****         retVal = MCP_ERROR_BAD_DATA_TYPE;
 781:Src/register_interface.c ****         break;
 782:Src/register_interface.c ****       }
 783:Src/register_interface.c ****     }
 784:Src/register_interface.c ****   return (retVal);
 785:Src/register_interface.c **** }
 786:Src/register_interface.c **** 
 787:Src/register_interface.c ****   uint8_t RI_GetRegisterMotor1(uint16_t regID,uint8_t typeID,uint8_t * data,uint16_t *size,int16_t 
 788:Src/register_interface.c ****     uint8_t retVal = MCP_CMD_OK;
 789:Src/register_interface.c ****     uint8_t motorID=0;
 790:Src/register_interface.c ****     MCI_Handle_t *pMCIN = &Mci[motorID];
 791:Src/register_interface.c ****     BusVoltageSensor_Handle_t* BusVoltageSensor= &BusVoltageSensor_M1._Super;
 792:Src/register_interface.c ****     switch (typeID)
 793:Src/register_interface.c ****     {
 794:Src/register_interface.c ****       case TYPE_DATA_8BIT:
 795:Src/register_interface.c ****       {
 796:Src/register_interface.c ****         if (freeSpace > 0)
 797:Src/register_interface.c ****         {
 798:Src/register_interface.c ****           switch (regID)
 799:Src/register_interface.c ****           {
 800:Src/register_interface.c ****             case MC_REG_STATUS:
 801:Src/register_interface.c ****             {
 802:Src/register_interface.c ****               *data = (uint8_t)MCI_GetSTMState(pMCIN);
 803:Src/register_interface.c ****               break;
 804:Src/register_interface.c ****             }
 805:Src/register_interface.c **** 
 806:Src/register_interface.c ****             case MC_REG_CONTROL_MODE:
 807:Src/register_interface.c ****             {
 808:Src/register_interface.c ****               *data = (uint8_t)MCI_GetControlMode(pMCIN);
 809:Src/register_interface.c ****               break;
 810:Src/register_interface.c ****             }
 811:Src/register_interface.c **** 
 812:Src/register_interface.c ****             case MC_REG_RUC_STAGE_NBR:
 813:Src/register_interface.c ****             {
 814:Src/register_interface.c ****               *data = (uint8_t)RUC_GetNumberOfPhases(&RevUpControlM1);
 815:Src/register_interface.c ****               break;
 816:Src/register_interface.c ****             }
 817:Src/register_interface.c **** 
 818:Src/register_interface.c ****             default:
 819:Src/register_interface.c ****             {
 820:Src/register_interface.c ****               retVal = MCP_ERROR_UNKNOWN_REG;
 821:Src/register_interface.c ****               break;
 822:Src/register_interface.c ****             }
 823:Src/register_interface.c ****           }
ARM GAS  C:\Users\ep_ygh\AppData\Local\Temp\ccaRZNy5.s 			page 19


 824:Src/register_interface.c ****           *size = 1;
 825:Src/register_interface.c ****         }
 826:Src/register_interface.c ****         else
 827:Src/register_interface.c ****         {
 828:Src/register_interface.c ****           retVal = MCP_ERROR_NO_TXSYNC_SPACE;
 829:Src/register_interface.c ****         }
 830:Src/register_interface.c ****         break;
 831:Src/register_interface.c ****       }
 832:Src/register_interface.c **** 
 833:Src/register_interface.c ****       case TYPE_DATA_16BIT:
 834:Src/register_interface.c ****       {
 835:Src/register_interface.c ****         uint16_t *regdataU16 = (uint16_t *)data; //cstat !MISRAC2012-Rule-11.3
 836:Src/register_interface.c ****         int16_t *regdata16 = (int16_t *) data; //cstat !MISRAC2012-Rule-11.3
 837:Src/register_interface.c **** 
 838:Src/register_interface.c ****         if (freeSpace >= 2)
 839:Src/register_interface.c ****         {
 840:Src/register_interface.c ****           switch (regID)
 841:Src/register_interface.c ****           {
 842:Src/register_interface.c ****             case MC_REG_SPEED_KP:
 843:Src/register_interface.c ****             {
 844:Src/register_interface.c ****               *regdata16 = PID_GetKP(&PIDSpeedHandle_M1);
 845:Src/register_interface.c ****               break;
 846:Src/register_interface.c ****             }
 847:Src/register_interface.c **** 
 848:Src/register_interface.c ****             case MC_REG_SPEED_KI:
 849:Src/register_interface.c ****             {
 850:Src/register_interface.c ****               *regdata16 = PID_GetKI(&PIDSpeedHandle_M1);
 851:Src/register_interface.c ****               break;
 852:Src/register_interface.c ****             }
 853:Src/register_interface.c **** 
 854:Src/register_interface.c ****             case MC_REG_SPEED_KD:
 855:Src/register_interface.c ****             {
 856:Src/register_interface.c ****               *regdata16 = PID_GetKD(&PIDSpeedHandle_M1);
 857:Src/register_interface.c ****               break;
 858:Src/register_interface.c ****             }
 859:Src/register_interface.c **** 
 860:Src/register_interface.c ****             case MC_REG_I_Q_KP:
 861:Src/register_interface.c ****             {
 862:Src/register_interface.c ****               *regdata16 = PID_GetKP(&PIDIqHandle_M1);
 863:Src/register_interface.c ****               break;
 864:Src/register_interface.c ****             }
 865:Src/register_interface.c **** 
 866:Src/register_interface.c ****             case MC_REG_I_Q_KI:
 867:Src/register_interface.c ****             {
 868:Src/register_interface.c ****               *regdata16 = PID_GetKI(&PIDIqHandle_M1);
 869:Src/register_interface.c ****               break;
 870:Src/register_interface.c ****             }
 871:Src/register_interface.c **** 
 872:Src/register_interface.c ****             case MC_REG_I_Q_KD:
 873:Src/register_interface.c ****             {
 874:Src/register_interface.c ****               *regdata16 = PID_GetKD(&PIDIqHandle_M1);
 875:Src/register_interface.c ****               break;
 876:Src/register_interface.c ****             }
 877:Src/register_interface.c **** 
 878:Src/register_interface.c ****             case MC_REG_I_D_KP:
 879:Src/register_interface.c ****             {
 880:Src/register_interface.c ****               *regdata16 = PID_GetKP(&PIDIdHandle_M1);
ARM GAS  C:\Users\ep_ygh\AppData\Local\Temp\ccaRZNy5.s 			page 20


 881:Src/register_interface.c ****               break;
 882:Src/register_interface.c ****             }
 883:Src/register_interface.c **** 
 884:Src/register_interface.c ****             case MC_REG_I_D_KI:
 885:Src/register_interface.c ****             {
 886:Src/register_interface.c ****               *regdata16 = PID_GetKI(&PIDIdHandle_M1);
 887:Src/register_interface.c ****               break;
 888:Src/register_interface.c ****             }
 889:Src/register_interface.c **** 
 890:Src/register_interface.c ****             case MC_REG_I_D_KD:
 891:Src/register_interface.c ****             {
 892:Src/register_interface.c ****               *regdata16 = PID_GetKD(&PIDIdHandle_M1);
 893:Src/register_interface.c ****               break;
 894:Src/register_interface.c ****             }
 895:Src/register_interface.c **** 
 896:Src/register_interface.c ****             case MC_REG_BUS_VOLTAGE:
 897:Src/register_interface.c ****             {
 898:Src/register_interface.c ****               *regdataU16 = VBS_GetAvBusVoltage_V(BusVoltageSensor);
 899:Src/register_interface.c ****               break;
 900:Src/register_interface.c ****             }
 901:Src/register_interface.c **** 
 902:Src/register_interface.c ****             case MC_REG_HEATS_TEMP:
 903:Src/register_interface.c ****             {
 904:Src/register_interface.c ****               *regdata16 = NTC_GetAvTemp_C(&TempSensor_M1);
 905:Src/register_interface.c ****               break;
 906:Src/register_interface.c ****             }
 907:Src/register_interface.c **** 
 908:Src/register_interface.c ****             case MC_REG_I_A:
 909:Src/register_interface.c ****             {
 910:Src/register_interface.c ****               *regdata16 = MCI_GetIab(pMCIN).a;
 911:Src/register_interface.c ****               break;
 912:Src/register_interface.c ****             }
 913:Src/register_interface.c **** 
 914:Src/register_interface.c ****             case MC_REG_I_B:
 915:Src/register_interface.c ****             {
 916:Src/register_interface.c ****               *regdata16 = MCI_GetIab(pMCIN).b;
 917:Src/register_interface.c ****               break;
 918:Src/register_interface.c ****             }
 919:Src/register_interface.c **** 
 920:Src/register_interface.c ****             case MC_REG_I_ALPHA_MEAS:
 921:Src/register_interface.c ****             {
 922:Src/register_interface.c ****               *regdata16 = MCI_GetIalphabeta(pMCIN).alpha;
 923:Src/register_interface.c ****               break;
 924:Src/register_interface.c ****             }
 925:Src/register_interface.c **** 
 926:Src/register_interface.c ****             case MC_REG_I_BETA_MEAS:
 927:Src/register_interface.c ****             {
 928:Src/register_interface.c ****               *regdata16 = MCI_GetIalphabeta(pMCIN).beta;
 929:Src/register_interface.c ****               break;
 930:Src/register_interface.c ****             }
 931:Src/register_interface.c **** 
 932:Src/register_interface.c ****             case MC_REG_I_Q_MEAS:
 933:Src/register_interface.c ****             {
 934:Src/register_interface.c ****               *regdata16 = MCI_GetIqd(pMCIN).q;
 935:Src/register_interface.c ****               break;
 936:Src/register_interface.c ****             }
 937:Src/register_interface.c **** 
ARM GAS  C:\Users\ep_ygh\AppData\Local\Temp\ccaRZNy5.s 			page 21


 938:Src/register_interface.c ****             case MC_REG_I_D_MEAS:
 939:Src/register_interface.c ****             {
 940:Src/register_interface.c ****               *regdata16 = MCI_GetIqd(pMCIN).d;
 941:Src/register_interface.c ****               break;
 942:Src/register_interface.c ****             }
 943:Src/register_interface.c **** 
 944:Src/register_interface.c ****             case MC_REG_I_Q_REF:
 945:Src/register_interface.c ****             {
 946:Src/register_interface.c ****               *regdata16 = MCI_GetIqdref(pMCIN).q;
 947:Src/register_interface.c ****               break;
 948:Src/register_interface.c ****             }
 949:Src/register_interface.c **** 
 950:Src/register_interface.c ****             case MC_REG_I_D_REF:
 951:Src/register_interface.c ****             {
 952:Src/register_interface.c ****               *regdata16 = MCI_GetIqdref(pMCIN).d;
 953:Src/register_interface.c ****               break;
 954:Src/register_interface.c ****             }
 955:Src/register_interface.c **** 
 956:Src/register_interface.c ****             case MC_REG_V_Q:
 957:Src/register_interface.c ****             {
 958:Src/register_interface.c ****               *regdata16 = MCI_GetVqd(pMCIN).q;
 959:Src/register_interface.c ****               break;
 960:Src/register_interface.c ****             }
 961:Src/register_interface.c **** 
 962:Src/register_interface.c ****             case MC_REG_V_D:
 963:Src/register_interface.c ****             {
 964:Src/register_interface.c ****               *regdata16 = MCI_GetVqd(pMCIN).d;
 965:Src/register_interface.c ****               break;
 966:Src/register_interface.c ****             }
 967:Src/register_interface.c **** 
 968:Src/register_interface.c ****             case MC_REG_V_ALPHA:
 969:Src/register_interface.c ****             {
 970:Src/register_interface.c ****               *regdata16 = MCI_GetValphabeta(pMCIN).alpha;
 971:Src/register_interface.c ****               break;
 972:Src/register_interface.c ****             }
 973:Src/register_interface.c **** 
 974:Src/register_interface.c ****             case MC_REG_V_BETA:
 975:Src/register_interface.c ****             {
 976:Src/register_interface.c ****               *regdata16 = MCI_GetValphabeta(pMCIN).beta;
 977:Src/register_interface.c ****               break;
 978:Src/register_interface.c ****             }
 979:Src/register_interface.c **** 
 980:Src/register_interface.c ****             case MC_REG_STOPLL_EL_ANGLE:
 981:Src/register_interface.c ****             {
 982:Src/register_interface.c ****               //cstat !MISRAC2012-Rule-11.3
 983:Src/register_interface.c ****               *regdata16 = SPD_GetElAngle((SpeednPosFdbk_Handle_t *)&STO_PLL_M1);
 984:Src/register_interface.c ****               break;
 985:Src/register_interface.c ****             }
 986:Src/register_interface.c **** 
 987:Src/register_interface.c ****             case MC_REG_STOPLL_ROT_SPEED:
 988:Src/register_interface.c ****             {
 989:Src/register_interface.c ****               //cstat !MISRAC2012-Rule-11.3
 990:Src/register_interface.c ****               *regdata16 = SPD_GetS16Speed((SpeednPosFdbk_Handle_t *)&STO_PLL_M1);
 991:Src/register_interface.c ****               break;
 992:Src/register_interface.c ****             }
 993:Src/register_interface.c **** 
 994:Src/register_interface.c ****             case MC_REG_STOPLL_I_ALPHA:
ARM GAS  C:\Users\ep_ygh\AppData\Local\Temp\ccaRZNy5.s 			page 22


 995:Src/register_interface.c ****             {
 996:Src/register_interface.c ****               *regdata16 = STO_PLL_GetEstimatedCurrent(&STO_PLL_M1).alpha;
 997:Src/register_interface.c ****               break;
 998:Src/register_interface.c ****             }
 999:Src/register_interface.c **** 
1000:Src/register_interface.c ****             case MC_REG_STOPLL_I_BETA:
1001:Src/register_interface.c ****             {
1002:Src/register_interface.c ****               *regdata16 = STO_PLL_GetEstimatedCurrent(&STO_PLL_M1).beta;
1003:Src/register_interface.c ****               break;
1004:Src/register_interface.c ****             }
1005:Src/register_interface.c **** 
1006:Src/register_interface.c ****             case MC_REG_STOPLL_BEMF_ALPHA:
1007:Src/register_interface.c ****             {
1008:Src/register_interface.c ****               *regdata16 = STO_PLL_GetEstimatedBemf(&STO_PLL_M1).alpha;
1009:Src/register_interface.c ****               break;
1010:Src/register_interface.c ****             }
1011:Src/register_interface.c **** 
1012:Src/register_interface.c ****             case MC_REG_STOPLL_BEMF_BETA:
1013:Src/register_interface.c ****             {
1014:Src/register_interface.c ****               *regdata16 = STO_PLL_GetEstimatedBemf(&STO_PLL_M1).beta;
1015:Src/register_interface.c ****               break;
1016:Src/register_interface.c ****             }
1017:Src/register_interface.c **** 
1018:Src/register_interface.c ****             case MC_REG_STOPLL_C1:
1019:Src/register_interface.c ****             {
1020:Src/register_interface.c ****               int16_t hC1;
1021:Src/register_interface.c ****               int16_t hC2;
1022:Src/register_interface.c ****               STO_PLL_GetObserverGains(&STO_PLL_M1, &hC1, &hC2);
1023:Src/register_interface.c ****               *regdata16 = hC1;
1024:Src/register_interface.c ****               break;
1025:Src/register_interface.c ****             }
1026:Src/register_interface.c **** 
1027:Src/register_interface.c ****             case MC_REG_STOPLL_C2:
1028:Src/register_interface.c ****             {
1029:Src/register_interface.c ****               int16_t hC1;
1030:Src/register_interface.c ****               int16_t hC2;
1031:Src/register_interface.c ****               STO_PLL_GetObserverGains(&STO_PLL_M1, &hC1, &hC2);
1032:Src/register_interface.c ****               *regdata16 = hC2;
1033:Src/register_interface.c ****               break;
1034:Src/register_interface.c ****             }
1035:Src/register_interface.c **** 
1036:Src/register_interface.c ****             case MC_REG_STOPLL_KI:
1037:Src/register_interface.c ****             {
1038:Src/register_interface.c ****               *regdata16 = PID_GetKI (&(&STO_PLL_M1)->PIRegulator);
1039:Src/register_interface.c ****               break;
1040:Src/register_interface.c ****             }
1041:Src/register_interface.c **** 
1042:Src/register_interface.c ****             case MC_REG_STOPLL_KP:
1043:Src/register_interface.c ****             {
1044:Src/register_interface.c ****               *regdata16 = PID_GetKP (&(&STO_PLL_M1)->PIRegulator);
1045:Src/register_interface.c ****               break;
1046:Src/register_interface.c ****             }
1047:Src/register_interface.c **** 
1048:Src/register_interface.c ****             case MC_REG_DAC_USER1:
1049:Src/register_interface.c ****             case MC_REG_DAC_USER2:
1050:Src/register_interface.c ****               break;
1051:Src/register_interface.c **** 
ARM GAS  C:\Users\ep_ygh\AppData\Local\Temp\ccaRZNy5.s 			page 23


1052:Src/register_interface.c ****             case MC_REG_SPEED_KP_DIV:
1053:Src/register_interface.c ****             {
1054:Src/register_interface.c ****               *regdataU16 = (uint16_t)PID_GetKPDivisorPOW2(&PIDSpeedHandle_M1);
1055:Src/register_interface.c ****               break;
1056:Src/register_interface.c ****             }
1057:Src/register_interface.c **** 
1058:Src/register_interface.c ****             case MC_REG_SPEED_KI_DIV:
1059:Src/register_interface.c ****             {
1060:Src/register_interface.c ****               *regdataU16 = (uint16_t)PID_GetKIDivisorPOW2(&PIDSpeedHandle_M1);
1061:Src/register_interface.c ****               break;
1062:Src/register_interface.c ****             }
1063:Src/register_interface.c **** 
1064:Src/register_interface.c ****             case MC_REG_SPEED_KD_DIV:
1065:Src/register_interface.c ****             {
1066:Src/register_interface.c ****               *regdataU16 = PID_GetKDDivisorPOW2(&PIDSpeedHandle_M1);
1067:Src/register_interface.c ****               break;
1068:Src/register_interface.c ****             }
1069:Src/register_interface.c ****             case MC_REG_I_D_KP_DIV:
1070:Src/register_interface.c ****             {
1071:Src/register_interface.c ****               *regdataU16 = PID_GetKPDivisorPOW2(&PIDIdHandle_M1);
1072:Src/register_interface.c ****               break;
1073:Src/register_interface.c ****             }
1074:Src/register_interface.c **** 
1075:Src/register_interface.c ****             case MC_REG_I_D_KI_DIV:
1076:Src/register_interface.c ****             {
1077:Src/register_interface.c ****               *regdataU16 = PID_GetKIDivisorPOW2(&PIDIdHandle_M1);
1078:Src/register_interface.c ****               break;
1079:Src/register_interface.c ****             }
1080:Src/register_interface.c **** 
1081:Src/register_interface.c ****             case MC_REG_I_D_KD_DIV:
1082:Src/register_interface.c ****             {
1083:Src/register_interface.c ****               *regdataU16 = PID_GetKDDivisorPOW2(&PIDIdHandle_M1);
1084:Src/register_interface.c ****               break;
1085:Src/register_interface.c ****             }
1086:Src/register_interface.c **** 
1087:Src/register_interface.c ****             case MC_REG_I_Q_KP_DIV:
1088:Src/register_interface.c ****             {
1089:Src/register_interface.c ****               *regdataU16 = PID_GetKPDivisorPOW2(&PIDIqHandle_M1);
1090:Src/register_interface.c ****               break;
1091:Src/register_interface.c ****             }
1092:Src/register_interface.c **** 
1093:Src/register_interface.c ****             case MC_REG_I_Q_KI_DIV:
1094:Src/register_interface.c ****             {
1095:Src/register_interface.c ****               *regdataU16 = PID_GetKIDivisorPOW2(&PIDIqHandle_M1);
1096:Src/register_interface.c ****               break;
1097:Src/register_interface.c ****             }
1098:Src/register_interface.c **** 
1099:Src/register_interface.c ****             case MC_REG_I_Q_KD_DIV:
1100:Src/register_interface.c ****             {
1101:Src/register_interface.c ****               *regdataU16 = PID_GetKDDivisorPOW2(&PIDIqHandle_M1);
1102:Src/register_interface.c ****               break;
1103:Src/register_interface.c ****             }
1104:Src/register_interface.c **** 
1105:Src/register_interface.c ****             case MC_REG_STOPLL_KI_DIV:
1106:Src/register_interface.c ****             {
1107:Src/register_interface.c ****               *regdataU16 = PID_GetKIDivisorPOW2(&(&STO_PLL_M1)->PIRegulator);
1108:Src/register_interface.c ****               break;
ARM GAS  C:\Users\ep_ygh\AppData\Local\Temp\ccaRZNy5.s 			page 24


1109:Src/register_interface.c ****             }
1110:Src/register_interface.c **** 
1111:Src/register_interface.c ****             case MC_REG_STOPLL_KP_DIV:
1112:Src/register_interface.c ****             {
1113:Src/register_interface.c ****               *regdataU16 = PID_GetKPDivisorPOW2(&(&STO_PLL_M1)->PIRegulator);
1114:Src/register_interface.c ****               break;
1115:Src/register_interface.c ****             }
1116:Src/register_interface.c **** 
1117:Src/register_interface.c ****             case MC_REG_FOC_VQREF:
1118:Src/register_interface.c ****             {
1119:Src/register_interface.c ****             *regdata16 = ((OL_GetVoltage(&OpenLoop_ParamsM1)*100)/32767);
1120:Src/register_interface.c ****               break;
1121:Src/register_interface.c ****             }
1122:Src/register_interface.c **** 
1123:Src/register_interface.c ****             default:
1124:Src/register_interface.c ****             {
1125:Src/register_interface.c ****               retVal = MCP_ERROR_UNKNOWN_REG;
1126:Src/register_interface.c ****               break;
1127:Src/register_interface.c ****             }
1128:Src/register_interface.c ****           }
1129:Src/register_interface.c ****           *size = 2;
1130:Src/register_interface.c ****         }
1131:Src/register_interface.c ****         else
1132:Src/register_interface.c ****         {
1133:Src/register_interface.c ****           retVal = MCP_ERROR_NO_TXSYNC_SPACE;
1134:Src/register_interface.c ****         }
1135:Src/register_interface.c ****         break;
1136:Src/register_interface.c ****       }
1137:Src/register_interface.c **** 
1138:Src/register_interface.c ****       case TYPE_DATA_32BIT:
1139:Src/register_interface.c ****       {
1140:Src/register_interface.c ****         uint32_t *regdataU32 = (uint32_t *)data; //cstat !MISRAC2012-Rule-11.3
1141:Src/register_interface.c ****         int32_t *regdata32 = (int32_t *)data; //cstat !MISRAC2012-Rule-11.3
1142:Src/register_interface.c **** 
1143:Src/register_interface.c ****         if (freeSpace >= 4)
1144:Src/register_interface.c ****         {
1145:Src/register_interface.c ****           switch (regID)
1146:Src/register_interface.c ****           {
1147:Src/register_interface.c ****             case MC_REG_FAULTS_FLAGS:
1148:Src/register_interface.c ****             {
1149:Src/register_interface.c ****               *regdataU32 = MCI_GetFaultState(pMCIN);
1150:Src/register_interface.c ****               break;
1151:Src/register_interface.c ****             }
1152:Src/register_interface.c ****             case MC_REG_SPEED_MEAS:
1153:Src/register_interface.c ****             {
1154:Src/register_interface.c ****               *regdata32 = (((int32_t)MCI_GetAvrgMecSpeedUnit(pMCIN) * U_RPM) / SPEED_UNIT);
1155:Src/register_interface.c ****               break;
1156:Src/register_interface.c ****             }
1157:Src/register_interface.c **** 
1158:Src/register_interface.c ****             case MC_REG_SPEED_REF:
1159:Src/register_interface.c ****             {
1160:Src/register_interface.c ****               *regdata32 = (((int32_t)MCI_GetMecSpeedRefUnit(pMCIN) * U_RPM) / SPEED_UNIT);
1161:Src/register_interface.c ****               break;
1162:Src/register_interface.c ****             }
1163:Src/register_interface.c **** 
1164:Src/register_interface.c ****             case MC_REG_STOPLL_EST_BEMF:
1165:Src/register_interface.c ****             {
ARM GAS  C:\Users\ep_ygh\AppData\Local\Temp\ccaRZNy5.s 			page 25


1166:Src/register_interface.c ****               *regdata32 = STO_PLL_GetEstimatedBemfLevel(&STO_PLL_M1);
1167:Src/register_interface.c ****               break;
1168:Src/register_interface.c ****             }
1169:Src/register_interface.c **** 
1170:Src/register_interface.c ****             case MC_REG_STOPLL_OBS_BEMF:
1171:Src/register_interface.c ****             {
1172:Src/register_interface.c ****               *regdata32 = STO_PLL_GetObservedBemfLevel(&STO_PLL_M1);
1173:Src/register_interface.c ****               break;
1174:Src/register_interface.c ****             }
1175:Src/register_interface.c **** 
1176:Src/register_interface.c ****             case MC_REG_MOTOR_POWER:
1177:Src/register_interface.c ****             {
1178:Src/register_interface.c ****               FloatToU32 ReadVal; //cstat !MISRAC2012-Rule-19.2
1179:Src/register_interface.c ****               ReadVal.Float_Val = PQD_GetAvrgElMotorPowerW(pMPM[M1]);
1180:Src/register_interface.c ****               *regdataU32 = ReadVal.U32_Val; //cstat !UNION-type-punning
1181:Src/register_interface.c ****               break;
1182:Src/register_interface.c ****             }
1183:Src/register_interface.c **** 
1184:Src/register_interface.c ****             default:
1185:Src/register_interface.c ****             {
1186:Src/register_interface.c ****               retVal = MCP_ERROR_UNKNOWN_REG;
1187:Src/register_interface.c ****               break;
1188:Src/register_interface.c ****             }
1189:Src/register_interface.c ****           }
1190:Src/register_interface.c ****           *size = 4;
1191:Src/register_interface.c ****         }
1192:Src/register_interface.c ****         else
1193:Src/register_interface.c ****         {
1194:Src/register_interface.c ****           retVal = MCP_ERROR_NO_TXSYNC_SPACE;
1195:Src/register_interface.c ****         }
1196:Src/register_interface.c ****         break;
1197:Src/register_interface.c ****       }
1198:Src/register_interface.c **** 
1199:Src/register_interface.c ****       case TYPE_DATA_STRING:
1200:Src/register_interface.c ****       {
1201:Src/register_interface.c ****         char_t *charData = (char_t *)data;
1202:Src/register_interface.c ****         switch (regID)
1203:Src/register_interface.c ****         {
1204:Src/register_interface.c ****           case MC_REG_PWR_STAGE_NAME:
1205:Src/register_interface.c ****           {
1206:Src/register_interface.c ****             retVal = RI_MovString (PWR_BOARD_NAME[motorID], charData, size, freeSpace);
1207:Src/register_interface.c ****             break;
1208:Src/register_interface.c ****           }
1209:Src/register_interface.c **** 
1210:Src/register_interface.c ****           case MC_REG_MOTOR_NAME:
1211:Src/register_interface.c ****           {
1212:Src/register_interface.c ****             retVal = RI_MovString (MotorConfig_reg[motorID]->name ,charData, size, freeSpace);
1213:Src/register_interface.c ****             break;
1214:Src/register_interface.c ****           }
1215:Src/register_interface.c **** 
1216:Src/register_interface.c ****           default:
1217:Src/register_interface.c ****           {
1218:Src/register_interface.c ****             retVal = MCP_ERROR_UNKNOWN_REG;
1219:Src/register_interface.c ****             *size= 0 ; /* */
1220:Src/register_interface.c ****             break;
1221:Src/register_interface.c ****           }
1222:Src/register_interface.c ****         }
ARM GAS  C:\Users\ep_ygh\AppData\Local\Temp\ccaRZNy5.s 			page 26


1223:Src/register_interface.c ****         break;
1224:Src/register_interface.c ****       }
1225:Src/register_interface.c **** 
1226:Src/register_interface.c ****       case TYPE_DATA_RAW:
1227:Src/register_interface.c ****       {
1228:Src/register_interface.c ****         /* First 2 bytes of the answer is reserved to the size */
1229:Src/register_interface.c ****         uint16_t *rawSize = (uint16_t *)data; //cstat !MISRAC2012-Rule-11.3
1230:Src/register_interface.c ****         uint8_t * rawData = data;
1231:Src/register_interface.c ****         rawData++;
1232:Src/register_interface.c ****         rawData++;
1233:Src/register_interface.c **** 
1234:Src/register_interface.c ****         switch (regID)
1235:Src/register_interface.c ****         {
1236:Src/register_interface.c ****           case MC_REG_APPLICATION_CONFIG:
1237:Src/register_interface.c ****           {
1238:Src/register_interface.c ****             *rawSize = (uint16_t)sizeof(ApplicationConfig_reg_t);
1239:Src/register_interface.c ****             if (((*rawSize) + 2U) > (uint16_t)freeSpace)
1240:Src/register_interface.c ****             {
1241:Src/register_interface.c ****               retVal = MCP_ERROR_NO_TXSYNC_SPACE;
1242:Src/register_interface.c ****             }
1243:Src/register_interface.c ****             else
1244:Src/register_interface.c ****             {
1245:Src/register_interface.c ****               ApplicationConfig_reg_t const *pApplicationConfig_reg = ApplicationConfig_reg[motorID
1246:Src/register_interface.c ****               (void)memcpy(rawData, (const uint8_t *)pApplicationConfig_reg, sizeof(ApplicationConf
1247:Src/register_interface.c ****             }
1248:Src/register_interface.c ****             break;
1249:Src/register_interface.c ****           }
1250:Src/register_interface.c **** 
1251:Src/register_interface.c ****           case MC_REG_MOTOR_CONFIG:
1252:Src/register_interface.c ****           {
1253:Src/register_interface.c ****             *rawSize = (uint16_t)sizeof(MotorConfig_reg_t);
1254:Src/register_interface.c ****             if (((*rawSize) + 2U) > (uint16_t)freeSpace)
1255:Src/register_interface.c ****             {
1256:Src/register_interface.c ****               retVal = MCP_ERROR_NO_TXSYNC_SPACE;
1257:Src/register_interface.c ****             }
1258:Src/register_interface.c ****             else
1259:Src/register_interface.c ****             {
1260:Src/register_interface.c ****               MotorConfig_reg_t const *pMotorConfig_reg = MotorConfig_reg[motorID];
1261:Src/register_interface.c ****               (void)memcpy(rawData, (const uint8_t *)pMotorConfig_reg, sizeof(MotorConfig_reg_t));
1262:Src/register_interface.c ****             }
1263:Src/register_interface.c ****             break;
1264:Src/register_interface.c ****           }
1265:Src/register_interface.c **** 
1266:Src/register_interface.c ****           case MC_REG_FOCFW_CONFIG:
1267:Src/register_interface.c ****           {
1268:Src/register_interface.c ****             *rawSize = (uint16_t)sizeof(FOCFwConfig_reg_t);
1269:Src/register_interface.c ****             if (((*rawSize) + 2U) > (uint16_t)freeSpace)
1270:Src/register_interface.c ****             {
1271:Src/register_interface.c ****               retVal = MCP_ERROR_NO_TXSYNC_SPACE;
1272:Src/register_interface.c ****             }
1273:Src/register_interface.c ****             else
1274:Src/register_interface.c ****             {
1275:Src/register_interface.c ****               FOCFwConfig_reg_t const *pFOCConfig_reg = FOCConfig_reg[motorID];
1276:Src/register_interface.c ****               (void)memcpy(rawData, (const uint8_t *)pFOCConfig_reg, sizeof(FOCFwConfig_reg_t));
1277:Src/register_interface.c ****             }
1278:Src/register_interface.c **** 
1279:Src/register_interface.c ****             break;
ARM GAS  C:\Users\ep_ygh\AppData\Local\Temp\ccaRZNy5.s 			page 27


1280:Src/register_interface.c ****           }
1281:Src/register_interface.c ****           case MC_REG_SCALE_CONFIG:
1282:Src/register_interface.c ****           {
1283:Src/register_interface.c ****             *rawSize = 12;
1284:Src/register_interface.c ****             if ((*rawSize) +2U > (uint16_t)freeSpace)
1285:Src/register_interface.c ****             {
1286:Src/register_interface.c ****               retVal = MCP_ERROR_NO_TXSYNC_SPACE;
1287:Src/register_interface.c ****             }
1288:Src/register_interface.c ****             else
1289:Src/register_interface.c ****             {
1290:Src/register_interface.c ****               memcpy(rawData, &scaleParams_M1, sizeof(ScaleParams_t) );
1291:Src/register_interface.c ****             }
1292:Src/register_interface.c ****             break;
1293:Src/register_interface.c ****           }
1294:Src/register_interface.c ****           case MC_REG_SPEED_RAMP:
1295:Src/register_interface.c ****           {
1296:Src/register_interface.c ****             int32_t *rpm = (int32_t *)rawData; //cstat !MISRAC2012-Rule-11.3
1297:Src/register_interface.c ****             uint16_t *duration = (uint16_t *)&rawData[4]; //cstat !MISRAC2012-Rule-11.3
1298:Src/register_interface.c ****             *rpm = (((int32_t)MCI_GetLastRampFinalSpeed(pMCIN) * U_RPM) / (int32_t)SPEED_UNIT);
1299:Src/register_interface.c ****             *duration = MCI_GetLastRampFinalDuration(pMCIN);
1300:Src/register_interface.c ****             *rawSize = 6;
1301:Src/register_interface.c ****             break;
1302:Src/register_interface.c ****           }
1303:Src/register_interface.c **** 
1304:Src/register_interface.c ****           case MC_REG_TORQUE_RAMP:
1305:Src/register_interface.c ****           {
1306:Src/register_interface.c ****             int16_t *torque = (int16_t *)rawData; //cstat !MISRAC2012-Rule-11.3
1307:Src/register_interface.c ****             uint16_t *duration = (uint16_t *)&rawData[2]; //cstat !MISRAC2012-Rule-11.3
1308:Src/register_interface.c **** 
1309:Src/register_interface.c ****             *rawSize = 4;
1310:Src/register_interface.c ****             *torque = MCI_GetLastRampFinalTorque(pMCIN);
1311:Src/register_interface.c ****             *duration = MCI_GetLastRampFinalDuration(pMCIN) ;
1312:Src/register_interface.c ****             break;
1313:Src/register_interface.c ****           }
1314:Src/register_interface.c **** 
1315:Src/register_interface.c ****           case MC_REG_REVUP_DATA:
1316:Src/register_interface.c ****           {
1317:Src/register_interface.c ****             int32_t *rpm;
1318:Src/register_interface.c ****             uint16_t *finalTorque;
1319:Src/register_interface.c ****             uint16_t *durationms;
1320:Src/register_interface.c ****             RevUpCtrl_PhaseParams_t revUpPhase;
1321:Src/register_interface.c ****             uint8_t i;
1322:Src/register_interface.c **** 
1323:Src/register_interface.c ****             *rawSize = (uint16_t)RUC_MAX_PHASE_NUMBER*8U;
1324:Src/register_interface.c ****             if (((*rawSize) + 2U) > (uint16_t)freeSpace)
1325:Src/register_interface.c ****             {
1326:Src/register_interface.c ****               retVal = MCP_ERROR_NO_TXSYNC_SPACE;
1327:Src/register_interface.c ****             }
1328:Src/register_interface.c ****             else
1329:Src/register_interface.c ****             {
1330:Src/register_interface.c ****               for (i = 0; i <RUC_MAX_PHASE_NUMBER; i++)
1331:Src/register_interface.c ****               {
1332:Src/register_interface.c ****                 (void)RUC_GetPhase( &RevUpControlM1 ,i, &revUpPhase);
1333:Src/register_interface.c ****                 rpm = (int32_t *)&data[2U + (i * 8U)];  //cstat !MISRAC2012-Rule-11.3
1334:Src/register_interface.c ****                 *rpm = (((int32_t)revUpPhase.hFinalMecSpeedUnit) * U_RPM) / SPEED_UNIT; //cstat !MI
1335:Src/register_interface.c ****                 finalTorque = (uint16_t *)&data[6U + (i * 8U)]; //cstat !MISRAC2012-Rule-11.3
1336:Src/register_interface.c ****                 *finalTorque = (uint16_t)revUpPhase.hFinalTorque; //cstat !MISRAC2012-Rule-11.3
ARM GAS  C:\Users\ep_ygh\AppData\Local\Temp\ccaRZNy5.s 			page 28


1337:Src/register_interface.c ****                 durationms  = (uint16_t *)&data[8U + (i * 8U)]; //cstat !MISRAC2012-Rule-11.3
1338:Src/register_interface.c ****                 *durationms  = revUpPhase.hDurationms;
1339:Src/register_interface.c ****               }
1340:Src/register_interface.c ****             }
1341:Src/register_interface.c ****             break;
1342:Src/register_interface.c ****           }
1343:Src/register_interface.c **** 
1344:Src/register_interface.c ****           case MC_REG_CURRENT_REF:
1345:Src/register_interface.c ****           {
1346:Src/register_interface.c ****             uint16_t *iqref = (uint16_t *)rawData; //cstat !MISRAC2012-Rule-11.3
1347:Src/register_interface.c ****             uint16_t *idref = (uint16_t *)&rawData[2]; //cstat !MISRAC2012-Rule-11.3
1348:Src/register_interface.c **** 
1349:Src/register_interface.c ****             *rawSize = 4;
1350:Src/register_interface.c ****             *iqref = (uint16_t)MCI_GetIqdref(pMCIN).q;
1351:Src/register_interface.c ****             *idref = (uint16_t)MCI_GetIqdref(pMCIN).d;
1352:Src/register_interface.c ****             break;
1353:Src/register_interface.c ****           }
1354:Src/register_interface.c **** 
1355:Src/register_interface.c ****           case MC_REG_ASYNC_UARTA:
1356:Src/register_interface.c ****           case MC_REG_ASYNC_UARTB:
1357:Src/register_interface.c ****           case MC_REG_ASYNC_STLNK:
1358:Src/register_interface.c ****           default:
1359:Src/register_interface.c ****           {
1360:Src/register_interface.c ****             retVal = MCP_ERROR_UNKNOWN_REG;
1361:Src/register_interface.c ****             break;
1362:Src/register_interface.c ****           }
1363:Src/register_interface.c ****         }
1364:Src/register_interface.c **** 
1365:Src/register_interface.c ****         /* Size of the answer is size of the data + 2 bytes containing data size */
1366:Src/register_interface.c ****         *size = (*rawSize) + 2U;
1367:Src/register_interface.c ****         break;
1368:Src/register_interface.c ****       }
1369:Src/register_interface.c **** 
1370:Src/register_interface.c ****       default:
1371:Src/register_interface.c ****       {
1372:Src/register_interface.c ****         retVal = MCP_ERROR_BAD_DATA_TYPE;
1373:Src/register_interface.c ****         break;
1374:Src/register_interface.c ****       }
1375:Src/register_interface.c ****     }
1376:Src/register_interface.c ****     return (retVal);
1377:Src/register_interface.c ****   }
1378:Src/register_interface.c **** 
1379:Src/register_interface.c **** uint8_t RI_MovString(const char_t *srcString, char_t *destString, uint16_t *size, int16_t maxSize)
 177              		.loc 1 1379 9 view .LVU42
 178              	.LBB47:
1380:Src/register_interface.c **** {
1381:Src/register_interface.c ****   uint8_t retVal = MCP_CMD_OK;
 179              		.loc 1 1381 3 view .LVU43
1382:Src/register_interface.c ****   const char_t *tempsrcString = srcString;
 180              		.loc 1 1382 3 view .LVU44
1383:Src/register_interface.c ****   char_t *tempdestString = destString;
 181              		.loc 1 1383 3 view .LVU45
1384:Src/register_interface.c ****   *size= 1U ; /* /0 is the min String size */
 182              		.loc 1 1384 3 view .LVU46
 183              		.loc 1 1384 8 is_stmt 0 view .LVU47
 184 007a 0121     		movs	r1, #1
 185 007c 1980     		strh	r1, [r3]	@ movhi
ARM GAS  C:\Users\ep_ygh\AppData\Local\Temp\ccaRZNy5.s 			page 29


1385:Src/register_interface.c **** 
1386:Src/register_interface.c ****   while ((*tempsrcString != (char_t)0) && (*size < (uint16_t)maxSize))
 186              		.loc 1 1386 3 is_stmt 1 view .LVU48
 187              		.loc 1 1386 9 view .LVU49
 188 007e 92F90000 		ldrsb	r0, [r2]
 189              	.LVL17:
 190              		.loc 1 1386 9 is_stmt 0 view .LVU50
 191 0082 58B3     		cbz	r0, .L14
 192              		.loc 1 1386 50 view .LVU51
 193 0084 1FFA8CFC 		uxth	ip, ip
 194              		.loc 1 1386 50 view .LVU52
 195 0088 5018     		adds	r0, r2, r1
 196 008a 04E0     		b	.L15
 197              	.LVL18:
 198              	.L16:
1387:Src/register_interface.c ****   {
1388:Src/register_interface.c ****     *tempdestString = *tempsrcString;
1389:Src/register_interface.c ****     tempdestString++;
1390:Src/register_interface.c ****     tempsrcString++;
1391:Src/register_interface.c ****     *size = *size + 1U;
 199              		.loc 1 1391 11 view .LVU53
 200 008c 1980     		strh	r1, [r3]	@ movhi
1386:Src/register_interface.c ****   {
 201              		.loc 1 1386 9 is_stmt 1 view .LVU54
 202 008e 92F90040 		ldrsb	r4, [r2]
 203 0092 0130     		adds	r0, r0, #1
 204              	.LVL19:
1386:Src/register_interface.c ****   {
 205              		.loc 1 1386 9 is_stmt 0 view .LVU55
 206 0094 14B3     		cbz	r4, .L14
 207              	.L15:
1388:Src/register_interface.c ****     tempdestString++;
 208              		.loc 1 1388 5 is_stmt 1 view .LVU56
1389:Src/register_interface.c ****     tempsrcString++;
 209              		.loc 1 1389 5 view .LVU57
 210              	.LVL20:
 211              		.loc 1 1391 19 is_stmt 0 view .LVU58
 212 0096 01F1010E 		add	lr, r1, #1
1386:Src/register_interface.c ****   {
 213              		.loc 1 1386 40 view .LVU59
 214 009a 6145     		cmp	r1, ip
1389:Src/register_interface.c ****     tempsrcString++;
 215              		.loc 1 1389 19 view .LVU60
 216 009c 0246     		mov	r2, r0
 217              	.LVL21:
1390:Src/register_interface.c ****     *size = *size + 1U;
 218              		.loc 1 1390 5 is_stmt 1 view .LVU61
 219              		.loc 1 1391 5 view .LVU62
 220              		.loc 1 1391 19 is_stmt 0 view .LVU63
 221 009e 1FFA8EF1 		uxth	r1, lr
1386:Src/register_interface.c ****   {
 222              		.loc 1 1386 40 view .LVU64
 223 00a2 F3D3     		bcc	.L16
 224              	.LVL22:
 225              	.L36:
1386:Src/register_interface.c ****   {
 226              		.loc 1 1386 40 view .LVU65
ARM GAS  C:\Users\ep_ygh\AppData\Local\Temp\ccaRZNy5.s 			page 30


 227              	.LBE47:
 228              	.LBE46:
 109:Src/register_interface.c ****       /* Used to compute String length stored in RXBUFF even if Reg does not exist */
 229              		.loc 1 109 14 view .LVU66
 230 00a4 0420     		movs	r0, #4
 231              	.LVL23:
 109:Src/register_interface.c ****       /* Used to compute String length stored in RXBUFF even if Reg does not exist */
 232              		.loc 1 109 14 view .LVU67
 233              	.LBE45:
 163:Src/register_interface.c **** }
 234              		.loc 1 163 3 is_stmt 1 view .LVU68
 235              	.L40:
 164:Src/register_interface.c **** 
 236              		.loc 1 164 1 is_stmt 0 view .LVU69
 237 00a6 10BD     		pop	{r4, pc}
 238              	.LVL24:
 239              	.L3:
 240              	.LBB50:
 118:Src/register_interface.c ****       /* The size consumed by the structure is the structure size + 2 bytes used to store the size 
 241              		.loc 1 118 7 is_stmt 1 view .LVU70
 120:Src/register_interface.c ****       uint8_t *rawData = data; /* rawData points to the first data (after size extraction) */
 242              		.loc 1 120 7 view .LVU71
 120:Src/register_interface.c ****       uint8_t *rawData = data; /* rawData points to the first data (after size extraction) */
 243              		.loc 1 120 23 is_stmt 0 view .LVU72
 244 00a8 1288     		ldrh	r2, [r2]
 245              	.LVL25:
 120:Src/register_interface.c ****       uint8_t *rawData = data; /* rawData points to the first data (after size extraction) */
 246              		.loc 1 120 23 view .LVU73
 247 00aa 0232     		adds	r2, r2, #2
 248 00ac 92B2     		uxth	r2, r2
 125:Src/register_interface.c ****       {
 249              		.loc 1 125 10 view .LVU74
 250 00ae 1FFA8CFC 		uxth	ip, ip
 251 00b2 6245     		cmp	r2, ip
 120:Src/register_interface.c ****       uint8_t *rawData = data; /* rawData points to the first data (after size extraction) */
 252              		.loc 1 120 13 view .LVU75
 253 00b4 1A80     		strh	r2, [r3]	@ movhi
 254              	.LVL26:
 121:Src/register_interface.c ****       rawData++;
 255              		.loc 1 121 7 is_stmt 1 view .LVU76
 122:Src/register_interface.c ****       rawData++;
 256              		.loc 1 122 7 view .LVU77
 123:Src/register_interface.c **** 
 257              		.loc 1 123 7 view .LVU78
 125:Src/register_interface.c ****       {
 258              		.loc 1 125 7 view .LVU79
 125:Src/register_interface.c ****       {
 259              		.loc 1 125 10 is_stmt 0 view .LVU80
 260 00b6 1CD8     		bhi	.L39
 134:Src/register_interface.c ****         {
 261              		.loc 1 134 9 is_stmt 1 view .LVU81
 262 00b8 A828     		cmp	r0, #168
 263 00ba F3D0     		beq	.L36
 264 00bc 12D8     		bhi	.L18
 265 00be 20F04000 		bic	r0, r0, #64
 266              	.LVL27:
 141:Src/register_interface.c ****             break;
ARM GAS  C:\Users\ep_ygh\AppData\Local\Temp\ccaRZNy5.s 			page 31


 267              		.loc 1 141 20 is_stmt 0 view .LVU82
 268 00c2 2828     		cmp	r0, #40
 269 00c4 14BF     		ite	ne
 270 00c6 0520     		movne	r0, #5
 271 00c8 0420     		moveq	r0, #4
 272              	.LBE50:
 164:Src/register_interface.c **** 
 273              		.loc 1 164 1 view .LVU83
 274 00ca 10BD     		pop	{r4, pc}
 275              	.LVL28:
 276              	.L38:
 164:Src/register_interface.c **** 
 277              		.loc 1 164 1 view .LVU84
 278 00cc 20F04000 		bic	r0, r0, #64
 279              	.LVL29:
 164:Src/register_interface.c **** 
 280              		.loc 1 164 1 view .LVU85
 281 00d0 B0F5B26F 		cmp	r0, #1424
 282 00d4 14BF     		ite	ne
 283 00d6 0520     		movne	r0, #5
 284 00d8 0420     		moveq	r0, #4
 285 00da C3E7     		b	.L11
 286              	.LVL30:
 287              	.L14:
 288              	.LBB51:
 289              	.LBB49:
 290              	.LBB48:
1392:Src/register_interface.c ****   }
1393:Src/register_interface.c **** 
1394:Src/register_interface.c ****   if (*tempsrcString != (char_t)0)
 291              		.loc 1 1394 3 is_stmt 1 view .LVU86
1395:Src/register_interface.c ****   { /* Last string char must be 0 */
1396:Src/register_interface.c ****     retVal = MCP_ERROR_STRING_FORMAT;
1397:Src/register_interface.c ****   }
1398:Src/register_interface.c ****   else
1399:Src/register_interface.c ****   {
1400:Src/register_interface.c ****     *tempdestString = (int8_t)0;
 292              		.loc 1 1400 5 view .LVU87
 293              		.loc 1 1400 21 is_stmt 0 view .LVU88
 294 00dc 0023     		movs	r3, #0
 295              	.LVL31:
 296              		.loc 1 1400 21 view .LVU89
 297 00de 1370     		strb	r3, [r2]
 298              	.LBE48:
 299              	.LBE49:
 109:Src/register_interface.c ****       /* Used to compute String length stored in RXBUFF even if Reg does not exist */
 300              		.loc 1 109 14 view .LVU90
 301 00e0 0420     		movs	r0, #4
 302              	.LVL32:
 109:Src/register_interface.c ****       /* Used to compute String length stored in RXBUFF even if Reg does not exist */
 303              		.loc 1 109 14 view .LVU91
 304              	.LBE51:
 163:Src/register_interface.c **** }
 305              		.loc 1 163 3 is_stmt 1 view .LVU92
 306 00e2 E0E7     		b	.L40
 307              	.LVL33:
 308              	.L18:
ARM GAS  C:\Users\ep_ygh\AppData\Local\Temp\ccaRZNy5.s 			page 32


 309              	.LBB52:
 141:Src/register_interface.c ****             break;
 310              		.loc 1 141 20 is_stmt 0 view .LVU93
 311 00e4 E828     		cmp	r0, #232
 312 00e6 14BF     		ite	ne
 313 00e8 0520     		movne	r0, #5
 314              	.LVL34:
 141:Src/register_interface.c ****             break;
 315              		.loc 1 141 20 view .LVU94
 316 00ea 0420     		moveq	r0, #4
 317              	.LBE52:
 164:Src/register_interface.c **** 
 318              		.loc 1 164 1 view .LVU95
 319 00ec 10BD     		pop	{r4, pc}
 320              	.LVL35:
 321              	.L22:
  34:Src/register_interface.c ****   switch(typeID)
 322              		.loc 1 34 11 view .LVU96
 323 00ee 0020     		movs	r0, #0
 324              	.LVL36:
  34:Src/register_interface.c ****   switch(typeID)
 325              		.loc 1 34 11 view .LVU97
 326 00f0 B8E7     		b	.L11
 327              	.LVL37:
 328              	.L39:
 329              	.LBB53:
 129:Src/register_interface.c ****         retVal = MCP_ERROR_BAD_RAW_FORMAT; /* This error stop the parsing of the CMD buffer */
 330              		.loc 1 129 9 is_stmt 1 view .LVU98
 129:Src/register_interface.c ****         retVal = MCP_ERROR_BAD_RAW_FORMAT; /* This error stop the parsing of the CMD buffer */
 331              		.loc 1 129 15 is_stmt 0 view .LVU99
 332 00f2 0022     		movs	r2, #0
 333 00f4 1A80     		strh	r2, [r3]	@ movhi
 130:Src/register_interface.c ****       }
 334              		.loc 1 130 9 is_stmt 1 view .LVU100
 335              	.LVL38:
 130:Src/register_interface.c ****       }
 336              		.loc 1 130 16 is_stmt 0 view .LVU101
 337 00f6 0A20     		movs	r0, #10
 338              	.LVL39:
 130:Src/register_interface.c ****       }
 339              		.loc 1 130 16 view .LVU102
 340              	.LBE53:
 164:Src/register_interface.c **** 
 341              		.loc 1 164 1 view .LVU103
 342 00f8 10BD     		pop	{r4, pc}
 164:Src/register_interface.c **** 
 343              		.loc 1 164 1 view .LVU104
 344              		.cfi_endproc
 345              	.LFE1090:
 347 00fa 00BF     		.section	.text.RI_SetRegisterMotor1,"ax",%progbits
 348              		.align	1
 349              		.p2align 2,,3
 350              		.global	RI_SetRegisterMotor1
 351              		.syntax unified
 352              		.thumb
 353              		.thumb_func
 355              	RI_SetRegisterMotor1:
ARM GAS  C:\Users\ep_ygh\AppData\Local\Temp\ccaRZNy5.s 			page 33


 356              	.LVL40:
 357              	.LFB1091:
 167:Src/register_interface.c ****   uint8_t retVal = MCP_CMD_OK;
 358              		.loc 1 167 1 is_stmt 1 view -0
 359              		.cfi_startproc
 360              		@ args = 4, pretend = 0, frame = 16
 361              		@ frame_needed = 0, uses_anonymous_args = 0
 168:Src/register_interface.c ****   uint8_t motorID=0;
 362              		.loc 1 168 3 view .LVU106
 169:Src/register_interface.c ****   MCI_Handle_t *pMCIN = &Mci[motorID];
 363              		.loc 1 169 3 view .LVU107
 170:Src/register_interface.c **** 
 364              		.loc 1 170 3 view .LVU108
 172:Src/register_interface.c ****   {
 365              		.loc 1 172 3 view .LVU109
 167:Src/register_interface.c ****   uint8_t retVal = MCP_CMD_OK;
 366              		.loc 1 167 1 is_stmt 0 view .LVU110
 367 0000 2DE9F041 		push	{r4, r5, r6, r7, r8, lr}
 368              	.LCFI1:
 369              		.cfi_def_cfa_offset 24
 370              		.cfi_offset 4, -24
 371              		.cfi_offset 5, -20
 372              		.cfi_offset 6, -16
 373              		.cfi_offset 7, -12
 374              		.cfi_offset 8, -8
 375              		.cfi_offset 14, -4
 376 0004 84B0     		sub	sp, sp, #16
 377              	.LCFI2:
 378              		.cfi_def_cfa_offset 40
 172:Src/register_interface.c ****   {
 379              		.loc 1 172 3 view .LVU111
 380 0006 0839     		subs	r1, r1, #8
 381              	.LVL41:
 167:Src/register_interface.c ****   uint8_t retVal = MCP_CMD_OK;
 382              		.loc 1 167 1 view .LVU112
 383 0008 BDF928C0 		ldrsh	ip, [sp, #40]
 384 000c 9646     		mov	lr, r2
 385 000e 1C46     		mov	r4, r3
 172:Src/register_interface.c ****   {
 386              		.loc 1 172 3 view .LVU113
 387 0010 2029     		cmp	r1, #32
 388 0012 12D8     		bhi	.L42
 389 0014 DFE801F0 		tbb	[pc, r1]
 390              	.LVL42:
 391              	.L44:
 392 0018 17       		.byte	(.L48-.L44)/2
 393 0019 11       		.byte	(.L42-.L44)/2
 394 001a 11       		.byte	(.L42-.L44)/2
 395 001b 11       		.byte	(.L42-.L44)/2
 396 001c 11       		.byte	(.L42-.L44)/2
 397 001d 11       		.byte	(.L42-.L44)/2
 398 001e 11       		.byte	(.L42-.L44)/2
 399 001f 11       		.byte	(.L42-.L44)/2
 400 0020 25       		.byte	(.L47-.L44)/2
 401 0021 11       		.byte	(.L42-.L44)/2
 402 0022 11       		.byte	(.L42-.L44)/2
 403 0023 11       		.byte	(.L42-.L44)/2
ARM GAS  C:\Users\ep_ygh\AppData\Local\Temp\ccaRZNy5.s 			page 34


 404 0024 11       		.byte	(.L42-.L44)/2
 405 0025 11       		.byte	(.L42-.L44)/2
 406 0026 11       		.byte	(.L42-.L44)/2
 407 0027 11       		.byte	(.L42-.L44)/2
 408 0028 6D       		.byte	(.L46-.L44)/2
 409 0029 11       		.byte	(.L42-.L44)/2
 410 002a 11       		.byte	(.L42-.L44)/2
 411 002b 11       		.byte	(.L42-.L44)/2
 412 002c 11       		.byte	(.L42-.L44)/2
 413 002d 11       		.byte	(.L42-.L44)/2
 414 002e 11       		.byte	(.L42-.L44)/2
 415 002f 11       		.byte	(.L42-.L44)/2
 416 0030 50       		.byte	(.L45-.L44)/2
 417 0031 11       		.byte	(.L42-.L44)/2
 418 0032 11       		.byte	(.L42-.L44)/2
 419 0033 11       		.byte	(.L42-.L44)/2
 420 0034 11       		.byte	(.L42-.L44)/2
 421 0035 11       		.byte	(.L42-.L44)/2
 422 0036 11       		.byte	(.L42-.L44)/2
 423 0037 11       		.byte	(.L42-.L44)/2
 424 0038 7D       		.byte	(.L43-.L44)/2
 425 0039 00       		.p2align 1
 426              	.L42:
 634:Src/register_interface.c ****       *size =0; /* From this point we are not able anymore to decode the RX buffer */
 427              		.loc 1 634 7 is_stmt 1 view .LVU114
 635:Src/register_interface.c ****       break;
 428              		.loc 1 635 7 view .LVU115
 635:Src/register_interface.c ****       break;
 429              		.loc 1 635 13 is_stmt 0 view .LVU116
 430 003a 0023     		movs	r3, #0
 431 003c 2380     		strh	r3, [r4]	@ movhi
 636:Src/register_interface.c ****     }
 432              		.loc 1 636 7 is_stmt 1 view .LVU117
 634:Src/register_interface.c ****       *size =0; /* From this point we are not able anymore to decode the RX buffer */
 433              		.loc 1 634 14 is_stmt 0 view .LVU118
 434 003e 0720     		movs	r0, #7
 435              	.LVL43:
 436              	.L163:
 640:Src/register_interface.c **** 
 437              		.loc 1 640 1 view .LVU119
 438 0040 04B0     		add	sp, sp, #16
 439              	.LCFI3:
 440              		.cfi_remember_state
 441              		.cfi_def_cfa_offset 24
 442              		@ sp needed
 443 0042 BDE8F081 		pop	{r4, r5, r6, r7, r8, pc}
 444              	.LVL44:
 445              	.L48:
 446              	.LCFI4:
 447              		.cfi_restore_state
 176:Src/register_interface.c ****       {
 448              		.loc 1 176 7 is_stmt 1 view .LVU120
 449 0046 8828     		cmp	r0, #136
 450 0048 00F00282 		beq	.L49
 451 004c 20F08000 		bic	r0, r0, #128
 452              	.LVL45:
 180:Src/register_interface.c ****             break;
ARM GAS  C:\Users\ep_ygh\AppData\Local\Temp\ccaRZNy5.s 			page 35


 453              		.loc 1 180 20 is_stmt 0 view .LVU121
 454 0050 4828     		cmp	r0, #72
 455 0052 14BF     		ite	ne
 456 0054 0520     		movne	r0, #5
 457 0056 0420     		moveq	r0, #4
 458              	.LVL46:
 459              	.L50:
 237:Src/register_interface.c ****       break;
 460              		.loc 1 237 7 is_stmt 1 view .LVU122
 237:Src/register_interface.c ****       break;
 461              		.loc 1 237 13 is_stmt 0 view .LVU123
 462 0058 0123     		movs	r3, #1
 463 005a 2380     		strh	r3, [r4]	@ movhi
 238:Src/register_interface.c ****     }
 464              		.loc 1 238 7 is_stmt 1 view .LVU124
 640:Src/register_interface.c **** 
 465              		.loc 1 640 1 is_stmt 0 view .LVU125
 466 005c 04B0     		add	sp, sp, #16
 467              	.LCFI5:
 468              		.cfi_remember_state
 469              		.cfi_def_cfa_offset 24
 470              		@ sp needed
 471 005e BDE8F081 		pop	{r4, r5, r6, r7, r8, pc}
 472              	.LVL47:
 473              	.L47:
 474              	.LCFI6:
 475              		.cfi_restore_state
 476              	.LBB54:
 243:Src/register_interface.c ****       switch (regID)
 477              		.loc 1 243 7 is_stmt 1 view .LVU126
 478 0062 B0F5196F 		cmp	r0, #2448
 243:Src/register_interface.c ****       switch (regID)
 479              		.loc 1 243 16 is_stmt 0 view .LVU127
 480 0066 1588     		ldrh	r5, [r2]
 481              	.LVL48:
 244:Src/register_interface.c ****       {
 482              		.loc 1 244 7 is_stmt 1 view .LVU128
 483 0068 00F08882 		beq	.L57
 484 006c 00F2A180 		bhi	.L58
 485 0070 B0F5347F 		cmp	r0, #720
 486 0074 00F07C82 		beq	.L59
 487 0078 40F28880 		bls	.L171
 488 007c B0F58A6F 		cmp	r0, #1104
 489 0080 00F06482 		beq	.L70
 490 0084 6DD9     		bls	.L172
 491 0086 B0F5016F 		cmp	r0, #2064
 492 008a 66D0     		beq	.L144
 493 008c 40F2CC80 		bls	.L173
 494 0090 B0F5156F 		cmp	r0, #2384
 495 0094 40F0BD80 		bne	.L174
 496              	.LBB55:
 322:Src/register_interface.c ****           currComp = MCI_GetIqdref(pMCIN);
 497              		.loc 1 322 11 view .LVU129
 323:Src/register_interface.c ****           currComp.q = (int16_t)regdata16;
 498              		.loc 1 323 11 view .LVU130
 323:Src/register_interface.c ****           currComp.q = (int16_t)regdata16;
 499              		.loc 1 323 22 is_stmt 0 view .LVU131
ARM GAS  C:\Users\ep_ygh\AppData\Local\Temp\ccaRZNy5.s 			page 36


 500 0098 B048     		ldr	r0, .L199
 501              	.LVL49:
 323:Src/register_interface.c ****           currComp.q = (int16_t)regdata16;
 502              		.loc 1 323 22 view .LVU132
 503 009a FFF7FEFF 		bl	MCI_GetIqdref
 504              	.LVL50:
 323:Src/register_interface.c ****           currComp.q = (int16_t)regdata16;
 505              		.loc 1 323 22 view .LVU133
 506 009e 0190     		str	r0, [sp, #4]
 324:Src/register_interface.c ****           MCI_SetCurrentReferences(pMCIN,currComp);
 507              		.loc 1 324 11 is_stmt 1 view .LVU134
 324:Src/register_interface.c ****           MCI_SetCurrentReferences(pMCIN,currComp);
 508              		.loc 1 324 22 is_stmt 0 view .LVU135
 509 00a0 ADF80450 		strh	r5, [sp, #4]	@ movhi
 325:Src/register_interface.c ****           break;
 510              		.loc 1 325 11 is_stmt 1 view .LVU136
 511 00a4 AD48     		ldr	r0, .L199
 512 00a6 0199     		ldr	r1, [sp, #4]
 513 00a8 FFF7FEFF 		bl	MCI_SetCurrentReferences
 514              	.LVL51:
 326:Src/register_interface.c ****         }
 515              		.loc 1 326 11 view .LVU137
 516              	.LBE55:
 517              	.LBE54:
 168:Src/register_interface.c ****   uint8_t motorID=0;
 518              		.loc 1 168 11 is_stmt 0 view .LVU138
 519 00ac 0020     		movs	r0, #0
 520              	.LVL52:
 521              	.L66:
 522              	.LBB59:
 480:Src/register_interface.c ****       break;
 523              		.loc 1 480 7 is_stmt 1 view .LVU139
 480:Src/register_interface.c ****       break;
 524              		.loc 1 480 13 is_stmt 0 view .LVU140
 525 00ae 0223     		movs	r3, #2
 526 00b0 2380     		strh	r3, [r4]	@ movhi
 481:Src/register_interface.c ****     }
 527              		.loc 1 481 7 is_stmt 1 view .LVU141
 528              	.L177:
 481:Src/register_interface.c ****     }
 529              		.loc 1 481 7 is_stmt 0 view .LVU142
 530              	.LBE59:
 640:Src/register_interface.c **** 
 531              		.loc 1 640 1 view .LVU143
 532 00b2 04B0     		add	sp, sp, #16
 533              	.LCFI7:
 534              		.cfi_remember_state
 535              		.cfi_def_cfa_offset 24
 536              		@ sp needed
 537 00b4 BDE8F081 		pop	{r4, r5, r6, r7, r8, pc}
 538              	.LVL53:
 539              	.L45:
 540              	.LCFI8:
 541              		.cfi_restore_state
 542              	.LBB60:
 522:Src/register_interface.c ****       char_t *dummy = (char_t *)data;
 543              		.loc 1 522 7 is_stmt 1 view .LVU144
ARM GAS  C:\Users\ep_ygh\AppData\Local\Temp\ccaRZNy5.s 			page 37


 523:Src/register_interface.c ****       retVal = MCP_ERROR_RO_REG;
 544              		.loc 1 523 7 view .LVU145
 524:Src/register_interface.c ****       /* Used to compute String length stored in RXBUFF even if Reg does not exist */
 545              		.loc 1 524 7 view .LVU146
 527:Src/register_interface.c ****       break;
 546              		.loc 1 527 7 view .LVU147
 547              	.LBB61:
 548              	.LBI61:
1379:Src/register_interface.c **** {
 549              		.loc 1 1379 9 view .LVU148
 550              	.LBB62:
1381:Src/register_interface.c ****   const char_t *tempsrcString = srcString;
 551              		.loc 1 1381 3 view .LVU149
1382:Src/register_interface.c ****   char_t *tempdestString = destString;
 552              		.loc 1 1382 3 view .LVU150
1383:Src/register_interface.c ****   *size= 1U ; /* /0 is the min String size */
 553              		.loc 1 1383 3 view .LVU151
1384:Src/register_interface.c **** 
 554              		.loc 1 1384 3 view .LVU152
1384:Src/register_interface.c **** 
 555              		.loc 1 1384 8 is_stmt 0 view .LVU153
 556 00b8 0121     		movs	r1, #1
 557 00ba 2180     		strh	r1, [r4]	@ movhi
1386:Src/register_interface.c ****   {
 558              		.loc 1 1386 3 is_stmt 1 view .LVU154
1386:Src/register_interface.c ****   {
 559              		.loc 1 1386 9 view .LVU155
 560 00bc 92F90030 		ldrsb	r3, [r2]
 561 00c0 002B     		cmp	r3, #0
 562 00c2 00F0B181 		beq	.L104
1386:Src/register_interface.c ****   {
 563              		.loc 1 1386 50 is_stmt 0 view .LVU156
 564 00c6 1FFA8CF0 		uxth	r0, ip
 565              	.LVL54:
1386:Src/register_interface.c ****   {
 566              		.loc 1 1386 50 view .LVU157
 567 00ca 5318     		adds	r3, r2, r1
 568 00cc 06E0     		b	.L105
 569              	.LVL55:
 570              	.L106:
1391:Src/register_interface.c ****   }
 571              		.loc 1 1391 11 view .LVU158
 572 00ce 2180     		strh	r1, [r4]	@ movhi
1386:Src/register_interface.c ****   {
 573              		.loc 1 1386 9 is_stmt 1 view .LVU159
 574 00d0 9EF90050 		ldrsb	r5, [lr]
 575 00d4 0133     		adds	r3, r3, #1
 576              	.LVL56:
1386:Src/register_interface.c ****   {
 577              		.loc 1 1386 9 is_stmt 0 view .LVU160
 578 00d6 002D     		cmp	r5, #0
 579 00d8 00F0A681 		beq	.L104
 580              	.L105:
1388:Src/register_interface.c ****     tempdestString++;
 581              		.loc 1 1388 5 is_stmt 1 view .LVU161
1389:Src/register_interface.c ****     tempsrcString++;
 582              		.loc 1 1389 5 view .LVU162
ARM GAS  C:\Users\ep_ygh\AppData\Local\Temp\ccaRZNy5.s 			page 38


 583              	.LVL57:
1391:Src/register_interface.c ****   }
 584              		.loc 1 1391 19 is_stmt 0 view .LVU163
 585 00dc 01F1010C 		add	ip, r1, #1
1386:Src/register_interface.c ****   {
 586              		.loc 1 1386 40 view .LVU164
 587 00e0 8842     		cmp	r0, r1
1389:Src/register_interface.c ****     tempsrcString++;
 588              		.loc 1 1389 19 view .LVU165
 589 00e2 9E46     		mov	lr, r3
 590              	.LVL58:
1390:Src/register_interface.c ****     *size = *size + 1U;
 591              		.loc 1 1390 5 is_stmt 1 view .LVU166
1391:Src/register_interface.c ****   }
 592              		.loc 1 1391 5 view .LVU167
1391:Src/register_interface.c ****   }
 593              		.loc 1 1391 19 is_stmt 0 view .LVU168
 594 00e4 1FFA8CF1 		uxth	r1, ip
1386:Src/register_interface.c ****   {
 595              		.loc 1 1386 40 view .LVU169
 596 00e8 F1D8     		bhi	.L106
 597              	.LVL59:
 598              	.L168:
1386:Src/register_interface.c ****   {
 599              		.loc 1 1386 40 view .LVU170
 600              	.LBE62:
 601              	.LBE61:
 524:Src/register_interface.c ****       /* Used to compute String length stored in RXBUFF even if Reg does not exist */
 602              		.loc 1 524 14 view .LVU171
 603 00ea 0420     		movs	r0, #4
 604              	.LVL60:
 524:Src/register_interface.c ****       /* Used to compute String length stored in RXBUFF even if Reg does not exist */
 605              		.loc 1 524 14 view .LVU172
 606              	.LBE60:
 639:Src/register_interface.c **** }
 607              		.loc 1 639 3 is_stmt 1 view .LVU173
 608              	.L196:
 640:Src/register_interface.c **** 
 609              		.loc 1 640 1 is_stmt 0 view .LVU174
 610 00ec 04B0     		add	sp, sp, #16
 611              	.LCFI9:
 612              		.cfi_remember_state
 613              		.cfi_def_cfa_offset 24
 614              		@ sp needed
 615 00ee BDE8F081 		pop	{r4, r5, r6, r7, r8, pc}
 616              	.LVL61:
 617              	.L46:
 618              	.LCFI10:
 619              		.cfi_restore_state
 620              	.LBB65:
 486:Src/register_interface.c **** 
 621              		.loc 1 486 7 is_stmt 1 view .LVU175
 488:Src/register_interface.c ****       {
 622              		.loc 1 488 7 view .LVU176
 623 00f2 9828     		cmp	r0, #152
 624 00f4 00F0BA81 		beq	.L101
 625 00f8 00F2A980 		bhi	.L102
ARM GAS  C:\Users\ep_ygh\AppData\Local\Temp\ccaRZNy5.s 			page 39


 626 00fc 20F04000 		bic	r0, r0, #64
 627              	.LVL62:
 493:Src/register_interface.c ****           break;
 628              		.loc 1 493 18 is_stmt 0 view .LVU177
 629 0100 1828     		cmp	r0, #24
 630 0102 14BF     		ite	ne
 631 0104 0520     		movne	r0, #5
 632 0106 0420     		moveq	r0, #4
 633              	.LVL63:
 634              	.L103:
 516:Src/register_interface.c ****       break;
 635              		.loc 1 516 7 is_stmt 1 view .LVU178
 516:Src/register_interface.c ****       break;
 636              		.loc 1 516 13 is_stmt 0 view .LVU179
 637 0108 0423     		movs	r3, #4
 638 010a 2380     		strh	r3, [r4]	@ movhi
 517:Src/register_interface.c ****     }
 639              		.loc 1 517 7 is_stmt 1 view .LVU180
 640              	.LBE65:
 640:Src/register_interface.c **** 
 641              		.loc 1 640 1 is_stmt 0 view .LVU181
 642 010c 04B0     		add	sp, sp, #16
 643              	.LCFI11:
 644              		.cfi_remember_state
 645              		.cfi_def_cfa_offset 24
 646              		@ sp needed
 647 010e BDE8F081 		pop	{r4, r5, r6, r7, r8, pc}
 648              	.LVL64:
 649              	.L43:
 650              	.LCFI12:
 651              		.cfi_restore_state
 652              	.LBB66:
 533:Src/register_interface.c ****       /* The size consumed by the structure is the structure size + 2 bytes used to store the size 
 653              		.loc 1 533 7 is_stmt 1 view .LVU182
 533:Src/register_interface.c ****       /* The size consumed by the structure is the structure size + 2 bytes used to store the size 
 654              		.loc 1 533 16 is_stmt 0 view .LVU183
 655 0112 1288     		ldrh	r2, [r2]
 656              	.LVL65:
 535:Src/register_interface.c ****       uint8_t *rawData = data; /* rawData points to the first data (after size extraction) */
 657              		.loc 1 535 7 is_stmt 1 view .LVU184
 535:Src/register_interface.c ****       uint8_t *rawData = data; /* rawData points to the first data (after size extraction) */
 658              		.loc 1 535 23 is_stmt 0 view .LVU185
 659 0114 931C     		adds	r3, r2, #2
 660 0116 9BB2     		uxth	r3, r3
 540:Src/register_interface.c ****       {
 661              		.loc 1 540 10 view .LVU186
 662 0118 1FFA8CFC 		uxth	ip, ip
 663 011c 6345     		cmp	r3, ip
 535:Src/register_interface.c ****       uint8_t *rawData = data; /* rawData points to the first data (after size extraction) */
 664              		.loc 1 535 13 view .LVU187
 665 011e 2380     		strh	r3, [r4]	@ movhi
 536:Src/register_interface.c ****       rawData++;
 666              		.loc 1 536 7 is_stmt 1 view .LVU188
 667              	.LVL66:
 537:Src/register_interface.c ****       rawData++;
 668              		.loc 1 537 7 view .LVU189
 538:Src/register_interface.c **** 
ARM GAS  C:\Users\ep_ygh\AppData\Local\Temp\ccaRZNy5.s 			page 40


 669              		.loc 1 538 7 view .LVU190
 540:Src/register_interface.c ****       {
 670              		.loc 1 540 7 view .LVU191
 540:Src/register_interface.c ****       {
 671              		.loc 1 540 10 is_stmt 0 view .LVU192
 672 0120 00F29281 		bhi	.L175
 673 0124 B0F50A7F 		cmp	r0, #552
 538:Src/register_interface.c **** 
 674              		.loc 1 538 14 view .LVU193
 675 0128 0EF10201 		add	r1, lr, #2
 676              	.LVL67:
 549:Src/register_interface.c ****         {
 677              		.loc 1 549 9 is_stmt 1 view .LVU194
 678 012c 00F0C981 		beq	.L108
 679 0130 00F26E81 		bhi	.L109
 680 0134 B0F5D47F 		cmp	r0, #424
 681 0138 00F0B481 		beq	.L110
 682 013c 40F25D81 		bls	.L176
 683 0140 B0F5F47F 		cmp	r0, #488
 684 0144 40F0AC81 		bne	.L169
 685              	.LBB67:
 573:Src/register_interface.c ****             uint16_t duration;
 686              		.loc 1 573 13 view .LVU195
 574:Src/register_interface.c **** 
 687              		.loc 1 574 13 view .LVU196
 576:Src/register_interface.c ****             duration = *(uint16_t *)&rawData[4]; //cstat !MISRAC2012-Rule-11.3
 688              		.loc 1 576 13 view .LVU197
 689              	.LVL68:
 577:Src/register_interface.c ****             MCI_ExecTorqueRamp(pMCIN, (int16_t)torque, duration);
 690              		.loc 1 577 13 view .LVU198
 578:Src/register_interface.c ****             break;
 691              		.loc 1 578 13 view .LVU199
 692 0148 8448     		ldr	r0, .L199
 693              	.LVL69:
 578:Src/register_interface.c ****             break;
 694              		.loc 1 578 13 is_stmt 0 view .LVU200
 695 014a BEF80620 		ldrh	r2, [lr, #6]
 696              	.LVL70:
 578:Src/register_interface.c ****             break;
 697              		.loc 1 578 13 view .LVU201
 698 014e BEF90210 		ldrsh	r1, [lr, #2]
 699              	.LVL71:
 578:Src/register_interface.c ****             break;
 700              		.loc 1 578 13 view .LVU202
 701 0152 FFF7FEFF 		bl	MCI_ExecTorqueRamp
 702              	.LVL72:
 579:Src/register_interface.c ****           }
 703              		.loc 1 579 13 is_stmt 1 view .LVU203
 704              	.LBE67:
 705              	.LBE66:
 168:Src/register_interface.c ****   uint8_t motorID=0;
 706              		.loc 1 168 11 is_stmt 0 view .LVU204
 707 0156 0020     		movs	r0, #0
 708              	.LBB75:
 709              	.LBB68:
 579:Src/register_interface.c ****           }
 710              		.loc 1 579 13 view .LVU205
ARM GAS  C:\Users\ep_ygh\AppData\Local\Temp\ccaRZNy5.s 			page 41


 711 0158 72E7     		b	.L163
 712              	.LVL73:
 713              	.L144:
 579:Src/register_interface.c ****           }
 714              		.loc 1 579 13 view .LVU206
 715              	.LBE68:
 716              	.LBE75:
 717              	.LBB76:
 480:Src/register_interface.c ****       break;
 718              		.loc 1 480 13 view .LVU207
 719 015a 0223     		movs	r3, #2
 720 015c 0420     		movs	r0, #4
 721              	.LVL74:
 480:Src/register_interface.c ****       break;
 722              		.loc 1 480 7 is_stmt 1 view .LVU208
 480:Src/register_interface.c ****       break;
 723              		.loc 1 480 13 is_stmt 0 view .LVU209
 724 015e 2380     		strh	r3, [r4]	@ movhi
 481:Src/register_interface.c ****     }
 725              		.loc 1 481 7 is_stmt 1 view .LVU210
 726 0160 A7E7     		b	.L177
 727              	.LVL75:
 728              	.L172:
 481:Src/register_interface.c ****     }
 729              		.loc 1 481 7 is_stmt 0 view .LVU211
 730 0162 B0F5547F 		cmp	r0, #848
 731 0166 00F02182 		beq	.L72
 732 016a B0F5647F 		cmp	r0, #912
 733 016e 3BD1     		bne	.L178
 734              	.LBB56:
 358:Src/register_interface.c ****           int16_t hC2;
 735              		.loc 1 358 11 is_stmt 1 view .LVU212
 359:Src/register_interface.c ****           STO_PLL_GetObserverGains(&STO_PLL_M1, &hC1, &hC2);
 736              		.loc 1 359 11 view .LVU213
 360:Src/register_interface.c ****           STO_PLL_SetObserverGains(&STO_PLL_M1, hC1, (int16_t)regdata16);
 737              		.loc 1 360 11 view .LVU214
 738 0170 7B48     		ldr	r0, .L199+4
 739              	.LVL76:
 360:Src/register_interface.c ****           STO_PLL_SetObserverGains(&STO_PLL_M1, hC1, (int16_t)regdata16);
 740              		.loc 1 360 11 is_stmt 0 view .LVU215
 741 0172 01AA     		add	r2, sp, #4
 742              	.LVL77:
 360:Src/register_interface.c ****           STO_PLL_SetObserverGains(&STO_PLL_M1, hC1, (int16_t)regdata16);
 743              		.loc 1 360 11 view .LVU216
 744 0174 0DF10201 		add	r1, sp, #2
 745 0178 FFF7FEFF 		bl	STO_PLL_GetObserverGains
 746              	.LVL78:
 361:Src/register_interface.c ****           break;
 747              		.loc 1 361 11 is_stmt 1 view .LVU217
 748 017c 7848     		ldr	r0, .L199+4
 749 017e BDF90210 		ldrsh	r1, [sp, #2]
 750 0182 2AB2     		sxth	r2, r5
 751 0184 FFF7FEFF 		bl	STO_PLL_SetObserverGains
 752              	.LVL79:
 362:Src/register_interface.c ****         }
 753              		.loc 1 362 11 view .LVU218
 754              	.LBE56:
ARM GAS  C:\Users\ep_ygh\AppData\Local\Temp\ccaRZNy5.s 			page 42


 755              	.LBE76:
 168:Src/register_interface.c ****   uint8_t motorID=0;
 756              		.loc 1 168 11 is_stmt 0 view .LVU219
 757 0188 0020     		movs	r0, #0
 758 018a 90E7     		b	.L66
 759              	.LVL80:
 760              	.L171:
 761              	.LBB77:
 168:Src/register_interface.c ****   uint8_t motorID=0;
 762              		.loc 1 168 11 view .LVU220
 763 018c B0F5C87F 		cmp	r0, #400
 764 0190 00F0E881 		beq	.L61
 765 0194 40F2EE80 		bls	.L179
 766 0198 B0F5047F 		cmp	r0, #528
 767 019c 00F02082 		beq	.L67
 768 01a0 B0F5247F 		cmp	r0, #656
 769 01a4 4AD1     		bne	.L180
 284:Src/register_interface.c ****           break;
 770              		.loc 1 284 11 is_stmt 1 view .LVU221
 771 01a6 6F48     		ldr	r0, .L199+8
 772              	.LVL81:
 284:Src/register_interface.c ****           break;
 773              		.loc 1 284 11 is_stmt 0 view .LVU222
 774 01a8 29B2     		sxth	r1, r5
 775 01aa FFF7FEFF 		bl	PID_SetKP
 776              	.LVL82:
 285:Src/register_interface.c ****         }
 777              		.loc 1 285 11 is_stmt 1 view .LVU223
 778              	.LBE77:
 168:Src/register_interface.c ****   uint8_t motorID=0;
 779              		.loc 1 168 11 is_stmt 0 view .LVU224
 780 01ae 0020     		movs	r0, #0
 781              	.LBB78:
 285:Src/register_interface.c ****         }
 782              		.loc 1 285 11 view .LVU225
 783 01b0 7DE7     		b	.L66
 784              	.LVL83:
 785              	.L58:
 285:Src/register_interface.c ****         }
 786              		.loc 1 285 11 view .LVU226
 787 01b2 41F29053 		movw	r3, #5520
 788 01b6 9842     		cmp	r0, r3
 789 01b8 00F0CE81 		beq	.L80
 790 01bc 6DD8     		bhi	.L81
 791 01be 41F29043 		movw	r3, #5264
 792 01c2 9842     		cmp	r0, r3
 793 01c4 00F0BC81 		beq	.L82
 794 01c8 54D9     		bls	.L181
 795 01ca 41F21053 		movw	r3, #5392
 796 01ce 9842     		cmp	r0, r3
 797 01d0 00F0E081 		beq	.L89
 798 01d4 41F25053 		movw	r3, #5456
 799 01d8 9842     		cmp	r0, r3
 800 01da 0FD1     		bne	.L182
 418:Src/register_interface.c ****           break;
 801              		.loc 1 418 11 is_stmt 1 view .LVU227
 802 01dc 6148     		ldr	r0, .L199+8
ARM GAS  C:\Users\ep_ygh\AppData\Local\Temp\ccaRZNy5.s 			page 43


 803              	.LVL84:
 418:Src/register_interface.c ****           break;
 804              		.loc 1 418 11 is_stmt 0 view .LVU228
 805 01de 2946     		mov	r1, r5
 806 01e0 FFF7FEFF 		bl	PID_SetKIDivisorPOW2
 807              	.LVL85:
 419:Src/register_interface.c ****         }
 808              		.loc 1 419 11 is_stmt 1 view .LVU229
 809              	.LBE78:
 168:Src/register_interface.c ****   uint8_t motorID=0;
 810              		.loc 1 168 11 is_stmt 0 view .LVU230
 811 01e4 0020     		movs	r0, #0
 812              	.LBB79:
 419:Src/register_interface.c ****         }
 813              		.loc 1 419 11 view .LVU231
 814 01e6 62E7     		b	.L66
 815              	.LVL86:
 816              	.L178:
 419:Src/register_interface.c ****         }
 817              		.loc 1 419 11 view .LVU232
 818 01e8 B0F5447F 		cmp	r0, #784
 819 01ec 40F08C80 		bne	.L126
 296:Src/register_interface.c ****           break;
 820              		.loc 1 296 11 is_stmt 1 view .LVU233
 821 01f0 5C48     		ldr	r0, .L199+8
 822              	.LVL87:
 296:Src/register_interface.c ****           break;
 823              		.loc 1 296 11 is_stmt 0 view .LVU234
 824 01f2 29B2     		sxth	r1, r5
 825 01f4 FFF7FEFF 		bl	PID_SetKD
 826              	.LVL88:
 297:Src/register_interface.c ****         }
 827              		.loc 1 297 11 is_stmt 1 view .LVU235
 828              	.LBE79:
 168:Src/register_interface.c ****   uint8_t motorID=0;
 829              		.loc 1 168 11 is_stmt 0 view .LVU236
 830 01f8 0020     		movs	r0, #0
 831              	.LBB80:
 297:Src/register_interface.c ****         }
 832              		.loc 1 297 11 view .LVU237
 833 01fa 58E7     		b	.L66
 834              	.LVL89:
 835              	.L182:
 297:Src/register_interface.c ****         }
 836              		.loc 1 297 11 view .LVU238
 837 01fc 41F2D043 		movw	r3, #5328
 838 0200 9842     		cmp	r0, r3
 839 0202 40F08180 		bne	.L126
 406:Src/register_interface.c ****           break;
 840              		.loc 1 406 11 is_stmt 1 view .LVU239
 841 0206 5848     		ldr	r0, .L199+12
 842              	.LVL90:
 406:Src/register_interface.c ****           break;
 843              		.loc 1 406 11 is_stmt 0 view .LVU240
 844 0208 2946     		mov	r1, r5
 845 020a FFF7FEFF 		bl	PID_SetKDDivisorPOW2
 846              	.LVL91:
ARM GAS  C:\Users\ep_ygh\AppData\Local\Temp\ccaRZNy5.s 			page 44


 407:Src/register_interface.c ****         }
 847              		.loc 1 407 11 is_stmt 1 view .LVU241
 848              	.LBE80:
 168:Src/register_interface.c ****   uint8_t motorID=0;
 849              		.loc 1 168 11 is_stmt 0 view .LVU242
 850 020e 0020     		movs	r0, #0
 851              	.LBB81:
 407:Src/register_interface.c ****         }
 852              		.loc 1 407 11 view .LVU243
 853 0210 4DE7     		b	.L66
 854              	.LVL92:
 855              	.L174:
 407:Src/register_interface.c ****         }
 856              		.loc 1 407 11 view .LVU244
 857 0212 79D8     		bhi	.L126
 858 0214 B0F50D6F 		cmp	r0, #2256
 859 0218 9FD0     		beq	.L144
 860 021a 21D9     		bls	.L183
 861 021c B0F5116F 		cmp	r0, #2320
 862 0220 14BF     		ite	ne
 863 0222 0520     		movne	r0, #5
 864              	.LVL93:
 407:Src/register_interface.c ****         }
 865              		.loc 1 407 11 view .LVU245
 866 0224 0420     		moveq	r0, #4
 867 0226 42E7     		b	.L66
 868              	.LVL94:
 869              	.L173:
 407:Src/register_interface.c ****         }
 870              		.loc 1 407 11 view .LVU246
 871 0228 B0F5926F 		cmp	r0, #1168
 872 022c 40F0BF80 		bne	.L184
 373:Src/register_interface.c ****           break;
 873              		.loc 1 373 11 is_stmt 1 view .LVU247
 874 0230 4E48     		ldr	r0, .L199+16
 875              	.LVL95:
 373:Src/register_interface.c ****           break;
 876              		.loc 1 373 11 is_stmt 0 view .LVU248
 877 0232 29B2     		sxth	r1, r5
 878 0234 FFF7FEFF 		bl	PID_SetKP
 879              	.LVL96:
 374:Src/register_interface.c ****         }
 880              		.loc 1 374 11 is_stmt 1 view .LVU249
 881              	.LBE81:
 168:Src/register_interface.c ****   uint8_t motorID=0;
 882              		.loc 1 168 11 is_stmt 0 view .LVU250
 883 0238 0020     		movs	r0, #0
 884              	.LBB82:
 374:Src/register_interface.c ****         }
 885              		.loc 1 374 11 view .LVU251
 886 023a 38E7     		b	.L66
 887              	.LVL97:
 888              	.L180:
 374:Src/register_interface.c ****         }
 889              		.loc 1 374 11 view .LVU252
 890 023c B0F5E87F 		cmp	r0, #464
 891 0240 62D1     		bne	.L126
ARM GAS  C:\Users\ep_ygh\AppData\Local\Temp\ccaRZNy5.s 			page 45


 272:Src/register_interface.c ****           break;
 892              		.loc 1 272 11 is_stmt 1 view .LVU253
 893 0242 4B48     		ldr	r0, .L199+20
 894              	.LVL98:
 272:Src/register_interface.c ****           break;
 895              		.loc 1 272 11 is_stmt 0 view .LVU254
 896 0244 29B2     		sxth	r1, r5
 897 0246 FFF7FEFF 		bl	PID_SetKI
 898              	.LVL99:
 273:Src/register_interface.c ****         }
 899              		.loc 1 273 11 is_stmt 1 view .LVU255
 900              	.LBE82:
 168:Src/register_interface.c ****   uint8_t motorID=0;
 901              		.loc 1 168 11 is_stmt 0 view .LVU256
 902 024a 0020     		movs	r0, #0
 903              	.LBB83:
 273:Src/register_interface.c ****         }
 904              		.loc 1 273 11 view .LVU257
 905 024c 2FE7     		b	.L66
 906              	.LVL100:
 907              	.L102:
 273:Src/register_interface.c ****         }
 908              		.loc 1 273 11 view .LVU258
 909              	.LBE83:
 910              	.LBB84:
 911 024e D828     		cmp	r0, #216
 912 0250 00F02481 		beq	.L148
 493:Src/register_interface.c ****           break;
 913              		.loc 1 493 18 view .LVU259
 914 0254 B0F58C7F 		cmp	r0, #280
 915 0258 14BF     		ite	ne
 916 025a 0520     		movne	r0, #5
 917              	.LVL101:
 493:Src/register_interface.c ****           break;
 918              		.loc 1 493 18 view .LVU260
 919 025c 0420     		moveq	r0, #4
 920 025e 53E7     		b	.L103
 921              	.LVL102:
 922              	.L183:
 493:Src/register_interface.c ****           break;
 923              		.loc 1 493 18 view .LVU261
 924              	.LBE84:
 925              	.LBB85:
 926 0260 B0F5056F 		cmp	r0, #2128
 927 0264 3FF479AF 		beq	.L144
 928 0268 B0F5096F 		cmp	r0, #2192
 929 026c 14BF     		ite	ne
 930 026e 0520     		movne	r0, #5
 931              	.LVL103:
 493:Src/register_interface.c ****           break;
 932              		.loc 1 493 18 view .LVU262
 933 0270 0420     		moveq	r0, #4
 934 0272 1CE7     		b	.L66
 935              	.LVL104:
 936              	.L181:
 493:Src/register_interface.c ****           break;
 937              		.loc 1 493 18 view .LVU263
ARM GAS  C:\Users\ep_ygh\AppData\Local\Temp\ccaRZNy5.s 			page 46


 938 0274 B0F5656F 		cmp	r0, #3664
 939 0278 00F0E480 		beq	.L142
 940 027c 2AD9     		bls	.L185
 941 027e B0F5696F 		cmp	r0, #3728
 942 0282 00F0DF80 		beq	.L142
 943 0286 41F25043 		movw	r3, #5200
 944 028a 9842     		cmp	r0, r3
 945 028c 3CD1     		bne	.L126
 394:Src/register_interface.c ****           break;
 946              		.loc 1 394 11 is_stmt 1 view .LVU264
 947 028e 3648     		ldr	r0, .L199+12
 948              	.LVL105:
 394:Src/register_interface.c ****           break;
 949              		.loc 1 394 11 is_stmt 0 view .LVU265
 950 0290 2946     		mov	r1, r5
 951 0292 FFF7FEFF 		bl	PID_SetKPDivisorPOW2
 952              	.LVL106:
 395:Src/register_interface.c ****         }
 953              		.loc 1 395 11 is_stmt 1 view .LVU266
 954              	.LBE85:
 168:Src/register_interface.c ****   uint8_t motorID=0;
 955              		.loc 1 168 11 is_stmt 0 view .LVU267
 956 0296 0020     		movs	r0, #0
 957              	.LBB86:
 395:Src/register_interface.c ****         }
 958              		.loc 1 395 11 view .LVU268
 959 0298 09E7     		b	.L66
 960              	.LVL107:
 961              	.L81:
 395:Src/register_interface.c ****         }
 962              		.loc 1 395 11 view .LVU269
 963 029a 41F6D003 		movw	r3, #6352
 964 029e 9842     		cmp	r0, r3
 965 02a0 00F04881 		beq	.L92
 966 02a4 32D9     		bls	.L186
 967 02a6 41F6D023 		movw	r3, #6864
 968 02aa 9842     		cmp	r0, r3
 969 02ac 00F08C81 		beq	.L97
 970 02b0 20D9     		bls	.L187
 971 02b2 41F65833 		movw	r3, #7000
 972 02b6 9842     		cmp	r0, r3
 973 02b8 3FF44FAF 		beq	.L144
 974 02bc 20F04000 		bic	r0, r0, #64
 975              	.LVL108:
 395:Src/register_interface.c ****         }
 976              		.loc 1 395 11 view .LVU270
 977 02c0 94BF     		ite	ls
 978 02c2 41F61033 		movwls	r3, #6928
 979 02c6 41F69033 		movwhi	r3, #7056
 980 02ca 9842     		cmp	r0, r3
 981 02cc 14BF     		ite	ne
 982 02ce 0520     		movne	r0, #5
 983 02d0 0420     		moveq	r0, #4
 984 02d2 ECE6     		b	.L66
 985              	.LVL109:
 986              	.L185:
 395:Src/register_interface.c ****         }
ARM GAS  C:\Users\ep_ygh\AppData\Local\Temp\ccaRZNy5.s 			page 47


 987              		.loc 1 395 11 view .LVU271
 988 02d4 B0F5396F 		cmp	r0, #2960
 989 02d8 3FF43FAF 		beq	.L144
 990 02dc 2FD9     		bls	.L188
 991 02de B0F5456F 		cmp	r0, #3152
 992 02e2 3FF43AAF 		beq	.L144
 993 02e6 20D9     		bls	.L189
 994 02e8 B0F5496F 		cmp	r0, #3216
 995 02ec 14BF     		ite	ne
 996 02ee 0520     		movne	r0, #5
 997              	.LVL110:
 395:Src/register_interface.c ****         }
 998              		.loc 1 395 11 view .LVU272
 999 02f0 0420     		moveq	r0, #4
 1000 02f2 DCE6     		b	.L66
 1001              	.LVL111:
 1002              	.L187:
 395:Src/register_interface.c ****         }
 1003              		.loc 1 395 11 view .LVU273
 1004 02f4 41F61013 		movw	r3, #6416
 1005 02f8 9842     		cmp	r0, r3
 1006 02fa 51D1     		bne	.L190
 454:Src/register_interface.c ****           break;
 1007              		.loc 1 454 11 is_stmt 1 view .LVU274
 1008 02fc 1B48     		ldr	r0, .L199+16
 1009              	.LVL112:
 454:Src/register_interface.c ****           break;
 1010              		.loc 1 454 11 is_stmt 0 view .LVU275
 1011 02fe 2946     		mov	r1, r5
 1012 0300 FFF7FEFF 		bl	PID_SetKPDivisorPOW2
 1013              	.LVL113:
 455:Src/register_interface.c ****         }
 1014              		.loc 1 455 11 is_stmt 1 view .LVU276
 1015              	.LBE86:
 168:Src/register_interface.c ****   uint8_t motorID=0;
 1016              		.loc 1 168 11 is_stmt 0 view .LVU277
 1017 0304 0020     		movs	r0, #0
 1018              	.LBB87:
 455:Src/register_interface.c ****         }
 1019              		.loc 1 455 11 view .LVU278
 1020 0306 D2E6     		b	.L66
 1021              	.LVL114:
 1022              	.L126:
 476:Src/register_interface.c ****           break;
 1023              		.loc 1 476 18 view .LVU279
 1024 0308 0520     		movs	r0, #5
 1025              	.LVL115:
 476:Src/register_interface.c ****           break;
 1026              		.loc 1 476 18 view .LVU280
 1027 030a D0E6     		b	.L66
 1028              	.LVL116:
 1029              	.L186:
 476:Src/register_interface.c ****           break;
 1030              		.loc 1 476 18 view .LVU281
 1031 030c 41F21063 		movw	r3, #5648
 1032 0310 9842     		cmp	r0, r3
 1033 0312 00F04581 		beq	.L94
ARM GAS  C:\Users\ep_ygh\AppData\Local\Temp\ccaRZNy5.s 			page 48


 1034 0316 41F25063 		movw	r3, #5712
 1035 031a 9842     		cmp	r0, r3
 1036 031c 36D1     		bne	.L191
 442:Src/register_interface.c ****           break;
 1037              		.loc 1 442 11 is_stmt 1 view .LVU282
 1038 031e 1448     		ldr	r0, .L199+20
 1039              	.LVL117:
 442:Src/register_interface.c ****           break;
 1040              		.loc 1 442 11 is_stmt 0 view .LVU283
 1041 0320 2946     		mov	r1, r5
 1042 0322 FFF7FEFF 		bl	PID_SetKDDivisorPOW2
 1043              	.LVL118:
 443:Src/register_interface.c ****         }
 1044              		.loc 1 443 11 is_stmt 1 view .LVU284
 1045              	.LBE87:
 168:Src/register_interface.c ****   uint8_t motorID=0;
 1046              		.loc 1 168 11 is_stmt 0 view .LVU285
 1047 0326 0020     		movs	r0, #0
 1048              	.LBB88:
 443:Src/register_interface.c ****         }
 1049              		.loc 1 443 11 view .LVU286
 1050 0328 C1E6     		b	.L66
 1051              	.LVL119:
 1052              	.L189:
 443:Src/register_interface.c ****         }
 1053              		.loc 1 443 11 view .LVU287
 1054 032a B0F53D6F 		cmp	r0, #3024
 1055 032e 3FF414AF 		beq	.L144
 1056 0332 B0F5416F 		cmp	r0, #3088
 1057 0336 14BF     		ite	ne
 1058 0338 0520     		movne	r0, #5
 1059              	.LVL120:
 443:Src/register_interface.c ****         }
 1060              		.loc 1 443 11 view .LVU288
 1061 033a 0420     		moveq	r0, #4
 1062 033c B7E6     		b	.L66
 1063              	.LVL121:
 1064              	.L188:
 443:Src/register_interface.c ****         }
 1065              		.loc 1 443 11 view .LVU289
 1066 033e B0F5256F 		cmp	r0, #2640
 1067 0342 3FF40AAF 		beq	.L144
 1068 0346 3ED9     		bls	.L192
 1069 0348 B0F5296F 		cmp	r0, #2704
 1070 034c 3FF405AF 		beq	.L144
 1071 0350 B0F5356F 		cmp	r0, #2896
 1072 0354 14BF     		ite	ne
 1073 0356 0520     		movne	r0, #5
 1074              	.LVL122:
 443:Src/register_interface.c ****         }
 1075              		.loc 1 443 11 view .LVU290
 1076 0358 0420     		moveq	r0, #4
 1077 035a A8E6     		b	.L66
 1078              	.L200:
 1079              		.align	2
 1080              	.L199:
 1081 035c 00000000 		.word	Mci
ARM GAS  C:\Users\ep_ygh\AppData\Local\Temp\ccaRZNy5.s 			page 49


 1082 0360 00000000 		.word	STO_PLL_M1
 1083 0364 00000000 		.word	PIDIdHandle_M1
 1084 0368 00000000 		.word	PIDSpeedHandle_M1
 1085 036c 34000000 		.word	STO_PLL_M1+52
 1086 0370 00000000 		.word	PIDIqHandle_M1
 1087              	.LVL123:
 1088              	.L179:
 443:Src/register_interface.c ****         }
 1089              		.loc 1 443 11 view .LVU291
 1090 0374 D028     		cmp	r0, #208
 1091 0376 00F03981 		beq	.L63
 1092 037a B0F5887F 		cmp	r0, #272
 1093 037e 34D1     		bne	.L193
 260:Src/register_interface.c ****           break;
 1094              		.loc 1 260 11 is_stmt 1 view .LVU292
 1095 0380 9D48     		ldr	r0, .L201
 1096              	.LVL124:
 260:Src/register_interface.c ****           break;
 1097              		.loc 1 260 11 is_stmt 0 view .LVU293
 1098 0382 29B2     		sxth	r1, r5
 1099 0384 FFF7FEFF 		bl	PID_SetKD
 1100              	.LVL125:
 261:Src/register_interface.c ****         }
 1101              		.loc 1 261 11 is_stmt 1 view .LVU294
 1102              	.LBE88:
 168:Src/register_interface.c ****   uint8_t motorID=0;
 1103              		.loc 1 168 11 is_stmt 0 view .LVU295
 1104 0388 0020     		movs	r0, #0
 1105              	.LBB89:
 261:Src/register_interface.c ****         }
 1106              		.loc 1 261 11 view .LVU296
 1107 038a 90E6     		b	.L66
 1108              	.LVL126:
 1109              	.L191:
 261:Src/register_interface.c ****         }
 1110              		.loc 1 261 11 view .LVU297
 1111 038c 41F2D053 		movw	r3, #5584
 1112 0390 9842     		cmp	r0, r3
 1113 0392 B9D1     		bne	.L126
 430:Src/register_interface.c ****           break;
 1114              		.loc 1 430 11 is_stmt 1 view .LVU298
 1115 0394 9948     		ldr	r0, .L201+4
 1116              	.LVL127:
 430:Src/register_interface.c ****           break;
 1117              		.loc 1 430 11 is_stmt 0 view .LVU299
 1118 0396 2946     		mov	r1, r5
 1119 0398 FFF7FEFF 		bl	PID_SetKPDivisorPOW2
 1120              	.LVL128:
 431:Src/register_interface.c ****         }
 1121              		.loc 1 431 11 is_stmt 1 view .LVU300
 1122              	.LBE89:
 168:Src/register_interface.c ****   uint8_t motorID=0;
 1123              		.loc 1 168 11 is_stmt 0 view .LVU301
 1124 039c 0020     		movs	r0, #0
 1125              	.LBB90:
 431:Src/register_interface.c ****         }
 1126              		.loc 1 431 11 view .LVU302
ARM GAS  C:\Users\ep_ygh\AppData\Local\Temp\ccaRZNy5.s 			page 50


 1127 039e 86E6     		b	.L66
 1128              	.LVL129:
 1129              	.L190:
 431:Src/register_interface.c ****         }
 1130              		.loc 1 431 11 view .LVU303
 1131 03a0 41F69023 		movw	r3, #6800
 1132 03a4 9842     		cmp	r0, r3
 1133 03a6 14BF     		ite	ne
 1134 03a8 0520     		movne	r0, #5
 1135 03aa 0420     		moveq	r0, #4
 1136              	.LVL130:
 431:Src/register_interface.c ****         }
 1137              		.loc 1 431 11 view .LVU304
 1138 03ac 7FE6     		b	.L66
 1139              	.LVL131:
 1140              	.L184:
 431:Src/register_interface.c ****         }
 1141              		.loc 1 431 11 view .LVU305
 1142 03ae ABD3     		bcc	.L126
 1143 03b0 B0F5F26F 		cmp	r0, #1936
 1144 03b4 3FF4D1AE 		beq	.L144
 1145 03b8 0FD9     		bls	.L194
 1146 03ba B0F5FA6F 		cmp	r0, #2000
 1147 03be 14BF     		ite	ne
 1148 03c0 0520     		movne	r0, #5
 1149              	.LVL132:
 431:Src/register_interface.c ****         }
 1150              		.loc 1 431 11 view .LVU306
 1151 03c2 0420     		moveq	r0, #4
 1152 03c4 73E6     		b	.L66
 1153              	.LVL133:
 1154              	.L192:
 431:Src/register_interface.c ****         }
 1155              		.loc 1 431 11 view .LVU307
 1156 03c6 B0F51D6F 		cmp	r0, #2512
 1157 03ca 3FF4C6AE 		beq	.L144
 1158 03ce B0F5216F 		cmp	r0, #2576
 1159 03d2 14BF     		ite	ne
 1160 03d4 0520     		movne	r0, #5
 1161              	.LVL134:
 431:Src/register_interface.c ****         }
 1162              		.loc 1 431 11 view .LVU308
 1163 03d6 0420     		moveq	r0, #4
 1164 03d8 69E6     		b	.L66
 1165              	.LVL135:
 1166              	.L194:
 431:Src/register_interface.c ****         }
 1167              		.loc 1 431 11 view .LVU309
 1168 03da 20F04000 		bic	r0, r0, #64
 1169              	.LVL136:
 431:Src/register_interface.c ****         }
 1170              		.loc 1 431 11 view .LVU310
 1171 03de B0F5B26F 		cmp	r0, #1424
 1172 03e2 14BF     		ite	ne
 1173 03e4 0520     		movne	r0, #5
 1174 03e6 0420     		moveq	r0, #4
 1175 03e8 61E6     		b	.L66
ARM GAS  C:\Users\ep_ygh\AppData\Local\Temp\ccaRZNy5.s 			page 51


 1176              	.LVL137:
 1177              	.L193:
 431:Src/register_interface.c ****         }
 1178              		.loc 1 431 11 view .LVU311
 1179 03ea 9028     		cmp	r0, #144
 1180 03ec 8CD1     		bne	.L126
 248:Src/register_interface.c ****           break;
 1181              		.loc 1 248 11 is_stmt 1 view .LVU312
 1182 03ee 8248     		ldr	r0, .L201
 1183              	.LVL138:
 248:Src/register_interface.c ****           break;
 1184              		.loc 1 248 11 is_stmt 0 view .LVU313
 1185 03f0 29B2     		sxth	r1, r5
 1186 03f2 FFF7FEFF 		bl	PID_SetKP
 1187              	.LVL139:
 249:Src/register_interface.c ****         }
 1188              		.loc 1 249 11 is_stmt 1 view .LVU314
 1189              	.LBE90:
 168:Src/register_interface.c ****   uint8_t motorID=0;
 1190              		.loc 1 168 11 is_stmt 0 view .LVU315
 1191 03f6 0020     		movs	r0, #0
 1192              	.LBB91:
 249:Src/register_interface.c ****         }
 1193              		.loc 1 249 11 view .LVU316
 1194 03f8 59E6     		b	.L66
 1195              	.LVL140:
 1196              	.L176:
 249:Src/register_interface.c ****         }
 1197              		.loc 1 249 11 view .LVU317
 1198              	.LBE91:
 1199              	.LBB92:
 1200 03fa A828     		cmp	r0, #168
 1201 03fc 3FF475AE 		beq	.L168
 1202 0400 17D9     		bls	.L195
 556:Src/register_interface.c ****             break;
 1203              		.loc 1 556 20 view .LVU318
 1204 0402 E828     		cmp	r0, #232
 1205 0404 14BF     		ite	ne
 1206 0406 0520     		movne	r0, #5
 1207              	.LVL141:
 556:Src/register_interface.c ****             break;
 1208              		.loc 1 556 20 view .LVU319
 1209 0408 0420     		moveq	r0, #4
 1210              	.LBE92:
 640:Src/register_interface.c **** 
 1211              		.loc 1 640 1 view .LVU320
 1212 040a 04B0     		add	sp, sp, #16
 1213              	.LCFI13:
 1214              		.cfi_remember_state
 1215              		.cfi_def_cfa_offset 24
 1216              		@ sp needed
 1217 040c BDE8F081 		pop	{r4, r5, r6, r7, r8, pc}
 1218              	.LVL142:
 1219              	.L109:
 1220              	.LCFI14:
 1221              		.cfi_restore_state
 1222              	.LBB93:
ARM GAS  C:\Users\ep_ygh\AppData\Local\Temp\ccaRZNy5.s 			page 52


 640:Src/register_interface.c **** 
 1223              		.loc 1 640 1 view .LVU321
 1224 0410 B0F55A7F 		cmp	r0, #872
 1225 0414 7BD0     		beq	.L114
 1226 0416 B0F5A56F 		cmp	r0, #1320
 1227 041a 41D1     		bne	.L169
 618:Src/register_interface.c ****             break;
 1228              		.loc 1 618 13 is_stmt 1 view .LVU322
 618:Src/register_interface.c ****             break;
 1229              		.loc 1 618 23 is_stmt 0 view .LVU323
 1230 041c 7848     		ldr	r0, .L201+8
 1231              	.LVL143:
 618:Src/register_interface.c ****             break;
 1232              		.loc 1 618 23 view .LVU324
 1233              	.LBE93:
 640:Src/register_interface.c **** 
 1234              		.loc 1 640 1 view .LVU325
 1235 041e 04B0     		add	sp, sp, #16
 1236              	.LCFI15:
 1237              		.cfi_remember_state
 1238              		.cfi_def_cfa_offset 24
 1239              		@ sp needed
 1240 0420 BDE8F041 		pop	{r4, r5, r6, r7, r8, lr}
 1241              	.LCFI16:
 1242              		.cfi_restore 14
 1243              		.cfi_restore 8
 1244              		.cfi_restore 7
 1245              		.cfi_restore 6
 1246              		.cfi_restore 5
 1247              		.cfi_restore 4
 1248              		.cfi_def_cfa_offset 0
 1249              	.LVL144:
 1250              	.LBB94:
 618:Src/register_interface.c ****             break;
 1251              		.loc 1 618 23 view .LVU326
 1252 0424 FFF7FEBF 		b	MCPA_cfgLog
 1253              	.LVL145:
 1254              	.L104:
 1255              	.LCFI17:
 1256              		.cfi_restore_state
 618:Src/register_interface.c ****             break;
 1257              		.loc 1 618 23 view .LVU327
 1258              	.LBE94:
 1259              	.LBB95:
 1260              	.LBB64:
 1261              	.LBB63:
1394:Src/register_interface.c ****   { /* Last string char must be 0 */
 1262              		.loc 1 1394 3 is_stmt 1 view .LVU328
 1263              		.loc 1 1400 5 view .LVU329
 1264              		.loc 1 1400 21 is_stmt 0 view .LVU330
 1265 0428 0023     		movs	r3, #0
 1266 042a 8EF80030 		strb	r3, [lr]
 1267              	.LBE63:
 1268              	.LBE64:
 524:Src/register_interface.c ****       /* Used to compute String length stored in RXBUFF even if Reg does not exist */
 1269              		.loc 1 524 14 view .LVU331
 1270 042e 0420     		movs	r0, #4
ARM GAS  C:\Users\ep_ygh\AppData\Local\Temp\ccaRZNy5.s 			page 53


 1271              	.LVL146:
 524:Src/register_interface.c ****       /* Used to compute String length stored in RXBUFF even if Reg does not exist */
 1272              		.loc 1 524 14 view .LVU332
 1273              	.LBE95:
 639:Src/register_interface.c **** }
 1274              		.loc 1 639 3 is_stmt 1 view .LVU333
 1275 0430 5CE6     		b	.L196
 1276              	.LVL147:
 1277              	.L195:
 1278              	.LBB96:
 639:Src/register_interface.c **** }
 1279              		.loc 1 639 3 is_stmt 0 view .LVU334
 1280 0432 20F04000 		bic	r0, r0, #64
 1281              	.LVL148:
 556:Src/register_interface.c ****             break;
 1282              		.loc 1 556 20 view .LVU335
 1283 0436 2828     		cmp	r0, #40
 1284 0438 14BF     		ite	ne
 1285 043a 0520     		movne	r0, #5
 1286 043c 0420     		moveq	r0, #4
 1287              	.LBE96:
 640:Src/register_interface.c **** 
 1288              		.loc 1 640 1 view .LVU336
 1289 043e 04B0     		add	sp, sp, #16
 1290              	.LCFI18:
 1291              		.cfi_remember_state
 1292              		.cfi_def_cfa_offset 24
 1293              		@ sp needed
 1294 0440 BDE8F081 		pop	{r4, r5, r6, r7, r8, pc}
 1295              	.LVL149:
 1296              	.L142:
 1297              	.LCFI19:
 1298              		.cfi_restore_state
 168:Src/register_interface.c ****   uint8_t motorID=0;
 1299              		.loc 1 168 11 view .LVU337
 1300 0444 0020     		movs	r0, #0
 1301              	.LVL150:
 168:Src/register_interface.c ****   uint8_t motorID=0;
 1302              		.loc 1 168 11 view .LVU338
 1303 0446 32E6     		b	.L66
 1304              	.LVL151:
 1305              	.L175:
 1306              	.LBB97:
 544:Src/register_interface.c ****         retVal = MCP_ERROR_BAD_RAW_FORMAT; /* This error stop the parsing of the CMD buffer */
 1307              		.loc 1 544 9 is_stmt 1 view .LVU339
 544:Src/register_interface.c ****         retVal = MCP_ERROR_BAD_RAW_FORMAT; /* This error stop the parsing of the CMD buffer */
 1308              		.loc 1 544 15 is_stmt 0 view .LVU340
 1309 0448 0023     		movs	r3, #0
 1310 044a 2380     		strh	r3, [r4]	@ movhi
 545:Src/register_interface.c ****       }
 1311              		.loc 1 545 9 is_stmt 1 view .LVU341
 1312              	.LVL152:
 545:Src/register_interface.c ****       }
 1313              		.loc 1 545 16 is_stmt 0 view .LVU342
 1314 044c 0A20     		movs	r0, #10
 1315              	.LVL153:
 545:Src/register_interface.c ****       }
ARM GAS  C:\Users\ep_ygh\AppData\Local\Temp\ccaRZNy5.s 			page 54


 1316              		.loc 1 545 16 view .LVU343
 1317 044e F7E5     		b	.L163
 1318              	.LVL154:
 1319              	.L49:
 545:Src/register_interface.c ****       }
 1320              		.loc 1 545 16 view .LVU344
 1321              	.LBE97:
 1322              	.LBB98:
 186:Src/register_interface.c ****           if ((uint8_t)MCM_TORQUE_MODE == regdata8)
 1323              		.loc 1 186 11 is_stmt 1 view .LVU345
 186:Src/register_interface.c ****           if ((uint8_t)MCM_TORQUE_MODE == regdata8)
 1324              		.loc 1 186 19 is_stmt 0 view .LVU346
 1325 0450 1378     		ldrb	r3, [r2]	@ zero_extendqisi2
 1326              	.LVL155:
 187:Src/register_interface.c ****           {
 1327              		.loc 1 187 11 is_stmt 1 view .LVU347
 187:Src/register_interface.c ****           {
 1328              		.loc 1 187 14 is_stmt 0 view .LVU348
 1329 0452 042B     		cmp	r3, #4
 1330 0454 18D0     		beq	.L197
 194:Src/register_interface.c **** 
 1331              		.loc 1 194 11 is_stmt 1 view .LVU349
 196:Src/register_interface.c ****           {
 1332              		.loc 1 196 11 view .LVU350
 196:Src/register_interface.c ****           {
 1333              		.loc 1 196 14 is_stmt 0 view .LVU351
 1334 0456 032B     		cmp	r3, #3
 1335 0458 67D0     		beq	.L52
 203:Src/register_interface.c **** 
 1336              		.loc 1 203 11 is_stmt 1 view .LVU352
 205:Src/register_interface.c ****           {
 1337              		.loc 1 205 11 view .LVU353
 205:Src/register_interface.c ****           {
 1338              		.loc 1 205 14 is_stmt 0 view .LVU354
 1339 045a 022B     		cmp	r3, #2
 1340 045c 60D0     		beq	.L198
 212:Src/register_interface.c **** 
 1341              		.loc 1 212 11 is_stmt 1 view .LVU355
 214:Src/register_interface.c ****           {
 1342              		.loc 1 214 11 view .LVU356
 214:Src/register_interface.c ****           {
 1343              		.loc 1 214 14 is_stmt 0 view .LVU357
 1344 045e 012B     		cmp	r3, #1
 1345 0460 02D1     		bne	.L165
 216:Src/register_interface.c ****           }
 1346              		.loc 1 216 13 is_stmt 1 view .LVU358
 1347 0462 6848     		ldr	r0, .L201+12
 1348              	.LVL156:
 216:Src/register_interface.c ****           }
 1349              		.loc 1 216 13 is_stmt 0 view .LVU359
 1350 0464 FFF7FEFF 		bl	MCI_SetOpenLoopVoltage
 1351              	.LVL157:
 1352              	.L165:
 216:Src/register_interface.c ****           }
 1353              		.loc 1 216 13 view .LVU360
 1354              	.LBE98:
 168:Src/register_interface.c ****   uint8_t motorID=0;
ARM GAS  C:\Users\ep_ygh\AppData\Local\Temp\ccaRZNy5.s 			page 55


 1355              		.loc 1 168 11 view .LVU361
 1356 0468 0020     		movs	r0, #0
 1357              	.LBB99:
 1358 046a F5E5     		b	.L50
 1359              	.LVL158:
 1360              	.L101:
 168:Src/register_interface.c ****   uint8_t motorID=0;
 1361              		.loc 1 168 11 view .LVU362
 1362              	.LBE99:
 1363              	.LBB100:
 499:Src/register_interface.c ****           break;
 1364              		.loc 1 499 11 is_stmt 1 view .LVU363
 1365 046c B2F90030 		ldrsh	r3, [r2]
 1366 0470 6549     		ldr	r1, .L201+16
 1367 0472 6448     		ldr	r0, .L201+12
 1368              	.LVL159:
 499:Src/register_interface.c ****           break;
 1369              		.loc 1 499 11 is_stmt 0 view .LVU364
 1370 0474 81FB0321 		smull	r2, r1, r1, r3
 1371              	.LVL160:
 499:Src/register_interface.c ****           break;
 1372              		.loc 1 499 11 view .LVU365
 1373 0478 A1EBE371 		sub	r1, r1, r3, asr #31
 1374 047c 0022     		movs	r2, #0
 1375 047e 09B2     		sxth	r1, r1
 1376 0480 FFF7FEFF 		bl	MCI_ExecSpeedRamp
 1377              	.LVL161:
 500:Src/register_interface.c ****         }
 1378              		.loc 1 500 11 is_stmt 1 view .LVU366
 1379              	.LBE100:
 168:Src/register_interface.c ****   uint8_t motorID=0;
 1380              		.loc 1 168 11 is_stmt 0 view .LVU367
 1381 0484 0020     		movs	r0, #0
 1382              	.LBB101:
 500:Src/register_interface.c ****         }
 1383              		.loc 1 500 11 view .LVU368
 1384 0486 3FE6     		b	.L103
 1385              	.LVL162:
 1386              	.L197:
 500:Src/register_interface.c ****         }
 1387              		.loc 1 500 11 view .LVU369
 1388              	.LBE101:
 1389              	.LBB102:
 189:Src/register_interface.c ****           }
 1390              		.loc 1 189 13 is_stmt 1 view .LVU370
 1391 0488 5E48     		ldr	r0, .L201+12
 1392              	.LVL163:
 189:Src/register_interface.c ****           }
 1393              		.loc 1 189 13 is_stmt 0 view .LVU371
 1394 048a FFF7FEFF 		bl	MCI_GetTeref
 1395              	.LVL164:
 189:Src/register_interface.c ****           }
 1396              		.loc 1 189 13 view .LVU372
 1397 048e 0022     		movs	r2, #0
 1398 0490 0146     		mov	r1, r0
 1399 0492 5C48     		ldr	r0, .L201+12
 1400 0494 FFF7FEFF 		bl	MCI_ExecTorqueRamp
ARM GAS  C:\Users\ep_ygh\AppData\Local\Temp\ccaRZNy5.s 			page 56


 1401              	.LVL165:
 194:Src/register_interface.c **** 
 1402              		.loc 1 194 11 is_stmt 1 view .LVU373
 196:Src/register_interface.c ****           {
 1403              		.loc 1 196 11 view .LVU374
 203:Src/register_interface.c **** 
 1404              		.loc 1 203 11 view .LVU375
 205:Src/register_interface.c ****           {
 1405              		.loc 1 205 11 view .LVU376
 212:Src/register_interface.c **** 
 1406              		.loc 1 212 11 view .LVU377
 214:Src/register_interface.c ****           {
 1407              		.loc 1 214 11 view .LVU378
 1408              	.LBE102:
 168:Src/register_interface.c ****   uint8_t motorID=0;
 1409              		.loc 1 168 11 is_stmt 0 view .LVU379
 1410 0498 0020     		movs	r0, #0
 1411 049a DDE5     		b	.L50
 1412              	.LVL166:
 1413              	.L148:
 1414              	.LBB103:
 493:Src/register_interface.c ****           break;
 1415              		.loc 1 493 18 view .LVU380
 1416 049c 0420     		movs	r0, #4
 1417              	.LVL167:
 493:Src/register_interface.c ****           break;
 1418              		.loc 1 493 18 view .LVU381
 1419 049e 33E6     		b	.L103
 1420              	.LVL168:
 1421              	.L169:
 493:Src/register_interface.c ****           break;
 1422              		.loc 1 493 18 view .LVU382
 1423              	.LBE103:
 1424              	.LBB104:
 1425 04a0 0520     		movs	r0, #5
 1426              	.LVL169:
 493:Src/register_interface.c ****           break;
 1427              		.loc 1 493 18 view .LVU383
 1428 04a2 CDE5     		b	.L163
 1429              	.LVL170:
 1430              	.L110:
 1431              	.LBB69:
 562:Src/register_interface.c ****             uint16_t duration;
 1432              		.loc 1 562 13 is_stmt 1 view .LVU384
 563:Src/register_interface.c **** 
 1433              		.loc 1 563 13 view .LVU385
 565:Src/register_interface.c ****             duration = *(uint16_t *)&rawData[4]; //cstat !MISRAC2012-Rule-11.3
 1434              		.loc 1 565 13 view .LVU386
 566:Src/register_interface.c ****             MCI_ExecSpeedRamp(pMCIN, (int16_t)((rpm * SPEED_UNIT) / U_RPM), duration);
 1435              		.loc 1 566 13 view .LVU387
 567:Src/register_interface.c ****             break;
 1436              		.loc 1 567 13 view .LVU388
 567:Src/register_interface.c ****             break;
 1437              		.loc 1 567 67 is_stmt 0 view .LVU389
 1438 04a4 DEF80230 		ldr	r3, [lr, #2]
 1439 04a8 5749     		ldr	r1, .L201+16
 1440              	.LVL171:
ARM GAS  C:\Users\ep_ygh\AppData\Local\Temp\ccaRZNy5.s 			page 57


 567:Src/register_interface.c ****             break;
 1441              		.loc 1 567 13 view .LVU390
 1442 04aa BEF80620 		ldrh	r2, [lr, #6]
 1443              	.LVL172:
 567:Src/register_interface.c ****             break;
 1444              		.loc 1 567 67 view .LVU391
 1445 04ae 81FB0301 		smull	r0, r1, r1, r3
 1446              	.LVL173:
 567:Src/register_interface.c ****             break;
 1447              		.loc 1 567 67 view .LVU392
 1448 04b2 A1EBE371 		sub	r1, r1, r3, asr #31
 567:Src/register_interface.c ****             break;
 1449              		.loc 1 567 13 view .LVU393
 1450 04b6 5348     		ldr	r0, .L201+12
 1451 04b8 09B2     		sxth	r1, r1
 1452 04ba FFF7FEFF 		bl	MCI_ExecSpeedRamp
 1453              	.LVL174:
 568:Src/register_interface.c ****           }
 1454              		.loc 1 568 13 is_stmt 1 view .LVU394
 1455              	.LBE69:
 1456              	.LBE104:
 168:Src/register_interface.c ****   uint8_t motorID=0;
 1457              		.loc 1 168 11 is_stmt 0 view .LVU395
 1458 04be 0020     		movs	r0, #0
 1459              	.LBB105:
 1460              	.LBB70:
 568:Src/register_interface.c ****           }
 1461              		.loc 1 568 13 view .LVU396
 1462 04c0 BEE5     		b	.L163
 1463              	.LVL175:
 1464              	.L108:
 568:Src/register_interface.c ****           }
 1465              		.loc 1 568 13 view .LVU397
 1466              	.LBE70:
 1467              	.LBB71:
 584:Src/register_interface.c ****             RevUpCtrl_PhaseParams_t revUpPhase;
 1468              		.loc 1 584 13 is_stmt 1 view .LVU398
 585:Src/register_interface.c ****             uint8_t i;
 1469              		.loc 1 585 13 view .LVU399
 586:Src/register_interface.c ****             uint8_t nbrOfPhase = (((uint8_t)rawSize) / 8U);
 1470              		.loc 1 586 13 view .LVU400
 587:Src/register_interface.c **** 
 1471              		.loc 1 587 13 view .LVU401
 589:Src/register_interface.c ****             {
 1472              		.loc 1 589 13 view .LVU402
 589:Src/register_interface.c ****             {
 1473              		.loc 1 589 16 is_stmt 0 view .LVU403
 1474 04c2 12F00706 		ands	r6, r2, #7
 1475 04c6 29D1     		bne	.L154
 587:Src/register_interface.c **** 
 1476              		.loc 1 587 36 discriminator 1 view .LVU404
 1477 04c8 D2B2     		uxtb	r2, r2
 1478              	.LVL176:
 589:Src/register_interface.c ****             {
 1479              		.loc 1 589 44 discriminator 1 view .LVU405
 1480 04ca 2F2A     		cmp	r2, #47
 1481 04cc 26D8     		bhi	.L154
ARM GAS  C:\Users\ep_ygh\AppData\Local\Temp\ccaRZNy5.s 			page 58


 1482              	.LVL177:
 595:Src/register_interface.c ****               {
 1483              		.loc 1 595 27 is_stmt 1 view .LVU406
 595:Src/register_interface.c ****               {
 1484              		.loc 1 595 15 is_stmt 0 view .LVU407
 1485 04ce D408     		lsrs	r4, r2, #3
 1486              	.LVL178:
 595:Src/register_interface.c ****               {
 1487              		.loc 1 595 15 view .LVU408
 1488 04d0 1BD0     		beq	.L170
 598:Src/register_interface.c ****               revUpPhase.hFinalTorque = *((int16_t *) &rawData[4U + (i * 8U)]); //cstat !MISRAC2012
 1489              		.loc 1 598 88 view .LVU409
 1490 04d2 DFF83481 		ldr	r8, .L201+16
 601:Src/register_interface.c ****               }
 1491              		.loc 1 601 21 view .LVU410
 1492 04d6 4D4F     		ldr	r7, .L201+20
 1493 04d8 7546     		mov	r5, lr
 1494 04da 3146     		mov	r1, r6
 1495              	.LVL179:
 1496              	.L118:
 597:Src/register_interface.c ****               revUpPhase.hFinalMecSpeedUnit = (((int16_t)rpm) * ((int16_t)SPEED_UNIT)) / ((int16_t)
 1497              		.loc 1 597 15 is_stmt 1 discriminator 3 view .LVU411
 598:Src/register_interface.c ****               revUpPhase.hFinalTorque = *((int16_t *) &rawData[4U + (i * 8U)]); //cstat !MISRAC2012
 1498              		.loc 1 598 15 discriminator 3 view .LVU412
 598:Src/register_interface.c ****               revUpPhase.hFinalTorque = *((int16_t *) &rawData[4U + (i * 8U)]); //cstat !MISRAC2012
 1499              		.loc 1 598 88 is_stmt 0 discriminator 3 view .LVU413
 1500 04dc B5F90220 		ldrsh	r2, [r5, #2]
 599:Src/register_interface.c ****               revUpPhase.hDurationms  = *((uint16_t *) &rawData[6U +(i * 8U)]); //cstat !MISRAC2012
 1501              		.loc 1 599 39 discriminator 3 view .LVU414
 1502 04e0 EB88     		ldrh	r3, [r5, #6]
 1503 04e2 ADF80830 		strh	r3, [sp, #8]	@ movhi
 598:Src/register_interface.c ****               revUpPhase.hFinalTorque = *((int16_t *) &rawData[4U + (i * 8U)]); //cstat !MISRAC2012
 1504              		.loc 1 598 88 discriminator 3 view .LVU415
 1505 04e6 88FB0203 		smull	r0, r3, r8, r2
 1506 04ea A3EBE273 		sub	r3, r3, r2, asr #31
 598:Src/register_interface.c ****               revUpPhase.hFinalTorque = *((int16_t *) &rawData[4U + (i * 8U)]); //cstat !MISRAC2012
 1507              		.loc 1 598 45 discriminator 3 view .LVU416
 1508 04ee ADF80630 		strh	r3, [sp, #6]	@ movhi
 599:Src/register_interface.c ****               revUpPhase.hDurationms  = *((uint16_t *) &rawData[6U +(i * 8U)]); //cstat !MISRAC2012
 1509              		.loc 1 599 15 is_stmt 1 discriminator 3 view .LVU417
 600:Src/register_interface.c ****               (void)RUC_SetPhase(&RevUpControlM1, i, &revUpPhase);
 1510              		.loc 1 600 15 discriminator 3 view .LVU418
 595:Src/register_interface.c ****               {
 1511              		.loc 1 595 15 is_stmt 0 discriminator 3 view .LVU419
 1512 04f2 0136     		adds	r6, r6, #1
 1513              	.LVL180:
 600:Src/register_interface.c ****               (void)RUC_SetPhase(&RevUpControlM1, i, &revUpPhase);
 1514              		.loc 1 600 39 discriminator 3 view .LVU420
 1515 04f4 35F8083F 		ldrh	r3, [r5, #8]!
 1516              	.LVL181:
 600:Src/register_interface.c ****               (void)RUC_SetPhase(&RevUpControlM1, i, &revUpPhase);
 1517              		.loc 1 600 39 discriminator 3 view .LVU421
 1518 04f8 ADF80430 		strh	r3, [sp, #4]	@ movhi
 601:Src/register_interface.c ****               }
 1519              		.loc 1 601 15 is_stmt 1 discriminator 3 view .LVU422
 601:Src/register_interface.c ****               }
 1520              		.loc 1 601 21 is_stmt 0 discriminator 3 view .LVU423
ARM GAS  C:\Users\ep_ygh\AppData\Local\Temp\ccaRZNy5.s 			page 59


 1521 04fc 01AA     		add	r2, sp, #4
 1522 04fe 3846     		mov	r0, r7
 1523 0500 FFF7FEFF 		bl	RUC_SetPhase
 1524              	.LVL182:
 595:Src/register_interface.c ****               {
 1525              		.loc 1 595 42 is_stmt 1 discriminator 3 view .LVU424
 595:Src/register_interface.c ****               {
 1526              		.loc 1 595 27 discriminator 3 view .LVU425
 595:Src/register_interface.c ****               {
 1527              		.loc 1 595 15 is_stmt 0 discriminator 3 view .LVU426
 1528 0504 F1B2     		uxtb	r1, r6
 1529 0506 8C42     		cmp	r4, r1
 1530 0508 E8D8     		bhi	.L118
 1531              	.L170:
 595:Src/register_interface.c ****               {
 1532              		.loc 1 595 15 discriminator 3 view .LVU427
 1533              	.LBE71:
 1534              	.LBB72:
 613:Src/register_interface.c ****           }
 1535              		.loc 1 613 13 is_stmt 1 view .LVU428
 1536              	.LBE72:
 1537              	.LBE105:
 168:Src/register_interface.c ****   uint8_t motorID=0;
 1538              		.loc 1 168 11 is_stmt 0 view .LVU429
 1539 050a 0020     		movs	r0, #0
 1540 050c 98E5     		b	.L163
 1541              	.LVL183:
 1542              	.L114:
 1543              	.LBB106:
 1544              	.LBB73:
 609:Src/register_interface.c ****             currComp.q = *((int16_t *) rawData); //cstat !MISRAC2012-Rule-11.3
 1545              		.loc 1 609 13 is_stmt 1 view .LVU430
 610:Src/register_interface.c ****             currComp.d = *((int16_t *) &rawData[2]); //cstat !MISRAC2012-Rule-11.3
 1546              		.loc 1 610 13 view .LVU431
 611:Src/register_interface.c ****             MCI_SetCurrentReferences(pMCIN, currComp);
 1547              		.loc 1 611 13 view .LVU432
 610:Src/register_interface.c ****             currComp.d = *((int16_t *) &rawData[2]); //cstat !MISRAC2012-Rule-11.3
 1548              		.loc 1 610 26 is_stmt 0 view .LVU433
 1549 050e DEF80210 		ldr	r1, [lr, #2]	@ unaligned
 1550              	.LVL184:
 612:Src/register_interface.c ****             break;
 1551              		.loc 1 612 13 view .LVU434
 1552 0512 3C48     		ldr	r0, .L201+12
 1553              	.LVL185:
 610:Src/register_interface.c ****             currComp.d = *((int16_t *) &rawData[2]); //cstat !MISRAC2012-Rule-11.3
 1554              		.loc 1 610 24 view .LVU435
 1555 0514 0191     		str	r1, [sp, #4]
 612:Src/register_interface.c ****             break;
 1556              		.loc 1 612 13 is_stmt 1 view .LVU436
 1557 0516 FFF7FEFF 		bl	MCI_SetCurrentReferences
 1558              	.LVL186:
 612:Src/register_interface.c ****             break;
 1559              		.loc 1 612 13 is_stmt 0 view .LVU437
 1560 051a F6E7     		b	.L170
 1561              	.LVL187:
 1562              	.L154:
 612:Src/register_interface.c ****             break;
ARM GAS  C:\Users\ep_ygh\AppData\Local\Temp\ccaRZNy5.s 			page 60


 1563              		.loc 1 612 13 view .LVU438
 1564              	.LBE73:
 1565              	.LBB74:
 591:Src/register_interface.c ****             }
 1566              		.loc 1 591 22 view .LVU439
 1567 051c 0A20     		movs	r0, #10
 1568              	.LVL188:
 604:Src/register_interface.c ****           }
 1569              		.loc 1 604 13 is_stmt 1 view .LVU440
 1570 051e 8FE5     		b	.L163
 1571              	.LVL189:
 1572              	.L198:
 604:Src/register_interface.c ****           }
 1573              		.loc 1 604 13 is_stmt 0 view .LVU441
 1574              	.LBE74:
 1575              	.LBE106:
 1576              	.LBB107:
 207:Src/register_interface.c ****           }
 1577              		.loc 1 207 13 is_stmt 1 view .LVU442
 1578 0520 3848     		ldr	r0, .L201+12
 1579              	.LVL190:
 207:Src/register_interface.c ****           }
 1580              		.loc 1 207 13 is_stmt 0 view .LVU443
 1581 0522 FFF7FEFF 		bl	MCI_SetOpenLoopCurrent
 1582              	.LVL191:
 212:Src/register_interface.c **** 
 1583              		.loc 1 212 11 is_stmt 1 view .LVU444
 214:Src/register_interface.c ****           {
 1584              		.loc 1 214 11 view .LVU445
 1585              	.LBE107:
 168:Src/register_interface.c ****   uint8_t motorID=0;
 1586              		.loc 1 168 11 is_stmt 0 view .LVU446
 1587 0526 0020     		movs	r0, #0
 1588 0528 96E5     		b	.L50
 1589              	.LVL192:
 1590              	.L52:
 1591              	.LBB108:
 198:Src/register_interface.c ****           }
 1592              		.loc 1 198 13 is_stmt 1 view .LVU447
 1593 052a 3648     		ldr	r0, .L201+12
 1594              	.LVL193:
 198:Src/register_interface.c ****           }
 1595              		.loc 1 198 13 is_stmt 0 view .LVU448
 1596 052c FFF7FEFF 		bl	MCI_SetSpeedMode
 1597              	.LVL194:
 203:Src/register_interface.c **** 
 1598              		.loc 1 203 11 is_stmt 1 view .LVU449
 205:Src/register_interface.c ****           {
 1599              		.loc 1 205 11 view .LVU450
 212:Src/register_interface.c **** 
 1600              		.loc 1 212 11 view .LVU451
 214:Src/register_interface.c ****           {
 1601              		.loc 1 214 11 view .LVU452
 1602              	.LBE108:
 168:Src/register_interface.c ****   uint8_t motorID=0;
 1603              		.loc 1 168 11 is_stmt 0 view .LVU453
 1604 0530 0020     		movs	r0, #0
ARM GAS  C:\Users\ep_ygh\AppData\Local\Temp\ccaRZNy5.s 			page 61


 1605 0532 91E5     		b	.L50
 1606              	.LVL195:
 1607              	.L92:
 1608              	.LBB109:
 448:Src/register_interface.c ****           break;
 1609              		.loc 1 448 11 is_stmt 1 view .LVU454
 1610 0534 3648     		ldr	r0, .L201+24
 1611              	.LVL196:
 448:Src/register_interface.c ****           break;
 1612              		.loc 1 448 11 is_stmt 0 view .LVU455
 1613 0536 2946     		mov	r1, r5
 1614 0538 FFF7FEFF 		bl	PID_SetKIDivisorPOW2
 1615              	.LVL197:
 449:Src/register_interface.c ****         }
 1616              		.loc 1 449 11 is_stmt 1 view .LVU456
 1617              	.LBE109:
 168:Src/register_interface.c ****   uint8_t motorID=0;
 1618              		.loc 1 168 11 is_stmt 0 view .LVU457
 1619 053c 0020     		movs	r0, #0
 1620              	.LBB110:
 449:Src/register_interface.c ****         }
 1621              		.loc 1 449 11 view .LVU458
 1622 053e B6E5     		b	.L66
 1623              	.LVL198:
 1624              	.L82:
 400:Src/register_interface.c ****           break;
 1625              		.loc 1 400 11 is_stmt 1 view .LVU459
 1626 0540 2D48     		ldr	r0, .L201
 1627              	.LVL199:
 400:Src/register_interface.c ****           break;
 1628              		.loc 1 400 11 is_stmt 0 view .LVU460
 1629 0542 2946     		mov	r1, r5
 1630 0544 FFF7FEFF 		bl	PID_SetKIDivisorPOW2
 1631              	.LVL200:
 401:Src/register_interface.c ****         }
 1632              		.loc 1 401 11 is_stmt 1 view .LVU461
 1633              	.LBE110:
 168:Src/register_interface.c ****   uint8_t motorID=0;
 1634              		.loc 1 168 11 is_stmt 0 view .LVU462
 1635 0548 0020     		movs	r0, #0
 1636              	.LBB111:
 401:Src/register_interface.c ****         }
 1637              		.loc 1 401 11 view .LVU463
 1638 054a B0E5     		b	.L66
 1639              	.LVL201:
 1640              	.L70:
 367:Src/register_interface.c ****           break;
 1641              		.loc 1 367 11 is_stmt 1 view .LVU464
 1642 054c 3048     		ldr	r0, .L201+24
 1643              	.LVL202:
 367:Src/register_interface.c ****           break;
 1644              		.loc 1 367 11 is_stmt 0 view .LVU465
 1645 054e 29B2     		sxth	r1, r5
 1646 0550 FFF7FEFF 		bl	PID_SetKI
 1647              	.LVL203:
 368:Src/register_interface.c ****         }
 1648              		.loc 1 368 11 is_stmt 1 view .LVU466
ARM GAS  C:\Users\ep_ygh\AppData\Local\Temp\ccaRZNy5.s 			page 62


 1649              	.LBE111:
 168:Src/register_interface.c ****   uint8_t motorID=0;
 1650              		.loc 1 168 11 is_stmt 0 view .LVU467
 1651 0554 0020     		movs	r0, #0
 1652              	.LBB112:
 368:Src/register_interface.c ****         }
 1653              		.loc 1 368 11 view .LVU468
 1654 0556 AAE5     		b	.L66
 1655              	.LVL204:
 1656              	.L80:
 424:Src/register_interface.c ****           break;
 1657              		.loc 1 424 11 is_stmt 1 view .LVU469
 1658 0558 2E48     		ldr	r0, .L201+28
 1659              	.LVL205:
 424:Src/register_interface.c ****           break;
 1660              		.loc 1 424 11 is_stmt 0 view .LVU470
 1661 055a 2946     		mov	r1, r5
 1662 055c FFF7FEFF 		bl	PID_SetKDDivisorPOW2
 1663              	.LVL206:
 425:Src/register_interface.c ****         }
 1664              		.loc 1 425 11 is_stmt 1 view .LVU471
 1665              	.LBE112:
 168:Src/register_interface.c ****   uint8_t motorID=0;
 1666              		.loc 1 168 11 is_stmt 0 view .LVU472
 1667 0560 0020     		movs	r0, #0
 1668              	.LBB113:
 425:Src/register_interface.c ****         }
 1669              		.loc 1 425 11 view .LVU473
 1670 0562 A4E5     		b	.L66
 1671              	.LVL207:
 1672              	.L61:
 266:Src/register_interface.c ****           break;
 1673              		.loc 1 266 11 is_stmt 1 view .LVU474
 1674 0564 2548     		ldr	r0, .L201+4
 1675              	.LVL208:
 266:Src/register_interface.c ****           break;
 1676              		.loc 1 266 11 is_stmt 0 view .LVU475
 1677 0566 29B2     		sxth	r1, r5
 1678 0568 FFF7FEFF 		bl	PID_SetKP
 1679              	.LVL209:
 267:Src/register_interface.c ****         }
 1680              		.loc 1 267 11 is_stmt 1 view .LVU476
 1681              	.LBE113:
 168:Src/register_interface.c ****   uint8_t motorID=0;
 1682              		.loc 1 168 11 is_stmt 0 view .LVU477
 1683 056c 0020     		movs	r0, #0
 1684              	.LBB114:
 267:Src/register_interface.c ****         }
 1685              		.loc 1 267 11 view .LVU478
 1686 056e 9EE5     		b	.L66
 1687              	.LVL210:
 1688              	.L59:
 290:Src/register_interface.c ****           break;
 1689              		.loc 1 290 11 is_stmt 1 view .LVU479
 1690 0570 2848     		ldr	r0, .L201+28
 1691              	.LVL211:
 290:Src/register_interface.c ****           break;
ARM GAS  C:\Users\ep_ygh\AppData\Local\Temp\ccaRZNy5.s 			page 63


 1692              		.loc 1 290 11 is_stmt 0 view .LVU480
 1693 0572 29B2     		sxth	r1, r5
 1694 0574 FFF7FEFF 		bl	PID_SetKI
 1695              	.LVL212:
 291:Src/register_interface.c ****         }
 1696              		.loc 1 291 11 is_stmt 1 view .LVU481
 1697              	.LBE114:
 168:Src/register_interface.c ****   uint8_t motorID=0;
 1698              		.loc 1 168 11 is_stmt 0 view .LVU482
 1699 0578 0020     		movs	r0, #0
 1700              	.LBB115:
 291:Src/register_interface.c ****         }
 1701              		.loc 1 291 11 view .LVU483
 1702 057a 98E5     		b	.L66
 1703              	.LVL213:
 1704              	.L57:
 1705              	.LBB57:
 331:Src/register_interface.c ****           currComp = MCI_GetIqdref(pMCIN);
 1706              		.loc 1 331 11 is_stmt 1 view .LVU484
 332:Src/register_interface.c ****           currComp.d = (int16_t)regdata16;
 1707              		.loc 1 332 11 view .LVU485
 332:Src/register_interface.c ****           currComp.d = (int16_t)regdata16;
 1708              		.loc 1 332 22 is_stmt 0 view .LVU486
 1709 057c 2148     		ldr	r0, .L201+12
 1710              	.LVL214:
 332:Src/register_interface.c ****           currComp.d = (int16_t)regdata16;
 1711              		.loc 1 332 22 view .LVU487
 1712 057e FFF7FEFF 		bl	MCI_GetIqdref
 1713              	.LVL215:
 332:Src/register_interface.c ****           currComp.d = (int16_t)regdata16;
 1714              		.loc 1 332 22 view .LVU488
 1715 0582 0190     		str	r0, [sp, #4]
 333:Src/register_interface.c ****           MCI_SetCurrentReferences(pMCIN,currComp);
 1716              		.loc 1 333 11 is_stmt 1 view .LVU489
 333:Src/register_interface.c ****           MCI_SetCurrentReferences(pMCIN,currComp);
 1717              		.loc 1 333 22 is_stmt 0 view .LVU490
 1718 0584 ADF80650 		strh	r5, [sp, #6]	@ movhi
 334:Src/register_interface.c ****           break;
 1719              		.loc 1 334 11 is_stmt 1 view .LVU491
 1720 0588 1E48     		ldr	r0, .L201+12
 1721 058a 0199     		ldr	r1, [sp, #4]
 1722 058c FFF7FEFF 		bl	MCI_SetCurrentReferences
 1723              	.LVL216:
 335:Src/register_interface.c ****         }
 1724              		.loc 1 335 11 view .LVU492
 1725              	.LBE57:
 1726              	.LBE115:
 168:Src/register_interface.c ****   uint8_t motorID=0;
 1727              		.loc 1 168 11 is_stmt 0 view .LVU493
 1728 0590 0020     		movs	r0, #0
 1729 0592 8CE5     		b	.L66
 1730              	.LVL217:
 1731              	.L89:
 1732              	.LBB116:
 412:Src/register_interface.c ****           break;
 1733              		.loc 1 412 11 is_stmt 1 view .LVU494
 1734 0594 1F48     		ldr	r0, .L201+28
ARM GAS  C:\Users\ep_ygh\AppData\Local\Temp\ccaRZNy5.s 			page 64


 1735              	.LVL218:
 412:Src/register_interface.c ****           break;
 1736              		.loc 1 412 11 is_stmt 0 view .LVU495
 1737 0596 2946     		mov	r1, r5
 1738 0598 FFF7FEFF 		bl	PID_SetKPDivisorPOW2
 1739              	.LVL219:
 413:Src/register_interface.c ****         }
 1740              		.loc 1 413 11 is_stmt 1 view .LVU496
 1741              	.LBE116:
 168:Src/register_interface.c ****   uint8_t motorID=0;
 1742              		.loc 1 168 11 is_stmt 0 view .LVU497
 1743 059c 0020     		movs	r0, #0
 1744              	.LBB117:
 413:Src/register_interface.c ****         }
 1745              		.loc 1 413 11 view .LVU498
 1746 059e 86E5     		b	.L66
 1747              	.LVL220:
 1748              	.L94:
 436:Src/register_interface.c ****           break;
 1749              		.loc 1 436 11 is_stmt 1 view .LVU499
 1750 05a0 1648     		ldr	r0, .L201+4
 1751              	.LVL221:
 436:Src/register_interface.c ****           break;
 1752              		.loc 1 436 11 is_stmt 0 view .LVU500
 1753 05a2 2946     		mov	r1, r5
 1754 05a4 FFF7FEFF 		bl	PID_SetKIDivisorPOW2
 1755              	.LVL222:
 437:Src/register_interface.c ****         }
 1756              		.loc 1 437 11 is_stmt 1 view .LVU501
 1757              	.LBE117:
 168:Src/register_interface.c ****   uint8_t motorID=0;
 1758              		.loc 1 168 11 is_stmt 0 view .LVU502
 1759 05a8 0020     		movs	r0, #0
 1760              	.LBB118:
 437:Src/register_interface.c ****         }
 1761              		.loc 1 437 11 view .LVU503
 1762 05aa 80E5     		b	.L66
 1763              	.LVL223:
 1764              	.L72:
 1765              	.LBB58:
 349:Src/register_interface.c ****           int16_t hC2;
 1766              		.loc 1 349 11 is_stmt 1 view .LVU504
 350:Src/register_interface.c ****           STO_PLL_GetObserverGains(&STO_PLL_M1, &hC1, &hC2);
 1767              		.loc 1 350 11 view .LVU505
 351:Src/register_interface.c ****           STO_PLL_SetObserverGains(&STO_PLL_M1, (int16_t)regdata16, hC2);
 1768              		.loc 1 351 11 view .LVU506
 1769 05ac 1A48     		ldr	r0, .L201+32
 1770              	.LVL224:
 351:Src/register_interface.c ****           STO_PLL_SetObserverGains(&STO_PLL_M1, (int16_t)regdata16, hC2);
 1771              		.loc 1 351 11 is_stmt 0 view .LVU507
 1772 05ae 01AA     		add	r2, sp, #4
 1773              	.LVL225:
 351:Src/register_interface.c ****           STO_PLL_SetObserverGains(&STO_PLL_M1, (int16_t)regdata16, hC2);
 1774              		.loc 1 351 11 view .LVU508
 1775 05b0 0DF10201 		add	r1, sp, #2
 1776 05b4 FFF7FEFF 		bl	STO_PLL_GetObserverGains
 1777              	.LVL226:
ARM GAS  C:\Users\ep_ygh\AppData\Local\Temp\ccaRZNy5.s 			page 65


 352:Src/register_interface.c ****           break;
 1778              		.loc 1 352 11 is_stmt 1 view .LVU509
 1779 05b8 1748     		ldr	r0, .L201+32
 1780 05ba BDF90420 		ldrsh	r2, [sp, #4]
 1781 05be 29B2     		sxth	r1, r5
 1782 05c0 FFF7FEFF 		bl	STO_PLL_SetObserverGains
 1783              	.LVL227:
 353:Src/register_interface.c ****         }
 1784              		.loc 1 353 11 view .LVU510
 1785              	.LBE58:
 1786              	.LBE118:
 168:Src/register_interface.c ****   uint8_t motorID=0;
 1787              		.loc 1 168 11 is_stmt 0 view .LVU511
 1788 05c4 0020     		movs	r0, #0
 1789 05c6 72E5     		b	.L66
 1790              	.LVL228:
 1791              	.L97:
 1792              	.LBB119:
 460:Src/register_interface.c ****           break;
 1793              		.loc 1 460 11 is_stmt 1 view .LVU512
 460:Src/register_interface.c ****           break;
 1794              		.loc 1 460 69 is_stmt 0 view .LVU513
 1795 05c8 1449     		ldr	r1, .L201+36
 460:Src/register_interface.c ****           break;
 1796              		.loc 1 460 11 view .LVU514
 1797 05ca 1548     		ldr	r0, .L201+40
 1798              	.LVL229:
 460:Src/register_interface.c ****           break;
 1799              		.loc 1 460 60 view .LVU515
 1800 05cc C5EBC535 		rsb	r5, r5, r5, lsl #15
 1801              	.LVL230:
 460:Src/register_interface.c ****           break;
 1802              		.loc 1 460 69 view .LVU516
 1803 05d0 A1FB0531 		umull	r3, r1, r1, r5
 460:Src/register_interface.c ****           break;
 1804              		.loc 1 460 11 view .LVU517
 1805 05d4 41F34F11 		sbfx	r1, r1, #5, #16
 1806 05d8 FFF7FEFF 		bl	OL_UpdateVoltage
 1807              	.LVL231:
 461:Src/register_interface.c ****         }
 1808              		.loc 1 461 11 is_stmt 1 view .LVU518
 1809              	.LBE119:
 168:Src/register_interface.c ****   uint8_t motorID=0;
 1810              		.loc 1 168 11 is_stmt 0 view .LVU519
 1811 05dc 0020     		movs	r0, #0
 1812              	.LBB120:
 461:Src/register_interface.c ****         }
 1813              		.loc 1 461 11 view .LVU520
 1814 05de 66E5     		b	.L66
 1815              	.LVL232:
 1816              	.L67:
 278:Src/register_interface.c ****           break;
 1817              		.loc 1 278 11 is_stmt 1 view .LVU521
 1818 05e0 0648     		ldr	r0, .L201+4
 1819              	.LVL233:
 278:Src/register_interface.c ****           break;
 1820              		.loc 1 278 11 is_stmt 0 view .LVU522
ARM GAS  C:\Users\ep_ygh\AppData\Local\Temp\ccaRZNy5.s 			page 66


 1821 05e2 29B2     		sxth	r1, r5
 1822 05e4 FFF7FEFF 		bl	PID_SetKD
 1823              	.LVL234:
 279:Src/register_interface.c ****         }
 1824              		.loc 1 279 11 is_stmt 1 view .LVU523
 1825              	.LBE120:
 168:Src/register_interface.c ****   uint8_t motorID=0;
 1826              		.loc 1 168 11 is_stmt 0 view .LVU524
 1827 05e8 0020     		movs	r0, #0
 1828              	.LBB121:
 279:Src/register_interface.c ****         }
 1829              		.loc 1 279 11 view .LVU525
 1830 05ea 60E5     		b	.L66
 1831              	.LVL235:
 1832              	.L63:
 254:Src/register_interface.c ****           break;
 1833              		.loc 1 254 11 is_stmt 1 view .LVU526
 1834 05ec 0248     		ldr	r0, .L201
 1835              	.LVL236:
 254:Src/register_interface.c ****           break;
 1836              		.loc 1 254 11 is_stmt 0 view .LVU527
 1837 05ee 29B2     		sxth	r1, r5
 1838 05f0 FFF7FEFF 		bl	PID_SetKI
 1839              	.LVL237:
 255:Src/register_interface.c ****         }
 1840              		.loc 1 255 11 is_stmt 1 view .LVU528
 1841              	.LBE121:
 168:Src/register_interface.c ****   uint8_t motorID=0;
 1842              		.loc 1 168 11 is_stmt 0 view .LVU529
 1843 05f4 0020     		movs	r0, #0
 1844              	.LBB122:
 255:Src/register_interface.c ****         }
 1845              		.loc 1 255 11 view .LVU530
 1846 05f6 5AE5     		b	.L66
 1847              	.L202:
 1848              		.align	2
 1849              	.L201:
 1850 05f8 00000000 		.word	PIDSpeedHandle_M1
 1851 05fc 00000000 		.word	PIDIqHandle_M1
 1852 0600 00000000 		.word	MCPA_UART_A
 1853 0604 00000000 		.word	Mci
 1854 0608 ABAAAA2A 		.word	715827883
 1855 060c 00000000 		.word	RevUpControlM1
 1856 0610 34000000 		.word	STO_PLL_M1+52
 1857 0614 00000000 		.word	PIDIdHandle_M1
 1858 0618 00000000 		.word	STO_PLL_M1
 1859 061c 1F85EB51 		.word	1374389535
 1860 0620 00000000 		.word	OpenLoop_ParamsM1
 1861              	.LBE122:
 1862              		.cfi_endproc
 1863              	.LFE1091:
 1865              		.section	.text.RI_GetRegisterGlobal,"ax",%progbits
 1866              		.align	1
 1867              		.p2align 2,,3
 1868              		.global	RI_GetRegisterGlobal
 1869              		.syntax unified
 1870              		.thumb
ARM GAS  C:\Users\ep_ygh\AppData\Local\Temp\ccaRZNy5.s 			page 67


 1871              		.thumb_func
 1873              	RI_GetRegisterGlobal:
 1874              	.LVL238:
 1875              	.LFB1092:
 642:Src/register_interface.c ****     uint8_t retVal = MCP_CMD_OK;
 1876              		.loc 1 642 108 is_stmt 1 view -0
 1877              		.cfi_startproc
 1878              		@ args = 4, pretend = 0, frame = 0
 1879              		@ frame_needed = 0, uses_anonymous_args = 0
 643:Src/register_interface.c ****     switch (typeID)
 1880              		.loc 1 643 5 view .LVU532
 644:Src/register_interface.c ****     {
 1881              		.loc 1 644 5 view .LVU533
 642:Src/register_interface.c ****     uint8_t retVal = MCP_CMD_OK;
 1882              		.loc 1 642 108 is_stmt 0 view .LVU534
 1883 0000 10B5     		push	{r4, lr}
 1884              	.LCFI20:
 1885              		.cfi_def_cfa_offset 8
 1886              		.cfi_offset 4, -8
 1887              		.cfi_offset 14, -4
 644:Src/register_interface.c ****     {
 1888              		.loc 1 644 5 view .LVU535
 1889 0002 A1F1080C 		sub	ip, r1, #8
 642:Src/register_interface.c ****     uint8_t retVal = MCP_CMD_OK;
 1890              		.loc 1 642 108 view .LVU536
 1891 0006 BDF908E0 		ldrsh	lr, [sp, #8]
 644:Src/register_interface.c ****     {
 1892              		.loc 1 644 5 view .LVU537
 1893 000a BCF1200F 		cmp	ip, #32
 1894 000e 12D8     		bhi	.L224
 1895 0010 DFE80CF0 		tbb	[pc, ip]
 1896              	.L206:
 1897 0014 1B       		.byte	(.L210-.L206)/2
 1898 0015 11       		.byte	(.L224-.L206)/2
 1899 0016 11       		.byte	(.L224-.L206)/2
 1900 0017 11       		.byte	(.L224-.L206)/2
 1901 0018 11       		.byte	(.L224-.L206)/2
 1902 0019 11       		.byte	(.L224-.L206)/2
 1903 001a 11       		.byte	(.L224-.L206)/2
 1904 001b 11       		.byte	(.L224-.L206)/2
 1905 001c 29       		.byte	(.L209-.L206)/2
 1906 001d 11       		.byte	(.L224-.L206)/2
 1907 001e 11       		.byte	(.L224-.L206)/2
 1908 001f 11       		.byte	(.L224-.L206)/2
 1909 0020 11       		.byte	(.L224-.L206)/2
 1910 0021 11       		.byte	(.L224-.L206)/2
 1911 0022 11       		.byte	(.L224-.L206)/2
 1912 0023 11       		.byte	(.L224-.L206)/2
 1913 0024 22       		.byte	(.L208-.L206)/2
 1914 0025 11       		.byte	(.L224-.L206)/2
 1915 0026 11       		.byte	(.L224-.L206)/2
 1916 0027 11       		.byte	(.L224-.L206)/2
 1917 0028 11       		.byte	(.L224-.L206)/2
 1918 0029 11       		.byte	(.L224-.L206)/2
 1919 002a 11       		.byte	(.L224-.L206)/2
 1920 002b 11       		.byte	(.L224-.L206)/2
 1921 002c 37       		.byte	(.L207-.L206)/2
ARM GAS  C:\Users\ep_ygh\AppData\Local\Temp\ccaRZNy5.s 			page 68


 1922 002d 11       		.byte	(.L224-.L206)/2
 1923 002e 11       		.byte	(.L224-.L206)/2
 1924 002f 11       		.byte	(.L224-.L206)/2
 1925 0030 11       		.byte	(.L224-.L206)/2
 1926 0031 11       		.byte	(.L224-.L206)/2
 1927 0032 11       		.byte	(.L224-.L206)/2
 1928 0033 11       		.byte	(.L224-.L206)/2
 1929 0034 13       		.byte	(.L205-.L206)/2
 1930 0035 00       		.p2align 1
 1931              	.L224:
 1932 0036 0720     		movs	r0, #7
 1933              	.LVL239:
 785:Src/register_interface.c **** 
 1934              		.loc 1 785 1 view .LVU538
 1935 0038 10BD     		pop	{r4, pc}
 1936              	.LVL240:
 1937              	.L205:
 1938              	.LBB123:
 743:Src/register_interface.c ****         uint8_t * rawData = data;
 1939              		.loc 1 743 9 is_stmt 1 view .LVU539
 744:Src/register_interface.c ****         rawData++;
 1940              		.loc 1 744 9 view .LVU540
 745:Src/register_interface.c ****         rawData++;
 1941              		.loc 1 745 9 view .LVU541
 746:Src/register_interface.c **** 
 1942              		.loc 1 746 9 view .LVU542
 748:Src/register_interface.c ****         {
 1943              		.loc 1 748 9 view .LVU543
 1944 003a 2828     		cmp	r0, #40
 1945 003c 2DD0     		beq	.L222
 774:Src/register_interface.c ****         break;
 1946              		.loc 1 774 28 is_stmt 0 view .LVU544
 1947 003e 1288     		ldrh	r2, [r2]
 1948              	.LVL241:
 774:Src/register_interface.c ****         break;
 1949              		.loc 1 774 28 view .LVU545
 1950 0040 0232     		adds	r2, r2, #2
 768:Src/register_interface.c ****             break;
 1951              		.loc 1 768 20 view .LVU546
 1952 0042 0520     		movs	r0, #5
 1953              	.LVL242:
 774:Src/register_interface.c ****         break;
 1954              		.loc 1 774 28 view .LVU547
 1955 0044 92B2     		uxth	r2, r2
 1956              	.LVL243:
 1957              	.L223:
 774:Src/register_interface.c ****         break;
 1958              		.loc 1 774 9 is_stmt 1 view .LVU548
 774:Src/register_interface.c ****         break;
 1959              		.loc 1 774 15 is_stmt 0 view .LVU549
 1960 0046 1A80     		strh	r2, [r3]	@ movhi
 775:Src/register_interface.c ****       }
 1961              		.loc 1 775 9 is_stmt 1 view .LVU550
 1962              	.LBE123:
 785:Src/register_interface.c **** 
 1963              		.loc 1 785 1 is_stmt 0 view .LVU551
 1964 0048 10BD     		pop	{r4, pc}
ARM GAS  C:\Users\ep_ygh\AppData\Local\Temp\ccaRZNy5.s 			page 69


 1965              	.LVL244:
 1966              	.L210:
 648:Src/register_interface.c ****         {
 1967              		.loc 1 648 9 is_stmt 1 view .LVU552
 648:Src/register_interface.c ****         {
 1968              		.loc 1 648 12 is_stmt 0 view .LVU553
 1969 004a BEF1000F 		cmp	lr, #0
 1970 004e 22DD     		ble	.L225
 650:Src/register_interface.c ****           {
 1971              		.loc 1 650 11 is_stmt 1 view .LVU554
 654:Src/register_interface.c ****               break;
 1972              		.loc 1 654 15 view .LVU555
 1973              	.LVL245:
 655:Src/register_interface.c ****             }
 1974              		.loc 1 655 15 view .LVU556
 658:Src/register_interface.c ****         }
 1975              		.loc 1 658 11 view .LVU557
 658:Src/register_interface.c ****         }
 1976              		.loc 1 658 17 is_stmt 0 view .LVU558
 1977 0050 0122     		movs	r2, #1
 1978              	.LVL246:
 658:Src/register_interface.c ****         }
 1979              		.loc 1 658 17 view .LVU559
 1980 0052 1A80     		strh	r2, [r3]	@ movhi
 654:Src/register_interface.c ****               break;
 1981              		.loc 1 654 22 view .LVU560
 1982 0054 0520     		movs	r0, #5
 1983              	.LVL247:
 785:Src/register_interface.c **** 
 1984              		.loc 1 785 1 view .LVU561
 1985 0056 10BD     		pop	{r4, pc}
 1986              	.LVL248:
 1987              	.L208:
 694:Src/register_interface.c ****         {
 1988              		.loc 1 694 9 is_stmt 1 view .LVU562
 694:Src/register_interface.c ****         {
 1989              		.loc 1 694 12 is_stmt 0 view .LVU563
 1990 0058 BEF1030F 		cmp	lr, #3
 1991 005c 19DD     		ble	.L229
 696:Src/register_interface.c ****           {
 1992              		.loc 1 696 11 is_stmt 1 view .LVU564
 701:Src/register_interface.c ****               break;
 1993              		.loc 1 701 15 view .LVU565
 1994              	.LVL249:
 702:Src/register_interface.c ****             }
 1995              		.loc 1 702 15 view .LVU566
 705:Src/register_interface.c ****         }
 1996              		.loc 1 705 11 view .LVU567
 705:Src/register_interface.c ****         }
 1997              		.loc 1 705 17 is_stmt 0 view .LVU568
 1998 005e 0422     		movs	r2, #4
 1999              	.LVL250:
 705:Src/register_interface.c ****         }
 2000              		.loc 1 705 17 view .LVU569
 2001 0060 1A80     		strh	r2, [r3]	@ movhi
 701:Src/register_interface.c ****               break;
 2002              		.loc 1 701 22 view .LVU570
ARM GAS  C:\Users\ep_ygh\AppData\Local\Temp\ccaRZNy5.s 			page 70


 2003 0062 0520     		movs	r0, #5
 2004              	.LVL251:
 785:Src/register_interface.c **** 
 2005              		.loc 1 785 1 view .LVU571
 2006 0064 10BD     		pop	{r4, pc}
 2007              	.LVL252:
 2008              	.L209:
 669:Src/register_interface.c ****         {
 2009              		.loc 1 669 9 is_stmt 1 view .LVU572
 669:Src/register_interface.c ****         {
 2010              		.loc 1 669 12 is_stmt 0 view .LVU573
 2011 0066 BEF1010F 		cmp	lr, #1
 2012 006a 12DD     		ble	.L229
 671:Src/register_interface.c ****           {
 2013              		.loc 1 671 11 is_stmt 1 view .LVU574
 2014 006c B0F5656F 		cmp	r0, #3664
 2015 0070 5CD0     		beq	.L227
 643:Src/register_interface.c ****     switch (typeID)
 2016              		.loc 1 643 13 is_stmt 0 view .LVU575
 2017 0072 B0F5696F 		cmp	r0, #3728
 2018 0076 14BF     		ite	ne
 2019 0078 0520     		movne	r0, #5
 2020              	.LVL253:
 643:Src/register_interface.c ****     switch (typeID)
 2021              		.loc 1 643 13 view .LVU576
 2022 007a 0020     		moveq	r0, #0
 2023              	.L211:
 2024              	.LVL254:
 683:Src/register_interface.c ****         }
 2025              		.loc 1 683 11 is_stmt 1 view .LVU577
 683:Src/register_interface.c ****         }
 2026              		.loc 1 683 17 is_stmt 0 view .LVU578
 2027 007c 0222     		movs	r2, #2
 2028              	.LVL255:
 683:Src/register_interface.c ****         }
 2029              		.loc 1 683 17 view .LVU579
 2030 007e 1A80     		strh	r2, [r3]	@ movhi
 785:Src/register_interface.c **** 
 2031              		.loc 1 785 1 view .LVU580
 2032 0080 10BD     		pop	{r4, pc}
 2033              	.LVL256:
 2034              	.L207:
 2035              	.LBB124:
 716:Src/register_interface.c ****         switch (regID)
 2036              		.loc 1 716 9 is_stmt 1 view .LVU581
 717:Src/register_interface.c ****         {
 2037              		.loc 1 717 9 view .LVU582
 2038 0082 2028     		cmp	r0, #32
 2039 0084 2DD0     		beq	.L212
 2040 0086 6028     		cmp	r0, #96
 2041 0088 11D0     		beq	.L213
 731:Src/register_interface.c ****             *size= 0 ; /* */
 2042              		.loc 1 731 13 view .LVU583
 2043              	.LVL257:
 732:Src/register_interface.c **** 
 2044              		.loc 1 732 13 view .LVU584
 732:Src/register_interface.c **** 
ARM GAS  C:\Users\ep_ygh\AppData\Local\Temp\ccaRZNy5.s 			page 71


 2045              		.loc 1 732 18 is_stmt 0 view .LVU585
 2046 008a 0022     		movs	r2, #0
 2047              	.LVL258:
 732:Src/register_interface.c **** 
 2048              		.loc 1 732 18 view .LVU586
 2049 008c 1A80     		strh	r2, [r3]	@ movhi
 734:Src/register_interface.c ****           }
 2050              		.loc 1 734 13 is_stmt 1 view .LVU587
 731:Src/register_interface.c ****             *size= 0 ; /* */
 2051              		.loc 1 731 20 is_stmt 0 view .LVU588
 2052 008e 0520     		movs	r0, #5
 2053              	.LVL259:
 731:Src/register_interface.c ****             *size= 0 ; /* */
 2054              		.loc 1 731 20 view .LVU589
 2055              	.LBE124:
 785:Src/register_interface.c **** 
 2056              		.loc 1 785 1 view .LVU590
 2057 0090 10BD     		pop	{r4, pc}
 2058              	.LVL260:
 2059              	.L229:
 662:Src/register_interface.c ****         }
 2060              		.loc 1 662 18 view .LVU591
 2061 0092 0820     		movs	r0, #8
 2062              	.LVL261:
 785:Src/register_interface.c **** 
 2063              		.loc 1 785 1 view .LVU592
 2064 0094 10BD     		pop	{r4, pc}
 2065              	.LVL262:
 2066              	.L225:
 662:Src/register_interface.c ****         }
 2067              		.loc 1 662 18 view .LVU593
 2068 0096 0846     		mov	r0, r1
 2069              	.LVL263:
 785:Src/register_interface.c **** 
 2070              		.loc 1 785 1 view .LVU594
 2071 0098 10BD     		pop	{r4, pc}
 2072              	.LVL264:
 2073              	.L222:
 2074              	.LBB137:
 752:Src/register_interface.c ****             if (((*rawSize) + 2U) > (uint16_t)freeSpace)
 2075              		.loc 1 752 13 is_stmt 1 view .LVU595
 753:Src/register_interface.c ****             {
 2076              		.loc 1 753 16 is_stmt 0 view .LVU596
 2077 009a 1FFA8EFE 		uxth	lr, lr
 752:Src/register_interface.c ****             if (((*rawSize) + 2U) > (uint16_t)freeSpace)
 2078              		.loc 1 752 22 view .LVU597
 2079 009e 0A21     		movs	r1, #10
 2080              	.LVL265:
 753:Src/register_interface.c ****             {
 2081              		.loc 1 753 16 view .LVU598
 2082 00a0 BEF10B0F 		cmp	lr, #11
 752:Src/register_interface.c ****             if (((*rawSize) + 2U) > (uint16_t)freeSpace)
 2083              		.loc 1 752 22 view .LVU599
 2084 00a4 1180     		strh	r1, [r2]	@ movhi
 753:Src/register_interface.c ****             {
 2085              		.loc 1 753 13 is_stmt 1 view .LVU600
 753:Src/register_interface.c ****             {
ARM GAS  C:\Users\ep_ygh\AppData\Local\Temp\ccaRZNy5.s 			page 72


 2086              		.loc 1 753 16 is_stmt 0 view .LVU601
 2087 00a6 34D8     		bhi	.L246
 2088 00a8 0C22     		movs	r2, #12
 2089              	.LVL266:
 755:Src/register_interface.c ****             }
 2090              		.loc 1 755 22 view .LVU602
 2091 00aa 0820     		movs	r0, #8
 2092              	.LVL267:
 755:Src/register_interface.c ****             }
 2093              		.loc 1 755 22 view .LVU603
 2094 00ac CBE7     		b	.L223
 2095              	.LVL268:
 2096              	.L213:
 755:Src/register_interface.c ****             }
 2097              		.loc 1 755 22 view .LVU604
 2098              	.LBE137:
 2099              	.LBB138:
 725:Src/register_interface.c ****             break;
 2100              		.loc 1 725 13 is_stmt 1 view .LVU605
 2101              	.LBB125:
 2102              	.LBI125:
1379:Src/register_interface.c **** {
 2103              		.loc 1 1379 9 view .LVU606
 2104              	.LBB126:
1381:Src/register_interface.c ****   const char_t *tempsrcString = srcString;
 2105              		.loc 1 1381 3 view .LVU607
1382:Src/register_interface.c ****   char_t *tempdestString = destString;
 2106              		.loc 1 1382 3 view .LVU608
1383:Src/register_interface.c ****   *size= 1U ; /* /0 is the min String size */
 2107              		.loc 1 1383 3 view .LVU609
1384:Src/register_interface.c **** 
 2108              		.loc 1 1384 3 view .LVU610
1386:Src/register_interface.c ****   {
 2109              		.loc 1 1386 11 is_stmt 0 view .LVU611
 2110 00ae 204C     		ldr	r4, .L247
 2111 00b0 94F90000 		ldrsb	r0, [r4]
 2112              	.LVL269:
1384:Src/register_interface.c **** 
 2113              		.loc 1 1384 8 view .LVU612
 2114 00b4 0121     		movs	r1, #1
 2115              	.LVL270:
1384:Src/register_interface.c **** 
 2116              		.loc 1 1384 8 view .LVU613
 2117 00b6 1980     		strh	r1, [r3]	@ movhi
1386:Src/register_interface.c ****   {
 2118              		.loc 1 1386 3 is_stmt 1 view .LVU614
1386:Src/register_interface.c ****   {
 2119              		.loc 1 1386 9 view .LVU615
 2120 00b8 80B1     		cbz	r0, .L218
 2121              	.LBE126:
 2122              	.LBE125:
 2123              	.LBB129:
 2124              	.LBB130:
1386:Src/register_interface.c ****   {
 2125              		.loc 1 1386 50 is_stmt 0 view .LVU616
 2126 00ba 1FFA8EFE 		uxth	lr, lr
1386:Src/register_interface.c ****   {
ARM GAS  C:\Users\ep_ygh\AppData\Local\Temp\ccaRZNy5.s 			page 73


 2127              		.loc 1 1386 50 view .LVU617
 2128              	.LBE130:
 2129              	.LBE129:
 2130              	.LBB133:
 2131              	.LBB127:
1382:Src/register_interface.c ****   char_t *tempdestString = destString;
 2132              		.loc 1 1382 17 view .LVU618
 2133 00be A446     		mov	ip, r4
 2134 00c0 08E0     		b	.L219
 2135              	.LVL271:
 2136              	.L220:
1388:Src/register_interface.c ****     tempdestString++;
 2137              		.loc 1 1388 21 view .LVU619
 2138 00c2 02F8010B 		strb	r0, [r2], #1
 2139              	.LVL272:
1389:Src/register_interface.c ****     tempsrcString++;
 2140              		.loc 1 1389 5 is_stmt 1 view .LVU620
1390:Src/register_interface.c ****     *size = *size + 1U;
 2141              		.loc 1 1390 5 view .LVU621
1391:Src/register_interface.c ****   }
 2142              		.loc 1 1391 5 view .LVU622
1391:Src/register_interface.c ****   }
 2143              		.loc 1 1391 19 is_stmt 0 view .LVU623
 2144 00c6 1988     		ldrh	r1, [r3]
 2145 00c8 0131     		adds	r1, r1, #1
 2146 00ca 89B2     		uxth	r1, r1
1391:Src/register_interface.c ****   }
 2147              		.loc 1 1391 11 view .LVU624
 2148 00cc 1980     		strh	r1, [r3]	@ movhi
1386:Src/register_interface.c ****   {
 2149              		.loc 1 1386 9 is_stmt 1 view .LVU625
1386:Src/register_interface.c ****   {
 2150              		.loc 1 1386 11 is_stmt 0 view .LVU626
 2151 00ce 1CF9010F 		ldrsb	r0, [ip, #1]!
 2152              	.LVL273:
1386:Src/register_interface.c ****   {
 2153              		.loc 1 1386 9 view .LVU627
 2154 00d2 18B1     		cbz	r0, .L218
 2155              	.LVL274:
 2156              	.L219:
1388:Src/register_interface.c ****     tempdestString++;
 2157              		.loc 1 1388 5 is_stmt 1 view .LVU628
1386:Src/register_interface.c ****   {
 2158              		.loc 1 1386 40 is_stmt 0 view .LVU629
 2159 00d4 8E45     		cmp	lr, r1
 2160 00d6 F4D8     		bhi	.L220
 2161              	.LVL275:
 2162              	.L221:
1386:Src/register_interface.c ****   {
 2163              		.loc 1 1386 40 view .LVU630
 2164              	.LBE127:
 2165              	.LBE133:
 2166              	.LBB134:
 2167              	.LBB131:
1396:Src/register_interface.c ****   }
 2168              		.loc 1 1396 12 view .LVU631
 2169 00d8 0620     		movs	r0, #6
ARM GAS  C:\Users\ep_ygh\AppData\Local\Temp\ccaRZNy5.s 			page 74


 2170              	.LBE131:
 2171              	.LBE134:
 2172              	.LBE138:
 785:Src/register_interface.c **** 
 2173              		.loc 1 785 1 view .LVU632
 2174 00da 10BD     		pop	{r4, pc}
 2175              	.LVL276:
 2176              	.L218:
 2177              	.LBB139:
 2178              	.LBB135:
 2179              	.LBB128:
1394:Src/register_interface.c ****   { /* Last string char must be 0 */
 2180              		.loc 1 1394 3 is_stmt 1 view .LVU633
 2181              		.loc 1 1400 5 view .LVU634
 2182              		.loc 1 1400 21 is_stmt 0 view .LVU635
 2183 00dc 0020     		movs	r0, #0
 2184 00de 1070     		strb	r0, [r2]
 2185              	.LVL277:
 2186              		.loc 1 1400 21 view .LVU636
 2187              	.LBE128:
 2188              	.LBE135:
 2189              	.LBE139:
 784:Src/register_interface.c **** }
 2190              		.loc 1 784 3 is_stmt 1 view .LVU637
 785:Src/register_interface.c **** 
 2191              		.loc 1 785 1 is_stmt 0 view .LVU638
 2192 00e0 10BD     		pop	{r4, pc}
 2193              	.LVL278:
 2194              	.L212:
 2195              	.LBB140:
 720:Src/register_interface.c ****             break;
 2196              		.loc 1 720 13 is_stmt 1 view .LVU639
 2197              	.LBB136:
 2198              	.LBI129:
1379:Src/register_interface.c **** {
 2199              		.loc 1 1379 9 view .LVU640
 2200              	.LBB132:
1381:Src/register_interface.c ****   const char_t *tempsrcString = srcString;
 2201              		.loc 1 1381 3 view .LVU641
1382:Src/register_interface.c ****   char_t *tempdestString = destString;
 2202              		.loc 1 1382 3 view .LVU642
1383:Src/register_interface.c ****   *size= 1U ; /* /0 is the min String size */
 2203              		.loc 1 1383 3 view .LVU643
1384:Src/register_interface.c **** 
 2204              		.loc 1 1384 3 view .LVU644
1386:Src/register_interface.c ****   {
 2205              		.loc 1 1386 11 is_stmt 0 view .LVU645
 2206 00e2 144C     		ldr	r4, .L247+4
 2207 00e4 94F90000 		ldrsb	r0, [r4]
 2208              	.LVL279:
1384:Src/register_interface.c **** 
 2209              		.loc 1 1384 8 view .LVU646
 2210 00e8 0121     		movs	r1, #1
 2211              	.LVL280:
1384:Src/register_interface.c **** 
 2212              		.loc 1 1384 8 view .LVU647
 2213 00ea 1980     		strh	r1, [r3]	@ movhi
ARM GAS  C:\Users\ep_ygh\AppData\Local\Temp\ccaRZNy5.s 			page 75


1386:Src/register_interface.c ****   {
 2214              		.loc 1 1386 3 is_stmt 1 view .LVU648
1386:Src/register_interface.c ****   {
 2215              		.loc 1 1386 9 view .LVU649
 2216 00ec 0028     		cmp	r0, #0
 2217 00ee F5D0     		beq	.L218
1386:Src/register_interface.c ****   {
 2218              		.loc 1 1386 50 is_stmt 0 view .LVU650
 2219 00f0 1FFA8EFE 		uxth	lr, lr
1382:Src/register_interface.c ****   char_t *tempdestString = destString;
 2220              		.loc 1 1382 17 view .LVU651
 2221 00f4 A446     		mov	ip, r4
 2222 00f6 09E0     		b	.L216
 2223              	.LVL281:
 2224              	.L217:
1388:Src/register_interface.c ****     tempdestString++;
 2225              		.loc 1 1388 21 view .LVU652
 2226 00f8 02F8010B 		strb	r0, [r2], #1
 2227              	.LVL282:
1389:Src/register_interface.c ****     tempsrcString++;
 2228              		.loc 1 1389 5 is_stmt 1 view .LVU653
1390:Src/register_interface.c ****     *size = *size + 1U;
 2229              		.loc 1 1390 5 view .LVU654
1391:Src/register_interface.c ****   }
 2230              		.loc 1 1391 5 view .LVU655
1391:Src/register_interface.c ****   }
 2231              		.loc 1 1391 19 is_stmt 0 view .LVU656
 2232 00fc 1988     		ldrh	r1, [r3]
 2233 00fe 0131     		adds	r1, r1, #1
 2234 0100 89B2     		uxth	r1, r1
1391:Src/register_interface.c ****   }
 2235              		.loc 1 1391 11 view .LVU657
 2236 0102 1980     		strh	r1, [r3]	@ movhi
1386:Src/register_interface.c ****   {
 2237              		.loc 1 1386 9 is_stmt 1 view .LVU658
1386:Src/register_interface.c ****   {
 2238              		.loc 1 1386 11 is_stmt 0 view .LVU659
 2239 0104 1CF9010F 		ldrsb	r0, [ip, #1]!
 2240              	.LVL283:
1386:Src/register_interface.c ****   {
 2241              		.loc 1 1386 9 view .LVU660
 2242 0108 0028     		cmp	r0, #0
 2243 010a E7D0     		beq	.L218
 2244              	.LVL284:
 2245              	.L216:
1388:Src/register_interface.c ****     tempdestString++;
 2246              		.loc 1 1388 5 is_stmt 1 view .LVU661
1386:Src/register_interface.c ****   {
 2247              		.loc 1 1386 40 is_stmt 0 view .LVU662
 2248 010c 7145     		cmp	r1, lr
 2249 010e F3D3     		bcc	.L217
1386:Src/register_interface.c ****   {
 2250              		.loc 1 1386 40 view .LVU663
 2251 0110 E2E7     		b	.L221
 2252              	.LVL285:
 2253              	.L246:
1386:Src/register_interface.c ****   {
ARM GAS  C:\Users\ep_ygh\AppData\Local\Temp\ccaRZNy5.s 			page 76


 2254              		.loc 1 1386 40 view .LVU664
 2255              	.LBE132:
 2256              	.LBE136:
 2257              	.LBE140:
 2258              	.LBB141:
 759:Src/register_interface.c ****             }
 2259              		.loc 1 759 15 is_stmt 1 view .LVU665
 759:Src/register_interface.c ****             }
 2260              		.loc 1 759 21 is_stmt 0 view .LVU666
 2261 0112 0949     		ldr	r1, .L247+8
 2262 0114 4868     		ldr	r0, [r1, #4]	@ unaligned
 2263              	.LVL286:
 759:Src/register_interface.c ****             }
 2264              		.loc 1 759 21 view .LVU667
 2265 0116 D1F800C0 		ldr	ip, [r1]	@ unaligned
 2266 011a 0989     		ldrh	r1, [r1, #8]	@ unaligned
 2267 011c C2F80600 		str	r0, [r2, #6]	@ unaligned
 2268 0120 C2F802C0 		str	ip, [r2, #2]	@ unaligned
 2269 0124 5181     		strh	r1, [r2, #10]	@ unaligned
 2270              	.LBE141:
 643:Src/register_interface.c ****     switch (typeID)
 2271              		.loc 1 643 13 view .LVU668
 2272 0126 0020     		movs	r0, #0
 2273              	.LBB142:
 759:Src/register_interface.c ****             }
 2274              		.loc 1 759 21 view .LVU669
 2275 0128 0C22     		movs	r2, #12
 2276              	.LVL287:
 759:Src/register_interface.c ****             }
 2277              		.loc 1 759 21 view .LVU670
 2278 012a 8CE7     		b	.L223
 2279              	.LVL288:
 2280              	.L227:
 759:Src/register_interface.c ****             }
 2281              		.loc 1 759 21 view .LVU671
 2282              	.LBE142:
 643:Src/register_interface.c ****     switch (typeID)
 2283              		.loc 1 643 13 view .LVU672
 2284 012c 0020     		movs	r0, #0
 2285              	.LVL289:
 643:Src/register_interface.c ****     switch (typeID)
 2286              		.loc 1 643 13 view .LVU673
 2287 012e A5E7     		b	.L211
 2288              	.L248:
 2289              		.align	2
 2290              	.L247:
 2291 0130 00000000 		.word	CTL_BOARD
 2292 0134 00000000 		.word	FIRMWARE_NAME
 2293 0138 00000000 		.word	globalConfig_reg
 2294              		.cfi_endproc
 2295              	.LFE1092:
 2297              		.section	.text.RI_GetRegisterMotor1,"ax",%progbits
 2298              		.align	1
 2299              		.p2align 2,,3
 2300              		.global	RI_GetRegisterMotor1
 2301              		.syntax unified
 2302              		.thumb
ARM GAS  C:\Users\ep_ygh\AppData\Local\Temp\ccaRZNy5.s 			page 77


 2303              		.thumb_func
 2305              	RI_GetRegisterMotor1:
 2306              	.LVL290:
 2307              	.LFB1093:
 787:Src/register_interface.c ****     uint8_t retVal = MCP_CMD_OK;
 2308              		.loc 1 787 111 is_stmt 1 view -0
 2309              		.cfi_startproc
 2310              		@ args = 4, pretend = 0, frame = 88
 2311              		@ frame_needed = 0, uses_anonymous_args = 0
 788:Src/register_interface.c ****     uint8_t motorID=0;
 2312              		.loc 1 788 5 view .LVU675
 789:Src/register_interface.c ****     MCI_Handle_t *pMCIN = &Mci[motorID];
 2313              		.loc 1 789 5 view .LVU676
 790:Src/register_interface.c ****     BusVoltageSensor_Handle_t* BusVoltageSensor= &BusVoltageSensor_M1._Super;
 2314              		.loc 1 790 5 view .LVU677
 791:Src/register_interface.c ****     switch (typeID)
 2315              		.loc 1 791 5 view .LVU678
 792:Src/register_interface.c ****     {
 2316              		.loc 1 792 5 view .LVU679
 787:Src/register_interface.c ****     uint8_t retVal = MCP_CMD_OK;
 2317              		.loc 1 787 111 is_stmt 0 view .LVU680
 2318 0000 2DE9F041 		push	{r4, r5, r6, r7, r8, lr}
 2319              	.LCFI21:
 2320              		.cfi_def_cfa_offset 24
 2321              		.cfi_offset 4, -24
 2322              		.cfi_offset 5, -20
 2323              		.cfi_offset 6, -16
 2324              		.cfi_offset 7, -12
 2325              		.cfi_offset 8, -8
 2326              		.cfi_offset 14, -4
 2327 0004 96B0     		sub	sp, sp, #88
 2328              	.LCFI22:
 2329              		.cfi_def_cfa_offset 112
 787:Src/register_interface.c ****     uint8_t retVal = MCP_CMD_OK;
 2330              		.loc 1 787 111 view .LVU681
 2331 0006 1D46     		mov	r5, r3
 792:Src/register_interface.c ****     {
 2332              		.loc 1 792 5 view .LVU682
 2333 0008 A1F10803 		sub	r3, r1, #8
 2334              	.LVL291:
 787:Src/register_interface.c ****     uint8_t retVal = MCP_CMD_OK;
 2335              		.loc 1 787 111 view .LVU683
 2336 000c BDF970C0 		ldrsh	ip, [sp, #112]
 2337 0010 1446     		mov	r4, r2
 792:Src/register_interface.c ****     {
 2338              		.loc 1 792 5 view .LVU684
 2339 0012 202B     		cmp	r3, #32
 2340 0014 12D8     		bhi	.L354
 2341 0016 DFE803F0 		tbb	[pc, r3]
 2342              	.LVL292:
 2343              	.L252:
 2344 001a 35       		.byte	(.L256-.L252)/2
 2345 001b 11       		.byte	(.L354-.L252)/2
 2346 001c 11       		.byte	(.L354-.L252)/2
 2347 001d 11       		.byte	(.L354-.L252)/2
 2348 001e 11       		.byte	(.L354-.L252)/2
 2349 001f 11       		.byte	(.L354-.L252)/2
ARM GAS  C:\Users\ep_ygh\AppData\Local\Temp\ccaRZNy5.s 			page 78


 2350 0020 11       		.byte	(.L354-.L252)/2
 2351 0021 11       		.byte	(.L354-.L252)/2
 2352 0022 6E       		.byte	(.L255-.L252)/2
 2353 0023 11       		.byte	(.L354-.L252)/2
 2354 0024 11       		.byte	(.L354-.L252)/2
 2355 0025 11       		.byte	(.L354-.L252)/2
 2356 0026 11       		.byte	(.L354-.L252)/2
 2357 0027 11       		.byte	(.L354-.L252)/2
 2358 0028 11       		.byte	(.L354-.L252)/2
 2359 0029 11       		.byte	(.L354-.L252)/2
 2360 002a 48       		.byte	(.L254-.L252)/2
 2361 002b 11       		.byte	(.L354-.L252)/2
 2362 002c 11       		.byte	(.L354-.L252)/2
 2363 002d 11       		.byte	(.L354-.L252)/2
 2364 002e 11       		.byte	(.L354-.L252)/2
 2365 002f 11       		.byte	(.L354-.L252)/2
 2366 0030 11       		.byte	(.L354-.L252)/2
 2367 0031 11       		.byte	(.L354-.L252)/2
 2368 0032 64       		.byte	(.L253-.L252)/2
 2369 0033 11       		.byte	(.L354-.L252)/2
 2370 0034 11       		.byte	(.L354-.L252)/2
 2371 0035 11       		.byte	(.L354-.L252)/2
 2372 0036 11       		.byte	(.L354-.L252)/2
 2373 0037 11       		.byte	(.L354-.L252)/2
 2374 0038 11       		.byte	(.L354-.L252)/2
 2375 0039 11       		.byte	(.L354-.L252)/2
 2376 003a 15       		.byte	(.L251-.L252)/2
 2377 003b 00       		.p2align 1
 2378              	.L354:
 792:Src/register_interface.c ****     {
 2379              		.loc 1 792 5 view .LVU685
 2380 003c 0720     		movs	r0, #7
 2381              	.LVL293:
 2382              	.L381:
1377:Src/register_interface.c **** 
 2383              		.loc 1 1377 3 view .LVU686
 2384 003e 16B0     		add	sp, sp, #88
 2385              	.LCFI23:
 2386              		.cfi_remember_state
 2387              		.cfi_def_cfa_offset 24
 2388              		@ sp needed
 2389 0040 BDE8F081 		pop	{r4, r5, r6, r7, r8, pc}
 2390              	.LVL294:
 2391              	.L251:
 2392              	.LCFI24:
 2393              		.cfi_restore_state
 2394              	.LBB143:
1229:Src/register_interface.c ****         uint8_t * rawData = data;
 2395              		.loc 1 1229 9 is_stmt 1 view .LVU687
1230:Src/register_interface.c ****         rawData++;
 2396              		.loc 1 1230 9 view .LVU688
1231:Src/register_interface.c ****         rawData++;
 2397              		.loc 1 1231 9 view .LVU689
1232:Src/register_interface.c **** 
 2398              		.loc 1 1232 9 view .LVU690
 2399 0044 B0F5D47F 		cmp	r0, #424
1232:Src/register_interface.c **** 
ARM GAS  C:\Users\ep_ygh\AppData\Local\Temp\ccaRZNy5.s 			page 79


 2400              		.loc 1 1232 16 is_stmt 0 view .LVU691
 2401 0048 04F10203 		add	r3, r4, #2
 2402              	.LVL295:
1234:Src/register_interface.c ****         {
 2403              		.loc 1 1234 9 is_stmt 1 view .LVU692
 2404 004c 00F0E382 		beq	.L339
 2405 0050 00F28A80 		bhi	.L340
 2406 0054 E828     		cmp	r0, #232
 2407 0056 00F0CE82 		beq	.L341
 2408 005a 76D8     		bhi	.L342
 2409 005c 6828     		cmp	r0, #104
 2410 005e 00F0C082 		beq	.L343
 2411 0062 A828     		cmp	r0, #168
 2412 0064 40F0D282 		bne	.L345
1238:Src/register_interface.c ****             if (((*rawSize) + 2U) > (uint16_t)freeSpace)
 2413              		.loc 1 1238 13 view .LVU693
1239:Src/register_interface.c ****             {
 2414              		.loc 1 1239 16 is_stmt 0 view .LVU694
 2415 0068 1FFA8CFC 		uxth	ip, ip
1238:Src/register_interface.c ****             if (((*rawSize) + 2U) > (uint16_t)freeSpace)
 2416              		.loc 1 1238 22 view .LVU695
 2417 006c 1022     		movs	r2, #16
1239:Src/register_interface.c ****             {
 2418              		.loc 1 1239 16 view .LVU696
 2419 006e BCF1110F 		cmp	ip, #17
1238:Src/register_interface.c ****             if (((*rawSize) + 2U) > (uint16_t)freeSpace)
 2420              		.loc 1 1238 22 view .LVU697
 2421 0072 2280     		strh	r2, [r4]	@ movhi
1239:Src/register_interface.c ****             {
 2422              		.loc 1 1239 13 is_stmt 1 view .LVU698
1239:Src/register_interface.c ****             {
 2423              		.loc 1 1239 16 is_stmt 0 view .LVU699
 2424 0074 00F29282 		bhi	.L385
 2425 0078 1223     		movs	r3, #18
 2426              	.LVL296:
1241:Src/register_interface.c ****             }
 2427              		.loc 1 1241 22 view .LVU700
 2428 007a 0820     		movs	r0, #8
 2429              	.LVL297:
 2430              	.L350:
1366:Src/register_interface.c ****         break;
 2431              		.loc 1 1366 9 is_stmt 1 view .LVU701
1366:Src/register_interface.c ****         break;
 2432              		.loc 1 1366 15 is_stmt 0 view .LVU702
 2433 007c 2B80     		strh	r3, [r5]	@ movhi
1367:Src/register_interface.c ****       }
 2434              		.loc 1 1367 9 is_stmt 1 view .LVU703
 2435              	.LBE143:
1377:Src/register_interface.c **** 
 2436              		.loc 1 1377 3 is_stmt 0 view .LVU704
 2437 007e 16B0     		add	sp, sp, #88
 2438              	.LCFI25:
 2439              		.cfi_remember_state
 2440              		.cfi_def_cfa_offset 24
 2441              		@ sp needed
 2442 0080 BDE8F081 		pop	{r4, r5, r6, r7, r8, pc}
 2443              	.LVL298:
ARM GAS  C:\Users\ep_ygh\AppData\Local\Temp\ccaRZNy5.s 			page 80


 2444              	.L256:
 2445              	.LCFI26:
 2446              		.cfi_restore_state
 796:Src/register_interface.c ****         {
 2447              		.loc 1 796 9 is_stmt 1 view .LVU705
 796:Src/register_interface.c ****         {
 2448              		.loc 1 796 12 is_stmt 0 view .LVU706
 2449 0084 BCF1000F 		cmp	ip, #0
 2450 0088 40F39582 		ble	.L355
 798:Src/register_interface.c ****           {
 2451              		.loc 1 798 11 is_stmt 1 view .LVU707
 2452 008c 8828     		cmp	r0, #136
 2453 008e 00F09C82 		beq	.L257
 2454 0092 C828     		cmp	r0, #200
 2455 0094 00F09382 		beq	.L258
 2456 0098 4828     		cmp	r0, #72
 2457 009a 00F09C82 		beq	.L386
 2458 009e 0520     		movs	r0, #5
 2459              	.LVL299:
 2460              	.L259:
 824:Src/register_interface.c ****         }
 2461              		.loc 1 824 11 view .LVU708
 824:Src/register_interface.c ****         }
 2462              		.loc 1 824 17 is_stmt 0 view .LVU709
 2463 00a0 0123     		movs	r3, #1
 2464 00a2 2B80     		strh	r3, [r5]	@ movhi
1377:Src/register_interface.c **** 
 2465              		.loc 1 1377 3 view .LVU710
 2466 00a4 16B0     		add	sp, sp, #88
 2467              	.LCFI27:
 2468              		.cfi_remember_state
 2469              		.cfi_def_cfa_offset 24
 2470              		@ sp needed
 2471 00a6 BDE8F081 		pop	{r4, r5, r6, r7, r8, pc}
 2472              	.LVL300:
 2473              	.L254:
 2474              	.LCFI28:
 2475              		.cfi_restore_state
 2476              	.LBB161:
1140:Src/register_interface.c ****         int32_t *regdata32 = (int32_t *)data; //cstat !MISRAC2012-Rule-11.3
 2477              		.loc 1 1140 9 is_stmt 1 view .LVU711
1141:Src/register_interface.c **** 
 2478              		.loc 1 1141 9 view .LVU712
1143:Src/register_interface.c ****         {
 2479              		.loc 1 1143 9 view .LVU713
1143:Src/register_interface.c ****         {
 2480              		.loc 1 1143 12 is_stmt 0 view .LVU714
 2481 00aa BCF1030F 		cmp	ip, #3
 2482 00ae 40F33182 		ble	.L361
1145:Src/register_interface.c ****           {
 2483              		.loc 1 1145 11 is_stmt 1 view .LVU715
 2484 00b2 D828     		cmp	r0, #216
 2485 00b4 00F0FE82 		beq	.L321
 2486 00b8 00F21A82 		bhi	.L322
 2487 00bc 5828     		cmp	r0, #88
 2488 00be 00F00583 		beq	.L323
 2489 00c2 9828     		cmp	r0, #152
ARM GAS  C:\Users\ep_ygh\AppData\Local\Temp\ccaRZNy5.s 			page 81


 2490 00c4 40F00C82 		bne	.L387
1160:Src/register_interface.c ****               break;
 2491              		.loc 1 1160 15 view .LVU716
1160:Src/register_interface.c ****               break;
 2492              		.loc 1 1160 39 is_stmt 0 view .LVU717
 2493 00c8 A748     		ldr	r0, .L422
 2494              	.LVL301:
1160:Src/register_interface.c ****               break;
 2495              		.loc 1 1160 39 view .LVU718
 2496 00ca FFF7FEFF 		bl	MCI_GetMecSpeedRefUnit
 2497              	.LVL302:
1160:Src/register_interface.c ****               break;
 2498              		.loc 1 1160 78 view .LVU719
 2499 00ce 00EB4000 		add	r0, r0, r0, lsl #1
 2500 00d2 4000     		lsls	r0, r0, #1
1160:Src/register_interface.c ****               break;
 2501              		.loc 1 1160 26 view .LVU720
 2502 00d4 2060     		str	r0, [r4]
1161:Src/register_interface.c ****             }
 2503              		.loc 1 1161 15 is_stmt 1 view .LVU721
 2504              	.LBE161:
 788:Src/register_interface.c ****     uint8_t motorID=0;
 2505              		.loc 1 788 13 is_stmt 0 view .LVU722
 2506 00d6 0020     		movs	r0, #0
 2507              	.L326:
 2508              	.LVL303:
 2509              	.LBB163:
1190:Src/register_interface.c ****         }
 2510              		.loc 1 1190 11 is_stmt 1 view .LVU723
1190:Src/register_interface.c ****         }
 2511              		.loc 1 1190 17 is_stmt 0 view .LVU724
 2512 00d8 0423     		movs	r3, #4
 2513 00da 2B80     		strh	r3, [r5]	@ movhi
 2514              	.LBE163:
1377:Src/register_interface.c **** 
 2515              		.loc 1 1377 3 view .LVU725
 2516 00dc 16B0     		add	sp, sp, #88
 2517              	.LCFI29:
 2518              		.cfi_remember_state
 2519              		.cfi_def_cfa_offset 24
 2520              		@ sp needed
 2521 00de BDE8F081 		pop	{r4, r5, r6, r7, r8, pc}
 2522              	.LVL304:
 2523              	.L253:
 2524              	.LCFI30:
 2525              		.cfi_restore_state
 2526              	.LBB164:
1201:Src/register_interface.c ****         switch (regID)
 2527              		.loc 1 1201 9 is_stmt 1 view .LVU726
1202:Src/register_interface.c ****         {
 2528              		.loc 1 1202 9 view .LVU727
 2529 00e2 A028     		cmp	r0, #160
 2530 00e4 00F03682 		beq	.L329
 2531 00e8 E028     		cmp	r0, #224
 2532 00ea 00F01782 		beq	.L330
1218:Src/register_interface.c ****             *size= 0 ; /* */
 2533              		.loc 1 1218 13 view .LVU728
ARM GAS  C:\Users\ep_ygh\AppData\Local\Temp\ccaRZNy5.s 			page 82


 2534              	.LVL305:
1219:Src/register_interface.c ****             break;
 2535              		.loc 1 1219 13 view .LVU729
1219:Src/register_interface.c ****             break;
 2536              		.loc 1 1219 18 is_stmt 0 view .LVU730
 2537 00ee 0023     		movs	r3, #0
 2538 00f0 2B80     		strh	r3, [r5]	@ movhi
1220:Src/register_interface.c ****           }
 2539              		.loc 1 1220 13 is_stmt 1 view .LVU731
1218:Src/register_interface.c ****             *size= 0 ; /* */
 2540              		.loc 1 1218 20 is_stmt 0 view .LVU732
 2541 00f2 0520     		movs	r0, #5
 2542              	.LVL306:
1220:Src/register_interface.c ****           }
 2543              		.loc 1 1220 13 view .LVU733
 2544 00f4 A3E7     		b	.L381
 2545              	.LVL307:
 2546              	.L255:
1220:Src/register_interface.c ****           }
 2547              		.loc 1 1220 13 view .LVU734
 2548              	.LBE164:
 2549              	.LBB181:
 835:Src/register_interface.c ****         int16_t *regdata16 = (int16_t *) data; //cstat !MISRAC2012-Rule-11.3
 2550              		.loc 1 835 9 is_stmt 1 view .LVU735
 836:Src/register_interface.c **** 
 2551              		.loc 1 836 9 view .LVU736
 838:Src/register_interface.c ****         {
 2552              		.loc 1 838 9 view .LVU737
 838:Src/register_interface.c ****         {
 2553              		.loc 1 838 12 is_stmt 0 view .LVU738
 2554 00f6 BCF1010F 		cmp	ip, #1
 2555 00fa 40F30B82 		ble	.L361
 840:Src/register_interface.c ****           {
 2556              		.loc 1 840 11 is_stmt 1 view .LVU739
 2557 00fe B0F51D6F 		cmp	r0, #2512
 2558 0102 00F01683 		beq	.L260
 2559 0106 00F29880 		bhi	.L261
 2560 010a B0F58A6F 		cmp	r0, #1104
 2561 010e 00F03683 		beq	.L262
 2562 0112 6CD8     		bhi	.L263
 2563 0114 B0F5047F 		cmp	r0, #528
 2564 0118 00F02B83 		beq	.L264
 2565 011c 7DD9     		bls	.L388
 2566 011e B0F5447F 		cmp	r0, #784
 2567 0122 00F01A83 		beq	.L273
 2568 0126 59D9     		bls	.L389
 2569 0128 B0F5547F 		cmp	r0, #848
 2570 012c 49D1     		bne	.L390
 2571              	.LBB182:
1020:Src/register_interface.c ****               int16_t hC2;
 2572              		.loc 1 1020 15 view .LVU740
1021:Src/register_interface.c ****               STO_PLL_GetObserverGains(&STO_PLL_M1, &hC1, &hC2);
 2573              		.loc 1 1021 15 view .LVU741
1022:Src/register_interface.c ****               *regdata16 = hC1;
 2574              		.loc 1 1022 15 view .LVU742
 2575 012e 8F48     		ldr	r0, .L422+4
 2576              	.LVL308:
ARM GAS  C:\Users\ep_ygh\AppData\Local\Temp\ccaRZNy5.s 			page 83


1022:Src/register_interface.c ****               *regdata16 = hC1;
 2577              		.loc 1 1022 15 is_stmt 0 view .LVU743
 2578 0130 13AA     		add	r2, sp, #76
 2579 0132 12A9     		add	r1, sp, #72
 2580              	.LVL309:
1022:Src/register_interface.c ****               *regdata16 = hC1;
 2581              		.loc 1 1022 15 view .LVU744
 2582 0134 FFF7FEFF 		bl	STO_PLL_GetObserverGains
 2583              	.LVL310:
1023:Src/register_interface.c ****               break;
 2584              		.loc 1 1023 15 is_stmt 1 view .LVU745
1023:Src/register_interface.c ****               break;
 2585              		.loc 1 1023 26 is_stmt 0 view .LVU746
 2586 0138 BDF84830 		ldrh	r3, [sp, #72]
 2587 013c 2380     		strh	r3, [r4]	@ movhi
1024:Src/register_interface.c ****             }
 2588              		.loc 1 1024 15 is_stmt 1 view .LVU747
 2589              	.LBE182:
 2590              	.LBE181:
 788:Src/register_interface.c ****     uint8_t motorID=0;
 2591              		.loc 1 788 13 is_stmt 0 view .LVU748
 2592 013e 0020     		movs	r0, #0
 2593              	.LVL311:
 2594              	.L270:
 2595              	.LBB184:
1129:Src/register_interface.c ****         }
 2596              		.loc 1 1129 11 is_stmt 1 view .LVU749
1129:Src/register_interface.c ****         }
 2597              		.loc 1 1129 17 is_stmt 0 view .LVU750
 2598 0140 0223     		movs	r3, #2
 2599 0142 2B80     		strh	r3, [r5]	@ movhi
 2600              	.L405:
1129:Src/register_interface.c ****         }
 2601              		.loc 1 1129 17 view .LVU751
 2602              	.LBE184:
1377:Src/register_interface.c **** 
 2603              		.loc 1 1377 3 view .LVU752
 2604 0144 16B0     		add	sp, sp, #88
 2605              	.LCFI31:
 2606              		.cfi_remember_state
 2607              		.cfi_def_cfa_offset 24
 2608              		@ sp needed
 2609 0146 BDE8F081 		pop	{r4, r5, r6, r7, r8, pc}
 2610              	.LVL312:
 2611              	.L342:
 2612              	.LCFI32:
 2613              		.cfi_restore_state
 2614              	.LBB185:
1377:Src/register_interface.c **** 
 2615              		.loc 1 1377 3 view .LVU753
 2616 014a B0F5947F 		cmp	r0, #296
 2617 014e 40F05D82 		bne	.L345
1283:Src/register_interface.c ****             if ((*rawSize) +2U > (uint16_t)freeSpace)
 2618              		.loc 1 1283 13 is_stmt 1 view .LVU754
1284:Src/register_interface.c ****             {
 2619              		.loc 1 1284 16 is_stmt 0 view .LVU755
 2620 0152 1FFA8CFC 		uxth	ip, ip
ARM GAS  C:\Users\ep_ygh\AppData\Local\Temp\ccaRZNy5.s 			page 84


1283:Src/register_interface.c ****             if ((*rawSize) +2U > (uint16_t)freeSpace)
 2621              		.loc 1 1283 22 view .LVU756
 2622 0156 0C22     		movs	r2, #12
1284:Src/register_interface.c ****             {
 2623              		.loc 1 1284 16 view .LVU757
 2624 0158 BCF10D0F 		cmp	ip, #13
1283:Src/register_interface.c ****             if ((*rawSize) +2U > (uint16_t)freeSpace)
 2625              		.loc 1 1283 22 view .LVU758
 2626 015c 2280     		strh	r2, [r4]	@ movhi
1284:Src/register_interface.c ****             {
 2627              		.loc 1 1284 13 is_stmt 1 view .LVU759
1284:Src/register_interface.c ****             {
 2628              		.loc 1 1284 16 is_stmt 0 view .LVU760
 2629 015e 00F21182 		bhi	.L391
 2630 0162 0E23     		movs	r3, #14
 2631              	.LVL313:
1286:Src/register_interface.c ****             }
 2632              		.loc 1 1286 22 view .LVU761
 2633 0164 0820     		movs	r0, #8
 2634              	.LVL314:
1286:Src/register_interface.c ****             }
 2635              		.loc 1 1286 22 view .LVU762
 2636 0166 89E7     		b	.L350
 2637              	.LVL315:
 2638              	.L340:
1286:Src/register_interface.c ****             }
 2639              		.loc 1 1286 22 view .LVU763
 2640 0168 B0F50A7F 		cmp	r0, #552
 2641 016c 00F07C82 		beq	.L347
 2642 0170 B0F55A7F 		cmp	r0, #872
 2643 0174 12D1     		bne	.L392
 2644              	.LBB144:
1346:Src/register_interface.c ****             uint16_t *idref = (uint16_t *)&rawData[2]; //cstat !MISRAC2012-Rule-11.3
 2645              		.loc 1 1346 13 is_stmt 1 view .LVU764
 2646              	.LVL316:
1347:Src/register_interface.c **** 
 2647              		.loc 1 1347 13 view .LVU765
1349:Src/register_interface.c ****             *iqref = (uint16_t)MCI_GetIqdref(pMCIN).q;
 2648              		.loc 1 1349 13 view .LVU766
1349:Src/register_interface.c ****             *iqref = (uint16_t)MCI_GetIqdref(pMCIN).q;
 2649              		.loc 1 1349 22 is_stmt 0 view .LVU767
 2650 0176 0423     		movs	r3, #4
 2651              	.LVL317:
1349:Src/register_interface.c ****             *iqref = (uint16_t)MCI_GetIqdref(pMCIN).q;
 2652              		.loc 1 1349 22 view .LVU768
 2653 0178 2380     		strh	r3, [r4]	@ movhi
1350:Src/register_interface.c ****             *idref = (uint16_t)MCI_GetIqdref(pMCIN).d;
 2654              		.loc 1 1350 13 is_stmt 1 view .LVU769
1350:Src/register_interface.c ****             *idref = (uint16_t)MCI_GetIqdref(pMCIN).d;
 2655              		.loc 1 1350 32 is_stmt 0 view .LVU770
 2656 017a 7B48     		ldr	r0, .L422
 2657              	.LVL318:
1350:Src/register_interface.c ****             *idref = (uint16_t)MCI_GetIqdref(pMCIN).d;
 2658              		.loc 1 1350 32 view .LVU771
 2659 017c FFF7FEFF 		bl	MCI_GetIqdref
 2660              	.LVL319:
1350:Src/register_interface.c ****             *idref = (uint16_t)MCI_GetIqdref(pMCIN).d;
ARM GAS  C:\Users\ep_ygh\AppData\Local\Temp\ccaRZNy5.s 			page 85


 2661              		.loc 1 1350 32 view .LVU772
 2662 0180 0346     		mov	r3, r0
1350:Src/register_interface.c ****             *idref = (uint16_t)MCI_GetIqdref(pMCIN).d;
 2663              		.loc 1 1350 20 view .LVU773
 2664 0182 6380     		strh	r3, [r4, #2]	@ movhi
1351:Src/register_interface.c ****             break;
 2665              		.loc 1 1351 13 is_stmt 1 view .LVU774
1351:Src/register_interface.c ****             break;
 2666              		.loc 1 1351 32 is_stmt 0 view .LVU775
 2667 0184 7848     		ldr	r0, .L422
1350:Src/register_interface.c ****             *idref = (uint16_t)MCI_GetIqdref(pMCIN).d;
 2668              		.loc 1 1350 32 view .LVU776
 2669 0186 1293     		str	r3, [sp, #72]
1351:Src/register_interface.c ****             break;
 2670              		.loc 1 1351 32 view .LVU777
 2671 0188 FFF7FEFF 		bl	MCI_GetIqdref
 2672              	.LVL320:
 2673              	.LBE144:
1366:Src/register_interface.c ****         break;
 2674              		.loc 1 1366 28 view .LVU778
 2675 018c 2388     		ldrh	r3, [r4]
 2676              	.LBB145:
1351:Src/register_interface.c ****             break;
 2677              		.loc 1 1351 32 view .LVU779
 2678 018e C0F30F40 		ubfx	r0, r0, #16, #16
 2679              	.LBE145:
1366:Src/register_interface.c ****         break;
 2680              		.loc 1 1366 28 view .LVU780
 2681 0192 0233     		adds	r3, r3, #2
 2682              	.LBB146:
1351:Src/register_interface.c ****             break;
 2683              		.loc 1 1351 20 view .LVU781
 2684 0194 A080     		strh	r0, [r4, #4]	@ movhi
1352:Src/register_interface.c ****           }
 2685              		.loc 1 1352 13 is_stmt 1 view .LVU782
 2686              	.LBE146:
1366:Src/register_interface.c ****         break;
 2687              		.loc 1 1366 28 is_stmt 0 view .LVU783
 2688 0196 9BB2     		uxth	r3, r3
 2689              	.LBE185:
 788:Src/register_interface.c ****     uint8_t motorID=0;
 2690              		.loc 1 788 13 view .LVU784
 2691 0198 0020     		movs	r0, #0
 2692              	.LBB186:
 2693              	.LBB147:
1352:Src/register_interface.c ****           }
 2694              		.loc 1 1352 13 view .LVU785
 2695 019a 6FE7     		b	.L350
 2696              	.LVL321:
 2697              	.L392:
1352:Src/register_interface.c ****           }
 2698              		.loc 1 1352 13 view .LVU786
 2699              	.LBE147:
 2700 019c B0F5F47F 		cmp	r0, #488
 2701 01a0 40F03482 		bne	.L345
 2702              	.LBB148:
1306:Src/register_interface.c ****             uint16_t *duration = (uint16_t *)&rawData[2]; //cstat !MISRAC2012-Rule-11.3
ARM GAS  C:\Users\ep_ygh\AppData\Local\Temp\ccaRZNy5.s 			page 86


 2703              		.loc 1 1306 13 is_stmt 1 view .LVU787
 2704              	.LVL322:
1307:Src/register_interface.c **** 
 2705              		.loc 1 1307 13 view .LVU788
1309:Src/register_interface.c ****             *torque = MCI_GetLastRampFinalTorque(pMCIN);
 2706              		.loc 1 1309 13 view .LVU789
1309:Src/register_interface.c ****             *torque = MCI_GetLastRampFinalTorque(pMCIN);
 2707              		.loc 1 1309 22 is_stmt 0 view .LVU790
 2708 01a4 0423     		movs	r3, #4
 2709              	.LVL323:
1309:Src/register_interface.c ****             *torque = MCI_GetLastRampFinalTorque(pMCIN);
 2710              		.loc 1 1309 22 view .LVU791
 2711 01a6 2380     		strh	r3, [r4]	@ movhi
1310:Src/register_interface.c ****             *duration = MCI_GetLastRampFinalDuration(pMCIN) ;
 2712              		.loc 1 1310 13 is_stmt 1 view .LVU792
1310:Src/register_interface.c ****             *duration = MCI_GetLastRampFinalDuration(pMCIN) ;
 2713              		.loc 1 1310 23 is_stmt 0 view .LVU793
 2714 01a8 6F48     		ldr	r0, .L422
 2715              	.LVL324:
1310:Src/register_interface.c ****             *duration = MCI_GetLastRampFinalDuration(pMCIN) ;
 2716              		.loc 1 1310 23 view .LVU794
 2717 01aa FFF7FEFF 		bl	MCI_GetLastRampFinalTorque
 2718              	.LVL325:
1310:Src/register_interface.c ****             *duration = MCI_GetLastRampFinalDuration(pMCIN) ;
 2719              		.loc 1 1310 21 view .LVU795
 2720 01ae 6080     		strh	r0, [r4, #2]	@ movhi
1311:Src/register_interface.c ****             break;
 2721              		.loc 1 1311 13 is_stmt 1 view .LVU796
1311:Src/register_interface.c ****             break;
 2722              		.loc 1 1311 25 is_stmt 0 view .LVU797
 2723 01b0 6D48     		ldr	r0, .L422
 2724 01b2 FFF7FEFF 		bl	MCI_GetLastRampFinalDuration
 2725              	.LVL326:
 2726              	.LBE148:
1366:Src/register_interface.c ****         break;
 2727              		.loc 1 1366 28 view .LVU798
 2728 01b6 2388     		ldrh	r3, [r4]
 2729              	.LBB149:
1311:Src/register_interface.c ****             break;
 2730              		.loc 1 1311 23 view .LVU799
 2731 01b8 A080     		strh	r0, [r4, #4]	@ movhi
1312:Src/register_interface.c ****           }
 2732              		.loc 1 1312 13 is_stmt 1 view .LVU800
 2733              	.LBE149:
1366:Src/register_interface.c ****         break;
 2734              		.loc 1 1366 28 is_stmt 0 view .LVU801
 2735 01ba 0233     		adds	r3, r3, #2
 2736 01bc 9BB2     		uxth	r3, r3
 2737              	.LBE186:
 788:Src/register_interface.c ****     uint8_t motorID=0;
 2738              		.loc 1 788 13 view .LVU802
 2739 01be 0020     		movs	r0, #0
 2740              	.LBB187:
 2741              	.LBB150:
1312:Src/register_interface.c ****           }
 2742              		.loc 1 1312 13 view .LVU803
 2743 01c0 5CE7     		b	.L350
ARM GAS  C:\Users\ep_ygh\AppData\Local\Temp\ccaRZNy5.s 			page 87


 2744              	.LVL327:
 2745              	.L390:
1312:Src/register_interface.c ****           }
 2746              		.loc 1 1312 13 view .LVU804
 2747              	.LBE150:
 2748              	.LBE187:
 2749              	.LBB188:
 2750 01c2 B0F5647F 		cmp	r0, #912
 2751 01c6 5CD1     		bne	.L358
 2752              	.LBB183:
1029:Src/register_interface.c ****               int16_t hC2;
 2753              		.loc 1 1029 15 is_stmt 1 view .LVU805
1030:Src/register_interface.c ****               STO_PLL_GetObserverGains(&STO_PLL_M1, &hC1, &hC2);
 2754              		.loc 1 1030 15 view .LVU806
1031:Src/register_interface.c ****               *regdata16 = hC2;
 2755              		.loc 1 1031 15 view .LVU807
 2756 01c8 6848     		ldr	r0, .L422+4
 2757              	.LVL328:
1031:Src/register_interface.c ****               *regdata16 = hC2;
 2758              		.loc 1 1031 15 is_stmt 0 view .LVU808
 2759 01ca 13AA     		add	r2, sp, #76
 2760 01cc 12A9     		add	r1, sp, #72
 2761              	.LVL329:
1031:Src/register_interface.c ****               *regdata16 = hC2;
 2762              		.loc 1 1031 15 view .LVU809
 2763 01ce FFF7FEFF 		bl	STO_PLL_GetObserverGains
 2764              	.LVL330:
1032:Src/register_interface.c ****               break;
 2765              		.loc 1 1032 15 is_stmt 1 view .LVU810
1032:Src/register_interface.c ****               break;
 2766              		.loc 1 1032 26 is_stmt 0 view .LVU811
 2767 01d2 BDF84C30 		ldrh	r3, [sp, #76]
 2768 01d6 2380     		strh	r3, [r4]	@ movhi
1033:Src/register_interface.c ****             }
 2769              		.loc 1 1033 15 is_stmt 1 view .LVU812
 2770              	.LBE183:
 2771              	.LBE188:
 788:Src/register_interface.c ****     uint8_t motorID=0;
 2772              		.loc 1 788 13 is_stmt 0 view .LVU813
 2773 01d8 0020     		movs	r0, #0
 2774 01da B1E7     		b	.L270
 2775              	.LVL331:
 2776              	.L389:
 2777              	.LBB189:
 788:Src/register_interface.c ****     uint8_t motorID=0;
 2778              		.loc 1 788 13 view .LVU814
 2779 01dc B0F5247F 		cmp	r0, #656
 2780 01e0 45D1     		bne	.L393
 880:Src/register_interface.c ****               break;
 2781              		.loc 1 880 15 is_stmt 1 view .LVU815
 880:Src/register_interface.c ****               break;
 2782              		.loc 1 880 28 is_stmt 0 view .LVU816
 2783 01e2 6348     		ldr	r0, .L422+8
 2784              	.LVL332:
 880:Src/register_interface.c ****               break;
 2785              		.loc 1 880 28 view .LVU817
 2786 01e4 FFF7FEFF 		bl	PID_GetKP
ARM GAS  C:\Users\ep_ygh\AppData\Local\Temp\ccaRZNy5.s 			page 88


 2787              	.LVL333:
 880:Src/register_interface.c ****               break;
 2788              		.loc 1 880 26 view .LVU818
 2789 01e8 2080     		strh	r0, [r4]	@ movhi
 2790              	.LVL334:
 881:Src/register_interface.c ****             }
 2791              		.loc 1 881 15 is_stmt 1 view .LVU819
 2792              	.LBE189:
 788:Src/register_interface.c ****     uint8_t motorID=0;
 2793              		.loc 1 788 13 is_stmt 0 view .LVU820
 2794 01ea 0020     		movs	r0, #0
 2795              	.LBB190:
 881:Src/register_interface.c ****             }
 2796              		.loc 1 881 15 view .LVU821
 2797 01ec A8E7     		b	.L270
 2798              	.LVL335:
 2799              	.L263:
 881:Src/register_interface.c ****             }
 2800              		.loc 1 881 15 view .LVU822
 2801 01ee B0F5056F 		cmp	r0, #2128
 2802 01f2 00F0AC82 		beq	.L279
 2803 01f6 40F22181 		bls	.L394
 2804 01fa B0F5116F 		cmp	r0, #2320
 2805 01fe 00F09E82 		beq	.L287
 2806 0202 40F21081 		bls	.L395
 2807 0206 B0F5156F 		cmp	r0, #2384
 2808 020a 40F0F580 		bne	.L396
 946:Src/register_interface.c ****               break;
 2809              		.loc 1 946 15 is_stmt 1 view .LVU823
 946:Src/register_interface.c ****               break;
 2810              		.loc 1 946 28 is_stmt 0 view .LVU824
 2811 020e 5648     		ldr	r0, .L422
 2812              	.LVL336:
 946:Src/register_interface.c ****               break;
 2813              		.loc 1 946 28 view .LVU825
 2814 0210 FFF7FEFF 		bl	MCI_GetIqdref
 2815              	.LVL337:
 946:Src/register_interface.c ****               break;
 2816              		.loc 1 946 26 view .LVU826
 2817 0214 2080     		strh	r0, [r4]	@ movhi
 2818              	.LVL338:
 947:Src/register_interface.c ****             }
 2819              		.loc 1 947 15 is_stmt 1 view .LVU827
 2820              	.LBE190:
 788:Src/register_interface.c ****     uint8_t motorID=0;
 2821              		.loc 1 788 13 is_stmt 0 view .LVU828
 2822 0216 0020     		movs	r0, #0
 2823              	.LBB191:
 947:Src/register_interface.c ****             }
 2824              		.loc 1 947 15 view .LVU829
 2825 0218 92E7     		b	.L270
 2826              	.LVL339:
 2827              	.L388:
 947:Src/register_interface.c ****             }
 2828              		.loc 1 947 15 view .LVU830
 2829 021a B0F5887F 		cmp	r0, #272
 2830 021e 00F0E282 		beq	.L266
ARM GAS  C:\Users\ep_ygh\AppData\Local\Temp\ccaRZNy5.s 			page 89


 2831 0222 40F24281 		bls	.L397
 2832 0226 B0F5C87F 		cmp	r0, #400
 2833 022a 40F03481 		bne	.L398
 862:Src/register_interface.c ****               break;
 2834              		.loc 1 862 15 is_stmt 1 view .LVU831
 862:Src/register_interface.c ****               break;
 2835              		.loc 1 862 28 is_stmt 0 view .LVU832
 2836 022e 5148     		ldr	r0, .L422+12
 2837              	.LVL340:
 862:Src/register_interface.c ****               break;
 2838              		.loc 1 862 28 view .LVU833
 2839 0230 FFF7FEFF 		bl	PID_GetKP
 2840              	.LVL341:
 862:Src/register_interface.c ****               break;
 2841              		.loc 1 862 26 view .LVU834
 2842 0234 2080     		strh	r0, [r4]	@ movhi
 2843              	.LVL342:
 863:Src/register_interface.c ****             }
 2844              		.loc 1 863 15 is_stmt 1 view .LVU835
 2845              	.LBE191:
 788:Src/register_interface.c ****     uint8_t motorID=0;
 2846              		.loc 1 788 13 is_stmt 0 view .LVU836
 2847 0236 0020     		movs	r0, #0
 2848              	.LBB192:
 863:Src/register_interface.c ****             }
 2849              		.loc 1 863 15 view .LVU837
 2850 0238 82E7     		b	.L270
 2851              	.LVL343:
 2852              	.L261:
 863:Src/register_interface.c ****             }
 2853              		.loc 1 863 15 view .LVU838
 2854 023a 41F29043 		movw	r3, #5264
 2855 023e 9842     		cmp	r0, r3
 2856 0240 00F0CB82 		beq	.L293
 2857 0244 4FD8     		bhi	.L294
 2858 0246 B0F53D6F 		cmp	r0, #3024
 2859 024a 00F0C082 		beq	.L295
 2860 024e 3CD9     		bls	.L399
 2861 0250 B0F5496F 		cmp	r0, #3216
 2862 0254 00F0B382 		beq	.L303
 2863 0258 1AD9     		bls	.L400
 2864 025a 41F25043 		movw	r3, #5200
 2865 025e 9842     		cmp	r0, r3
 2866 0260 0ED1     		bne	.L401
1054:Src/register_interface.c ****               break;
 2867              		.loc 1 1054 15 is_stmt 1 view .LVU839
1054:Src/register_interface.c ****               break;
 2868              		.loc 1 1054 39 is_stmt 0 view .LVU840
 2869 0262 4548     		ldr	r0, .L422+16
 2870              	.LVL344:
1054:Src/register_interface.c ****               break;
 2871              		.loc 1 1054 39 view .LVU841
 2872 0264 FFF7FEFF 		bl	PID_GetKPDivisorPOW2
 2873              	.LVL345:
1054:Src/register_interface.c ****               break;
 2874              		.loc 1 1054 27 view .LVU842
 2875 0268 2080     		strh	r0, [r4]	@ movhi
ARM GAS  C:\Users\ep_ygh\AppData\Local\Temp\ccaRZNy5.s 			page 90


 2876              	.LVL346:
1055:Src/register_interface.c ****             }
 2877              		.loc 1 1055 15 is_stmt 1 view .LVU843
 2878              	.LBE192:
 788:Src/register_interface.c ****     uint8_t motorID=0;
 2879              		.loc 1 788 13 is_stmt 0 view .LVU844
 2880 026a 0020     		movs	r0, #0
 2881              	.LBB193:
1055:Src/register_interface.c ****             }
 2882              		.loc 1 1055 15 view .LVU845
 2883 026c 68E7     		b	.L270
 2884              	.LVL347:
 2885              	.L393:
1055:Src/register_interface.c ****             }
 2886              		.loc 1 1055 15 view .LVU846
 2887 026e B0F5347F 		cmp	r0, #720
 2888 0272 06D1     		bne	.L358
 886:Src/register_interface.c ****               break;
 2889              		.loc 1 886 15 is_stmt 1 view .LVU847
 886:Src/register_interface.c ****               break;
 2890              		.loc 1 886 28 is_stmt 0 view .LVU848
 2891 0274 3E48     		ldr	r0, .L422+8
 2892              	.LVL348:
 886:Src/register_interface.c ****               break;
 2893              		.loc 1 886 28 view .LVU849
 2894 0276 FFF7FEFF 		bl	PID_GetKI
 2895              	.LVL349:
 886:Src/register_interface.c ****               break;
 2896              		.loc 1 886 26 view .LVU850
 2897 027a 2080     		strh	r0, [r4]	@ movhi
 2898              	.LVL350:
 887:Src/register_interface.c ****             }
 2899              		.loc 1 887 15 is_stmt 1 view .LVU851
 2900              	.LBE193:
 788:Src/register_interface.c ****     uint8_t motorID=0;
 2901              		.loc 1 788 13 is_stmt 0 view .LVU852
 2902 027c 0020     		movs	r0, #0
 2903              	.LBB194:
 887:Src/register_interface.c ****             }
 2904              		.loc 1 887 15 view .LVU853
 2905 027e 5FE7     		b	.L270
 2906              	.LVL351:
 2907              	.L401:
 887:Src/register_interface.c ****             }
 2908              		.loc 1 887 15 view .LVU854
 2909 0280 01D9     		bls	.L402
 2910              	.L358:
 887:Src/register_interface.c ****             }
 2911              		.loc 1 887 15 view .LVU855
 2912 0282 0520     		movs	r0, #5
 2913              	.LVL352:
 887:Src/register_interface.c ****             }
 2914              		.loc 1 887 15 view .LVU856
 2915 0284 5CE7     		b	.L270
 2916              	.LVL353:
 2917              	.L402:
 887:Src/register_interface.c ****             }
ARM GAS  C:\Users\ep_ygh\AppData\Local\Temp\ccaRZNy5.s 			page 91


 2918              		.loc 1 887 15 view .LVU857
 2919 0286 B0F5656F 		cmp	r0, #3664
 2920 028a 0CD1     		bne	.L403
 2921              	.LBE194:
 788:Src/register_interface.c ****     uint8_t motorID=0;
 2922              		.loc 1 788 13 view .LVU858
 2923 028c 0020     		movs	r0, #0
 2924              	.LVL354:
 788:Src/register_interface.c ****     uint8_t motorID=0;
 2925              		.loc 1 788 13 view .LVU859
 2926 028e 57E7     		b	.L270
 2927              	.LVL355:
 2928              	.L400:
 2929              	.LBB195:
 788:Src/register_interface.c ****     uint8_t motorID=0;
 2930              		.loc 1 788 13 view .LVU860
 2931 0290 B0F5416F 		cmp	r0, #3088
 2932 0294 10D1     		bne	.L404
1002:Src/register_interface.c ****               break;
 2933              		.loc 1 1002 15 is_stmt 1 view .LVU861
1002:Src/register_interface.c ****               break;
 2934              		.loc 1 1002 28 is_stmt 0 view .LVU862
 2935 0296 3548     		ldr	r0, .L422+4
 2936              	.LVL356:
1002:Src/register_interface.c ****               break;
 2937              		.loc 1 1002 28 view .LVU863
 2938 0298 FFF7FEFF 		bl	STO_PLL_GetEstimatedCurrent
 2939              	.LVL357:
1002:Src/register_interface.c ****               break;
 2940              		.loc 1 1002 28 view .LVU864
 2941 029c C0F30F40 		ubfx	r0, r0, #16, #16
1002:Src/register_interface.c ****               break;
 2942              		.loc 1 1002 26 view .LVU865
 2943 02a0 2080     		strh	r0, [r4]	@ movhi
 2944              	.LVL358:
1003:Src/register_interface.c ****             }
 2945              		.loc 1 1003 15 is_stmt 1 view .LVU866
 2946              	.LBE195:
 788:Src/register_interface.c ****     uint8_t motorID=0;
 2947              		.loc 1 788 13 is_stmt 0 view .LVU867
 2948 02a2 0020     		movs	r0, #0
 2949              	.LBB196:
1003:Src/register_interface.c ****             }
 2950              		.loc 1 1003 15 view .LVU868
 2951 02a4 4CE7     		b	.L270
 2952              	.LVL359:
 2953              	.L403:
1003:Src/register_interface.c ****             }
 2954              		.loc 1 1003 15 view .LVU869
 2955              	.LBE196:
 788:Src/register_interface.c ****     uint8_t motorID=0;
 2956              		.loc 1 788 13 view .LVU870
 2957 02a6 B0F5696F 		cmp	r0, #3728
 2958              	.LBB197:
1129:Src/register_interface.c ****         }
 2959              		.loc 1 1129 17 view .LVU871
 2960 02aa 4FF00203 		mov	r3, #2
ARM GAS  C:\Users\ep_ygh\AppData\Local\Temp\ccaRZNy5.s 			page 92


 2961              	.LBE197:
 788:Src/register_interface.c ****     uint8_t motorID=0;
 2962              		.loc 1 788 13 view .LVU872
 2963 02ae 14BF     		ite	ne
 2964 02b0 0520     		movne	r0, #5
 2965              	.LVL360:
 788:Src/register_interface.c ****     uint8_t motorID=0;
 2966              		.loc 1 788 13 view .LVU873
 2967 02b2 0020     		moveq	r0, #0
 2968              	.LVL361:
 2969              	.LBB198:
1129:Src/register_interface.c ****         }
 2970              		.loc 1 1129 11 is_stmt 1 view .LVU874
1129:Src/register_interface.c ****         }
 2971              		.loc 1 1129 17 is_stmt 0 view .LVU875
 2972 02b4 2B80     		strh	r3, [r5]	@ movhi
 2973 02b6 45E7     		b	.L405
 2974              	.LVL362:
 2975              	.L404:
1129:Src/register_interface.c ****         }
 2976              		.loc 1 1129 17 view .LVU876
 2977 02b8 B0F5456F 		cmp	r0, #3152
 2978 02bc E1D1     		bne	.L358
1008:Src/register_interface.c ****               break;
 2979              		.loc 1 1008 15 is_stmt 1 view .LVU877
1008:Src/register_interface.c ****               break;
 2980              		.loc 1 1008 28 is_stmt 0 view .LVU878
 2981 02be 2B48     		ldr	r0, .L422+4
 2982              	.LVL363:
1008:Src/register_interface.c ****               break;
 2983              		.loc 1 1008 28 view .LVU879
 2984 02c0 FFF7FEFF 		bl	STO_PLL_GetEstimatedBemf
 2985              	.LVL364:
1008:Src/register_interface.c ****               break;
 2986              		.loc 1 1008 26 view .LVU880
 2987 02c4 2080     		strh	r0, [r4]	@ movhi
 2988              	.LVL365:
1009:Src/register_interface.c ****             }
 2989              		.loc 1 1009 15 is_stmt 1 view .LVU881
 2990              	.LBE198:
 788:Src/register_interface.c ****     uint8_t motorID=0;
 2991              		.loc 1 788 13 is_stmt 0 view .LVU882
 2992 02c6 0020     		movs	r0, #0
 2993              	.LBB199:
1009:Src/register_interface.c ****             }
 2994              		.loc 1 1009 15 view .LVU883
 2995 02c8 3AE7     		b	.L270
 2996              	.LVL366:
 2997              	.L399:
1009:Src/register_interface.c ****             }
 2998              		.loc 1 1009 15 view .LVU884
 2999 02ca B0F5296F 		cmp	r0, #2704
 3000 02ce 00F06E82 		beq	.L297
 3001 02d2 33D9     		bls	.L406
 3002 02d4 B0F5356F 		cmp	r0, #2896
 3003 02d8 27D1     		bne	.L407
 983:Src/register_interface.c ****               break;
ARM GAS  C:\Users\ep_ygh\AppData\Local\Temp\ccaRZNy5.s 			page 93


 3004              		.loc 1 983 15 is_stmt 1 view .LVU885
 983:Src/register_interface.c ****               break;
 3005              		.loc 1 983 28 is_stmt 0 view .LVU886
 3006 02da 2448     		ldr	r0, .L422+4
 3007              	.LVL367:
 983:Src/register_interface.c ****               break;
 3008              		.loc 1 983 28 view .LVU887
 3009 02dc FFF7FEFF 		bl	SPD_GetElAngle
 3010              	.LVL368:
 983:Src/register_interface.c ****               break;
 3011              		.loc 1 983 26 view .LVU888
 3012 02e0 2080     		strh	r0, [r4]	@ movhi
 3013              	.LVL369:
 984:Src/register_interface.c ****             }
 3014              		.loc 1 984 15 is_stmt 1 view .LVU889
 3015              	.LBE199:
 788:Src/register_interface.c ****     uint8_t motorID=0;
 3016              		.loc 1 788 13 is_stmt 0 view .LVU890
 3017 02e2 0020     		movs	r0, #0
 3018              	.LBB200:
 984:Src/register_interface.c ****             }
 3019              		.loc 1 984 15 view .LVU891
 3020 02e4 2CE7     		b	.L270
 3021              	.LVL370:
 3022              	.L294:
 984:Src/register_interface.c ****             }
 3023              		.loc 1 984 15 view .LVU892
 3024 02e6 41F21063 		movw	r3, #5648
 3025 02ea 9842     		cmp	r0, r3
 3026 02ec 00F05982 		beq	.L308
 3027 02f0 48D9     		bls	.L408
 3028 02f2 41F61013 		movw	r3, #6416
 3029 02f6 9842     		cmp	r0, r3
 3030 02f8 00F04D82 		beq	.L316
 3031 02fc 29D9     		bls	.L409
 3032 02fe 41F6D023 		movw	r3, #6864
 3033 0302 9842     		cmp	r0, r3
 3034 0304 BDD1     		bne	.L358
1119:Src/register_interface.c ****               break;
 3035              		.loc 1 1119 13 is_stmt 1 view .LVU893
1119:Src/register_interface.c ****               break;
 3036              		.loc 1 1119 28 is_stmt 0 view .LVU894
 3037 0306 1D48     		ldr	r0, .L422+20
 3038              	.LVL371:
1119:Src/register_interface.c ****               break;
 3039              		.loc 1 1119 28 view .LVU895
 3040 0308 FFF7FEFF 		bl	OL_GetVoltage
 3041              	.LVL372:
1119:Src/register_interface.c ****               break;
 3042              		.loc 1 1119 61 view .LVU896
 3043 030c 00EB8003 		add	r3, r0, r0, lsl #2
1119:Src/register_interface.c ****               break;
 3044              		.loc 1 1119 66 view .LVU897
 3045 0310 1B4A     		ldr	r2, .L422+24
1119:Src/register_interface.c ****               break;
 3046              		.loc 1 1119 61 view .LVU898
 3047 0312 03EB8303 		add	r3, r3, r3, lsl #2
ARM GAS  C:\Users\ep_ygh\AppData\Local\Temp\ccaRZNy5.s 			page 94


 3048 0316 9B00     		lsls	r3, r3, #2
1119:Src/register_interface.c ****               break;
 3049              		.loc 1 1119 66 view .LVU899
 3050 0318 82FB0312 		smull	r1, r2, r2, r3
 3051 031c 1A44     		add	r2, r2, r3
 3052 031e DB17     		asrs	r3, r3, #31
 3053 0320 C3EBA233 		rsb	r3, r3, r2, asr #14
1119:Src/register_interface.c ****               break;
 3054              		.loc 1 1119 24 view .LVU900
 3055 0324 2380     		strh	r3, [r4]	@ movhi
1120:Src/register_interface.c ****             }
 3056              		.loc 1 1120 15 is_stmt 1 view .LVU901
 3057              	.LBE200:
 788:Src/register_interface.c ****     uint8_t motorID=0;
 3058              		.loc 1 788 13 is_stmt 0 view .LVU902
 3059 0326 0020     		movs	r0, #0
 3060              	.LBB201:
1120:Src/register_interface.c ****             }
 3061              		.loc 1 1120 15 view .LVU903
 3062 0328 0AE7     		b	.L270
 3063              	.LVL373:
 3064              	.L407:
1120:Src/register_interface.c ****             }
 3065              		.loc 1 1120 15 view .LVU904
 3066 032a B0F5396F 		cmp	r0, #2960
 3067 032e A8D1     		bne	.L358
 990:Src/register_interface.c ****               break;
 3068              		.loc 1 990 15 is_stmt 1 view .LVU905
 990:Src/register_interface.c ****               break;
 3069              		.loc 1 990 28 is_stmt 0 view .LVU906
 3070 0330 0E48     		ldr	r0, .L422+4
 3071              	.LVL374:
 990:Src/register_interface.c ****               break;
 3072              		.loc 1 990 28 view .LVU907
 3073 0332 FFF7FEFF 		bl	SPD_GetS16Speed
 3074              	.LVL375:
 990:Src/register_interface.c ****               break;
 3075              		.loc 1 990 26 view .LVU908
 3076 0336 2080     		strh	r0, [r4]	@ movhi
 3077              	.LVL376:
 991:Src/register_interface.c ****             }
 3078              		.loc 1 991 15 is_stmt 1 view .LVU909
 3079              	.LBE201:
 788:Src/register_interface.c ****     uint8_t motorID=0;
 3080              		.loc 1 788 13 is_stmt 0 view .LVU910
 3081 0338 0020     		movs	r0, #0
 3082              	.LBB202:
 991:Src/register_interface.c ****             }
 3083              		.loc 1 991 15 view .LVU911
 3084 033a 01E7     		b	.L270
 3085              	.LVL377:
 3086              	.L406:
 991:Src/register_interface.c ****             }
 3087              		.loc 1 991 15 view .LVU912
 3088 033c B0F5216F 		cmp	r0, #2576
 3089 0340 30D1     		bne	.L410
 964:Src/register_interface.c ****               break;
ARM GAS  C:\Users\ep_ygh\AppData\Local\Temp\ccaRZNy5.s 			page 95


 3090              		.loc 1 964 15 is_stmt 1 view .LVU913
 964:Src/register_interface.c ****               break;
 3091              		.loc 1 964 28 is_stmt 0 view .LVU914
 3092 0342 0948     		ldr	r0, .L422
 3093              	.LVL378:
 964:Src/register_interface.c ****               break;
 3094              		.loc 1 964 28 view .LVU915
 3095 0344 FFF7FEFF 		bl	MCI_GetVqd
 3096              	.LVL379:
 964:Src/register_interface.c ****               break;
 3097              		.loc 1 964 28 view .LVU916
 3098 0348 C0F30F40 		ubfx	r0, r0, #16, #16
 964:Src/register_interface.c ****               break;
 3099              		.loc 1 964 26 view .LVU917
 3100 034c 2080     		strh	r0, [r4]	@ movhi
 3101              	.LVL380:
 965:Src/register_interface.c ****             }
 3102              		.loc 1 965 15 is_stmt 1 view .LVU918
 3103              	.LBE202:
 788:Src/register_interface.c ****     uint8_t motorID=0;
 3104              		.loc 1 788 13 is_stmt 0 view .LVU919
 3105 034e 0020     		movs	r0, #0
 3106              	.LBB203:
 965:Src/register_interface.c ****             }
 3107              		.loc 1 965 15 view .LVU920
 3108 0350 F6E6     		b	.L270
 3109              	.LVL381:
 3110              	.L409:
 965:Src/register_interface.c ****             }
 3111              		.loc 1 965 15 view .LVU921
 3112 0352 41F25063 		movw	r3, #5712
 3113 0356 9842     		cmp	r0, r3
 3114 0358 2ED1     		bne	.L411
1101:Src/register_interface.c ****               break;
 3115              		.loc 1 1101 15 is_stmt 1 view .LVU922
1101:Src/register_interface.c ****               break;
 3116              		.loc 1 1101 29 is_stmt 0 view .LVU923
 3117 035a 0648     		ldr	r0, .L422+12
 3118              	.LVL382:
1101:Src/register_interface.c ****               break;
 3119              		.loc 1 1101 29 view .LVU924
 3120 035c FFF7FEFF 		bl	PID_GetKDDivisorPOW2
 3121              	.LVL383:
1101:Src/register_interface.c ****               break;
 3122              		.loc 1 1101 27 view .LVU925
 3123 0360 2080     		strh	r0, [r4]	@ movhi
 3124              	.LVL384:
1102:Src/register_interface.c ****             }
 3125              		.loc 1 1102 15 is_stmt 1 view .LVU926
 3126              	.LBE203:
 788:Src/register_interface.c ****     uint8_t motorID=0;
 3127              		.loc 1 788 13 is_stmt 0 view .LVU927
 3128 0362 0020     		movs	r0, #0
 3129              	.LBB204:
1102:Src/register_interface.c ****             }
 3130              		.loc 1 1102 15 view .LVU928
 3131 0364 ECE6     		b	.L270
ARM GAS  C:\Users\ep_ygh\AppData\Local\Temp\ccaRZNy5.s 			page 96


 3132              	.L423:
 3133 0366 00BF     		.align	2
 3134              	.L422:
 3135 0368 00000000 		.word	Mci
 3136 036c 00000000 		.word	STO_PLL_M1
 3137 0370 00000000 		.word	PIDIdHandle_M1
 3138 0374 00000000 		.word	PIDIqHandle_M1
 3139 0378 00000000 		.word	PIDSpeedHandle_M1
 3140 037c 00000000 		.word	OpenLoop_ParamsM1
 3141 0380 03000180 		.word	-2147418109
 3142              	.LVL385:
 3143              	.L408:
1102:Src/register_interface.c ****             }
 3144              		.loc 1 1102 15 view .LVU929
 3145 0384 41F25053 		movw	r3, #5456
 3146 0388 9842     		cmp	r0, r3
 3147 038a 00F0FE81 		beq	.L310
 3148 038e 29D9     		bls	.L412
 3149 0390 41F29053 		movw	r3, #5520
 3150 0394 9842     		cmp	r0, r3
 3151 0396 1AD1     		bne	.L413
1083:Src/register_interface.c ****               break;
 3152              		.loc 1 1083 15 is_stmt 1 view .LVU930
1083:Src/register_interface.c ****               break;
 3153              		.loc 1 1083 29 is_stmt 0 view .LVU931
 3154 0398 A748     		ldr	r0, .L424
 3155              	.LVL386:
1083:Src/register_interface.c ****               break;
 3156              		.loc 1 1083 29 view .LVU932
 3157 039a FFF7FEFF 		bl	PID_GetKDDivisorPOW2
 3158              	.LVL387:
1083:Src/register_interface.c ****               break;
 3159              		.loc 1 1083 27 view .LVU933
 3160 039e 2080     		strh	r0, [r4]	@ movhi
 3161              	.LVL388:
1084:Src/register_interface.c ****             }
 3162              		.loc 1 1084 15 is_stmt 1 view .LVU934
 3163              	.LBE204:
 788:Src/register_interface.c ****     uint8_t motorID=0;
 3164              		.loc 1 788 13 is_stmt 0 view .LVU935
 3165 03a0 0020     		movs	r0, #0
 3166              	.LBB205:
1084:Src/register_interface.c ****             }
 3167              		.loc 1 1084 15 view .LVU936
 3168 03a2 CDE6     		b	.L270
 3169              	.LVL389:
 3170              	.L410:
1084:Src/register_interface.c ****             }
 3171              		.loc 1 1084 15 view .LVU937
 3172 03a4 B0F5256F 		cmp	r0, #2640
 3173 03a8 7FF46BAF 		bne	.L358
 970:Src/register_interface.c ****               break;
 3174              		.loc 1 970 15 is_stmt 1 view .LVU938
 970:Src/register_interface.c ****               break;
 3175              		.loc 1 970 28 is_stmt 0 view .LVU939
 3176 03ac A348     		ldr	r0, .L424+4
 3177              	.LVL390:
ARM GAS  C:\Users\ep_ygh\AppData\Local\Temp\ccaRZNy5.s 			page 97


 970:Src/register_interface.c ****               break;
 3178              		.loc 1 970 28 view .LVU940
 3179 03ae FFF7FEFF 		bl	MCI_GetValphabeta
 3180              	.LVL391:
 970:Src/register_interface.c ****               break;
 3181              		.loc 1 970 26 view .LVU941
 3182 03b2 2080     		strh	r0, [r4]	@ movhi
 3183              	.LVL392:
 971:Src/register_interface.c ****             }
 3184              		.loc 1 971 15 is_stmt 1 view .LVU942
 3185              	.LBE205:
 788:Src/register_interface.c ****     uint8_t motorID=0;
 3186              		.loc 1 788 13 is_stmt 0 view .LVU943
 3187 03b4 0020     		movs	r0, #0
 3188              	.LBB206:
 971:Src/register_interface.c ****             }
 3189              		.loc 1 971 15 view .LVU944
 3190 03b6 C3E6     		b	.L270
 3191              	.LVL393:
 3192              	.L411:
 971:Src/register_interface.c ****             }
 3193              		.loc 1 971 15 view .LVU945
 3194 03b8 41F6D003 		movw	r3, #6352
 3195 03bc 9842     		cmp	r0, r3
 3196 03be 7FF460AF 		bne	.L358
1107:Src/register_interface.c ****               break;
 3197              		.loc 1 1107 15 is_stmt 1 view .LVU946
1107:Src/register_interface.c ****               break;
 3198              		.loc 1 1107 29 is_stmt 0 view .LVU947
 3199 03c2 9F48     		ldr	r0, .L424+8
 3200              	.LVL394:
1107:Src/register_interface.c ****               break;
 3201              		.loc 1 1107 29 view .LVU948
 3202 03c4 FFF7FEFF 		bl	PID_GetKIDivisorPOW2
 3203              	.LVL395:
1107:Src/register_interface.c ****               break;
 3204              		.loc 1 1107 27 view .LVU949
 3205 03c8 2080     		strh	r0, [r4]	@ movhi
 3206              	.LVL396:
1108:Src/register_interface.c ****             }
 3207              		.loc 1 1108 15 is_stmt 1 view .LVU950
 3208              	.LBE206:
 788:Src/register_interface.c ****     uint8_t motorID=0;
 3209              		.loc 1 788 13 is_stmt 0 view .LVU951
 3210 03ca 0020     		movs	r0, #0
 3211              	.LBB207:
1108:Src/register_interface.c ****             }
 3212              		.loc 1 1108 15 view .LVU952
 3213 03cc B8E6     		b	.L270
 3214              	.LVL397:
 3215              	.L413:
1108:Src/register_interface.c ****             }
 3216              		.loc 1 1108 15 view .LVU953
 3217 03ce 41F2D053 		movw	r3, #5584
 3218 03d2 9842     		cmp	r0, r3
 3219 03d4 7FF455AF 		bne	.L358
1089:Src/register_interface.c ****               break;
ARM GAS  C:\Users\ep_ygh\AppData\Local\Temp\ccaRZNy5.s 			page 98


 3220              		.loc 1 1089 15 is_stmt 1 view .LVU954
1089:Src/register_interface.c ****               break;
 3221              		.loc 1 1089 29 is_stmt 0 view .LVU955
 3222 03d8 9A48     		ldr	r0, .L424+12
 3223              	.LVL398:
1089:Src/register_interface.c ****               break;
 3224              		.loc 1 1089 29 view .LVU956
 3225 03da FFF7FEFF 		bl	PID_GetKPDivisorPOW2
 3226              	.LVL399:
1089:Src/register_interface.c ****               break;
 3227              		.loc 1 1089 27 view .LVU957
 3228 03de 2080     		strh	r0, [r4]	@ movhi
 3229              	.LVL400:
1090:Src/register_interface.c ****             }
 3230              		.loc 1 1090 15 is_stmt 1 view .LVU958
 3231              	.LBE207:
 788:Src/register_interface.c ****     uint8_t motorID=0;
 3232              		.loc 1 788 13 is_stmt 0 view .LVU959
 3233 03e0 0020     		movs	r0, #0
 3234              	.LBB208:
1090:Src/register_interface.c ****             }
 3235              		.loc 1 1090 15 view .LVU960
 3236 03e2 ADE6     		b	.L270
 3237              	.LVL401:
 3238              	.L412:
1090:Src/register_interface.c ****             }
 3239              		.loc 1 1090 15 view .LVU961
 3240 03e4 41F2D043 		movw	r3, #5328
 3241 03e8 9842     		cmp	r0, r3
 3242 03ea 11D1     		bne	.L414
1066:Src/register_interface.c ****               break;
 3243              		.loc 1 1066 15 is_stmt 1 view .LVU962
1066:Src/register_interface.c ****               break;
 3244              		.loc 1 1066 29 is_stmt 0 view .LVU963
 3245 03ec 9648     		ldr	r0, .L424+16
 3246              	.LVL402:
1066:Src/register_interface.c ****               break;
 3247              		.loc 1 1066 29 view .LVU964
 3248 03ee FFF7FEFF 		bl	PID_GetKDDivisorPOW2
 3249              	.LVL403:
1066:Src/register_interface.c ****               break;
 3250              		.loc 1 1066 27 view .LVU965
 3251 03f2 2080     		strh	r0, [r4]	@ movhi
 3252              	.LVL404:
1067:Src/register_interface.c ****             }
 3253              		.loc 1 1067 15 is_stmt 1 view .LVU966
 3254              	.LBE208:
 788:Src/register_interface.c ****     uint8_t motorID=0;
 3255              		.loc 1 788 13 is_stmt 0 view .LVU967
 3256 03f4 0020     		movs	r0, #0
 3257              	.LBB209:
1067:Src/register_interface.c ****             }
 3258              		.loc 1 1067 15 view .LVU968
 3259 03f6 A3E6     		b	.L270
 3260              	.LVL405:
 3261              	.L396:
1067:Src/register_interface.c ****             }
ARM GAS  C:\Users\ep_ygh\AppData\Local\Temp\ccaRZNy5.s 			page 99


 3262              		.loc 1 1067 15 view .LVU969
 3263 03f8 B0F5196F 		cmp	r0, #2448
 3264 03fc 7FF441AF 		bne	.L358
 952:Src/register_interface.c ****               break;
 3265              		.loc 1 952 15 is_stmt 1 view .LVU970
 952:Src/register_interface.c ****               break;
 3266              		.loc 1 952 28 is_stmt 0 view .LVU971
 3267 0400 8E48     		ldr	r0, .L424+4
 3268              	.LVL406:
 952:Src/register_interface.c ****               break;
 3269              		.loc 1 952 28 view .LVU972
 3270 0402 FFF7FEFF 		bl	MCI_GetIqdref
 3271              	.LVL407:
 952:Src/register_interface.c ****               break;
 3272              		.loc 1 952 28 view .LVU973
 3273 0406 C0F30F40 		ubfx	r0, r0, #16, #16
 952:Src/register_interface.c ****               break;
 3274              		.loc 1 952 26 view .LVU974
 3275 040a 2080     		strh	r0, [r4]	@ movhi
 3276              	.LVL408:
 953:Src/register_interface.c ****             }
 3277              		.loc 1 953 15 is_stmt 1 view .LVU975
 3278              	.LBE209:
 788:Src/register_interface.c ****     uint8_t motorID=0;
 3279              		.loc 1 788 13 is_stmt 0 view .LVU976
 3280 040c 0020     		movs	r0, #0
 3281              	.LBB210:
 953:Src/register_interface.c ****             }
 3282              		.loc 1 953 15 view .LVU977
 3283 040e 97E6     		b	.L270
 3284              	.LVL409:
 3285              	.L414:
 953:Src/register_interface.c ****             }
 3286              		.loc 1 953 15 view .LVU978
 3287 0410 41F21053 		movw	r3, #5392
 3288 0414 9842     		cmp	r0, r3
 3289 0416 7FF434AF 		bne	.L358
1071:Src/register_interface.c ****               break;
 3290              		.loc 1 1071 15 is_stmt 1 view .LVU979
1071:Src/register_interface.c ****               break;
 3291              		.loc 1 1071 29 is_stmt 0 view .LVU980
 3292 041a 8748     		ldr	r0, .L424
 3293              	.LVL410:
1071:Src/register_interface.c ****               break;
 3294              		.loc 1 1071 29 view .LVU981
 3295 041c FFF7FEFF 		bl	PID_GetKPDivisorPOW2
 3296              	.LVL411:
1071:Src/register_interface.c ****               break;
 3297              		.loc 1 1071 27 view .LVU982
 3298 0420 2080     		strh	r0, [r4]	@ movhi
 3299              	.LVL412:
1072:Src/register_interface.c ****             }
 3300              		.loc 1 1072 15 is_stmt 1 view .LVU983
 3301              	.LBE210:
 788:Src/register_interface.c ****     uint8_t motorID=0;
 3302              		.loc 1 788 13 is_stmt 0 view .LVU984
 3303 0422 0020     		movs	r0, #0
ARM GAS  C:\Users\ep_ygh\AppData\Local\Temp\ccaRZNy5.s 			page 100


 3304              	.LBB211:
1072:Src/register_interface.c ****             }
 3305              		.loc 1 1072 15 view .LVU985
 3306 0424 8CE6     		b	.L270
 3307              	.LVL413:
 3308              	.L395:
1072:Src/register_interface.c ****             }
 3309              		.loc 1 1072 15 view .LVU986
 3310 0426 B0F5096F 		cmp	r0, #2192
 3311 042a 15D1     		bne	.L415
 928:Src/register_interface.c ****               break;
 3312              		.loc 1 928 15 is_stmt 1 view .LVU987
 928:Src/register_interface.c ****               break;
 3313              		.loc 1 928 28 is_stmt 0 view .LVU988
 3314 042c 8348     		ldr	r0, .L424+4
 3315              	.LVL414:
 928:Src/register_interface.c ****               break;
 3316              		.loc 1 928 28 view .LVU989
 3317 042e FFF7FEFF 		bl	MCI_GetIalphabeta
 3318              	.LVL415:
 928:Src/register_interface.c ****               break;
 3319              		.loc 1 928 28 view .LVU990
 3320 0432 C0F30F40 		ubfx	r0, r0, #16, #16
 928:Src/register_interface.c ****               break;
 3321              		.loc 1 928 26 view .LVU991
 3322 0436 2080     		strh	r0, [r4]	@ movhi
 3323              	.LVL416:
 929:Src/register_interface.c ****             }
 3324              		.loc 1 929 15 is_stmt 1 view .LVU992
 3325              	.LBE211:
 788:Src/register_interface.c ****     uint8_t motorID=0;
 3326              		.loc 1 788 13 is_stmt 0 view .LVU993
 3327 0438 0020     		movs	r0, #0
 3328              	.LBB212:
 929:Src/register_interface.c ****             }
 3329              		.loc 1 929 15 view .LVU994
 3330 043a 81E6     		b	.L270
 3331              	.LVL417:
 3332              	.L394:
 929:Src/register_interface.c ****             }
 3333              		.loc 1 929 15 view .LVU995
 3334 043c B0F5BA6F 		cmp	r0, #1488
 3335 0440 00F09181 		beq	.L281
 3336 0444 1ED9     		bls	.L416
 3337 0446 B0F5FA6F 		cmp	r0, #2000
 3338 044a 0FD1     		bne	.L417
 910:Src/register_interface.c ****               break;
 3339              		.loc 1 910 15 is_stmt 1 view .LVU996
 910:Src/register_interface.c ****               break;
 3340              		.loc 1 910 28 is_stmt 0 view .LVU997
 3341 044c 7B48     		ldr	r0, .L424+4
 3342              	.LVL418:
 910:Src/register_interface.c ****               break;
 3343              		.loc 1 910 28 view .LVU998
 3344 044e FFF7FEFF 		bl	MCI_GetIab
 3345              	.LVL419:
 910:Src/register_interface.c ****               break;
ARM GAS  C:\Users\ep_ygh\AppData\Local\Temp\ccaRZNy5.s 			page 101


 3346              		.loc 1 910 26 view .LVU999
 3347 0452 2080     		strh	r0, [r4]	@ movhi
 3348              	.LVL420:
 911:Src/register_interface.c ****             }
 3349              		.loc 1 911 15 is_stmt 1 view .LVU1000
 3350              	.LBE212:
 788:Src/register_interface.c ****     uint8_t motorID=0;
 3351              		.loc 1 788 13 is_stmt 0 view .LVU1001
 3352 0454 0020     		movs	r0, #0
 3353              	.LBB213:
 911:Src/register_interface.c ****             }
 3354              		.loc 1 911 15 view .LVU1002
 3355 0456 73E6     		b	.L270
 3356              	.LVL421:
 3357              	.L415:
 911:Src/register_interface.c ****             }
 3358              		.loc 1 911 15 view .LVU1003
 3359 0458 B0F50D6F 		cmp	r0, #2256
 3360 045c 7FF411AF 		bne	.L358
 934:Src/register_interface.c ****               break;
 3361              		.loc 1 934 15 is_stmt 1 view .LVU1004
 934:Src/register_interface.c ****               break;
 3362              		.loc 1 934 28 is_stmt 0 view .LVU1005
 3363 0460 7648     		ldr	r0, .L424+4
 3364              	.LVL422:
 934:Src/register_interface.c ****               break;
 3365              		.loc 1 934 28 view .LVU1006
 3366 0462 FFF7FEFF 		bl	MCI_GetIqd
 3367              	.LVL423:
 934:Src/register_interface.c ****               break;
 3368              		.loc 1 934 26 view .LVU1007
 3369 0466 2080     		strh	r0, [r4]	@ movhi
 3370              	.LVL424:
 935:Src/register_interface.c ****             }
 3371              		.loc 1 935 15 is_stmt 1 view .LVU1008
 3372              	.LBE213:
 788:Src/register_interface.c ****     uint8_t motorID=0;
 3373              		.loc 1 788 13 is_stmt 0 view .LVU1009
 3374 0468 0020     		movs	r0, #0
 3375              	.LBB214:
 935:Src/register_interface.c ****             }
 3376              		.loc 1 935 15 view .LVU1010
 3377 046a 69E6     		b	.L270
 3378              	.LVL425:
 3379              	.L417:
 935:Src/register_interface.c ****             }
 3380              		.loc 1 935 15 view .LVU1011
 3381 046c B0F5016F 		cmp	r0, #2064
 3382 0470 7FF407AF 		bne	.L358
 916:Src/register_interface.c ****               break;
 3383              		.loc 1 916 15 is_stmt 1 view .LVU1012
 916:Src/register_interface.c ****               break;
 3384              		.loc 1 916 28 is_stmt 0 view .LVU1013
 3385 0474 7148     		ldr	r0, .L424+4
 3386              	.LVL426:
 916:Src/register_interface.c ****               break;
 3387              		.loc 1 916 28 view .LVU1014
ARM GAS  C:\Users\ep_ygh\AppData\Local\Temp\ccaRZNy5.s 			page 102


 3388 0476 FFF7FEFF 		bl	MCI_GetIab
 3389              	.LVL427:
 916:Src/register_interface.c ****               break;
 3390              		.loc 1 916 28 view .LVU1015
 3391 047a C0F30F40 		ubfx	r0, r0, #16, #16
 916:Src/register_interface.c ****               break;
 3392              		.loc 1 916 26 view .LVU1016
 3393 047e 2080     		strh	r0, [r4]	@ movhi
 3394              	.LVL428:
 917:Src/register_interface.c ****             }
 3395              		.loc 1 917 15 is_stmt 1 view .LVU1017
 3396              	.LBE214:
 788:Src/register_interface.c ****     uint8_t motorID=0;
 3397              		.loc 1 788 13 is_stmt 0 view .LVU1018
 3398 0480 0020     		movs	r0, #0
 3399              	.LBB215:
 917:Src/register_interface.c ****             }
 3400              		.loc 1 917 15 view .LVU1019
 3401 0482 5DE6     		b	.L270
 3402              	.LVL429:
 3403              	.L416:
 917:Src/register_interface.c ****             }
 3404              		.loc 1 917 15 view .LVU1020
 3405 0484 B0F5926F 		cmp	r0, #1168
 3406 0488 17D1     		bne	.L418
1044:Src/register_interface.c ****               break;
 3407              		.loc 1 1044 15 is_stmt 1 view .LVU1021
1044:Src/register_interface.c ****               break;
 3408              		.loc 1 1044 28 is_stmt 0 view .LVU1022
 3409 048a 6D48     		ldr	r0, .L424+8
 3410              	.LVL430:
1044:Src/register_interface.c ****               break;
 3411              		.loc 1 1044 28 view .LVU1023
 3412 048c FFF7FEFF 		bl	PID_GetKP
 3413              	.LVL431:
1044:Src/register_interface.c ****               break;
 3414              		.loc 1 1044 26 view .LVU1024
 3415 0490 2080     		strh	r0, [r4]	@ movhi
 3416              	.LVL432:
1045:Src/register_interface.c ****             }
 3417              		.loc 1 1045 15 is_stmt 1 view .LVU1025
 3418              	.LBE215:
 788:Src/register_interface.c ****     uint8_t motorID=0;
 3419              		.loc 1 788 13 is_stmt 0 view .LVU1026
 3420 0492 0020     		movs	r0, #0
 3421              	.LBB216:
1045:Src/register_interface.c ****             }
 3422              		.loc 1 1045 15 view .LVU1027
 3423 0494 54E6     		b	.L270
 3424              	.LVL433:
 3425              	.L398:
1045:Src/register_interface.c ****             }
 3426              		.loc 1 1045 15 view .LVU1028
 3427 0496 B0F5E87F 		cmp	r0, #464
 3428 049a 7FF4F2AE 		bne	.L358
 868:Src/register_interface.c ****               break;
 3429              		.loc 1 868 15 is_stmt 1 view .LVU1029
ARM GAS  C:\Users\ep_ygh\AppData\Local\Temp\ccaRZNy5.s 			page 103


 868:Src/register_interface.c ****               break;
 3430              		.loc 1 868 28 is_stmt 0 view .LVU1030
 3431 049e 6948     		ldr	r0, .L424+12
 3432              	.LVL434:
 868:Src/register_interface.c ****               break;
 3433              		.loc 1 868 28 view .LVU1031
 3434 04a0 FFF7FEFF 		bl	PID_GetKI
 3435              	.LVL435:
 868:Src/register_interface.c ****               break;
 3436              		.loc 1 868 26 view .LVU1032
 3437 04a4 2080     		strh	r0, [r4]	@ movhi
 3438              	.LVL436:
 869:Src/register_interface.c ****             }
 3439              		.loc 1 869 15 is_stmt 1 view .LVU1033
 3440              	.LBE216:
 788:Src/register_interface.c ****     uint8_t motorID=0;
 3441              		.loc 1 788 13 is_stmt 0 view .LVU1034
 3442 04a6 0020     		movs	r0, #0
 3443              	.LBB217:
 869:Src/register_interface.c ****             }
 3444              		.loc 1 869 15 view .LVU1035
 3445 04a8 4AE6     		b	.L270
 3446              	.LVL437:
 3447              	.L397:
 869:Src/register_interface.c ****             }
 3448              		.loc 1 869 15 view .LVU1036
 3449 04aa 9028     		cmp	r0, #144
 3450 04ac 0FD1     		bne	.L419
 844:Src/register_interface.c ****               break;
 3451              		.loc 1 844 15 is_stmt 1 view .LVU1037
 844:Src/register_interface.c ****               break;
 3452              		.loc 1 844 28 is_stmt 0 view .LVU1038
 3453 04ae 6648     		ldr	r0, .L424+16
 3454              	.LVL438:
 844:Src/register_interface.c ****               break;
 3455              		.loc 1 844 28 view .LVU1039
 3456 04b0 FFF7FEFF 		bl	PID_GetKP
 3457              	.LVL439:
 844:Src/register_interface.c ****               break;
 3458              		.loc 1 844 26 view .LVU1040
 3459 04b4 2080     		strh	r0, [r4]	@ movhi
 3460              	.LVL440:
 845:Src/register_interface.c ****             }
 3461              		.loc 1 845 15 is_stmt 1 view .LVU1041
 3462              	.LBE217:
 788:Src/register_interface.c ****     uint8_t motorID=0;
 3463              		.loc 1 788 13 is_stmt 0 view .LVU1042
 3464 04b6 0020     		movs	r0, #0
 3465              	.LBB218:
 845:Src/register_interface.c ****             }
 3466              		.loc 1 845 15 view .LVU1043
 3467 04b8 42E6     		b	.L270
 3468              	.LVL441:
 3469              	.L418:
 845:Src/register_interface.c ****             }
 3470              		.loc 1 845 15 view .LVU1044
 3471 04ba B0F5B26F 		cmp	r0, #1424
ARM GAS  C:\Users\ep_ygh\AppData\Local\Temp\ccaRZNy5.s 			page 104


 3472 04be 7FF4E0AE 		bne	.L358
 898:Src/register_interface.c ****               break;
 3473              		.loc 1 898 15 is_stmt 1 view .LVU1045
 898:Src/register_interface.c ****               break;
 3474              		.loc 1 898 29 is_stmt 0 view .LVU1046
 3475 04c2 6248     		ldr	r0, .L424+20
 3476              	.LVL442:
 898:Src/register_interface.c ****               break;
 3477              		.loc 1 898 29 view .LVU1047
 3478 04c4 FFF7FEFF 		bl	VBS_GetAvBusVoltage_V
 3479              	.LVL443:
 898:Src/register_interface.c ****               break;
 3480              		.loc 1 898 27 view .LVU1048
 3481 04c8 2080     		strh	r0, [r4]	@ movhi
 3482              	.LVL444:
 899:Src/register_interface.c ****             }
 3483              		.loc 1 899 15 is_stmt 1 view .LVU1049
 3484              	.LBE218:
 788:Src/register_interface.c ****     uint8_t motorID=0;
 3485              		.loc 1 788 13 is_stmt 0 view .LVU1050
 3486 04ca 0020     		movs	r0, #0
 3487              	.LBB219:
 899:Src/register_interface.c ****             }
 3488              		.loc 1 899 15 view .LVU1051
 3489 04cc 38E6     		b	.L270
 3490              	.LVL445:
 3491              	.L419:
 899:Src/register_interface.c ****             }
 3492              		.loc 1 899 15 view .LVU1052
 3493 04ce D028     		cmp	r0, #208
 3494 04d0 7FF4D7AE 		bne	.L358
 850:Src/register_interface.c ****               break;
 3495              		.loc 1 850 15 is_stmt 1 view .LVU1053
 850:Src/register_interface.c ****               break;
 3496              		.loc 1 850 28 is_stmt 0 view .LVU1054
 3497 04d4 5C48     		ldr	r0, .L424+16
 3498              	.LVL446:
 850:Src/register_interface.c ****               break;
 3499              		.loc 1 850 28 view .LVU1055
 3500 04d6 FFF7FEFF 		bl	PID_GetKI
 3501              	.LVL447:
 850:Src/register_interface.c ****               break;
 3502              		.loc 1 850 26 view .LVU1056
 3503 04da 2080     		strh	r0, [r4]	@ movhi
 3504              	.LVL448:
 851:Src/register_interface.c ****             }
 3505              		.loc 1 851 15 is_stmt 1 view .LVU1057
 3506              	.LBE219:
 788:Src/register_interface.c ****     uint8_t motorID=0;
 3507              		.loc 1 788 13 is_stmt 0 view .LVU1058
 3508 04dc 0020     		movs	r0, #0
 3509              	.LBB220:
 851:Src/register_interface.c ****             }
 3510              		.loc 1 851 15 view .LVU1059
 3511 04de 2FE6     		b	.L270
 3512              	.LVL449:
 3513              	.L387:
ARM GAS  C:\Users\ep_ygh\AppData\Local\Temp\ccaRZNy5.s 			page 105


 851:Src/register_interface.c ****             }
 3514              		.loc 1 851 15 view .LVU1060
 3515              	.LBE220:
 3516              	.LBB221:
 3517 04e0 1828     		cmp	r0, #24
 3518 04e2 6AD1     		bne	.L384
1149:Src/register_interface.c ****               break;
 3519              		.loc 1 1149 15 is_stmt 1 view .LVU1061
1149:Src/register_interface.c ****               break;
 3520              		.loc 1 1149 29 is_stmt 0 view .LVU1062
 3521 04e4 5548     		ldr	r0, .L424+4
 3522              	.LVL450:
1149:Src/register_interface.c ****               break;
 3523              		.loc 1 1149 29 view .LVU1063
 3524 04e6 FFF7FEFF 		bl	MCI_GetFaultState
 3525              	.LVL451:
1149:Src/register_interface.c ****               break;
 3526              		.loc 1 1149 27 view .LVU1064
 3527 04ea 2060     		str	r0, [r4]
1150:Src/register_interface.c ****             }
 3528              		.loc 1 1150 15 is_stmt 1 view .LVU1065
 3529              	.LBE221:
 788:Src/register_interface.c ****     uint8_t motorID=0;
 3530              		.loc 1 788 13 is_stmt 0 view .LVU1066
 3531 04ec 0020     		movs	r0, #0
 3532              	.LBB222:
1150:Src/register_interface.c ****             }
 3533              		.loc 1 1150 15 view .LVU1067
 3534 04ee F3E5     		b	.L326
 3535              	.LVL452:
 3536              	.L322:
1150:Src/register_interface.c ****             }
 3537              		.loc 1 1150 15 view .LVU1068
 3538 04f0 B0F58C7F 		cmp	r0, #280
 3539 04f4 00F0E480 		beq	.L327
 3540 04f8 41F65833 		movw	r3, #7000
 3541 04fc 9842     		cmp	r0, r3
 3542 04fe 5CD1     		bne	.L384
 3543              	.LBB162:
1178:Src/register_interface.c ****               ReadVal.Float_Val = PQD_GetAvrgElMotorPowerW(pMPM[M1]);
 3544              		.loc 1 1178 15 is_stmt 1 view .LVU1069
1179:Src/register_interface.c ****               *regdataU32 = ReadVal.U32_Val; //cstat !UNION-type-punning
 3545              		.loc 1 1179 15 view .LVU1070
1179:Src/register_interface.c ****               *regdataU32 = ReadVal.U32_Val; //cstat !UNION-type-punning
 3546              		.loc 1 1179 64 is_stmt 0 view .LVU1071
 3547 0500 534B     		ldr	r3, .L424+24
1179:Src/register_interface.c ****               *regdataU32 = ReadVal.U32_Val; //cstat !UNION-type-punning
 3548              		.loc 1 1179 35 view .LVU1072
 3549 0502 1868     		ldr	r0, [r3]
 3550              	.LVL453:
1179:Src/register_interface.c ****               *regdataU32 = ReadVal.U32_Val; //cstat !UNION-type-punning
 3551              		.loc 1 1179 35 view .LVU1073
 3552 0504 FFF7FEFF 		bl	PQD_GetAvrgElMotorPowerW
 3553              	.LVL454:
1179:Src/register_interface.c ****               *regdataU32 = ReadVal.U32_Val; //cstat !UNION-type-punning
 3554              		.loc 1 1179 35 view .LVU1074
 3555 0508 8DED010A 		vstr.32	s0, [sp, #4]
ARM GAS  C:\Users\ep_ygh\AppData\Local\Temp\ccaRZNy5.s 			page 106


 3556              	.LVL455:
1180:Src/register_interface.c ****               break;
 3557              		.loc 1 1180 15 is_stmt 1 view .LVU1075
1180:Src/register_interface.c ****               break;
 3558              		.loc 1 1180 27 is_stmt 0 view .LVU1076
 3559 050c 019B     		ldr	r3, [sp, #4]
 3560 050e 2360     		str	r3, [r4]
1181:Src/register_interface.c ****             }
 3561              		.loc 1 1181 15 is_stmt 1 view .LVU1077
 3562              	.LVL456:
1181:Src/register_interface.c ****             }
 3563              		.loc 1 1181 15 is_stmt 0 view .LVU1078
 3564              	.LBE162:
 3565              	.LBE222:
 788:Src/register_interface.c ****     uint8_t motorID=0;
 3566              		.loc 1 788 13 view .LVU1079
 3567 0510 0020     		movs	r0, #0
 3568 0512 E1E5     		b	.L326
 3569              	.LVL457:
 3570              	.L361:
 828:Src/register_interface.c ****         }
 3571              		.loc 1 828 18 view .LVU1080
 3572 0514 0820     		movs	r0, #8
 3573              	.LVL458:
1377:Src/register_interface.c **** 
 3574              		.loc 1 1377 3 view .LVU1081
 3575 0516 16B0     		add	sp, sp, #88
 3576              	.LCFI33:
 3577              		.cfi_remember_state
 3578              		.cfi_def_cfa_offset 24
 3579              		@ sp needed
 3580 0518 BDE8F081 		pop	{r4, r5, r6, r7, r8, pc}
 3581              	.LVL459:
 3582              	.L330:
 3583              	.LCFI34:
 3584              		.cfi_restore_state
 3585              	.LBB223:
1212:Src/register_interface.c ****             break;
 3586              		.loc 1 1212 13 is_stmt 1 view .LVU1082
1212:Src/register_interface.c ****             break;
 3587              		.loc 1 1212 51 is_stmt 0 view .LVU1083
 3588 051c 4D4B     		ldr	r3, .L424+28
 3589 051e 1A68     		ldr	r2, [r3]
 3590              	.LBB165:
 3591              	.LBB166:
1384:Src/register_interface.c **** 
 3592              		.loc 1 1384 8 view .LVU1084
 3593 0520 0123     		movs	r3, #1
 3594 0522 2B80     		strh	r3, [r5]	@ movhi
 3595              	.LBE166:
 3596              	.LBE165:
1212:Src/register_interface.c ****             break;
 3597              		.loc 1 1212 60 view .LVU1085
 3598 0524 02F12401 		add	r1, r2, #36
 3599              	.LVL460:
 3600              	.LBB170:
 3601              	.LBI165:
ARM GAS  C:\Users\ep_ygh\AppData\Local\Temp\ccaRZNy5.s 			page 107


1379:Src/register_interface.c **** {
 3602              		.loc 1 1379 9 is_stmt 1 view .LVU1086
 3603              	.LBB167:
1381:Src/register_interface.c ****   const char_t *tempsrcString = srcString;
 3604              		.loc 1 1381 3 view .LVU1087
1382:Src/register_interface.c ****   char_t *tempdestString = destString;
 3605              		.loc 1 1382 3 view .LVU1088
1383:Src/register_interface.c ****   *size= 1U ; /* /0 is the min String size */
 3606              		.loc 1 1383 3 view .LVU1089
1384:Src/register_interface.c **** 
 3607              		.loc 1 1384 3 view .LVU1090
1386:Src/register_interface.c ****   {
 3608              		.loc 1 1386 3 view .LVU1091
1386:Src/register_interface.c ****   {
 3609              		.loc 1 1386 9 view .LVU1092
1386:Src/register_interface.c ****   {
 3610              		.loc 1 1386 11 is_stmt 0 view .LVU1093
 3611 0528 92F92420 		ldrsb	r2, [r2, #36]
1386:Src/register_interface.c ****   {
 3612              		.loc 1 1386 9 view .LVU1094
 3613 052c 7AB1     		cbz	r2, .L335
 3614              	.LBE167:
 3615              	.LBE170:
 3616              	.LBB171:
 3617              	.LBB172:
1386:Src/register_interface.c ****   {
 3618              		.loc 1 1386 50 view .LVU1095
 3619 052e 1FFA8CFC 		uxth	ip, ip
1386:Src/register_interface.c ****   {
 3620              		.loc 1 1386 50 view .LVU1096
 3621 0532 08E0     		b	.L336
 3622              	.LVL461:
 3623              	.L337:
1386:Src/register_interface.c ****   {
 3624              		.loc 1 1386 50 view .LVU1097
 3625              	.LBE172:
 3626              	.LBE171:
 3627              	.LBB176:
 3628              	.LBB168:
1388:Src/register_interface.c ****     tempdestString++;
 3629              		.loc 1 1388 21 view .LVU1098
 3630 0534 04F8012B 		strb	r2, [r4], #1
 3631              	.LVL462:
1389:Src/register_interface.c ****     tempsrcString++;
 3632              		.loc 1 1389 5 is_stmt 1 view .LVU1099
1390:Src/register_interface.c ****     *size = *size + 1U;
 3633              		.loc 1 1390 5 view .LVU1100
1391:Src/register_interface.c ****   }
 3634              		.loc 1 1391 5 view .LVU1101
1391:Src/register_interface.c ****   }
 3635              		.loc 1 1391 19 is_stmt 0 view .LVU1102
 3636 0538 2B88     		ldrh	r3, [r5]
 3637 053a 0133     		adds	r3, r3, #1
 3638 053c 9BB2     		uxth	r3, r3
1391:Src/register_interface.c ****   }
 3639              		.loc 1 1391 11 view .LVU1103
 3640 053e 2B80     		strh	r3, [r5]	@ movhi
ARM GAS  C:\Users\ep_ygh\AppData\Local\Temp\ccaRZNy5.s 			page 108


1386:Src/register_interface.c ****   {
 3641              		.loc 1 1386 9 is_stmt 1 view .LVU1104
1386:Src/register_interface.c ****   {
 3642              		.loc 1 1386 11 is_stmt 0 view .LVU1105
 3643 0540 11F9012F 		ldrsb	r2, [r1, #1]!
 3644              	.LVL463:
1386:Src/register_interface.c ****   {
 3645              		.loc 1 1386 9 view .LVU1106
 3646 0544 1AB1     		cbz	r2, .L335
 3647              	.L336:
1388:Src/register_interface.c ****     tempdestString++;
 3648              		.loc 1 1388 5 is_stmt 1 view .LVU1107
1386:Src/register_interface.c ****   {
 3649              		.loc 1 1386 40 is_stmt 0 view .LVU1108
 3650 0546 9C45     		cmp	ip, r3
 3651 0548 F4D8     		bhi	.L337
 3652              	.LVL464:
 3653              	.L338:
1386:Src/register_interface.c ****   {
 3654              		.loc 1 1386 40 view .LVU1109
 3655              	.LBE168:
 3656              	.LBE176:
 3657              	.LBB177:
 3658              	.LBB173:
1396:Src/register_interface.c ****   }
 3659              		.loc 1 1396 12 view .LVU1110
 3660 054a 0620     		movs	r0, #6
 3661              	.LVL465:
1396:Src/register_interface.c ****   }
 3662              		.loc 1 1396 12 view .LVU1111
 3663 054c 77E5     		b	.L381
 3664              	.LVL466:
 3665              	.L335:
1396:Src/register_interface.c ****   }
 3666              		.loc 1 1396 12 view .LVU1112
 3667              	.LBE173:
 3668              	.LBE177:
 3669              	.LBB178:
 3670              	.LBB169:
1394:Src/register_interface.c ****   { /* Last string char must be 0 */
 3671              		.loc 1 1394 3 is_stmt 1 view .LVU1113
 3672              		.loc 1 1400 5 view .LVU1114
 3673              		.loc 1 1400 21 is_stmt 0 view .LVU1115
 3674 054e 0020     		movs	r0, #0
 3675              	.LVL467:
 3676              		.loc 1 1400 21 view .LVU1116
 3677 0550 2070     		strb	r0, [r4]
 3678              	.LVL468:
 3679              		.loc 1 1400 21 view .LVU1117
 3680              	.LBE169:
 3681              	.LBE178:
 3682              	.LBE223:
1376:Src/register_interface.c ****   }
 3683              		.loc 1 1376 5 is_stmt 1 view .LVU1118
1376:Src/register_interface.c ****   }
 3684              		.loc 1 1376 12 is_stmt 0 view .LVU1119
 3685 0552 74E5     		b	.L381
ARM GAS  C:\Users\ep_ygh\AppData\Local\Temp\ccaRZNy5.s 			page 109


 3686              	.LVL469:
 3687              	.L329:
 3688              	.LBB224:
1206:Src/register_interface.c ****             break;
 3689              		.loc 1 1206 13 is_stmt 1 view .LVU1120
1206:Src/register_interface.c ****             break;
 3690              		.loc 1 1206 22 is_stmt 0 view .LVU1121
 3691 0554 404A     		ldr	r2, .L424+32
 3692              	.LBB179:
 3693              	.LBB174:
1384:Src/register_interface.c **** 
 3694              		.loc 1 1384 8 view .LVU1122
 3695 0556 0123     		movs	r3, #1
 3696              	.LBE174:
 3697              	.LBE179:
1206:Src/register_interface.c ****             break;
 3698              		.loc 1 1206 22 view .LVU1123
 3699 0558 1168     		ldr	r1, [r2]
 3700              	.LVL470:
 3701              	.LBB180:
 3702              	.LBI171:
1379:Src/register_interface.c **** {
 3703              		.loc 1 1379 9 is_stmt 1 view .LVU1124
 3704              	.LBB175:
1381:Src/register_interface.c ****   const char_t *tempsrcString = srcString;
 3705              		.loc 1 1381 3 view .LVU1125
1382:Src/register_interface.c ****   char_t *tempdestString = destString;
 3706              		.loc 1 1382 3 view .LVU1126
1383:Src/register_interface.c ****   *size= 1U ; /* /0 is the min String size */
 3707              		.loc 1 1383 3 view .LVU1127
1384:Src/register_interface.c **** 
 3708              		.loc 1 1384 3 view .LVU1128
1384:Src/register_interface.c **** 
 3709              		.loc 1 1384 8 is_stmt 0 view .LVU1129
 3710 055a 2B80     		strh	r3, [r5]	@ movhi
1386:Src/register_interface.c ****   {
 3711              		.loc 1 1386 3 is_stmt 1 view .LVU1130
1386:Src/register_interface.c ****   {
 3712              		.loc 1 1386 9 view .LVU1131
1386:Src/register_interface.c ****   {
 3713              		.loc 1 1386 11 is_stmt 0 view .LVU1132
 3714 055c 91F90020 		ldrsb	r2, [r1]
1386:Src/register_interface.c ****   {
 3715              		.loc 1 1386 9 view .LVU1133
 3716 0560 002A     		cmp	r2, #0
 3717 0562 F4D0     		beq	.L335
1386:Src/register_interface.c ****   {
 3718              		.loc 1 1386 50 view .LVU1134
 3719 0564 1FFA8CFC 		uxth	ip, ip
1386:Src/register_interface.c ****   {
 3720              		.loc 1 1386 50 view .LVU1135
 3721 0568 09E0     		b	.L333
 3722              	.LVL471:
 3723              	.L334:
1388:Src/register_interface.c ****     tempdestString++;
 3724              		.loc 1 1388 21 view .LVU1136
 3725 056a 04F8012B 		strb	r2, [r4], #1
ARM GAS  C:\Users\ep_ygh\AppData\Local\Temp\ccaRZNy5.s 			page 110


 3726              	.LVL472:
1389:Src/register_interface.c ****     tempsrcString++;
 3727              		.loc 1 1389 5 is_stmt 1 view .LVU1137
1390:Src/register_interface.c ****     *size = *size + 1U;
 3728              		.loc 1 1390 5 view .LVU1138
1391:Src/register_interface.c ****   }
 3729              		.loc 1 1391 5 view .LVU1139
1391:Src/register_interface.c ****   }
 3730              		.loc 1 1391 19 is_stmt 0 view .LVU1140
 3731 056e 2B88     		ldrh	r3, [r5]
 3732 0570 0133     		adds	r3, r3, #1
 3733 0572 9BB2     		uxth	r3, r3
1391:Src/register_interface.c ****   }
 3734              		.loc 1 1391 11 view .LVU1141
 3735 0574 2B80     		strh	r3, [r5]	@ movhi
1386:Src/register_interface.c ****   {
 3736              		.loc 1 1386 9 is_stmt 1 view .LVU1142
1386:Src/register_interface.c ****   {
 3737              		.loc 1 1386 11 is_stmt 0 view .LVU1143
 3738 0576 11F9012F 		ldrsb	r2, [r1, #1]!
 3739              	.LVL473:
1386:Src/register_interface.c ****   {
 3740              		.loc 1 1386 9 view .LVU1144
 3741 057a 002A     		cmp	r2, #0
 3742 057c E7D0     		beq	.L335
 3743              	.L333:
1388:Src/register_interface.c ****     tempdestString++;
 3744              		.loc 1 1388 5 is_stmt 1 view .LVU1145
1386:Src/register_interface.c ****   {
 3745              		.loc 1 1386 40 is_stmt 0 view .LVU1146
 3746 057e 9C45     		cmp	ip, r3
 3747 0580 F3D8     		bhi	.L334
1386:Src/register_interface.c ****   {
 3748              		.loc 1 1386 40 view .LVU1147
 3749 0582 E2E7     		b	.L338
 3750              	.LVL474:
 3751              	.L391:
1386:Src/register_interface.c ****   {
 3752              		.loc 1 1386 40 view .LVU1148
 3753              	.LBE175:
 3754              	.LBE180:
 3755              	.LBE224:
 3756              	.LBB225:
1290:Src/register_interface.c ****             }
 3757              		.loc 1 1290 15 is_stmt 1 view .LVU1149
 3758 0584 354A     		ldr	r2, .L424+36
 3759 0586 5068     		ldr	r0, [r2, #4]	@ unaligned
 3760              	.LVL475:
1290:Src/register_interface.c ****             }
 3761              		.loc 1 1290 15 is_stmt 0 view .LVU1150
 3762 0588 1468     		ldr	r4, [r2]	@ unaligned
 3763              	.LVL476:
1290:Src/register_interface.c ****             }
 3764              		.loc 1 1290 15 view .LVU1151
 3765 058a 9168     		ldr	r1, [r2, #8]	@ unaligned
 3766              	.LVL477:
1290:Src/register_interface.c ****             }
ARM GAS  C:\Users\ep_ygh\AppData\Local\Temp\ccaRZNy5.s 			page 111


 3767              		.loc 1 1290 15 view .LVU1152
 3768 058c D268     		ldr	r2, [r2, #12]	@ unaligned
 3769 058e DA60     		str	r2, [r3, #12]	@ unaligned
 3770 0590 5860     		str	r0, [r3, #4]	@ unaligned
 3771 0592 1C60     		str	r4, [r3]	@ unaligned
 3772 0594 9960     		str	r1, [r3, #8]	@ unaligned
 3773              	.LBE225:
 788:Src/register_interface.c ****     uint8_t motorID=0;
 3774              		.loc 1 788 13 view .LVU1153
 3775 0596 0020     		movs	r0, #0
 3776              	.LBB226:
1290:Src/register_interface.c ****             }
 3777              		.loc 1 1290 15 view .LVU1154
 3778 0598 0E23     		movs	r3, #14
 3779              	.LVL478:
1290:Src/register_interface.c ****             }
 3780              		.loc 1 1290 15 view .LVU1155
 3781 059a 6FE5     		b	.L350
 3782              	.LVL479:
 3783              	.L385:
 3784              	.LBB151:
1245:Src/register_interface.c ****               (void)memcpy(rawData, (const uint8_t *)pApplicationConfig_reg, sizeof(ApplicationConf
 3785              		.loc 1 1245 15 is_stmt 1 view .LVU1156
1246:Src/register_interface.c ****             }
 3786              		.loc 1 1246 15 view .LVU1157
1245:Src/register_interface.c ****               (void)memcpy(rawData, (const uint8_t *)pApplicationConfig_reg, sizeof(ApplicationConf
 3787              		.loc 1 1245 46 is_stmt 0 view .LVU1158
 3788 059c 304A     		ldr	r2, .L424+40
 3789              	.LVL480:
1246:Src/register_interface.c ****             }
 3790              		.loc 1 1246 21 view .LVU1159
 3791 059e 1268     		ldr	r2, [r2]
 3792              	.LVL481:
1246:Src/register_interface.c ****             }
 3793              		.loc 1 1246 21 view .LVU1160
 3794 05a0 5068     		ldr	r0, [r2, #4]	@ unaligned
 3795              	.LVL482:
1246:Src/register_interface.c ****             }
 3796              		.loc 1 1246 21 view .LVU1161
 3797 05a2 1468     		ldr	r4, [r2]	@ unaligned
 3798              	.LVL483:
1246:Src/register_interface.c ****             }
 3799              		.loc 1 1246 21 view .LVU1162
 3800 05a4 9168     		ldr	r1, [r2, #8]	@ unaligned
 3801              	.LVL484:
1246:Src/register_interface.c ****             }
 3802              		.loc 1 1246 21 view .LVU1163
 3803 05a6 D268     		ldr	r2, [r2, #12]	@ unaligned
 3804              	.LVL485:
1246:Src/register_interface.c ****             }
 3805              		.loc 1 1246 21 view .LVU1164
 3806 05a8 DA60     		str	r2, [r3, #12]	@ unaligned
 3807 05aa 5860     		str	r0, [r3, #4]	@ unaligned
 3808 05ac 1C60     		str	r4, [r3]	@ unaligned
 3809              	.LVL486:
1246:Src/register_interface.c ****             }
 3810              		.loc 1 1246 21 view .LVU1165
ARM GAS  C:\Users\ep_ygh\AppData\Local\Temp\ccaRZNy5.s 			page 112


 3811 05ae 9960     		str	r1, [r3, #8]	@ unaligned
 3812              	.LBE151:
 3813              	.LBE226:
 788:Src/register_interface.c ****     uint8_t motorID=0;
 3814              		.loc 1 788 13 view .LVU1166
 3815 05b0 0020     		movs	r0, #0
 3816              	.LBB227:
 3817              	.LBB152:
1246:Src/register_interface.c ****             }
 3818              		.loc 1 1246 21 view .LVU1167
 3819 05b2 1223     		movs	r3, #18
 3820              	.LVL487:
1246:Src/register_interface.c ****             }
 3821              		.loc 1 1246 21 view .LVU1168
 3822 05b4 62E5     		b	.L350
 3823              	.LVL488:
 3824              	.L355:
1246:Src/register_interface.c ****             }
 3825              		.loc 1 1246 21 view .LVU1169
 3826              	.LBE152:
 3827              	.LBE227:
 828:Src/register_interface.c ****         }
 3828              		.loc 1 828 18 view .LVU1170
 3829 05b6 0846     		mov	r0, r1
 3830              	.LVL489:
 828:Src/register_interface.c ****         }
 3831              		.loc 1 828 18 view .LVU1171
 3832 05b8 41E5     		b	.L381
 3833              	.LVL490:
 3834              	.L384:
 3835              	.LBB228:
 828:Src/register_interface.c ****         }
 3836              		.loc 1 828 18 view .LVU1172
 3837 05ba 0520     		movs	r0, #5
 3838              	.LVL491:
 828:Src/register_interface.c ****         }
 3839              		.loc 1 828 18 view .LVU1173
 3840 05bc 8CE5     		b	.L326
 3841              	.LVL492:
 3842              	.L258:
 828:Src/register_interface.c ****         }
 3843              		.loc 1 828 18 view .LVU1174
 3844              	.LBE228:
 814:Src/register_interface.c ****               break;
 3845              		.loc 1 814 15 is_stmt 1 view .LVU1175
 814:Src/register_interface.c ****               break;
 3846              		.loc 1 814 32 is_stmt 0 view .LVU1176
 3847 05be 2948     		ldr	r0, .L424+44
 3848              	.LVL493:
 814:Src/register_interface.c ****               break;
 3849              		.loc 1 814 32 view .LVU1177
 3850 05c0 FFF7FEFF 		bl	RUC_GetNumberOfPhases
 3851              	.LVL494:
 814:Src/register_interface.c ****               break;
 3852              		.loc 1 814 21 view .LVU1178
 3853 05c4 2070     		strb	r0, [r4]
 815:Src/register_interface.c ****             }
ARM GAS  C:\Users\ep_ygh\AppData\Local\Temp\ccaRZNy5.s 			page 113


 3854              		.loc 1 815 15 is_stmt 1 view .LVU1179
 788:Src/register_interface.c ****     uint8_t motorID=0;
 3855              		.loc 1 788 13 is_stmt 0 view .LVU1180
 3856 05c6 0020     		movs	r0, #0
 815:Src/register_interface.c ****             }
 3857              		.loc 1 815 15 view .LVU1181
 3858 05c8 6AE5     		b	.L259
 3859              	.LVL495:
 3860              	.L257:
 808:Src/register_interface.c ****               break;
 3861              		.loc 1 808 15 is_stmt 1 view .LVU1182
 808:Src/register_interface.c ****               break;
 3862              		.loc 1 808 32 is_stmt 0 view .LVU1183
 3863 05ca 1C48     		ldr	r0, .L424+4
 3864              	.LVL496:
 808:Src/register_interface.c ****               break;
 3865              		.loc 1 808 32 view .LVU1184
 3866 05cc FFF7FEFF 		bl	MCI_GetControlMode
 3867              	.LVL497:
 808:Src/register_interface.c ****               break;
 3868              		.loc 1 808 21 view .LVU1185
 3869 05d0 2070     		strb	r0, [r4]
 809:Src/register_interface.c ****             }
 3870              		.loc 1 809 15 is_stmt 1 view .LVU1186
 788:Src/register_interface.c ****     uint8_t motorID=0;
 3871              		.loc 1 788 13 is_stmt 0 view .LVU1187
 3872 05d2 0020     		movs	r0, #0
 809:Src/register_interface.c ****             }
 3873              		.loc 1 809 15 view .LVU1188
 3874 05d4 64E5     		b	.L259
 3875              	.LVL498:
 3876              	.L386:
 802:Src/register_interface.c ****               break;
 3877              		.loc 1 802 15 is_stmt 1 view .LVU1189
 802:Src/register_interface.c ****               break;
 3878              		.loc 1 802 32 is_stmt 0 view .LVU1190
 3879 05d6 1948     		ldr	r0, .L424+4
 3880              	.LVL499:
 802:Src/register_interface.c ****               break;
 3881              		.loc 1 802 32 view .LVU1191
 3882 05d8 FFF7FEFF 		bl	MCI_GetSTMState
 3883              	.LVL500:
 802:Src/register_interface.c ****               break;
 3884              		.loc 1 802 21 view .LVU1192
 3885 05dc 2070     		strb	r0, [r4]
 803:Src/register_interface.c ****             }
 3886              		.loc 1 803 15 is_stmt 1 view .LVU1193
 788:Src/register_interface.c ****     uint8_t motorID=0;
 3887              		.loc 1 788 13 is_stmt 0 view .LVU1194
 3888 05de 0020     		movs	r0, #0
 803:Src/register_interface.c ****             }
 3889              		.loc 1 803 15 view .LVU1195
 3890 05e0 5EE5     		b	.L259
 3891              	.LVL501:
 3892              	.L343:
 3893              	.LBB229:
1253:Src/register_interface.c ****             if (((*rawSize) + 2U) > (uint16_t)freeSpace)
ARM GAS  C:\Users\ep_ygh\AppData\Local\Temp\ccaRZNy5.s 			page 114


 3894              		.loc 1 1253 13 is_stmt 1 view .LVU1196
1254:Src/register_interface.c ****             {
 3895              		.loc 1 1254 16 is_stmt 0 view .LVU1197
 3896 05e2 1FFA8CFC 		uxth	ip, ip
1253:Src/register_interface.c ****             if (((*rawSize) + 2U) > (uint16_t)freeSpace)
 3897              		.loc 1 1253 22 view .LVU1198
 3898 05e6 3C22     		movs	r2, #60
1254:Src/register_interface.c ****             {
 3899              		.loc 1 1254 16 view .LVU1199
 3900 05e8 BCF13D0F 		cmp	ip, #61
1253:Src/register_interface.c ****             if (((*rawSize) + 2U) > (uint16_t)freeSpace)
 3901              		.loc 1 1253 22 view .LVU1200
 3902 05ec 2280     		strh	r2, [r4]	@ movhi
1254:Src/register_interface.c ****             {
 3903              		.loc 1 1254 13 is_stmt 1 view .LVU1201
1254:Src/register_interface.c ****             {
 3904              		.loc 1 1254 16 is_stmt 0 view .LVU1202
 3905 05ee 79D8     		bhi	.L420
 3906 05f0 3E23     		movs	r3, #62
 3907              	.LVL502:
1256:Src/register_interface.c ****             }
 3908              		.loc 1 1256 22 view .LVU1203
 3909 05f2 0820     		movs	r0, #8
 3910              	.LVL503:
1256:Src/register_interface.c ****             }
 3911              		.loc 1 1256 22 view .LVU1204
 3912 05f4 42E5     		b	.L350
 3913              	.LVL504:
 3914              	.L341:
1268:Src/register_interface.c ****             if (((*rawSize) + 2U) > (uint16_t)freeSpace)
 3915              		.loc 1 1268 13 is_stmt 1 view .LVU1205
1269:Src/register_interface.c ****             {
 3916              		.loc 1 1269 16 is_stmt 0 view .LVU1206
 3917 05f6 1FFA8CFC 		uxth	ip, ip
1268:Src/register_interface.c ****             if (((*rawSize) + 2U) > (uint16_t)freeSpace)
 3918              		.loc 1 1268 22 view .LVU1207
 3919 05fa 0E22     		movs	r2, #14
1269:Src/register_interface.c ****             {
 3920              		.loc 1 1269 16 view .LVU1208
 3921 05fc BCF10F0F 		cmp	ip, #15
1268:Src/register_interface.c ****             if (((*rawSize) + 2U) > (uint16_t)freeSpace)
 3922              		.loc 1 1268 22 view .LVU1209
 3923 0600 2280     		strh	r2, [r4]	@ movhi
1269:Src/register_interface.c ****             {
 3924              		.loc 1 1269 13 is_stmt 1 view .LVU1210
1269:Src/register_interface.c ****             {
 3925              		.loc 1 1269 16 is_stmt 0 view .LVU1211
 3926 0602 00F28980 		bhi	.L421
 3927 0606 1023     		movs	r3, #16
 3928              	.LVL505:
1271:Src/register_interface.c ****             }
 3929              		.loc 1 1271 22 view .LVU1212
 3930 0608 0820     		movs	r0, #8
 3931              	.LVL506:
1271:Src/register_interface.c ****             }
 3932              		.loc 1 1271 22 view .LVU1213
 3933 060a 37E5     		b	.L350
ARM GAS  C:\Users\ep_ygh\AppData\Local\Temp\ccaRZNy5.s 			page 115


 3934              	.LVL507:
 3935              	.L345:
1366:Src/register_interface.c ****         break;
 3936              		.loc 1 1366 28 view .LVU1214
 3937 060c 2388     		ldrh	r3, [r4]
 3938              	.LVL508:
1366:Src/register_interface.c ****         break;
 3939              		.loc 1 1366 28 view .LVU1215
 3940 060e 0233     		adds	r3, r3, #2
1360:Src/register_interface.c ****             break;
 3941              		.loc 1 1360 20 view .LVU1216
 3942 0610 0520     		movs	r0, #5
 3943              	.LVL509:
1366:Src/register_interface.c ****         break;
 3944              		.loc 1 1366 28 view .LVU1217
 3945 0612 9BB2     		uxth	r3, r3
 3946 0614 32E5     		b	.L350
 3947              	.LVL510:
 3948              	.L339:
 3949              	.LBB153:
1296:Src/register_interface.c ****             uint16_t *duration = (uint16_t *)&rawData[4]; //cstat !MISRAC2012-Rule-11.3
 3950              		.loc 1 1296 13 is_stmt 1 view .LVU1218
1297:Src/register_interface.c ****             *rpm = (((int32_t)MCI_GetLastRampFinalSpeed(pMCIN) * U_RPM) / (int32_t)SPEED_UNIT);
 3951              		.loc 1 1297 13 view .LVU1219
1298:Src/register_interface.c ****             *duration = MCI_GetLastRampFinalDuration(pMCIN);
 3952              		.loc 1 1298 13 view .LVU1220
1298:Src/register_interface.c ****             *duration = MCI_GetLastRampFinalDuration(pMCIN);
 3953              		.loc 1 1298 31 is_stmt 0 view .LVU1221
 3954 0616 0948     		ldr	r0, .L424+4
 3955              	.LVL511:
1298:Src/register_interface.c ****             *duration = MCI_GetLastRampFinalDuration(pMCIN);
 3956              		.loc 1 1298 31 view .LVU1222
 3957 0618 FFF7FEFF 		bl	MCI_GetLastRampFinalSpeed
 3958              	.LVL512:
1298:Src/register_interface.c ****             *duration = MCI_GetLastRampFinalDuration(pMCIN);
 3959              		.loc 1 1298 73 view .LVU1223
 3960 061c 00EB4000 		add	r0, r0, r0, lsl #1
 3961 0620 4300     		lsls	r3, r0, #1
1298:Src/register_interface.c ****             *duration = MCI_GetLastRampFinalDuration(pMCIN);
 3962              		.loc 1 1298 18 view .LVU1224
 3963 0622 C4F80230 		str	r3, [r4, #2]
1299:Src/register_interface.c ****             *rawSize = 6;
 3964              		.loc 1 1299 13 is_stmt 1 view .LVU1225
1299:Src/register_interface.c ****             *rawSize = 6;
 3965              		.loc 1 1299 25 is_stmt 0 view .LVU1226
 3966 0626 0548     		ldr	r0, .L424+4
 3967 0628 FFF7FEFF 		bl	MCI_GetLastRampFinalDuration
 3968              	.LVL513:
1300:Src/register_interface.c ****             break;
 3969              		.loc 1 1300 22 view .LVU1227
 3970 062c 0623     		movs	r3, #6
1299:Src/register_interface.c ****             *rawSize = 6;
 3971              		.loc 1 1299 23 view .LVU1228
 3972 062e E080     		strh	r0, [r4, #6]	@ movhi
1300:Src/register_interface.c ****             break;
 3973              		.loc 1 1300 13 is_stmt 1 view .LVU1229
1300:Src/register_interface.c ****             break;
ARM GAS  C:\Users\ep_ygh\AppData\Local\Temp\ccaRZNy5.s 			page 116


 3974              		.loc 1 1300 22 is_stmt 0 view .LVU1230
 3975 0630 2380     		strh	r3, [r4]	@ movhi
1301:Src/register_interface.c ****           }
 3976              		.loc 1 1301 13 is_stmt 1 view .LVU1231
 3977              	.LBE153:
 3978              	.LBE229:
 788:Src/register_interface.c ****     uint8_t motorID=0;
 3979              		.loc 1 788 13 is_stmt 0 view .LVU1232
 3980 0632 0020     		movs	r0, #0
 3981              	.LBB230:
 3982              	.LBB154:
1301:Src/register_interface.c ****           }
 3983              		.loc 1 1301 13 view .LVU1233
 3984 0634 0823     		movs	r3, #8
 3985 0636 21E5     		b	.L350
 3986              	.L425:
 3987              		.align	2
 3988              	.L424:
 3989 0638 00000000 		.word	PIDIdHandle_M1
 3990 063c 00000000 		.word	Mci
 3991 0640 34000000 		.word	STO_PLL_M1+52
 3992 0644 00000000 		.word	PIDIqHandle_M1
 3993 0648 00000000 		.word	PIDSpeedHandle_M1
 3994 064c 00000000 		.word	BusVoltageSensor_M1
 3995 0650 00000000 		.word	pMPM
 3996 0654 00000000 		.word	MotorConfig_reg
 3997 0658 00000000 		.word	PWR_BOARD_NAME
 3998 065c 00000000 		.word	scaleParams_M1
 3999 0660 00000000 		.word	ApplicationConfig_reg
 4000 0664 00000000 		.word	RevUpControlM1
 4001              	.LVL514:
 4002              	.L347:
1301:Src/register_interface.c ****           }
 4003              		.loc 1 1301 13 view .LVU1234
 4004              	.LBE154:
 4005              	.LBB155:
1317:Src/register_interface.c ****             uint16_t *finalTorque;
 4006              		.loc 1 1317 13 is_stmt 1 view .LVU1235
1318:Src/register_interface.c ****             uint16_t *durationms;
 4007              		.loc 1 1318 13 view .LVU1236
1319:Src/register_interface.c ****             RevUpCtrl_PhaseParams_t revUpPhase;
 4008              		.loc 1 1319 13 view .LVU1237
1320:Src/register_interface.c ****             uint8_t i;
 4009              		.loc 1 1320 13 view .LVU1238
1321:Src/register_interface.c **** 
 4010              		.loc 1 1321 13 view .LVU1239
1323:Src/register_interface.c ****             if (((*rawSize) + 2U) > (uint16_t)freeSpace)
 4011              		.loc 1 1323 13 view .LVU1240
1324:Src/register_interface.c ****             {
 4012              		.loc 1 1324 16 is_stmt 0 view .LVU1241
 4013 0668 1FFA8CFC 		uxth	ip, ip
1323:Src/register_interface.c ****             if (((*rawSize) + 2U) > (uint16_t)freeSpace)
 4014              		.loc 1 1323 22 view .LVU1242
 4015 066c 2823     		movs	r3, #40
 4016              	.LVL515:
1324:Src/register_interface.c ****             {
 4017              		.loc 1 1324 16 view .LVU1243
ARM GAS  C:\Users\ep_ygh\AppData\Local\Temp\ccaRZNy5.s 			page 117


 4018 066e BCF1290F 		cmp	ip, #41
1323:Src/register_interface.c ****             if (((*rawSize) + 2U) > (uint16_t)freeSpace)
 4019              		.loc 1 1323 22 view .LVU1244
 4020 0672 2380     		strh	r3, [r4]	@ movhi
1324:Src/register_interface.c ****             {
 4021              		.loc 1 1324 13 is_stmt 1 view .LVU1245
1324:Src/register_interface.c ****             {
 4022              		.loc 1 1324 16 is_stmt 0 view .LVU1246
 4023 0674 33D9     		bls	.L366
1332:Src/register_interface.c ****                 rpm = (int32_t *)&data[2U + (i * 8U)];  //cstat !MISRAC2012-Rule-11.3
 4024              		.loc 1 1332 23 view .LVU1247
 4025 0676 DFF8A081 		ldr	r8, .L426+36
 4026 067a 2746     		mov	r7, r4
1324:Src/register_interface.c ****             {
 4027              		.loc 1 1324 16 view .LVU1248
 4028 067c 0026     		movs	r6, #0
 4029              	.LVL516:
 4030              	.L353:
1332:Src/register_interface.c ****                 rpm = (int32_t *)&data[2U + (i * 8U)];  //cstat !MISRAC2012-Rule-11.3
 4031              		.loc 1 1332 17 is_stmt 1 discriminator 3 view .LVU1249
1332:Src/register_interface.c ****                 rpm = (int32_t *)&data[2U + (i * 8U)];  //cstat !MISRAC2012-Rule-11.3
 4032              		.loc 1 1332 23 is_stmt 0 discriminator 3 view .LVU1250
 4033 067e F1B2     		uxtb	r1, r6
 4034 0680 13AA     		add	r2, sp, #76
 4035 0682 4046     		mov	r0, r8
 4036 0684 FFF7FEFF 		bl	RUC_GetPhase
 4037              	.LVL517:
1333:Src/register_interface.c ****                 *rpm = (((int32_t)revUpPhase.hFinalMecSpeedUnit) * U_RPM) / SPEED_UNIT; //cstat !MI
 4038              		.loc 1 1333 17 is_stmt 1 discriminator 3 view .LVU1251
1334:Src/register_interface.c ****                 finalTorque = (uint16_t *)&data[6U + (i * 8U)]; //cstat !MISRAC2012-Rule-11.3
 4039              		.loc 1 1334 17 discriminator 3 view .LVU1252
1334:Src/register_interface.c ****                 finalTorque = (uint16_t *)&data[6U + (i * 8U)]; //cstat !MISRAC2012-Rule-11.3
 4040              		.loc 1 1334 75 is_stmt 0 discriminator 3 view .LVU1253
 4041 0688 BDF94E30 		ldrsh	r3, [sp, #78]
 4042 068c 03EB4303 		add	r3, r3, r3, lsl #1
 4043 0690 5B00     		lsls	r3, r3, #1
1334:Src/register_interface.c ****                 finalTorque = (uint16_t *)&data[6U + (i * 8U)]; //cstat !MISRAC2012-Rule-11.3
 4044              		.loc 1 1334 22 discriminator 3 view .LVU1254
 4045 0692 C7F80230 		str	r3, [r7, #2]
1335:Src/register_interface.c ****                 *finalTorque = (uint16_t)revUpPhase.hFinalTorque; //cstat !MISRAC2012-Rule-11.3
 4046              		.loc 1 1335 17 is_stmt 1 discriminator 3 view .LVU1255
 4047              	.LVL518:
1336:Src/register_interface.c ****                 durationms  = (uint16_t *)&data[8U + (i * 8U)]; //cstat !MISRAC2012-Rule-11.3
 4048              		.loc 1 1336 17 discriminator 3 view .LVU1256
1330:Src/register_interface.c ****               {
 4049              		.loc 1 1330 15 is_stmt 0 discriminator 3 view .LVU1257
 4050 0696 0136     		adds	r6, r6, #1
 4051              	.LVL519:
1336:Src/register_interface.c ****                 durationms  = (uint16_t *)&data[8U + (i * 8U)]; //cstat !MISRAC2012-Rule-11.3
 4052              		.loc 1 1336 30 discriminator 3 view .LVU1258
 4053 0698 BDF85030 		ldrh	r3, [sp, #80]
 4054 069c FB80     		strh	r3, [r7, #6]	@ movhi
1337:Src/register_interface.c ****                 *durationms  = revUpPhase.hDurationms;
 4055              		.loc 1 1337 17 is_stmt 1 discriminator 3 view .LVU1259
 4056              	.LVL520:
1338:Src/register_interface.c ****               }
 4057              		.loc 1 1338 17 discriminator 3 view .LVU1260
ARM GAS  C:\Users\ep_ygh\AppData\Local\Temp\ccaRZNy5.s 			page 118


1330:Src/register_interface.c ****               {
 4058              		.loc 1 1330 15 is_stmt 0 discriminator 3 view .LVU1261
 4059 069e 052E     		cmp	r6, #5
1338:Src/register_interface.c ****               }
 4060              		.loc 1 1338 30 discriminator 3 view .LVU1262
 4061 06a0 BDF84C30 		ldrh	r3, [sp, #76]
 4062 06a4 27F8083F 		strh	r3, [r7, #8]!	@ movhi
 4063              	.LVL521:
1330:Src/register_interface.c ****               {
 4064              		.loc 1 1330 52 is_stmt 1 discriminator 3 view .LVU1263
1330:Src/register_interface.c ****               {
 4065              		.loc 1 1330 27 discriminator 3 view .LVU1264
1330:Src/register_interface.c ****               {
 4066              		.loc 1 1330 15 is_stmt 0 discriminator 3 view .LVU1265
 4067 06a8 E9D1     		bne	.L353
 4068              	.LBE155:
1366:Src/register_interface.c ****         break;
 4069              		.loc 1 1366 28 view .LVU1266
 4070 06aa 2388     		ldrh	r3, [r4]
 4071 06ac 0233     		adds	r3, r3, #2
 4072              	.LBE230:
 788:Src/register_interface.c ****     uint8_t motorID=0;
 4073              		.loc 1 788 13 view .LVU1267
 4074 06ae 0020     		movs	r0, #0
 4075              	.LBB231:
1366:Src/register_interface.c ****         break;
 4076              		.loc 1 1366 28 view .LVU1268
 4077 06b0 9BB2     		uxth	r3, r3
 4078 06b2 E3E4     		b	.L350
 4079              	.LVL522:
 4080              	.L321:
1366:Src/register_interface.c ****         break;
 4081              		.loc 1 1366 28 view .LVU1269
 4082              	.LBE231:
 4083              	.LBB232:
1166:Src/register_interface.c ****               break;
 4084              		.loc 1 1166 15 is_stmt 1 view .LVU1270
1166:Src/register_interface.c ****               break;
 4085              		.loc 1 1166 28 is_stmt 0 view .LVU1271
 4086 06b4 4F48     		ldr	r0, .L426
 4087              	.LVL523:
1166:Src/register_interface.c ****               break;
 4088              		.loc 1 1166 28 view .LVU1272
 4089 06b6 FFF7FEFF 		bl	STO_PLL_GetEstimatedBemfLevel
 4090              	.LVL524:
1166:Src/register_interface.c ****               break;
 4091              		.loc 1 1166 26 view .LVU1273
 4092 06ba 2060     		str	r0, [r4]
1167:Src/register_interface.c ****             }
 4093              		.loc 1 1167 15 is_stmt 1 view .LVU1274
 4094              	.LBE232:
 788:Src/register_interface.c ****     uint8_t motorID=0;
 4095              		.loc 1 788 13 is_stmt 0 view .LVU1275
 4096 06bc 0020     		movs	r0, #0
 4097              	.LBB233:
1167:Src/register_interface.c ****             }
 4098              		.loc 1 1167 15 view .LVU1276
ARM GAS  C:\Users\ep_ygh\AppData\Local\Temp\ccaRZNy5.s 			page 119


 4099 06be 0BE5     		b	.L326
 4100              	.LVL525:
 4101              	.L327:
1172:Src/register_interface.c ****               break;
 4102              		.loc 1 1172 15 is_stmt 1 view .LVU1277
1172:Src/register_interface.c ****               break;
 4103              		.loc 1 1172 28 is_stmt 0 view .LVU1278
 4104 06c0 4C48     		ldr	r0, .L426
 4105              	.LVL526:
1172:Src/register_interface.c ****               break;
 4106              		.loc 1 1172 28 view .LVU1279
 4107 06c2 FFF7FEFF 		bl	STO_PLL_GetObservedBemfLevel
 4108              	.LVL527:
1172:Src/register_interface.c ****               break;
 4109              		.loc 1 1172 26 view .LVU1280
 4110 06c6 2060     		str	r0, [r4]
1173:Src/register_interface.c ****             }
 4111              		.loc 1 1173 15 is_stmt 1 view .LVU1281
 4112              	.LBE233:
 788:Src/register_interface.c ****     uint8_t motorID=0;
 4113              		.loc 1 788 13 is_stmt 0 view .LVU1282
 4114 06c8 0020     		movs	r0, #0
 4115              	.LBB234:
1173:Src/register_interface.c ****             }
 4116              		.loc 1 1173 15 view .LVU1283
 4117 06ca 05E5     		b	.L326
 4118              	.LVL528:
 4119              	.L323:
1154:Src/register_interface.c ****               break;
 4120              		.loc 1 1154 15 is_stmt 1 view .LVU1284
1154:Src/register_interface.c ****               break;
 4121              		.loc 1 1154 39 is_stmt 0 view .LVU1285
 4122 06cc 4A48     		ldr	r0, .L426+4
 4123              	.LVL529:
1154:Src/register_interface.c ****               break;
 4124              		.loc 1 1154 39 view .LVU1286
 4125 06ce FFF7FEFF 		bl	MCI_GetAvrgMecSpeedUnit
 4126              	.LVL530:
1154:Src/register_interface.c ****               break;
 4127              		.loc 1 1154 79 view .LVU1287
 4128 06d2 00EB4000 		add	r0, r0, r0, lsl #1
 4129 06d6 4000     		lsls	r0, r0, #1
1154:Src/register_interface.c ****               break;
 4130              		.loc 1 1154 26 view .LVU1288
 4131 06d8 2060     		str	r0, [r4]
1155:Src/register_interface.c ****             }
 4132              		.loc 1 1155 15 is_stmt 1 view .LVU1289
 4133              	.LBE234:
 788:Src/register_interface.c ****     uint8_t motorID=0;
 4134              		.loc 1 788 13 is_stmt 0 view .LVU1290
 4135 06da 0020     		movs	r0, #0
 4136              	.LBB235:
1155:Src/register_interface.c ****             }
 4137              		.loc 1 1155 15 view .LVU1291
 4138 06dc FCE4     		b	.L326
 4139              	.LVL531:
 4140              	.L366:
ARM GAS  C:\Users\ep_ygh\AppData\Local\Temp\ccaRZNy5.s 			page 120


1155:Src/register_interface.c ****             }
 4141              		.loc 1 1155 15 view .LVU1292
 4142              	.LBE235:
 4143              	.LBB236:
 4144              	.LBB156:
 4145 06de 2A23     		movs	r3, #42
1326:Src/register_interface.c ****             }
 4146              		.loc 1 1326 22 view .LVU1293
 4147 06e0 0820     		movs	r0, #8
 4148              	.LVL532:
1341:Src/register_interface.c ****           }
 4149              		.loc 1 1341 13 is_stmt 1 view .LVU1294
 4150 06e2 CBE4     		b	.L350
 4151              	.LVL533:
 4152              	.L420:
1341:Src/register_interface.c ****           }
 4153              		.loc 1 1341 13 is_stmt 0 view .LVU1295
 4154              	.LBE156:
 4155              	.LBB157:
1260:Src/register_interface.c ****               (void)memcpy(rawData, (const uint8_t *)pMotorConfig_reg, sizeof(MotorConfig_reg_t));
 4156              		.loc 1 1260 15 is_stmt 1 view .LVU1296
1261:Src/register_interface.c ****             }
 4157              		.loc 1 1261 15 view .LVU1297
1260:Src/register_interface.c ****               (void)memcpy(rawData, (const uint8_t *)pMotorConfig_reg, sizeof(MotorConfig_reg_t));
 4158              		.loc 1 1260 40 is_stmt 0 view .LVU1298
 4159 06e4 454A     		ldr	r2, .L426+8
 4160              	.LVL534:
1261:Src/register_interface.c ****             }
 4161              		.loc 1 1261 21 view .LVU1299
 4162 06e6 1268     		ldr	r2, [r2]
 4163              	.LVL535:
1261:Src/register_interface.c ****             }
 4164              		.loc 1 1261 21 view .LVU1300
 4165 06e8 02F13007 		add	r7, r2, #48
 4166              	.LVL536:
 4167              	.L351:
1261:Src/register_interface.c ****             }
 4168              		.loc 1 1261 21 view .LVU1301
 4169 06ec 1468     		ldr	r4, [r2]	@ unaligned
 4170 06ee 5068     		ldr	r0, [r2, #4]	@ unaligned
 4171 06f0 9168     		ldr	r1, [r2, #8]	@ unaligned
 4172 06f2 D668     		ldr	r6, [r2, #12]	@ unaligned
 4173 06f4 DE60     		str	r6, [r3, #12]	@ unaligned
 4174 06f6 1032     		adds	r2, r2, #16
 4175 06f8 BA42     		cmp	r2, r7
 4176 06fa 1C60     		str	r4, [r3]	@ unaligned
 4177 06fc 5860     		str	r0, [r3, #4]	@ unaligned
 4178 06fe 9960     		str	r1, [r3, #8]	@ unaligned
 4179 0700 03F11003 		add	r3, r3, #16
 4180 0704 F2D1     		bne	.L351
 4181 0706 1068     		ldr	r0, [r2]	@ unaligned
 4182 0708 5168     		ldr	r1, [r2, #4]	@ unaligned
 4183 070a 9268     		ldr	r2, [r2, #8]	@ unaligned
 4184 070c 9A60     		str	r2, [r3, #8]	@ unaligned
 4185 070e 1860     		str	r0, [r3]	@ unaligned
 4186 0710 5960     		str	r1, [r3, #4]	@ unaligned
 4187              	.LBE157:
ARM GAS  C:\Users\ep_ygh\AppData\Local\Temp\ccaRZNy5.s 			page 121


 4188              	.LBE236:
 788:Src/register_interface.c ****     uint8_t motorID=0;
 4189              		.loc 1 788 13 view .LVU1302
 4190 0712 0020     		movs	r0, #0
 4191              	.LBB237:
 4192              	.LBB158:
1261:Src/register_interface.c ****             }
 4193              		.loc 1 1261 21 view .LVU1303
 4194 0714 3E23     		movs	r3, #62
 4195 0716 B1E4     		b	.L350
 4196              	.LVL537:
 4197              	.L421:
1261:Src/register_interface.c ****             }
 4198              		.loc 1 1261 21 view .LVU1304
 4199              	.LBE158:
 4200              	.LBB159:
1275:Src/register_interface.c ****               (void)memcpy(rawData, (const uint8_t *)pFOCConfig_reg, sizeof(FOCFwConfig_reg_t));
 4201              		.loc 1 1275 15 is_stmt 1 view .LVU1305
1276:Src/register_interface.c ****             }
 4202              		.loc 1 1276 15 view .LVU1306
1275:Src/register_interface.c ****               (void)memcpy(rawData, (const uint8_t *)pFOCConfig_reg, sizeof(FOCFwConfig_reg_t));
 4203              		.loc 1 1275 40 is_stmt 0 view .LVU1307
 4204 0718 394A     		ldr	r2, .L426+12
 4205              	.LVL538:
1276:Src/register_interface.c ****             }
 4206              		.loc 1 1276 21 view .LVU1308
 4207 071a 1268     		ldr	r2, [r2]
 4208              	.LVL539:
1276:Src/register_interface.c ****             }
 4209              		.loc 1 1276 21 view .LVU1309
 4210 071c 1068     		ldr	r0, [r2]	@ unaligned
 4211              	.LVL540:
1276:Src/register_interface.c ****             }
 4212              		.loc 1 1276 21 view .LVU1310
 4213 071e 5168     		ldr	r1, [r2, #4]	@ unaligned
 4214              	.LVL541:
1276:Src/register_interface.c ****             }
 4215              		.loc 1 1276 21 view .LVU1311
 4216 0720 9468     		ldr	r4, [r2, #8]	@ unaligned
 4217              	.LVL542:
1276:Src/register_interface.c ****             }
 4218              		.loc 1 1276 21 view .LVU1312
 4219 0722 9C60     		str	r4, [r3, #8]	@ unaligned
 4220 0724 1860     		str	r0, [r3]	@ unaligned
 4221 0726 5960     		str	r1, [r3, #4]	@ unaligned
 4222 0728 9289     		ldrh	r2, [r2, #12]	@ unaligned
 4223              	.LVL543:
1276:Src/register_interface.c ****             }
 4224              		.loc 1 1276 21 view .LVU1313
 4225 072a 9A81     		strh	r2, [r3, #12]	@ unaligned
 4226              	.LBE159:
 4227              	.LBE237:
 788:Src/register_interface.c ****     uint8_t motorID=0;
 4228              		.loc 1 788 13 view .LVU1314
 4229 072c 0020     		movs	r0, #0
 4230              	.LBB238:
 4231              	.LBB160:
ARM GAS  C:\Users\ep_ygh\AppData\Local\Temp\ccaRZNy5.s 			page 122


1276:Src/register_interface.c ****             }
 4232              		.loc 1 1276 21 view .LVU1315
 4233 072e 1023     		movs	r3, #16
 4234              	.LVL544:
1276:Src/register_interface.c ****             }
 4235              		.loc 1 1276 21 view .LVU1316
 4236 0730 A4E4     		b	.L350
 4237              	.LVL545:
 4238              	.L260:
1276:Src/register_interface.c ****             }
 4239              		.loc 1 1276 21 view .LVU1317
 4240              	.LBE160:
 4241              	.LBE238:
 4242              	.LBB239:
 958:Src/register_interface.c ****               break;
 4243              		.loc 1 958 15 is_stmt 1 view .LVU1318
 958:Src/register_interface.c ****               break;
 4244              		.loc 1 958 28 is_stmt 0 view .LVU1319
 4245 0732 3148     		ldr	r0, .L426+4
 4246              	.LVL546:
 958:Src/register_interface.c ****               break;
 4247              		.loc 1 958 28 view .LVU1320
 4248 0734 FFF7FEFF 		bl	MCI_GetVqd
 4249              	.LVL547:
 958:Src/register_interface.c ****               break;
 4250              		.loc 1 958 26 view .LVU1321
 4251 0738 2080     		strh	r0, [r4]	@ movhi
 4252              	.LVL548:
 959:Src/register_interface.c ****             }
 4253              		.loc 1 959 15 is_stmt 1 view .LVU1322
 4254              	.LBE239:
 788:Src/register_interface.c ****     uint8_t motorID=0;
 4255              		.loc 1 788 13 is_stmt 0 view .LVU1323
 4256 073a 0020     		movs	r0, #0
 4257              	.LBB240:
 959:Src/register_interface.c ****             }
 4258              		.loc 1 959 15 view .LVU1324
 4259 073c 00E5     		b	.L270
 4260              	.LVL549:
 4261              	.L287:
 940:Src/register_interface.c ****               break;
 4262              		.loc 1 940 15 is_stmt 1 view .LVU1325
 940:Src/register_interface.c ****               break;
 4263              		.loc 1 940 28 is_stmt 0 view .LVU1326
 4264 073e 2E48     		ldr	r0, .L426+4
 4265              	.LVL550:
 940:Src/register_interface.c ****               break;
 4266              		.loc 1 940 28 view .LVU1327
 4267 0740 FFF7FEFF 		bl	MCI_GetIqd
 4268              	.LVL551:
 940:Src/register_interface.c ****               break;
 4269              		.loc 1 940 28 view .LVU1328
 4270 0744 C0F30F40 		ubfx	r0, r0, #16, #16
 940:Src/register_interface.c ****               break;
 4271              		.loc 1 940 26 view .LVU1329
 4272 0748 2080     		strh	r0, [r4]	@ movhi
 4273              	.LVL552:
ARM GAS  C:\Users\ep_ygh\AppData\Local\Temp\ccaRZNy5.s 			page 123


 941:Src/register_interface.c ****             }
 4274              		.loc 1 941 15 is_stmt 1 view .LVU1330
 4275              	.LBE240:
 788:Src/register_interface.c ****     uint8_t motorID=0;
 4276              		.loc 1 788 13 is_stmt 0 view .LVU1331
 4277 074a 0020     		movs	r0, #0
 4278              	.LBB241:
 941:Src/register_interface.c ****             }
 4279              		.loc 1 941 15 view .LVU1332
 4280 074c F8E4     		b	.L270
 4281              	.LVL553:
 4282              	.L279:
 922:Src/register_interface.c ****               break;
 4283              		.loc 1 922 15 is_stmt 1 view .LVU1333
 922:Src/register_interface.c ****               break;
 4284              		.loc 1 922 28 is_stmt 0 view .LVU1334
 4285 074e 2A48     		ldr	r0, .L426+4
 4286              	.LVL554:
 922:Src/register_interface.c ****               break;
 4287              		.loc 1 922 28 view .LVU1335
 4288 0750 FFF7FEFF 		bl	MCI_GetIalphabeta
 4289              	.LVL555:
 922:Src/register_interface.c ****               break;
 4290              		.loc 1 922 26 view .LVU1336
 4291 0754 2080     		strh	r0, [r4]	@ movhi
 4292              	.LVL556:
 923:Src/register_interface.c ****             }
 4293              		.loc 1 923 15 is_stmt 1 view .LVU1337
 4294              	.LBE241:
 788:Src/register_interface.c ****     uint8_t motorID=0;
 4295              		.loc 1 788 13 is_stmt 0 view .LVU1338
 4296 0756 0020     		movs	r0, #0
 4297              	.LBB242:
 923:Src/register_interface.c ****             }
 4298              		.loc 1 923 15 view .LVU1339
 4299 0758 F2E4     		b	.L270
 4300              	.LVL557:
 4301              	.L273:
 892:Src/register_interface.c ****               break;
 4302              		.loc 1 892 15 is_stmt 1 view .LVU1340
 892:Src/register_interface.c ****               break;
 4303              		.loc 1 892 28 is_stmt 0 view .LVU1341
 4304 075a 2A48     		ldr	r0, .L426+16
 4305              	.LVL558:
 892:Src/register_interface.c ****               break;
 4306              		.loc 1 892 28 view .LVU1342
 4307 075c FFF7FEFF 		bl	PID_GetKD
 4308              	.LVL559:
 892:Src/register_interface.c ****               break;
 4309              		.loc 1 892 26 view .LVU1343
 4310 0760 2080     		strh	r0, [r4]	@ movhi
 4311              	.LVL560:
 893:Src/register_interface.c ****             }
 4312              		.loc 1 893 15 is_stmt 1 view .LVU1344
 4313              	.LBE242:
 788:Src/register_interface.c ****     uint8_t motorID=0;
 4314              		.loc 1 788 13 is_stmt 0 view .LVU1345
ARM GAS  C:\Users\ep_ygh\AppData\Local\Temp\ccaRZNy5.s 			page 124


 4315 0762 0020     		movs	r0, #0
 4316              	.LBB243:
 893:Src/register_interface.c ****             }
 4317              		.loc 1 893 15 view .LVU1346
 4318 0764 ECE4     		b	.L270
 4319              	.LVL561:
 4320              	.L281:
 904:Src/register_interface.c ****               break;
 4321              		.loc 1 904 15 is_stmt 1 view .LVU1347
 904:Src/register_interface.c ****               break;
 4322              		.loc 1 904 28 is_stmt 0 view .LVU1348
 4323 0766 2848     		ldr	r0, .L426+20
 4324              	.LVL562:
 904:Src/register_interface.c ****               break;
 4325              		.loc 1 904 28 view .LVU1349
 4326 0768 FFF7FEFF 		bl	NTC_GetAvTemp_C
 4327              	.LVL563:
 904:Src/register_interface.c ****               break;
 4328              		.loc 1 904 26 view .LVU1350
 4329 076c 2080     		strh	r0, [r4]	@ movhi
 4330              	.LVL564:
 905:Src/register_interface.c ****             }
 4331              		.loc 1 905 15 is_stmt 1 view .LVU1351
 4332              	.LBE243:
 788:Src/register_interface.c ****     uint8_t motorID=0;
 4333              		.loc 1 788 13 is_stmt 0 view .LVU1352
 4334 076e 0020     		movs	r0, #0
 4335              	.LBB244:
 905:Src/register_interface.c ****             }
 4336              		.loc 1 905 15 view .LVU1353
 4337 0770 E6E4     		b	.L270
 4338              	.LVL565:
 4339              	.L264:
 874:Src/register_interface.c ****               break;
 4340              		.loc 1 874 15 is_stmt 1 view .LVU1354
 874:Src/register_interface.c ****               break;
 4341              		.loc 1 874 28 is_stmt 0 view .LVU1355
 4342 0772 2648     		ldr	r0, .L426+24
 4343              	.LVL566:
 874:Src/register_interface.c ****               break;
 4344              		.loc 1 874 28 view .LVU1356
 4345 0774 FFF7FEFF 		bl	PID_GetKD
 4346              	.LVL567:
 874:Src/register_interface.c ****               break;
 4347              		.loc 1 874 26 view .LVU1357
 4348 0778 2080     		strh	r0, [r4]	@ movhi
 4349              	.LVL568:
 875:Src/register_interface.c ****             }
 4350              		.loc 1 875 15 is_stmt 1 view .LVU1358
 4351              	.LBE244:
 788:Src/register_interface.c ****     uint8_t motorID=0;
 4352              		.loc 1 788 13 is_stmt 0 view .LVU1359
 4353 077a 0020     		movs	r0, #0
 4354              	.LBB245:
 875:Src/register_interface.c ****             }
 4355              		.loc 1 875 15 view .LVU1360
 4356 077c E0E4     		b	.L270
ARM GAS  C:\Users\ep_ygh\AppData\Local\Temp\ccaRZNy5.s 			page 125


 4357              	.LVL569:
 4358              	.L262:
1038:Src/register_interface.c ****               break;
 4359              		.loc 1 1038 15 is_stmt 1 view .LVU1361
1038:Src/register_interface.c ****               break;
 4360              		.loc 1 1038 28 is_stmt 0 view .LVU1362
 4361 077e 2448     		ldr	r0, .L426+28
 4362              	.LVL570:
1038:Src/register_interface.c ****               break;
 4363              		.loc 1 1038 28 view .LVU1363
 4364 0780 FFF7FEFF 		bl	PID_GetKI
 4365              	.LVL571:
1038:Src/register_interface.c ****               break;
 4366              		.loc 1 1038 26 view .LVU1364
 4367 0784 2080     		strh	r0, [r4]	@ movhi
 4368              	.LVL572:
1039:Src/register_interface.c ****             }
 4369              		.loc 1 1039 15 is_stmt 1 view .LVU1365
 4370              	.LBE245:
 788:Src/register_interface.c ****     uint8_t motorID=0;
 4371              		.loc 1 788 13 is_stmt 0 view .LVU1366
 4372 0786 0020     		movs	r0, #0
 4373              	.LBB246:
1039:Src/register_interface.c ****             }
 4374              		.loc 1 1039 15 view .LVU1367
 4375 0788 DAE4     		b	.L270
 4376              	.LVL573:
 4377              	.L310:
1077:Src/register_interface.c ****               break;
 4378              		.loc 1 1077 15 is_stmt 1 view .LVU1368
1077:Src/register_interface.c ****               break;
 4379              		.loc 1 1077 29 is_stmt 0 view .LVU1369
 4380 078a 1E48     		ldr	r0, .L426+16
 4381              	.LVL574:
1077:Src/register_interface.c ****               break;
 4382              		.loc 1 1077 29 view .LVU1370
 4383 078c FFF7FEFF 		bl	PID_GetKIDivisorPOW2
 4384              	.LVL575:
1077:Src/register_interface.c ****               break;
 4385              		.loc 1 1077 27 view .LVU1371
 4386 0790 2080     		strh	r0, [r4]	@ movhi
 4387              	.LVL576:
1078:Src/register_interface.c ****             }
 4388              		.loc 1 1078 15 is_stmt 1 view .LVU1372
 4389              	.LBE246:
 788:Src/register_interface.c ****     uint8_t motorID=0;
 4390              		.loc 1 788 13 is_stmt 0 view .LVU1373
 4391 0792 0020     		movs	r0, #0
 4392              	.LBB247:
1078:Src/register_interface.c ****             }
 4393              		.loc 1 1078 15 view .LVU1374
 4394 0794 D4E4     		b	.L270
 4395              	.LVL577:
 4396              	.L316:
1113:Src/register_interface.c ****               break;
 4397              		.loc 1 1113 15 is_stmt 1 view .LVU1375
1113:Src/register_interface.c ****               break;
ARM GAS  C:\Users\ep_ygh\AppData\Local\Temp\ccaRZNy5.s 			page 126


 4398              		.loc 1 1113 29 is_stmt 0 view .LVU1376
 4399 0796 1E48     		ldr	r0, .L426+28
 4400              	.LVL578:
1113:Src/register_interface.c ****               break;
 4401              		.loc 1 1113 29 view .LVU1377
 4402 0798 FFF7FEFF 		bl	PID_GetKPDivisorPOW2
 4403              	.LVL579:
1113:Src/register_interface.c ****               break;
 4404              		.loc 1 1113 27 view .LVU1378
 4405 079c 2080     		strh	r0, [r4]	@ movhi
 4406              	.LVL580:
1114:Src/register_interface.c ****             }
 4407              		.loc 1 1114 15 is_stmt 1 view .LVU1379
 4408              	.LBE247:
 788:Src/register_interface.c ****     uint8_t motorID=0;
 4409              		.loc 1 788 13 is_stmt 0 view .LVU1380
 4410 079e 0020     		movs	r0, #0
 4411              	.LBB248:
1114:Src/register_interface.c ****             }
 4412              		.loc 1 1114 15 view .LVU1381
 4413 07a0 CEE4     		b	.L270
 4414              	.LVL581:
 4415              	.L308:
1095:Src/register_interface.c ****               break;
 4416              		.loc 1 1095 15 is_stmt 1 view .LVU1382
1095:Src/register_interface.c ****               break;
 4417              		.loc 1 1095 29 is_stmt 0 view .LVU1383
 4418 07a2 1A48     		ldr	r0, .L426+24
 4419              	.LVL582:
1095:Src/register_interface.c ****               break;
 4420              		.loc 1 1095 29 view .LVU1384
 4421 07a4 FFF7FEFF 		bl	PID_GetKIDivisorPOW2
 4422              	.LVL583:
1095:Src/register_interface.c ****               break;
 4423              		.loc 1 1095 27 view .LVU1385
 4424 07a8 2080     		strh	r0, [r4]	@ movhi
 4425              	.LVL584:
1096:Src/register_interface.c ****             }
 4426              		.loc 1 1096 15 is_stmt 1 view .LVU1386
 4427              	.LBE248:
 788:Src/register_interface.c ****     uint8_t motorID=0;
 4428              		.loc 1 788 13 is_stmt 0 view .LVU1387
 4429 07aa 0020     		movs	r0, #0
 4430              	.LBB249:
1096:Src/register_interface.c ****             }
 4431              		.loc 1 1096 15 view .LVU1388
 4432 07ac C8E4     		b	.L270
 4433              	.LVL585:
 4434              	.L297:
 976:Src/register_interface.c ****               break;
 4435              		.loc 1 976 15 is_stmt 1 view .LVU1389
 976:Src/register_interface.c ****               break;
 4436              		.loc 1 976 28 is_stmt 0 view .LVU1390
 4437 07ae 1248     		ldr	r0, .L426+4
 4438              	.LVL586:
 976:Src/register_interface.c ****               break;
 4439              		.loc 1 976 28 view .LVU1391
ARM GAS  C:\Users\ep_ygh\AppData\Local\Temp\ccaRZNy5.s 			page 127


 4440 07b0 FFF7FEFF 		bl	MCI_GetValphabeta
 4441              	.LVL587:
 976:Src/register_interface.c ****               break;
 4442              		.loc 1 976 28 view .LVU1392
 4443 07b4 C0F30F40 		ubfx	r0, r0, #16, #16
 976:Src/register_interface.c ****               break;
 4444              		.loc 1 976 26 view .LVU1393
 4445 07b8 2080     		strh	r0, [r4]	@ movhi
 4446              	.LVL588:
 977:Src/register_interface.c ****             }
 4447              		.loc 1 977 15 is_stmt 1 view .LVU1394
 4448              	.LBE249:
 788:Src/register_interface.c ****     uint8_t motorID=0;
 4449              		.loc 1 788 13 is_stmt 0 view .LVU1395
 4450 07ba 0020     		movs	r0, #0
 4451              	.LBB250:
 977:Src/register_interface.c ****             }
 4452              		.loc 1 977 15 view .LVU1396
 4453 07bc C0E4     		b	.L270
 4454              	.LVL589:
 4455              	.L303:
1014:Src/register_interface.c ****               break;
 4456              		.loc 1 1014 15 is_stmt 1 view .LVU1397
1014:Src/register_interface.c ****               break;
 4457              		.loc 1 1014 28 is_stmt 0 view .LVU1398
 4458 07be 0D48     		ldr	r0, .L426
 4459              	.LVL590:
1014:Src/register_interface.c ****               break;
 4460              		.loc 1 1014 28 view .LVU1399
 4461 07c0 FFF7FEFF 		bl	STO_PLL_GetEstimatedBemf
 4462              	.LVL591:
1014:Src/register_interface.c ****               break;
 4463              		.loc 1 1014 28 view .LVU1400
 4464 07c4 C0F30F40 		ubfx	r0, r0, #16, #16
1014:Src/register_interface.c ****               break;
 4465              		.loc 1 1014 26 view .LVU1401
 4466 07c8 2080     		strh	r0, [r4]	@ movhi
 4467              	.LVL592:
1015:Src/register_interface.c ****             }
 4468              		.loc 1 1015 15 is_stmt 1 view .LVU1402
 4469              	.LBE250:
 788:Src/register_interface.c ****     uint8_t motorID=0;
 4470              		.loc 1 788 13 is_stmt 0 view .LVU1403
 4471 07ca 0020     		movs	r0, #0
 4472              	.LBB251:
1015:Src/register_interface.c ****             }
 4473              		.loc 1 1015 15 view .LVU1404
 4474 07cc B8E4     		b	.L270
 4475              	.LVL593:
 4476              	.L295:
 996:Src/register_interface.c ****               break;
 4477              		.loc 1 996 15 is_stmt 1 view .LVU1405
 996:Src/register_interface.c ****               break;
 4478              		.loc 1 996 28 is_stmt 0 view .LVU1406
 4479 07ce 0948     		ldr	r0, .L426
 4480              	.LVL594:
 996:Src/register_interface.c ****               break;
ARM GAS  C:\Users\ep_ygh\AppData\Local\Temp\ccaRZNy5.s 			page 128


 4481              		.loc 1 996 28 view .LVU1407
 4482 07d0 FFF7FEFF 		bl	STO_PLL_GetEstimatedCurrent
 4483              	.LVL595:
 996:Src/register_interface.c ****               break;
 4484              		.loc 1 996 26 view .LVU1408
 4485 07d4 2080     		strh	r0, [r4]	@ movhi
 4486              	.LVL596:
 997:Src/register_interface.c ****             }
 4487              		.loc 1 997 15 is_stmt 1 view .LVU1409
 4488              	.LBE251:
 788:Src/register_interface.c ****     uint8_t motorID=0;
 4489              		.loc 1 788 13 is_stmt 0 view .LVU1410
 4490 07d6 0020     		movs	r0, #0
 4491              	.LBB252:
 997:Src/register_interface.c ****             }
 4492              		.loc 1 997 15 view .LVU1411
 4493 07d8 B2E4     		b	.L270
 4494              	.LVL597:
 4495              	.L293:
1060:Src/register_interface.c ****               break;
 4496              		.loc 1 1060 15 is_stmt 1 view .LVU1412
1060:Src/register_interface.c ****               break;
 4497              		.loc 1 1060 39 is_stmt 0 view .LVU1413
 4498 07da 0E48     		ldr	r0, .L426+32
 4499              	.LVL598:
1060:Src/register_interface.c ****               break;
 4500              		.loc 1 1060 39 view .LVU1414
 4501 07dc FFF7FEFF 		bl	PID_GetKIDivisorPOW2
 4502              	.LVL599:
1060:Src/register_interface.c ****               break;
 4503              		.loc 1 1060 27 view .LVU1415
 4504 07e0 2080     		strh	r0, [r4]	@ movhi
 4505              	.LVL600:
1061:Src/register_interface.c ****             }
 4506              		.loc 1 1061 15 is_stmt 1 view .LVU1416
 4507              	.LBE252:
 788:Src/register_interface.c ****     uint8_t motorID=0;
 4508              		.loc 1 788 13 is_stmt 0 view .LVU1417
 4509 07e2 0020     		movs	r0, #0
 4510              	.LBB253:
1061:Src/register_interface.c ****             }
 4511              		.loc 1 1061 15 view .LVU1418
 4512 07e4 ACE4     		b	.L270
 4513              	.LVL601:
 4514              	.L266:
 856:Src/register_interface.c ****               break;
 4515              		.loc 1 856 15 is_stmt 1 view .LVU1419
 856:Src/register_interface.c ****               break;
 4516              		.loc 1 856 28 is_stmt 0 view .LVU1420
 4517 07e6 0B48     		ldr	r0, .L426+32
 4518              	.LVL602:
 856:Src/register_interface.c ****               break;
 4519              		.loc 1 856 28 view .LVU1421
 4520 07e8 FFF7FEFF 		bl	PID_GetKD
 4521              	.LVL603:
 856:Src/register_interface.c ****               break;
 4522              		.loc 1 856 26 view .LVU1422
ARM GAS  C:\Users\ep_ygh\AppData\Local\Temp\ccaRZNy5.s 			page 129


 4523 07ec 2080     		strh	r0, [r4]	@ movhi
 4524              	.LVL604:
 857:Src/register_interface.c ****             }
 4525              		.loc 1 857 15 is_stmt 1 view .LVU1423
 4526              	.LBE253:
 788:Src/register_interface.c ****     uint8_t motorID=0;
 4527              		.loc 1 788 13 is_stmt 0 view .LVU1424
 4528 07ee 0020     		movs	r0, #0
 4529              	.LBB254:
 857:Src/register_interface.c ****             }
 4530              		.loc 1 857 15 view .LVU1425
 4531 07f0 A6E4     		b	.L270
 4532              	.L427:
 4533 07f2 00BF     		.align	2
 4534              	.L426:
 4535 07f4 00000000 		.word	STO_PLL_M1
 4536 07f8 00000000 		.word	Mci
 4537 07fc 00000000 		.word	MotorConfig_reg
 4538 0800 00000000 		.word	FOCConfig_reg
 4539 0804 00000000 		.word	PIDIdHandle_M1
 4540 0808 00000000 		.word	TempSensor_M1
 4541 080c 00000000 		.word	PIDIqHandle_M1
 4542 0810 34000000 		.word	STO_PLL_M1+52
 4543 0814 00000000 		.word	PIDSpeedHandle_M1
 4544 0818 00000000 		.word	RevUpControlM1
 4545              	.LBE254:
 4546              		.cfi_endproc
 4547              	.LFE1093:
 4549              		.section	.text.RI_MovString,"ax",%progbits
 4550              		.align	1
 4551              		.p2align 2,,3
 4552              		.global	RI_MovString
 4553              		.syntax unified
 4554              		.thumb
 4555              		.thumb_func
 4557              	RI_MovString:
 4558              	.LVL605:
 4559              	.LFB1094:
1380:Src/register_interface.c ****   uint8_t retVal = MCP_CMD_OK;
 4560              		.loc 1 1380 1 is_stmt 1 view -0
 4561              		.cfi_startproc
 4562              		@ args = 0, pretend = 0, frame = 0
 4563              		@ frame_needed = 0, uses_anonymous_args = 0
1381:Src/register_interface.c ****   const char_t *tempsrcString = srcString;
 4564              		.loc 1 1381 3 view .LVU1427
1382:Src/register_interface.c ****   char_t *tempdestString = destString;
 4565              		.loc 1 1382 3 view .LVU1428
1383:Src/register_interface.c ****   *size= 1U ; /* /0 is the min String size */
 4566              		.loc 1 1383 3 view .LVU1429
1380:Src/register_interface.c ****   uint8_t retVal = MCP_CMD_OK;
 4567              		.loc 1 1380 1 is_stmt 0 view .LVU1430
 4568 0000 10B5     		push	{r4, lr}
 4569              	.LCFI35:
 4570              		.cfi_def_cfa_offset 8
 4571              		.cfi_offset 4, -8
 4572              		.cfi_offset 14, -4
1384:Src/register_interface.c **** 
ARM GAS  C:\Users\ep_ygh\AppData\Local\Temp\ccaRZNy5.s 			page 130


 4573              		.loc 1 1384 8 view .LVU1431
 4574 0002 4FF0010C 		mov	ip, #1
 4575 0006 A2F800C0 		strh	ip, [r2]	@ movhi
 4576              	.LVL606:
1384:Src/register_interface.c **** 
 4577              		.loc 1 1384 3 is_stmt 1 view .LVU1432
1386:Src/register_interface.c ****   {
 4578              		.loc 1 1386 3 view .LVU1433
1386:Src/register_interface.c ****   {
 4579              		.loc 1 1386 9 view .LVU1434
1386:Src/register_interface.c ****   {
 4580              		.loc 1 1386 11 is_stmt 0 view .LVU1435
 4581 000a 90F90040 		ldrsb	r4, [r0]
1386:Src/register_interface.c ****   {
 4582              		.loc 1 1386 9 view .LVU1436
 4583 000e 84B1     		cbz	r4, .L429
1386:Src/register_interface.c ****   {
 4584              		.loc 1 1386 50 view .LVU1437
 4585 0010 1FFA83FE 		uxth	lr, r3
 4586 0014 6346     		mov	r3, ip
 4587              	.LVL607:
1386:Src/register_interface.c ****   {
 4588              		.loc 1 1386 50 view .LVU1438
 4589 0016 08E0     		b	.L430
 4590              	.LVL608:
 4591              	.L431:
1388:Src/register_interface.c ****     tempdestString++;
 4592              		.loc 1 1388 21 view .LVU1439
 4593 0018 01F8014B 		strb	r4, [r1], #1
 4594              	.LVL609:
1389:Src/register_interface.c ****     tempsrcString++;
 4595              		.loc 1 1389 5 is_stmt 1 view .LVU1440
1390:Src/register_interface.c ****     *size = *size + 1U;
 4596              		.loc 1 1390 5 view .LVU1441
1391:Src/register_interface.c ****   }
 4597              		.loc 1 1391 5 view .LVU1442
1391:Src/register_interface.c ****   }
 4598              		.loc 1 1391 19 is_stmt 0 view .LVU1443
 4599 001c 1388     		ldrh	r3, [r2]
 4600 001e 0133     		adds	r3, r3, #1
 4601 0020 9BB2     		uxth	r3, r3
1391:Src/register_interface.c ****   }
 4602              		.loc 1 1391 11 view .LVU1444
 4603 0022 1380     		strh	r3, [r2]	@ movhi
1386:Src/register_interface.c ****   {
 4604              		.loc 1 1386 9 is_stmt 1 view .LVU1445
1386:Src/register_interface.c ****   {
 4605              		.loc 1 1386 11 is_stmt 0 view .LVU1446
 4606 0024 10F9014F 		ldrsb	r4, [r0, #1]!
 4607              	.LVL610:
1386:Src/register_interface.c ****   {
 4608              		.loc 1 1386 9 view .LVU1447
 4609 0028 1CB1     		cbz	r4, .L429
 4610              	.L430:
1388:Src/register_interface.c ****     tempdestString++;
 4611              		.loc 1 1388 5 is_stmt 1 discriminator 1 view .LVU1448
1386:Src/register_interface.c ****   {
ARM GAS  C:\Users\ep_ygh\AppData\Local\Temp\ccaRZNy5.s 			page 131


 4612              		.loc 1 1386 40 is_stmt 0 discriminator 1 view .LVU1449
 4613 002a 9E45     		cmp	lr, r3
 4614 002c F4D8     		bhi	.L431
1396:Src/register_interface.c ****   }
 4615              		.loc 1 1396 12 view .LVU1450
 4616 002e 0620     		movs	r0, #6
 4617              	.LVL611:
1401:Src/register_interface.c ****   }
1402:Src/register_interface.c ****   return (retVal);
1403:Src/register_interface.c **** }
 4618              		.loc 1 1403 1 view .LVU1451
 4619 0030 10BD     		pop	{r4, pc}
 4620              	.LVL612:
 4621              	.L429:
1394:Src/register_interface.c ****   { /* Last string char must be 0 */
 4622              		.loc 1 1394 3 is_stmt 1 view .LVU1452
1400:Src/register_interface.c ****   }
 4623              		.loc 1 1400 5 view .LVU1453
1400:Src/register_interface.c ****   }
 4624              		.loc 1 1400 21 is_stmt 0 view .LVU1454
 4625 0032 0020     		movs	r0, #0
 4626              	.LVL613:
1400:Src/register_interface.c ****   }
 4627              		.loc 1 1400 21 view .LVU1455
 4628 0034 0870     		strb	r0, [r1]
1402:Src/register_interface.c **** }
 4629              		.loc 1 1402 3 is_stmt 1 view .LVU1456
 4630              		.loc 1 1403 1 is_stmt 0 view .LVU1457
 4631 0036 10BD     		pop	{r4, pc}
 4632              		.cfi_endproc
 4633              	.LFE1094:
 4635              		.section	.text.RI_GetIDSize,"ax",%progbits
 4636              		.align	1
 4637              		.p2align 2,,3
 4638              		.global	RI_GetIDSize
 4639              		.syntax unified
 4640              		.thumb
 4641              		.thumb_func
 4643              	RI_GetIDSize:
 4644              	.LVL614:
 4645              	.LFB1095:
1404:Src/register_interface.c **** 
1405:Src/register_interface.c **** uint8_t RI_GetIDSize(uint16_t dataID)
1406:Src/register_interface.c **** {
 4646              		.loc 1 1406 1 is_stmt 1 view -0
 4647              		.cfi_startproc
 4648              		@ args = 0, pretend = 0, frame = 0
 4649              		@ frame_needed = 0, uses_anonymous_args = 0
 4650              		@ link register save eliminated.
1407:Src/register_interface.c ****   uint8_t typeID = ((uint8_t)dataID) & TYPE_MASK;
 4651              		.loc 1 1407 3 view .LVU1459
1408:Src/register_interface.c ****   uint8_t result;
 4652              		.loc 1 1408 3 view .LVU1460
1409:Src/register_interface.c **** 
1410:Src/register_interface.c ****   switch (typeID)
 4653              		.loc 1 1410 3 view .LVU1461
1407:Src/register_interface.c ****   uint8_t result;
ARM GAS  C:\Users\ep_ygh\AppData\Local\Temp\ccaRZNy5.s 			page 132


 4654              		.loc 1 1407 11 is_stmt 0 view .LVU1462
 4655 0000 00F03800 		and	r0, r0, #56
 4656              	.LVL615:
1407:Src/register_interface.c ****   uint8_t result;
 4657              		.loc 1 1407 11 view .LVU1463
 4658 0004 0838     		subs	r0, r0, #8
 4659 0006 C0B2     		uxtb	r0, r0
 4660 0008 1028     		cmp	r0, #16
 4661 000a 9ABF     		itte	ls
 4662 000c 014B     		ldrls	r3, .L444
 4663 000e 185C     		ldrbls	r0, [r3, r0]	@ zero_extendqisi2
 4664 0010 0020     		movhi	r0, #0
 4665              	.LVL616:
1411:Src/register_interface.c ****   {
1412:Src/register_interface.c ****     case TYPE_DATA_8BIT:
1413:Src/register_interface.c ****     {
1414:Src/register_interface.c ****       result = 1;
1415:Src/register_interface.c ****       break;
1416:Src/register_interface.c ****     }
1417:Src/register_interface.c **** 
1418:Src/register_interface.c ****     case TYPE_DATA_16BIT:
1419:Src/register_interface.c ****     {
1420:Src/register_interface.c ****       result = 2;
1421:Src/register_interface.c ****       break;
1422:Src/register_interface.c ****     }
1423:Src/register_interface.c **** 
1424:Src/register_interface.c ****     case TYPE_DATA_32BIT:
1425:Src/register_interface.c ****     {
1426:Src/register_interface.c ****       result = 4;
1427:Src/register_interface.c ****       break;
1428:Src/register_interface.c ****     }
1429:Src/register_interface.c **** 
1430:Src/register_interface.c ****     default:
1431:Src/register_interface.c ****     {
1432:Src/register_interface.c ****       result=0;
1433:Src/register_interface.c ****       break;
1434:Src/register_interface.c ****     }
1435:Src/register_interface.c ****   }
1436:Src/register_interface.c **** 
1437:Src/register_interface.c ****   return (result);
 4666              		.loc 1 1437 3 is_stmt 1 view .LVU1464
1438:Src/register_interface.c **** }
 4667              		.loc 1 1438 1 is_stmt 0 view .LVU1465
 4668 0012 7047     		bx	lr
 4669              	.L445:
 4670              		.align	2
 4671              	.L444:
 4672 0014 00000000 		.word	.LANCHOR0
 4673              		.cfi_endproc
 4674              	.LFE1095:
 4676              		.section	.text.RI_GetPtrReg,"ax",%progbits
 4677              		.align	1
 4678              		.p2align 2,,3
 4679              		.weak	RI_GetPtrReg
 4680              		.syntax unified
 4681              		.thumb
 4682              		.thumb_func
ARM GAS  C:\Users\ep_ygh\AppData\Local\Temp\ccaRZNy5.s 			page 133


 4684              	RI_GetPtrReg:
 4685              	.LVL617:
 4686              	.LFB1096:
1439:Src/register_interface.c **** 
1440:Src/register_interface.c **** __weak uint8_t RI_GetPtrReg(uint16_t dataID, void **dataPtr)
1441:Src/register_interface.c **** {
 4687              		.loc 1 1441 1 is_stmt 1 view -0
 4688              		.cfi_startproc
 4689              		@ args = 0, pretend = 0, frame = 0
 4690              		@ frame_needed = 0, uses_anonymous_args = 0
 4691              		@ link register save eliminated.
1442:Src/register_interface.c **** 
1443:Src/register_interface.c ****   uint8_t retVal = MCP_CMD_OK;
 4692              		.loc 1 1443 3 view .LVU1467
1444:Src/register_interface.c ****   static uint16_t nullData16=0;
 4693              		.loc 1 1444 3 view .LVU1468
1445:Src/register_interface.c **** 
1446:Src/register_interface.c **** #ifdef NULL_PTR_CHECK_REG_INT
1447:Src/register_interface.c ****   if (MC_NULL == dataPtr)
1448:Src/register_interface.c ****   {
1449:Src/register_interface.c ****     retVal = MCP_CMD_NOK;
1450:Src/register_interface.c ****   }
1451:Src/register_interface.c ****   else
1452:Src/register_interface.c ****   {
1453:Src/register_interface.c **** #endif
1454:Src/register_interface.c **** 
1455:Src/register_interface.c ****     MCI_Handle_t *pMCIN = &Mci[0];
 4694              		.loc 1 1455 5 view .LVU1469
1456:Src/register_interface.c ****     uint16_t regID = dataID & REG_MASK;
 4695              		.loc 1 1456 5 view .LVU1470
1457:Src/register_interface.c ****     uint8_t typeID = ((uint8_t)dataID) & TYPE_MASK;
 4696              		.loc 1 1457 5 view .LVU1471
1458:Src/register_interface.c **** 
1459:Src/register_interface.c ****     switch (typeID)
 4697              		.loc 1 1459 5 view .LVU1472
 4698 0000 00F03803 		and	r3, r0, #56
 4699 0004 102B     		cmp	r3, #16
 4700 0006 03D0     		beq	.L469
 4701              	.LVL618:
 4702              	.L447:
1460:Src/register_interface.c ****     {
1461:Src/register_interface.c ****       case TYPE_DATA_16BIT:
1462:Src/register_interface.c ****       {
1463:Src/register_interface.c ****         switch (regID)
1464:Src/register_interface.c ****         {
1465:Src/register_interface.c ****           case MC_REG_I_A:
1466:Src/register_interface.c ****           {
1467:Src/register_interface.c ****             *dataPtr = &(pMCIN->pFOCVars->Iab.a);
1468:Src/register_interface.c ****              break;
1469:Src/register_interface.c ****           }
1470:Src/register_interface.c **** 
1471:Src/register_interface.c ****           case MC_REG_I_B:
1472:Src/register_interface.c ****           {
1473:Src/register_interface.c ****             *dataPtr = &(pMCIN->pFOCVars->Iab.b);
1474:Src/register_interface.c ****             break;
1475:Src/register_interface.c ****           }
1476:Src/register_interface.c **** 
ARM GAS  C:\Users\ep_ygh\AppData\Local\Temp\ccaRZNy5.s 			page 134


1477:Src/register_interface.c ****           case MC_REG_I_ALPHA_MEAS:
1478:Src/register_interface.c ****           {
1479:Src/register_interface.c ****             *dataPtr = &(pMCIN->pFOCVars->Ialphabeta.alpha);
1480:Src/register_interface.c ****             break;
1481:Src/register_interface.c ****           }
1482:Src/register_interface.c **** 
1483:Src/register_interface.c ****           case MC_REG_I_BETA_MEAS:
1484:Src/register_interface.c ****           {
1485:Src/register_interface.c ****             *dataPtr = &(pMCIN->pFOCVars->Ialphabeta.beta);
1486:Src/register_interface.c ****             break;
1487:Src/register_interface.c ****           }
1488:Src/register_interface.c **** 
1489:Src/register_interface.c ****           case MC_REG_I_Q_MEAS:
1490:Src/register_interface.c ****           {
1491:Src/register_interface.c ****             *dataPtr = &(pMCIN->pFOCVars->Iqd.q);
1492:Src/register_interface.c ****             break;
1493:Src/register_interface.c ****           }
1494:Src/register_interface.c **** 
1495:Src/register_interface.c ****           case MC_REG_I_D_MEAS:
1496:Src/register_interface.c ****           {
1497:Src/register_interface.c ****             *dataPtr = &(pMCIN->pFOCVars->Iqd.d);
1498:Src/register_interface.c ****             break;
1499:Src/register_interface.c ****           }
1500:Src/register_interface.c **** 
1501:Src/register_interface.c ****           case MC_REG_I_Q_REF:
1502:Src/register_interface.c ****           {
1503:Src/register_interface.c ****             *dataPtr = &(pMCIN->pFOCVars->Iqdref.q);
1504:Src/register_interface.c ****             break;
1505:Src/register_interface.c ****           }
1506:Src/register_interface.c **** 
1507:Src/register_interface.c ****           case MC_REG_I_D_REF:
1508:Src/register_interface.c ****           {
1509:Src/register_interface.c ****             *dataPtr = &(pMCIN->pFOCVars->Iqdref.d);
1510:Src/register_interface.c ****             break;
1511:Src/register_interface.c ****           }
1512:Src/register_interface.c **** 
1513:Src/register_interface.c ****           case MC_REG_V_Q:
1514:Src/register_interface.c ****           {
1515:Src/register_interface.c ****             *dataPtr = &(pMCIN->pFOCVars->Vqd.q);
1516:Src/register_interface.c ****             break;
1517:Src/register_interface.c ****           }
1518:Src/register_interface.c **** 
1519:Src/register_interface.c ****           case MC_REG_V_D:
1520:Src/register_interface.c ****           {
1521:Src/register_interface.c ****             *dataPtr = &(pMCIN->pFOCVars->Vqd.d);
1522:Src/register_interface.c ****             break;
1523:Src/register_interface.c ****           }
1524:Src/register_interface.c **** 
1525:Src/register_interface.c ****           case MC_REG_V_ALPHA:
1526:Src/register_interface.c ****           {
1527:Src/register_interface.c ****             *dataPtr = &(pMCIN->pFOCVars->Valphabeta.alpha);
1528:Src/register_interface.c ****             break;
1529:Src/register_interface.c ****           }
1530:Src/register_interface.c **** 
1531:Src/register_interface.c ****           case MC_REG_V_BETA:
1532:Src/register_interface.c ****           {
1533:Src/register_interface.c ****             *dataPtr = &(pMCIN->pFOCVars->Valphabeta.beta);
ARM GAS  C:\Users\ep_ygh\AppData\Local\Temp\ccaRZNy5.s 			page 135


1534:Src/register_interface.c ****             break;
1535:Src/register_interface.c ****           }
1536:Src/register_interface.c **** 
1537:Src/register_interface.c ****           case MC_REG_STOPLL_ROT_SPEED:
1538:Src/register_interface.c ****           {
1539:Src/register_interface.c ****             *dataPtr = &((&STO_PLL_M1)->_Super.hAvrMecSpeedUnit);
1540:Src/register_interface.c ****             break;
1541:Src/register_interface.c ****           }
1542:Src/register_interface.c **** 
1543:Src/register_interface.c ****           case MC_REG_STOPLL_EL_ANGLE:
1544:Src/register_interface.c ****           {
1545:Src/register_interface.c ****             *dataPtr = &((&STO_PLL_M1)->_Super.hElAngle);
1546:Src/register_interface.c ****             break;
1547:Src/register_interface.c ****           }
1548:Src/register_interface.c **** 
1549:Src/register_interface.c **** #ifdef NOT_IMPLEMENTED /* Not yet implemented */
1550:Src/register_interface.c ****           case MC_REG_STOPLL_I_ALPHA:
1551:Src/register_interface.c ****           case MC_REG_STOPLL_I_BETA:
1552:Src/register_interface.c ****             break;
1553:Src/register_interface.c **** #endif
1554:Src/register_interface.c **** 
1555:Src/register_interface.c ****           case MC_REG_STOPLL_BEMF_ALPHA:
1556:Src/register_interface.c ****           {
1557:Src/register_interface.c ****             *dataPtr = &((&STO_PLL_M1)->hBemf_alfa_est);
1558:Src/register_interface.c ****             break;
1559:Src/register_interface.c ****           }
1560:Src/register_interface.c **** 
1561:Src/register_interface.c ****           case MC_REG_STOPLL_BEMF_BETA:
1562:Src/register_interface.c ****           {
1563:Src/register_interface.c ****             *dataPtr = &((&STO_PLL_M1)->hBemf_beta_est);
1564:Src/register_interface.c ****             break;
1565:Src/register_interface.c ****           }
1566:Src/register_interface.c **** 
1567:Src/register_interface.c ****           default:
1568:Src/register_interface.c ****           {
1569:Src/register_interface.c ****             *dataPtr = &nullData16;
 4703              		.loc 1 1569 13 view .LVU1473
 4704              		.loc 1 1569 22 is_stmt 0 view .LVU1474
 4705 0008 484B     		ldr	r3, .L475
 4706 000a 0B60     		str	r3, [r1]
1570:Src/register_interface.c ****             retVal = MCP_ERROR_UNKNOWN_REG;
 4707              		.loc 1 1570 13 is_stmt 1 view .LVU1475
 4708              	.LVL619:
1571:Src/register_interface.c ****             break;
 4709              		.loc 1 1571 13 view .LVU1476
1570:Src/register_interface.c ****             retVal = MCP_ERROR_UNKNOWN_REG;
 4710              		.loc 1 1570 20 is_stmt 0 view .LVU1477
 4711 000c 0520     		movs	r0, #5
 4712              	.LVL620:
1572:Src/register_interface.c ****           }
1573:Src/register_interface.c ****         }
1574:Src/register_interface.c ****         break;
1575:Src/register_interface.c ****       }
1576:Src/register_interface.c **** 
1577:Src/register_interface.c ****       default:
1578:Src/register_interface.c ****       {
1579:Src/register_interface.c ****         *dataPtr = &nullData16;
ARM GAS  C:\Users\ep_ygh\AppData\Local\Temp\ccaRZNy5.s 			page 136


1580:Src/register_interface.c ****         retVal = MCP_ERROR_UNKNOWN_REG;
1581:Src/register_interface.c ****         break;
1582:Src/register_interface.c ****       }
1583:Src/register_interface.c ****     }
1584:Src/register_interface.c **** #ifdef NULL_PTR_CHECK_REG_INT
1585:Src/register_interface.c ****   }
1586:Src/register_interface.c **** #endif
1587:Src/register_interface.c ****   return (retVal);
 4713              		.loc 1 1587 3 is_stmt 1 view .LVU1478
1588:Src/register_interface.c **** }
 4714              		.loc 1 1588 1 is_stmt 0 view .LVU1479
 4715 000e 7047     		bx	lr
 4716              	.LVL621:
 4717              	.L469:
1463:Src/register_interface.c ****         {
 4718              		.loc 1 1463 9 is_stmt 1 view .LVU1480
1456:Src/register_interface.c ****     uint8_t typeID = ((uint8_t)dataID) & TYPE_MASK;
 4719              		.loc 1 1456 14 is_stmt 0 view .LVU1481
 4720 0010 20F00700 		bic	r0, r0, #7
 4721              	.LVL622:
1456:Src/register_interface.c ****     uint8_t typeID = ((uint8_t)dataID) & TYPE_MASK;
 4722              		.loc 1 1456 14 view .LVU1482
 4723 0014 B0F51D6F 		cmp	r0, #2512
 4724 0018 83B2     		uxth	r3, r0
 4725 001a 5CD0     		beq	.L448
 4726 001c 10D8     		bhi	.L449
 4727 001e B3F50D6F 		cmp	r3, #2256
 4728 0022 5ED0     		beq	.L450
 4729 0024 26D8     		bhi	.L451
 4730 0026 B3F5056F 		cmp	r3, #2128
 4731 002a 60D0     		beq	.L452
 4732 002c 16D9     		bls	.L470
 4733 002e B3F5096F 		cmp	r3, #2192
 4734 0032 E9D1     		bne	.L447
1485:Src/register_interface.c ****             break;
 4735              		.loc 1 1485 13 is_stmt 1 view .LVU1483
1485:Src/register_interface.c ****             break;
 4736              		.loc 1 1485 31 is_stmt 0 view .LVU1484
 4737 0034 3E4B     		ldr	r3, .L475+4
1485:Src/register_interface.c ****             break;
 4738              		.loc 1 1485 24 view .LVU1485
 4739 0036 5B68     		ldr	r3, [r3, #4]
 4740 0038 0633     		adds	r3, r3, #6
1443:Src/register_interface.c ****   static uint16_t nullData16=0;
 4741              		.loc 1 1443 11 view .LVU1486
 4742 003a 0020     		movs	r0, #0
1485:Src/register_interface.c ****             break;
 4743              		.loc 1 1485 22 view .LVU1487
 4744 003c 0B60     		str	r3, [r1]
1486:Src/register_interface.c ****           }
 4745              		.loc 1 1486 13 is_stmt 1 view .LVU1488
 4746 003e 7047     		bx	lr
 4747              	.L449:
1486:Src/register_interface.c ****           }
 4748              		.loc 1 1486 13 is_stmt 0 view .LVU1489
 4749 0040 B3F5356F 		cmp	r3, #2896
 4750 0044 59D0     		beq	.L460
ARM GAS  C:\Users\ep_ygh\AppData\Local\Temp\ccaRZNy5.s 			page 137


 4751 0046 28D9     		bls	.L471
 4752 0048 B3F5456F 		cmp	r3, #3152
 4753 004c 59D0     		beq	.L465
 4754 004e B3F5496F 		cmp	r3, #3216
 4755 0052 1BD1     		bne	.L472
1563:Src/register_interface.c ****             break;
 4756              		.loc 1 1563 13 is_stmt 1 view .LVU1490
1563:Src/register_interface.c ****             break;
 4757              		.loc 1 1563 22 is_stmt 0 view .LVU1491
 4758 0054 374B     		ldr	r3, .L475+8
 4759 0056 0B60     		str	r3, [r1]
1564:Src/register_interface.c ****           }
 4760              		.loc 1 1564 13 is_stmt 1 view .LVU1492
1443:Src/register_interface.c ****   static uint16_t nullData16=0;
 4761              		.loc 1 1443 11 is_stmt 0 view .LVU1493
 4762 0058 0020     		movs	r0, #0
1564:Src/register_interface.c ****           }
 4763              		.loc 1 1564 13 view .LVU1494
 4764 005a 7047     		bx	lr
 4765              	.L470:
1564:Src/register_interface.c ****           }
 4766              		.loc 1 1564 13 view .LVU1495
 4767 005c B3F5FA6F 		cmp	r3, #2000
 4768 0060 5FD0     		beq	.L454
 4769 0062 B3F5016F 		cmp	r3, #2064
 4770 0066 CFD1     		bne	.L447
1473:Src/register_interface.c ****             break;
 4771              		.loc 1 1473 13 is_stmt 1 view .LVU1496
1473:Src/register_interface.c ****             break;
 4772              		.loc 1 1473 31 is_stmt 0 view .LVU1497
 4773 0068 314B     		ldr	r3, .L475+4
1473:Src/register_interface.c ****             break;
 4774              		.loc 1 1473 24 view .LVU1498
 4775 006a 5B68     		ldr	r3, [r3, #4]
 4776 006c 0233     		adds	r3, r3, #2
1443:Src/register_interface.c ****   static uint16_t nullData16=0;
 4777              		.loc 1 1443 11 view .LVU1499
 4778 006e 0020     		movs	r0, #0
1473:Src/register_interface.c ****             break;
 4779              		.loc 1 1473 22 view .LVU1500
 4780 0070 0B60     		str	r3, [r1]
1474:Src/register_interface.c ****           }
 4781              		.loc 1 1474 13 is_stmt 1 view .LVU1501
 4782 0072 7047     		bx	lr
 4783              	.L451:
1474:Src/register_interface.c ****           }
 4784              		.loc 1 1474 13 is_stmt 0 view .LVU1502
 4785 0074 B3F5156F 		cmp	r3, #2384
 4786 0078 47D0     		beq	.L457
 4787 007a B3F5196F 		cmp	r3, #2448
 4788 007e 18D1     		bne	.L473
1509:Src/register_interface.c ****             break;
 4789              		.loc 1 1509 13 is_stmt 1 view .LVU1503
1509:Src/register_interface.c ****             break;
 4790              		.loc 1 1509 31 is_stmt 0 view .LVU1504
 4791 0080 2B4B     		ldr	r3, .L475+4
1509:Src/register_interface.c ****             break;
ARM GAS  C:\Users\ep_ygh\AppData\Local\Temp\ccaRZNy5.s 			page 138


 4792              		.loc 1 1509 24 view .LVU1505
 4793 0082 5B68     		ldr	r3, [r3, #4]
 4794 0084 1233     		adds	r3, r3, #18
1443:Src/register_interface.c ****   static uint16_t nullData16=0;
 4795              		.loc 1 1443 11 view .LVU1506
 4796 0086 0020     		movs	r0, #0
1509:Src/register_interface.c ****             break;
 4797              		.loc 1 1509 22 view .LVU1507
 4798 0088 0B60     		str	r3, [r1]
1510:Src/register_interface.c ****           }
 4799              		.loc 1 1510 13 is_stmt 1 view .LVU1508
 4800 008a 7047     		bx	lr
 4801              	.L472:
1510:Src/register_interface.c ****           }
 4802              		.loc 1 1510 13 is_stmt 0 view .LVU1509
 4803 008c B3F5396F 		cmp	r3, #2960
 4804 0090 BAD1     		bne	.L447
1539:Src/register_interface.c ****             break;
 4805              		.loc 1 1539 13 is_stmt 1 view .LVU1510
1539:Src/register_interface.c ****             break;
 4806              		.loc 1 1539 22 is_stmt 0 view .LVU1511
 4807 0092 294B     		ldr	r3, .L475+12
 4808 0094 0B60     		str	r3, [r1]
1540:Src/register_interface.c ****           }
 4809              		.loc 1 1540 13 is_stmt 1 view .LVU1512
1443:Src/register_interface.c ****   static uint16_t nullData16=0;
 4810              		.loc 1 1443 11 is_stmt 0 view .LVU1513
 4811 0096 0020     		movs	r0, #0
1540:Src/register_interface.c ****           }
 4812              		.loc 1 1540 13 view .LVU1514
 4813 0098 7047     		bx	lr
 4814              	.L471:
1540:Src/register_interface.c ****           }
 4815              		.loc 1 1540 13 view .LVU1515
 4816 009a B3F5256F 		cmp	r3, #2640
 4817 009e 3AD0     		beq	.L462
 4818 00a0 B3F5296F 		cmp	r3, #2704
 4819 00a4 0ED1     		bne	.L474
1533:Src/register_interface.c ****             break;
 4820              		.loc 1 1533 13 is_stmt 1 view .LVU1516
1533:Src/register_interface.c ****             break;
 4821              		.loc 1 1533 31 is_stmt 0 view .LVU1517
 4822 00a6 224B     		ldr	r3, .L475+4
1533:Src/register_interface.c ****             break;
 4823              		.loc 1 1533 24 view .LVU1518
 4824 00a8 5B68     		ldr	r3, [r3, #4]
 4825 00aa 1C33     		adds	r3, r3, #28
1443:Src/register_interface.c ****   static uint16_t nullData16=0;
 4826              		.loc 1 1443 11 view .LVU1519
 4827 00ac 0020     		movs	r0, #0
1533:Src/register_interface.c ****             break;
 4828              		.loc 1 1533 22 view .LVU1520
 4829 00ae 0B60     		str	r3, [r1]
1534:Src/register_interface.c ****           }
 4830              		.loc 1 1534 13 is_stmt 1 view .LVU1521
 4831 00b0 7047     		bx	lr
 4832              	.L473:
ARM GAS  C:\Users\ep_ygh\AppData\Local\Temp\ccaRZNy5.s 			page 139


1534:Src/register_interface.c ****           }
 4833              		.loc 1 1534 13 is_stmt 0 view .LVU1522
 4834 00b2 B3F5116F 		cmp	r3, #2320
 4835 00b6 A7D1     		bne	.L447
1497:Src/register_interface.c ****             break;
 4836              		.loc 1 1497 13 is_stmt 1 view .LVU1523
1497:Src/register_interface.c ****             break;
 4837              		.loc 1 1497 31 is_stmt 0 view .LVU1524
 4838 00b8 1D4B     		ldr	r3, .L475+4
1497:Src/register_interface.c ****             break;
 4839              		.loc 1 1497 24 view .LVU1525
 4840 00ba 5B68     		ldr	r3, [r3, #4]
 4841 00bc 0E33     		adds	r3, r3, #14
1443:Src/register_interface.c ****   static uint16_t nullData16=0;
 4842              		.loc 1 1443 11 view .LVU1526
 4843 00be 0020     		movs	r0, #0
1497:Src/register_interface.c ****             break;
 4844              		.loc 1 1497 22 view .LVU1527
 4845 00c0 0B60     		str	r3, [r1]
1498:Src/register_interface.c ****           }
 4846              		.loc 1 1498 13 is_stmt 1 view .LVU1528
 4847 00c2 7047     		bx	lr
 4848              	.L474:
1498:Src/register_interface.c ****           }
 4849              		.loc 1 1498 13 is_stmt 0 view .LVU1529
 4850 00c4 B3F5216F 		cmp	r3, #2576
 4851 00c8 9ED1     		bne	.L447
1521:Src/register_interface.c ****             break;
 4852              		.loc 1 1521 13 is_stmt 1 view .LVU1530
1521:Src/register_interface.c ****             break;
 4853              		.loc 1 1521 31 is_stmt 0 view .LVU1531
 4854 00ca 194B     		ldr	r3, .L475+4
1521:Src/register_interface.c ****             break;
 4855              		.loc 1 1521 24 view .LVU1532
 4856 00cc 5B68     		ldr	r3, [r3, #4]
 4857 00ce 1833     		adds	r3, r3, #24
1443:Src/register_interface.c ****   static uint16_t nullData16=0;
 4858              		.loc 1 1443 11 view .LVU1533
 4859 00d0 0020     		movs	r0, #0
1521:Src/register_interface.c ****             break;
 4860              		.loc 1 1521 22 view .LVU1534
 4861 00d2 0B60     		str	r3, [r1]
1522:Src/register_interface.c ****           }
 4862              		.loc 1 1522 13 is_stmt 1 view .LVU1535
 4863 00d4 7047     		bx	lr
 4864              	.L448:
1515:Src/register_interface.c ****             break;
 4865              		.loc 1 1515 13 view .LVU1536
1515:Src/register_interface.c ****             break;
 4866              		.loc 1 1515 31 is_stmt 0 view .LVU1537
 4867 00d6 164B     		ldr	r3, .L475+4
1515:Src/register_interface.c ****             break;
 4868              		.loc 1 1515 24 view .LVU1538
 4869 00d8 5B68     		ldr	r3, [r3, #4]
 4870 00da 1633     		adds	r3, r3, #22
1443:Src/register_interface.c ****   static uint16_t nullData16=0;
 4871              		.loc 1 1443 11 view .LVU1539
ARM GAS  C:\Users\ep_ygh\AppData\Local\Temp\ccaRZNy5.s 			page 140


 4872 00dc 0020     		movs	r0, #0
1515:Src/register_interface.c ****             break;
 4873              		.loc 1 1515 22 view .LVU1540
 4874 00de 0B60     		str	r3, [r1]
1516:Src/register_interface.c ****           }
 4875              		.loc 1 1516 13 is_stmt 1 view .LVU1541
 4876 00e0 7047     		bx	lr
 4877              	.L450:
1491:Src/register_interface.c ****             break;
 4878              		.loc 1 1491 13 view .LVU1542
1491:Src/register_interface.c ****             break;
 4879              		.loc 1 1491 31 is_stmt 0 view .LVU1543
 4880 00e2 134B     		ldr	r3, .L475+4
1491:Src/register_interface.c ****             break;
 4881              		.loc 1 1491 24 view .LVU1544
 4882 00e4 5B68     		ldr	r3, [r3, #4]
 4883 00e6 0C33     		adds	r3, r3, #12
1443:Src/register_interface.c ****   static uint16_t nullData16=0;
 4884              		.loc 1 1443 11 view .LVU1545
 4885 00e8 0020     		movs	r0, #0
1491:Src/register_interface.c ****             break;
 4886              		.loc 1 1491 22 view .LVU1546
 4887 00ea 0B60     		str	r3, [r1]
1492:Src/register_interface.c ****           }
 4888              		.loc 1 1492 13 is_stmt 1 view .LVU1547
 4889 00ec 7047     		bx	lr
 4890              	.L452:
1479:Src/register_interface.c ****             break;
 4891              		.loc 1 1479 13 view .LVU1548
1479:Src/register_interface.c ****             break;
 4892              		.loc 1 1479 31 is_stmt 0 view .LVU1549
 4893 00ee 104B     		ldr	r3, .L475+4
1479:Src/register_interface.c ****             break;
 4894              		.loc 1 1479 24 view .LVU1550
 4895 00f0 5B68     		ldr	r3, [r3, #4]
 4896 00f2 0433     		adds	r3, r3, #4
1443:Src/register_interface.c ****   static uint16_t nullData16=0;
 4897              		.loc 1 1443 11 view .LVU1551
 4898 00f4 0020     		movs	r0, #0
1479:Src/register_interface.c ****             break;
 4899              		.loc 1 1479 22 view .LVU1552
 4900 00f6 0B60     		str	r3, [r1]
1480:Src/register_interface.c ****           }
 4901              		.loc 1 1480 13 is_stmt 1 view .LVU1553
 4902 00f8 7047     		bx	lr
 4903              	.L460:
1545:Src/register_interface.c ****             break;
 4904              		.loc 1 1545 13 view .LVU1554
1545:Src/register_interface.c ****             break;
 4905              		.loc 1 1545 22 is_stmt 0 view .LVU1555
 4906 00fa 104B     		ldr	r3, .L475+16
 4907 00fc 0B60     		str	r3, [r1]
1546:Src/register_interface.c ****           }
 4908              		.loc 1 1546 13 is_stmt 1 view .LVU1556
1443:Src/register_interface.c ****   static uint16_t nullData16=0;
 4909              		.loc 1 1443 11 is_stmt 0 view .LVU1557
 4910 00fe 0020     		movs	r0, #0
ARM GAS  C:\Users\ep_ygh\AppData\Local\Temp\ccaRZNy5.s 			page 141


1546:Src/register_interface.c ****           }
 4911              		.loc 1 1546 13 view .LVU1558
 4912 0100 7047     		bx	lr
 4913              	.L465:
1557:Src/register_interface.c ****             break;
 4914              		.loc 1 1557 13 is_stmt 1 view .LVU1559
1557:Src/register_interface.c ****             break;
 4915              		.loc 1 1557 22 is_stmt 0 view .LVU1560
 4916 0102 0F4B     		ldr	r3, .L475+20
 4917 0104 0B60     		str	r3, [r1]
1558:Src/register_interface.c ****           }
 4918              		.loc 1 1558 13 is_stmt 1 view .LVU1561
1443:Src/register_interface.c ****   static uint16_t nullData16=0;
 4919              		.loc 1 1443 11 is_stmt 0 view .LVU1562
 4920 0106 0020     		movs	r0, #0
1558:Src/register_interface.c ****           }
 4921              		.loc 1 1558 13 view .LVU1563
 4922 0108 7047     		bx	lr
 4923              	.L457:
1503:Src/register_interface.c ****             break;
 4924              		.loc 1 1503 13 is_stmt 1 view .LVU1564
1503:Src/register_interface.c ****             break;
 4925              		.loc 1 1503 31 is_stmt 0 view .LVU1565
 4926 010a 094B     		ldr	r3, .L475+4
1503:Src/register_interface.c ****             break;
 4927              		.loc 1 1503 24 view .LVU1566
 4928 010c 5B68     		ldr	r3, [r3, #4]
 4929 010e 1033     		adds	r3, r3, #16
1443:Src/register_interface.c ****   static uint16_t nullData16=0;
 4930              		.loc 1 1443 11 view .LVU1567
 4931 0110 0020     		movs	r0, #0
1503:Src/register_interface.c ****             break;
 4932              		.loc 1 1503 22 view .LVU1568
 4933 0112 0B60     		str	r3, [r1]
1504:Src/register_interface.c ****           }
 4934              		.loc 1 1504 13 is_stmt 1 view .LVU1569
 4935 0114 7047     		bx	lr
 4936              	.L462:
1527:Src/register_interface.c ****             break;
 4937              		.loc 1 1527 13 view .LVU1570
1527:Src/register_interface.c ****             break;
 4938              		.loc 1 1527 31 is_stmt 0 view .LVU1571
 4939 0116 064B     		ldr	r3, .L475+4
1527:Src/register_interface.c ****             break;
 4940              		.loc 1 1527 24 view .LVU1572
 4941 0118 5B68     		ldr	r3, [r3, #4]
 4942 011a 1A33     		adds	r3, r3, #26
1443:Src/register_interface.c ****   static uint16_t nullData16=0;
 4943              		.loc 1 1443 11 view .LVU1573
 4944 011c 0020     		movs	r0, #0
1527:Src/register_interface.c ****             break;
 4945              		.loc 1 1527 22 view .LVU1574
 4946 011e 0B60     		str	r3, [r1]
1528:Src/register_interface.c ****           }
 4947              		.loc 1 1528 13 is_stmt 1 view .LVU1575
 4948 0120 7047     		bx	lr
 4949              	.L454:
ARM GAS  C:\Users\ep_ygh\AppData\Local\Temp\ccaRZNy5.s 			page 142


1467:Src/register_interface.c ****              break;
 4950              		.loc 1 1467 13 view .LVU1576
1467:Src/register_interface.c ****              break;
 4951              		.loc 1 1467 31 is_stmt 0 view .LVU1577
 4952 0122 034B     		ldr	r3, .L475+4
1467:Src/register_interface.c ****              break;
 4953              		.loc 1 1467 22 view .LVU1578
 4954 0124 5B68     		ldr	r3, [r3, #4]
 4955 0126 0B60     		str	r3, [r1]
1468:Src/register_interface.c ****           }
 4956              		.loc 1 1468 14 is_stmt 1 view .LVU1579
1443:Src/register_interface.c ****   static uint16_t nullData16=0;
 4957              		.loc 1 1443 11 is_stmt 0 view .LVU1580
 4958 0128 0020     		movs	r0, #0
1468:Src/register_interface.c ****           }
 4959              		.loc 1 1468 14 view .LVU1581
 4960 012a 7047     		bx	lr
 4961              	.L476:
 4962              		.align	2
 4963              	.L475:
 4964 012c 00000000 		.word	.LANCHOR1
 4965 0130 00000000 		.word	Mci
 4966 0134 72000000 		.word	STO_PLL_M1+114
 4967 0138 0C000000 		.word	STO_PLL_M1+12
 4968 013c 04000000 		.word	STO_PLL_M1+4
 4969 0140 70000000 		.word	STO_PLL_M1+112
 4970              		.cfi_endproc
 4971              	.LFE1096:
 4973              		.section	.bss.nullData16.0,"aw",%nobits
 4974              		.align	1
 4975              		.set	.LANCHOR1,. + 0
 4978              	nullData16.0:
 4979 0000 0000     		.space	2
 4980              		.section	.rodata.CSWTCH.37,"a"
 4981              		.align	2
 4982              		.set	.LANCHOR0,. + 0
 4985              	CSWTCH.37:
 4986 0000 01       		.byte	1
 4987 0001 00       		.byte	0
 4988 0002 00       		.byte	0
 4989 0003 00       		.byte	0
 4990 0004 00       		.byte	0
 4991 0005 00       		.byte	0
 4992 0006 00       		.byte	0
 4993 0007 00       		.byte	0
 4994 0008 02       		.byte	2
 4995 0009 00       		.byte	0
 4996 000a 00       		.byte	0
 4997 000b 00       		.byte	0
 4998 000c 00       		.byte	0
 4999 000d 00       		.byte	0
 5000 000e 00       		.byte	0
 5001 000f 00       		.byte	0
 5002 0010 04       		.byte	4
 5003              		.text
 5004              	.Letext0:
 5005              		.file 2 "c:\\programdata\\chocolatey\\lib\\gcc-arm-embedded\\tools\\gcc-arm-none-eabi-10.3-2021.10
ARM GAS  C:\Users\ep_ygh\AppData\Local\Temp\ccaRZNy5.s 			page 143


 5006              		.file 3 "c:\\programdata\\chocolatey\\lib\\gcc-arm-embedded\\tools\\gcc-arm-none-eabi-10.3-2021.10
 5007              		.file 4 "Drivers/CMSIS/Device/ST/STM32L4xx/Include/stm32l476xx.h"
 5008              		.file 5 "Drivers/STM32L4xx_HAL_Driver/Inc/stm32l4xx_ll_tim.h"
 5009              		.file 6 "Drivers/STM32L4xx_HAL_Driver/Inc/stm32l4xx_ll_dma.h"
 5010              		.file 7 "Inc/mc_type.h"
 5011              		.file 8 "MCSDK_v6.2.1-Full/MotorControl/MCSDK/MCLib/Any/Inc/mcptl.h"
 5012              		.file 9 "Inc/pwm_curr_fdbk.h"
 5013              		.file 10 "MCSDK_v6.2.1-Full/MotorControl/MCSDK/MCLib/Any/Inc/pid_regulator.h"
 5014              		.file 11 "MCSDK_v6.2.1-Full/MotorControl/MCSDK/MCLib/Any/Inc/speed_pos_fdbk.h"
 5015              		.file 12 "MCSDK_v6.2.1-Full/MotorControl/MCSDK/MCLib/Any/Inc/speed_torq_ctrl.h"
 5016              		.file 13 "MCSDK_v6.2.1-Full/MotorControl/MCSDK/MCLib/Any/Inc/virtual_speed_sensor.h"
 5017              		.file 14 "Inc/mc_interface.h"
 5018              		.file 15 "MCSDK_v6.2.1-Full/MotorControl/MCSDK/MCLib/Any/Inc/ntc_temperature_sensor.h"
 5019              		.file 16 "MCSDK_v6.2.1-Full/MotorControl/MCSDK/MCLib/Any/Inc/sto_speed_pos_fdbk.h"
 5020              		.file 17 "MCSDK_v6.2.1-Full/MotorControl/MCSDK/MCLib/Any/Inc/revup_ctrl.h"
 5021              		.file 18 "Inc/mc_configuration_registers.h"
 5022              		.file 19 "Inc/mc_parameters.h"
 5023              		.file 20 "MCSDK_v6.2.1-Full/MotorControl/MCSDK/MCLib/Any/Inc/bus_voltage_sensor.h"
 5024              		.file 21 "MCSDK_v6.2.1-Full/MotorControl/MCSDK/MCLib/Any/Inc/r_divider_bus_voltage_sensor.h"
 5025              		.file 22 "MCSDK_v6.2.1-Full/MotorControl/MCSDK/MCLib/Any/Inc/pqd_motor_power_measurement.h"
 5026              		.file 23 "MCSDK_v6.2.1-Full/MotorControl/MCSDK/MCLib/Any/Inc/open_loop.h"
 5027              		.file 24 "MCSDK_v6.2.1-Full/MotorControl/MCSDK/MCLib/Any/Inc/sto_pll_speed_pos_fdbk.h"
 5028              		.file 25 "Inc/mc_config.h"
 5029              		.file 26 "MCSDK_v6.2.1-Full/MotorControl/MCSDK/MCLib/Any/Inc/mcpa.h"
 5030              		.file 27 "Inc/mcp_config.h"
ARM GAS  C:\Users\ep_ygh\AppData\Local\Temp\ccaRZNy5.s 			page 144


DEFINED SYMBOLS
                            *ABS*:00000000 register_interface.c
C:\Users\ep_ygh\AppData\Local\Temp\ccaRZNy5.s:20     .text.RI_SetRegisterGlobal:00000000 $t
C:\Users\ep_ygh\AppData\Local\Temp\ccaRZNy5.s:27     .text.RI_SetRegisterGlobal:00000000 RI_SetRegisterGlobal
C:\Users\ep_ygh\AppData\Local\Temp\ccaRZNy5.s:53     .text.RI_SetRegisterGlobal:00000010 $d
C:\Users\ep_ygh\AppData\Local\Temp\ccaRZNy5.s:348    .text.RI_SetRegisterMotor1:00000000 $t
C:\Users\ep_ygh\AppData\Local\Temp\ccaRZNy5.s:355    .text.RI_SetRegisterMotor1:00000000 RI_SetRegisterMotor1
C:\Users\ep_ygh\AppData\Local\Temp\ccaRZNy5.s:392    .text.RI_SetRegisterMotor1:00000018 $d
C:\Users\ep_ygh\AppData\Local\Temp\ccaRZNy5.s:1081   .text.RI_SetRegisterMotor1:0000035c $d
C:\Users\ep_ygh\AppData\Local\Temp\ccaRZNy5.s:1090   .text.RI_SetRegisterMotor1:00000374 $t
C:\Users\ep_ygh\AppData\Local\Temp\ccaRZNy5.s:1850   .text.RI_SetRegisterMotor1:000005f8 $d
C:\Users\ep_ygh\AppData\Local\Temp\ccaRZNy5.s:1866   .text.RI_GetRegisterGlobal:00000000 $t
C:\Users\ep_ygh\AppData\Local\Temp\ccaRZNy5.s:1873   .text.RI_GetRegisterGlobal:00000000 RI_GetRegisterGlobal
C:\Users\ep_ygh\AppData\Local\Temp\ccaRZNy5.s:1897   .text.RI_GetRegisterGlobal:00000014 $d
C:\Users\ep_ygh\AppData\Local\Temp\ccaRZNy5.s:2291   .text.RI_GetRegisterGlobal:00000130 $d
C:\Users\ep_ygh\AppData\Local\Temp\ccaRZNy5.s:2298   .text.RI_GetRegisterMotor1:00000000 $t
C:\Users\ep_ygh\AppData\Local\Temp\ccaRZNy5.s:2305   .text.RI_GetRegisterMotor1:00000000 RI_GetRegisterMotor1
C:\Users\ep_ygh\AppData\Local\Temp\ccaRZNy5.s:2344   .text.RI_GetRegisterMotor1:0000001a $d
C:\Users\ep_ygh\AppData\Local\Temp\ccaRZNy5.s:3135   .text.RI_GetRegisterMotor1:00000368 $d
C:\Users\ep_ygh\AppData\Local\Temp\ccaRZNy5.s:3145   .text.RI_GetRegisterMotor1:00000384 $t
C:\Users\ep_ygh\AppData\Local\Temp\ccaRZNy5.s:3989   .text.RI_GetRegisterMotor1:00000638 $d
C:\Users\ep_ygh\AppData\Local\Temp\ccaRZNy5.s:4013   .text.RI_GetRegisterMotor1:00000668 $t
C:\Users\ep_ygh\AppData\Local\Temp\ccaRZNy5.s:4535   .text.RI_GetRegisterMotor1:000007f4 $d
C:\Users\ep_ygh\AppData\Local\Temp\ccaRZNy5.s:4550   .text.RI_MovString:00000000 $t
C:\Users\ep_ygh\AppData\Local\Temp\ccaRZNy5.s:4557   .text.RI_MovString:00000000 RI_MovString
C:\Users\ep_ygh\AppData\Local\Temp\ccaRZNy5.s:4636   .text.RI_GetIDSize:00000000 $t
C:\Users\ep_ygh\AppData\Local\Temp\ccaRZNy5.s:4643   .text.RI_GetIDSize:00000000 RI_GetIDSize
C:\Users\ep_ygh\AppData\Local\Temp\ccaRZNy5.s:4672   .text.RI_GetIDSize:00000014 $d
C:\Users\ep_ygh\AppData\Local\Temp\ccaRZNy5.s:4677   .text.RI_GetPtrReg:00000000 $t
C:\Users\ep_ygh\AppData\Local\Temp\ccaRZNy5.s:4684   .text.RI_GetPtrReg:00000000 RI_GetPtrReg
C:\Users\ep_ygh\AppData\Local\Temp\ccaRZNy5.s:4964   .text.RI_GetPtrReg:0000012c $d
C:\Users\ep_ygh\AppData\Local\Temp\ccaRZNy5.s:4974   .bss.nullData16.0:00000000 $d
C:\Users\ep_ygh\AppData\Local\Temp\ccaRZNy5.s:4978   .bss.nullData16.0:00000000 nullData16.0
C:\Users\ep_ygh\AppData\Local\Temp\ccaRZNy5.s:4981   .rodata.CSWTCH.37:00000000 $d
C:\Users\ep_ygh\AppData\Local\Temp\ccaRZNy5.s:4985   .rodata.CSWTCH.37:00000000 CSWTCH.37
C:\Users\ep_ygh\AppData\Local\Temp\ccaRZNy5.s:86     .text.RI_SetRegisterGlobal:00000031 $d
C:\Users\ep_ygh\AppData\Local\Temp\ccaRZNy5.s:86     .text.RI_SetRegisterGlobal:00000032 $t
C:\Users\ep_ygh\AppData\Local\Temp\ccaRZNy5.s:425    .text.RI_SetRegisterMotor1:00000039 $d
C:\Users\ep_ygh\AppData\Local\Temp\ccaRZNy5.s:425    .text.RI_SetRegisterMotor1:0000003a $t
C:\Users\ep_ygh\AppData\Local\Temp\ccaRZNy5.s:1930   .text.RI_GetRegisterGlobal:00000035 $d
C:\Users\ep_ygh\AppData\Local\Temp\ccaRZNy5.s:1930   .text.RI_GetRegisterGlobal:00000036 $t
C:\Users\ep_ygh\AppData\Local\Temp\ccaRZNy5.s:2377   .text.RI_GetRegisterMotor1:0000003b $d
C:\Users\ep_ygh\AppData\Local\Temp\ccaRZNy5.s:2377   .text.RI_GetRegisterMotor1:0000003c $t

UNDEFINED SYMBOLS
MCI_GetIqdref
MCI_SetCurrentReferences
MCI_ExecTorqueRamp
STO_PLL_GetObserverGains
STO_PLL_SetObserverGains
PID_SetKP
PID_SetKIDivisorPOW2
PID_SetKD
PID_SetKDDivisorPOW2
PID_SetKI
PID_SetKPDivisorPOW2
Mci
ARM GAS  C:\Users\ep_ygh\AppData\Local\Temp\ccaRZNy5.s 			page 145


STO_PLL_M1
PIDIdHandle_M1
PIDSpeedHandle_M1
PIDIqHandle_M1
MCPA_cfgLog
MCI_SetOpenLoopVoltage
MCI_ExecSpeedRamp
MCI_GetTeref
RUC_SetPhase
MCI_SetOpenLoopCurrent
MCI_SetSpeedMode
OL_UpdateVoltage
MCPA_UART_A
RevUpControlM1
OpenLoop_ParamsM1
CTL_BOARD
FIRMWARE_NAME
globalConfig_reg
MCI_GetMecSpeedRefUnit
MCI_GetLastRampFinalTorque
MCI_GetLastRampFinalDuration
PID_GetKP
PID_GetKPDivisorPOW2
PID_GetKI
STO_PLL_GetEstimatedCurrent
STO_PLL_GetEstimatedBemf
SPD_GetElAngle
OL_GetVoltage
SPD_GetS16Speed
MCI_GetVqd
PID_GetKDDivisorPOW2
MCI_GetValphabeta
PID_GetKIDivisorPOW2
MCI_GetIalphabeta
MCI_GetIab
MCI_GetIqd
VBS_GetAvBusVoltage_V
MCI_GetFaultState
PQD_GetAvrgElMotorPowerW
RUC_GetNumberOfPhases
MCI_GetControlMode
MCI_GetSTMState
MCI_GetLastRampFinalSpeed
BusVoltageSensor_M1
pMPM
MotorConfig_reg
PWR_BOARD_NAME
scaleParams_M1
ApplicationConfig_reg
RUC_GetPhase
STO_PLL_GetEstimatedBemfLevel
STO_PLL_GetObservedBemfLevel
MCI_GetAvrgMecSpeedUnit
PID_GetKD
NTC_GetAvTemp_C
FOCConfig_reg
TempSensor_M1
ARM GAS  C:\Users\ep_ygh\AppData\Local\Temp\ccaRZNy5.s 			page 146


