ARM GAS  C:\Users\ep_ygh\AppData\Local\Temp\ccULJmwJ.s 			page 1


   1              		.cpu cortex-m4
   2              		.arch armv7e-m
   3              		.fpu fpv4-sp-d16
   4              		.eabi_attribute 27, 1
   5              		.eabi_attribute 28, 1
   6              		.eabi_attribute 20, 1
   7              		.eabi_attribute 21, 1
   8              		.eabi_attribute 23, 3
   9              		.eabi_attribute 24, 1
  10              		.eabi_attribute 25, 1
  11              		.eabi_attribute 26, 1
  12              		.eabi_attribute 30, 2
  13              		.eabi_attribute 34, 1
  14              		.eabi_attribute 18, 4
  15              		.file	"stm32l4xx_hal.c"
  16              		.text
  17              	.Ltext0:
  18              		.cfi_sections	.debug_frame
  19              		.section	.text.HAL_MspInit,"ax",%progbits
  20              		.align	1
  21              		.p2align 2,,3
  22              		.weak	HAL_MspInit
  23              		.syntax unified
  24              		.thumb
  25              		.thumb_func
  27              	HAL_MspInit:
  28              	.LFB319:
  29              		.file 1 "Drivers/STM32L4xx_HAL_Driver/Src/stm32l4xx_hal.c"
   1:Drivers/STM32L4xx_HAL_Driver/Src/stm32l4xx_hal.c **** /**
   2:Drivers/STM32L4xx_HAL_Driver/Src/stm32l4xx_hal.c ****   ******************************************************************************
   3:Drivers/STM32L4xx_HAL_Driver/Src/stm32l4xx_hal.c ****   * @file    stm32l4xx_hal.c
   4:Drivers/STM32L4xx_HAL_Driver/Src/stm32l4xx_hal.c ****   * @author  MCD Application Team
   5:Drivers/STM32L4xx_HAL_Driver/Src/stm32l4xx_hal.c ****   * @brief   HAL module driver.
   6:Drivers/STM32L4xx_HAL_Driver/Src/stm32l4xx_hal.c ****   *          This is the common part of the HAL initialization
   7:Drivers/STM32L4xx_HAL_Driver/Src/stm32l4xx_hal.c ****   *
   8:Drivers/STM32L4xx_HAL_Driver/Src/stm32l4xx_hal.c ****   ******************************************************************************
   9:Drivers/STM32L4xx_HAL_Driver/Src/stm32l4xx_hal.c ****   * @attention
  10:Drivers/STM32L4xx_HAL_Driver/Src/stm32l4xx_hal.c ****   *
  11:Drivers/STM32L4xx_HAL_Driver/Src/stm32l4xx_hal.c ****   * Copyright (c) 2017 STMicroelectronics.
  12:Drivers/STM32L4xx_HAL_Driver/Src/stm32l4xx_hal.c ****   * All rights reserved.
  13:Drivers/STM32L4xx_HAL_Driver/Src/stm32l4xx_hal.c ****   *
  14:Drivers/STM32L4xx_HAL_Driver/Src/stm32l4xx_hal.c ****   * This software is licensed under terms that can be found in the LICENSE file
  15:Drivers/STM32L4xx_HAL_Driver/Src/stm32l4xx_hal.c ****   * in the root directory of this software component.
  16:Drivers/STM32L4xx_HAL_Driver/Src/stm32l4xx_hal.c ****   * If no LICENSE file comes with this software, it is provided AS-IS.
  17:Drivers/STM32L4xx_HAL_Driver/Src/stm32l4xx_hal.c ****   *
  18:Drivers/STM32L4xx_HAL_Driver/Src/stm32l4xx_hal.c ****   ******************************************************************************
  19:Drivers/STM32L4xx_HAL_Driver/Src/stm32l4xx_hal.c ****   @verbatim
  20:Drivers/STM32L4xx_HAL_Driver/Src/stm32l4xx_hal.c ****   ==============================================================================
  21:Drivers/STM32L4xx_HAL_Driver/Src/stm32l4xx_hal.c ****                      ##### How to use this driver #####
  22:Drivers/STM32L4xx_HAL_Driver/Src/stm32l4xx_hal.c ****   ==============================================================================
  23:Drivers/STM32L4xx_HAL_Driver/Src/stm32l4xx_hal.c ****     [..]
  24:Drivers/STM32L4xx_HAL_Driver/Src/stm32l4xx_hal.c ****     The common HAL driver contains a set of generic and common APIs that can be
  25:Drivers/STM32L4xx_HAL_Driver/Src/stm32l4xx_hal.c ****     used by the PPP peripheral drivers and the user to start using the HAL.
  26:Drivers/STM32L4xx_HAL_Driver/Src/stm32l4xx_hal.c ****     [..]
  27:Drivers/STM32L4xx_HAL_Driver/Src/stm32l4xx_hal.c ****     The HAL contains two APIs' categories:
  28:Drivers/STM32L4xx_HAL_Driver/Src/stm32l4xx_hal.c ****          (+) Common HAL APIs
  29:Drivers/STM32L4xx_HAL_Driver/Src/stm32l4xx_hal.c ****          (+) Services HAL APIs
ARM GAS  C:\Users\ep_ygh\AppData\Local\Temp\ccULJmwJ.s 			page 2


  30:Drivers/STM32L4xx_HAL_Driver/Src/stm32l4xx_hal.c **** 
  31:Drivers/STM32L4xx_HAL_Driver/Src/stm32l4xx_hal.c ****   @endverbatim
  32:Drivers/STM32L4xx_HAL_Driver/Src/stm32l4xx_hal.c ****   ******************************************************************************
  33:Drivers/STM32L4xx_HAL_Driver/Src/stm32l4xx_hal.c ****   */
  34:Drivers/STM32L4xx_HAL_Driver/Src/stm32l4xx_hal.c **** 
  35:Drivers/STM32L4xx_HAL_Driver/Src/stm32l4xx_hal.c **** /* Includes ------------------------------------------------------------------*/
  36:Drivers/STM32L4xx_HAL_Driver/Src/stm32l4xx_hal.c **** #include "stm32l4xx_hal.h"
  37:Drivers/STM32L4xx_HAL_Driver/Src/stm32l4xx_hal.c **** 
  38:Drivers/STM32L4xx_HAL_Driver/Src/stm32l4xx_hal.c **** /** @addtogroup STM32L4xx_HAL_Driver
  39:Drivers/STM32L4xx_HAL_Driver/Src/stm32l4xx_hal.c ****   * @{
  40:Drivers/STM32L4xx_HAL_Driver/Src/stm32l4xx_hal.c ****   */
  41:Drivers/STM32L4xx_HAL_Driver/Src/stm32l4xx_hal.c **** 
  42:Drivers/STM32L4xx_HAL_Driver/Src/stm32l4xx_hal.c **** /** @defgroup HAL HAL
  43:Drivers/STM32L4xx_HAL_Driver/Src/stm32l4xx_hal.c ****   * @brief HAL module driver
  44:Drivers/STM32L4xx_HAL_Driver/Src/stm32l4xx_hal.c ****   * @{
  45:Drivers/STM32L4xx_HAL_Driver/Src/stm32l4xx_hal.c ****   */
  46:Drivers/STM32L4xx_HAL_Driver/Src/stm32l4xx_hal.c **** 
  47:Drivers/STM32L4xx_HAL_Driver/Src/stm32l4xx_hal.c **** #ifdef HAL_MODULE_ENABLED
  48:Drivers/STM32L4xx_HAL_Driver/Src/stm32l4xx_hal.c **** 
  49:Drivers/STM32L4xx_HAL_Driver/Src/stm32l4xx_hal.c **** /* Private typedef -----------------------------------------------------------*/
  50:Drivers/STM32L4xx_HAL_Driver/Src/stm32l4xx_hal.c **** /* Private define ------------------------------------------------------------*/
  51:Drivers/STM32L4xx_HAL_Driver/Src/stm32l4xx_hal.c **** /**
  52:Drivers/STM32L4xx_HAL_Driver/Src/stm32l4xx_hal.c ****  * @brief STM32L4xx HAL Driver version number
  53:Drivers/STM32L4xx_HAL_Driver/Src/stm32l4xx_hal.c ****    */
  54:Drivers/STM32L4xx_HAL_Driver/Src/stm32l4xx_hal.c **** #define STM32L4XX_HAL_VERSION_MAIN   (0x01U) /*!< [31:24] main version */
  55:Drivers/STM32L4xx_HAL_Driver/Src/stm32l4xx_hal.c **** #define STM32L4XX_HAL_VERSION_SUB1   (0x0DU) /*!< [23:16] sub1 version */
  56:Drivers/STM32L4xx_HAL_Driver/Src/stm32l4xx_hal.c **** #define STM32L4XX_HAL_VERSION_SUB2   (0x04U) /*!< [15:8]  sub2 version */
  57:Drivers/STM32L4xx_HAL_Driver/Src/stm32l4xx_hal.c **** #define STM32L4XX_HAL_VERSION_RC     (0x00U) /*!< [7:0]  release candidate */
  58:Drivers/STM32L4xx_HAL_Driver/Src/stm32l4xx_hal.c **** #define STM32L4XX_HAL_VERSION        ((STM32L4XX_HAL_VERSION_MAIN  << 24U)\
  59:Drivers/STM32L4xx_HAL_Driver/Src/stm32l4xx_hal.c ****                                       |(STM32L4XX_HAL_VERSION_SUB1 << 16U)\
  60:Drivers/STM32L4xx_HAL_Driver/Src/stm32l4xx_hal.c ****                                       |(STM32L4XX_HAL_VERSION_SUB2 << 8U)\
  61:Drivers/STM32L4xx_HAL_Driver/Src/stm32l4xx_hal.c ****                                       |(STM32L4XX_HAL_VERSION_RC))
  62:Drivers/STM32L4xx_HAL_Driver/Src/stm32l4xx_hal.c **** 
  63:Drivers/STM32L4xx_HAL_Driver/Src/stm32l4xx_hal.c **** #if defined(VREFBUF)
  64:Drivers/STM32L4xx_HAL_Driver/Src/stm32l4xx_hal.c **** #define VREFBUF_TIMEOUT_VALUE     10U   /* 10 ms (to be confirmed) */
  65:Drivers/STM32L4xx_HAL_Driver/Src/stm32l4xx_hal.c **** #endif /* VREFBUF */
  66:Drivers/STM32L4xx_HAL_Driver/Src/stm32l4xx_hal.c **** 
  67:Drivers/STM32L4xx_HAL_Driver/Src/stm32l4xx_hal.c **** /* ------------ SYSCFG registers bit address in the alias region ------------ */
  68:Drivers/STM32L4xx_HAL_Driver/Src/stm32l4xx_hal.c **** #define SYSCFG_OFFSET             (SYSCFG_BASE - PERIPH_BASE)
  69:Drivers/STM32L4xx_HAL_Driver/Src/stm32l4xx_hal.c **** /* ---  MEMRMP Register ---*/
  70:Drivers/STM32L4xx_HAL_Driver/Src/stm32l4xx_hal.c **** /* Alias word address of FB_MODE bit */
  71:Drivers/STM32L4xx_HAL_Driver/Src/stm32l4xx_hal.c **** #define MEMRMP_OFFSET             SYSCFG_OFFSET
  72:Drivers/STM32L4xx_HAL_Driver/Src/stm32l4xx_hal.c **** #define FB_MODE_BitNumber         8U
  73:Drivers/STM32L4xx_HAL_Driver/Src/stm32l4xx_hal.c **** #define FB_MODE_BB                (PERIPH_BB_BASE + (MEMRMP_OFFSET * 32U) + (FB_MODE_BitNumber * 4U
  74:Drivers/STM32L4xx_HAL_Driver/Src/stm32l4xx_hal.c **** 
  75:Drivers/STM32L4xx_HAL_Driver/Src/stm32l4xx_hal.c **** /* --- SCSR Register ---*/
  76:Drivers/STM32L4xx_HAL_Driver/Src/stm32l4xx_hal.c **** /* Alias word address of SRAM2ER bit */
  77:Drivers/STM32L4xx_HAL_Driver/Src/stm32l4xx_hal.c **** #define SCSR_OFFSET               (SYSCFG_OFFSET + 0x18U)
  78:Drivers/STM32L4xx_HAL_Driver/Src/stm32l4xx_hal.c **** #define BRER_BitNumber            0U
  79:Drivers/STM32L4xx_HAL_Driver/Src/stm32l4xx_hal.c **** #define SCSR_SRAM2ER_BB           (PERIPH_BB_BASE + (SCSR_OFFSET * 32U) + (BRER_BitNumber * 4U))
  80:Drivers/STM32L4xx_HAL_Driver/Src/stm32l4xx_hal.c **** 
  81:Drivers/STM32L4xx_HAL_Driver/Src/stm32l4xx_hal.c **** /* Private macro -------------------------------------------------------------*/
  82:Drivers/STM32L4xx_HAL_Driver/Src/stm32l4xx_hal.c **** /* Private variables ---------------------------------------------------------*/
  83:Drivers/STM32L4xx_HAL_Driver/Src/stm32l4xx_hal.c **** /* Private function prototypes -----------------------------------------------*/
  84:Drivers/STM32L4xx_HAL_Driver/Src/stm32l4xx_hal.c **** 
  85:Drivers/STM32L4xx_HAL_Driver/Src/stm32l4xx_hal.c **** /* Exported variables --------------------------------------------------------*/
  86:Drivers/STM32L4xx_HAL_Driver/Src/stm32l4xx_hal.c **** 
ARM GAS  C:\Users\ep_ygh\AppData\Local\Temp\ccULJmwJ.s 			page 3


  87:Drivers/STM32L4xx_HAL_Driver/Src/stm32l4xx_hal.c **** /** @defgroup HAL_Exported_Variables HAL Exported Variables
  88:Drivers/STM32L4xx_HAL_Driver/Src/stm32l4xx_hal.c ****   * @{
  89:Drivers/STM32L4xx_HAL_Driver/Src/stm32l4xx_hal.c ****   */
  90:Drivers/STM32L4xx_HAL_Driver/Src/stm32l4xx_hal.c **** __IO uint32_t uwTick;
  91:Drivers/STM32L4xx_HAL_Driver/Src/stm32l4xx_hal.c **** uint32_t uwTickPrio = (1UL << __NVIC_PRIO_BITS); /* Invalid priority */
  92:Drivers/STM32L4xx_HAL_Driver/Src/stm32l4xx_hal.c **** HAL_TickFreqTypeDef uwTickFreq = HAL_TICK_FREQ_DEFAULT;  /* 1KHz */
  93:Drivers/STM32L4xx_HAL_Driver/Src/stm32l4xx_hal.c **** /**
  94:Drivers/STM32L4xx_HAL_Driver/Src/stm32l4xx_hal.c ****   * @}
  95:Drivers/STM32L4xx_HAL_Driver/Src/stm32l4xx_hal.c ****   */
  96:Drivers/STM32L4xx_HAL_Driver/Src/stm32l4xx_hal.c **** 
  97:Drivers/STM32L4xx_HAL_Driver/Src/stm32l4xx_hal.c **** /* Exported functions --------------------------------------------------------*/
  98:Drivers/STM32L4xx_HAL_Driver/Src/stm32l4xx_hal.c **** 
  99:Drivers/STM32L4xx_HAL_Driver/Src/stm32l4xx_hal.c **** /** @defgroup HAL_Exported_Functions HAL Exported Functions
 100:Drivers/STM32L4xx_HAL_Driver/Src/stm32l4xx_hal.c ****   * @{
 101:Drivers/STM32L4xx_HAL_Driver/Src/stm32l4xx_hal.c ****   */
 102:Drivers/STM32L4xx_HAL_Driver/Src/stm32l4xx_hal.c **** 
 103:Drivers/STM32L4xx_HAL_Driver/Src/stm32l4xx_hal.c **** /** @defgroup HAL_Exported_Functions_Group1 Initialization and de-initialization Functions
 104:Drivers/STM32L4xx_HAL_Driver/Src/stm32l4xx_hal.c ****  *  @brief    Initialization and de-initialization functions
 105:Drivers/STM32L4xx_HAL_Driver/Src/stm32l4xx_hal.c ****  *
 106:Drivers/STM32L4xx_HAL_Driver/Src/stm32l4xx_hal.c **** @verbatim
 107:Drivers/STM32L4xx_HAL_Driver/Src/stm32l4xx_hal.c ****  ===============================================================================
 108:Drivers/STM32L4xx_HAL_Driver/Src/stm32l4xx_hal.c ****               ##### Initialization and de-initialization functions #####
 109:Drivers/STM32L4xx_HAL_Driver/Src/stm32l4xx_hal.c ****  ===============================================================================
 110:Drivers/STM32L4xx_HAL_Driver/Src/stm32l4xx_hal.c ****     [..]  This section provides functions allowing to:
 111:Drivers/STM32L4xx_HAL_Driver/Src/stm32l4xx_hal.c ****       (+) Initialize the Flash interface, the NVIC allocation and initial time base
 112:Drivers/STM32L4xx_HAL_Driver/Src/stm32l4xx_hal.c ****           clock configuration.
 113:Drivers/STM32L4xx_HAL_Driver/Src/stm32l4xx_hal.c ****       (+) De-initialize common part of the HAL.
 114:Drivers/STM32L4xx_HAL_Driver/Src/stm32l4xx_hal.c ****       (+) Configure the time base source to have 1ms time base with a dedicated
 115:Drivers/STM32L4xx_HAL_Driver/Src/stm32l4xx_hal.c ****           Tick interrupt priority.
 116:Drivers/STM32L4xx_HAL_Driver/Src/stm32l4xx_hal.c ****         (++) SysTick timer is used by default as source of time base, but user
 117:Drivers/STM32L4xx_HAL_Driver/Src/stm32l4xx_hal.c ****              can eventually implement his proper time base source (a general purpose
 118:Drivers/STM32L4xx_HAL_Driver/Src/stm32l4xx_hal.c ****              timer for example or other time source), keeping in mind that Time base
 119:Drivers/STM32L4xx_HAL_Driver/Src/stm32l4xx_hal.c ****              duration should be kept 1ms since PPP_TIMEOUT_VALUEs are defined and
 120:Drivers/STM32L4xx_HAL_Driver/Src/stm32l4xx_hal.c ****              handled in milliseconds basis.
 121:Drivers/STM32L4xx_HAL_Driver/Src/stm32l4xx_hal.c ****         (++) Time base configuration function (HAL_InitTick ()) is called automatically
 122:Drivers/STM32L4xx_HAL_Driver/Src/stm32l4xx_hal.c ****              at the beginning of the program after reset by HAL_Init() or at any time
 123:Drivers/STM32L4xx_HAL_Driver/Src/stm32l4xx_hal.c ****              when clock is configured, by HAL_RCC_ClockConfig().
 124:Drivers/STM32L4xx_HAL_Driver/Src/stm32l4xx_hal.c ****         (++) Source of time base is configured  to generate interrupts at regular
 125:Drivers/STM32L4xx_HAL_Driver/Src/stm32l4xx_hal.c ****              time intervals. Care must be taken if HAL_Delay() is called from a
 126:Drivers/STM32L4xx_HAL_Driver/Src/stm32l4xx_hal.c ****              peripheral ISR process, the Tick interrupt line must have higher priority
 127:Drivers/STM32L4xx_HAL_Driver/Src/stm32l4xx_hal.c ****             (numerically lower) than the peripheral interrupt. Otherwise the caller
 128:Drivers/STM32L4xx_HAL_Driver/Src/stm32l4xx_hal.c ****             ISR process will be blocked.
 129:Drivers/STM32L4xx_HAL_Driver/Src/stm32l4xx_hal.c ****        (++) functions affecting time base configurations are declared as __weak
 130:Drivers/STM32L4xx_HAL_Driver/Src/stm32l4xx_hal.c ****              to make  override possible  in case of other  implementations in user file.
 131:Drivers/STM32L4xx_HAL_Driver/Src/stm32l4xx_hal.c **** @endverbatim
 132:Drivers/STM32L4xx_HAL_Driver/Src/stm32l4xx_hal.c ****   * @{
 133:Drivers/STM32L4xx_HAL_Driver/Src/stm32l4xx_hal.c ****   */
 134:Drivers/STM32L4xx_HAL_Driver/Src/stm32l4xx_hal.c **** 
 135:Drivers/STM32L4xx_HAL_Driver/Src/stm32l4xx_hal.c **** /**
 136:Drivers/STM32L4xx_HAL_Driver/Src/stm32l4xx_hal.c ****   * @brief  Configure the Flash prefetch, the Instruction and Data caches,
 137:Drivers/STM32L4xx_HAL_Driver/Src/stm32l4xx_hal.c ****   *         the time base source, NVIC and any required global low level hardware
 138:Drivers/STM32L4xx_HAL_Driver/Src/stm32l4xx_hal.c ****   *         by calling the HAL_MspInit() callback function to be optionally defined in user file
 139:Drivers/STM32L4xx_HAL_Driver/Src/stm32l4xx_hal.c ****   *         stm32l4xx_hal_msp.c.
 140:Drivers/STM32L4xx_HAL_Driver/Src/stm32l4xx_hal.c ****   *
 141:Drivers/STM32L4xx_HAL_Driver/Src/stm32l4xx_hal.c ****   * @note   HAL_Init() function is called at the beginning of program after reset and before
 142:Drivers/STM32L4xx_HAL_Driver/Src/stm32l4xx_hal.c ****   *         the clock configuration.
 143:Drivers/STM32L4xx_HAL_Driver/Src/stm32l4xx_hal.c ****   *
ARM GAS  C:\Users\ep_ygh\AppData\Local\Temp\ccULJmwJ.s 			page 4


 144:Drivers/STM32L4xx_HAL_Driver/Src/stm32l4xx_hal.c ****   * @note   In the default implementation the System Timer (Systick) is used as source of time base
 145:Drivers/STM32L4xx_HAL_Driver/Src/stm32l4xx_hal.c ****   *         The Systick configuration is based on MSI clock, as MSI is the clock
 146:Drivers/STM32L4xx_HAL_Driver/Src/stm32l4xx_hal.c ****   *         used after a system Reset and the NVIC configuration is set to Priority group 4.
 147:Drivers/STM32L4xx_HAL_Driver/Src/stm32l4xx_hal.c ****   *         Once done, time base tick starts incrementing: the tick variable counter is incremented
 148:Drivers/STM32L4xx_HAL_Driver/Src/stm32l4xx_hal.c ****   *         each 1ms in the SysTick_Handler() interrupt handler.
 149:Drivers/STM32L4xx_HAL_Driver/Src/stm32l4xx_hal.c ****   *
 150:Drivers/STM32L4xx_HAL_Driver/Src/stm32l4xx_hal.c ****   * @retval HAL status
 151:Drivers/STM32L4xx_HAL_Driver/Src/stm32l4xx_hal.c ****   */
 152:Drivers/STM32L4xx_HAL_Driver/Src/stm32l4xx_hal.c **** HAL_StatusTypeDef HAL_Init(void)
 153:Drivers/STM32L4xx_HAL_Driver/Src/stm32l4xx_hal.c **** {
 154:Drivers/STM32L4xx_HAL_Driver/Src/stm32l4xx_hal.c ****   HAL_StatusTypeDef  status = HAL_OK;
 155:Drivers/STM32L4xx_HAL_Driver/Src/stm32l4xx_hal.c **** 
 156:Drivers/STM32L4xx_HAL_Driver/Src/stm32l4xx_hal.c ****   /* Configure Flash prefetch, Instruction cache, Data cache */
 157:Drivers/STM32L4xx_HAL_Driver/Src/stm32l4xx_hal.c ****   /* Default configuration at reset is:                      */
 158:Drivers/STM32L4xx_HAL_Driver/Src/stm32l4xx_hal.c ****   /* - Prefetch disabled                                     */
 159:Drivers/STM32L4xx_HAL_Driver/Src/stm32l4xx_hal.c ****   /* - Instruction cache enabled                             */
 160:Drivers/STM32L4xx_HAL_Driver/Src/stm32l4xx_hal.c ****   /* - Data cache enabled                                    */
 161:Drivers/STM32L4xx_HAL_Driver/Src/stm32l4xx_hal.c **** #if (INSTRUCTION_CACHE_ENABLE == 0)
 162:Drivers/STM32L4xx_HAL_Driver/Src/stm32l4xx_hal.c ****    __HAL_FLASH_INSTRUCTION_CACHE_DISABLE();
 163:Drivers/STM32L4xx_HAL_Driver/Src/stm32l4xx_hal.c **** #endif /* INSTRUCTION_CACHE_ENABLE */
 164:Drivers/STM32L4xx_HAL_Driver/Src/stm32l4xx_hal.c **** 
 165:Drivers/STM32L4xx_HAL_Driver/Src/stm32l4xx_hal.c **** #if (DATA_CACHE_ENABLE == 0)
 166:Drivers/STM32L4xx_HAL_Driver/Src/stm32l4xx_hal.c ****    __HAL_FLASH_DATA_CACHE_DISABLE();
 167:Drivers/STM32L4xx_HAL_Driver/Src/stm32l4xx_hal.c **** #endif /* DATA_CACHE_ENABLE */
 168:Drivers/STM32L4xx_HAL_Driver/Src/stm32l4xx_hal.c **** 
 169:Drivers/STM32L4xx_HAL_Driver/Src/stm32l4xx_hal.c **** #if (PREFETCH_ENABLE != 0)
 170:Drivers/STM32L4xx_HAL_Driver/Src/stm32l4xx_hal.c ****   __HAL_FLASH_PREFETCH_BUFFER_ENABLE();
 171:Drivers/STM32L4xx_HAL_Driver/Src/stm32l4xx_hal.c **** #endif /* PREFETCH_ENABLE */
 172:Drivers/STM32L4xx_HAL_Driver/Src/stm32l4xx_hal.c **** 
 173:Drivers/STM32L4xx_HAL_Driver/Src/stm32l4xx_hal.c ****   /* Set Interrupt Group Priority */
 174:Drivers/STM32L4xx_HAL_Driver/Src/stm32l4xx_hal.c ****   HAL_NVIC_SetPriorityGrouping(NVIC_PRIORITYGROUP_4);
 175:Drivers/STM32L4xx_HAL_Driver/Src/stm32l4xx_hal.c **** 
 176:Drivers/STM32L4xx_HAL_Driver/Src/stm32l4xx_hal.c ****   /* Use SysTick as time base source and configure 1ms tick (default clock after Reset is MSI) */
 177:Drivers/STM32L4xx_HAL_Driver/Src/stm32l4xx_hal.c ****   if (HAL_InitTick(TICK_INT_PRIORITY) != HAL_OK)
 178:Drivers/STM32L4xx_HAL_Driver/Src/stm32l4xx_hal.c ****   {
 179:Drivers/STM32L4xx_HAL_Driver/Src/stm32l4xx_hal.c ****     status = HAL_ERROR;
 180:Drivers/STM32L4xx_HAL_Driver/Src/stm32l4xx_hal.c ****   }
 181:Drivers/STM32L4xx_HAL_Driver/Src/stm32l4xx_hal.c ****   else
 182:Drivers/STM32L4xx_HAL_Driver/Src/stm32l4xx_hal.c ****   {
 183:Drivers/STM32L4xx_HAL_Driver/Src/stm32l4xx_hal.c ****     /* Init the low level hardware */
 184:Drivers/STM32L4xx_HAL_Driver/Src/stm32l4xx_hal.c ****     HAL_MspInit();
 185:Drivers/STM32L4xx_HAL_Driver/Src/stm32l4xx_hal.c ****   }
 186:Drivers/STM32L4xx_HAL_Driver/Src/stm32l4xx_hal.c **** 
 187:Drivers/STM32L4xx_HAL_Driver/Src/stm32l4xx_hal.c ****   /* Return function status */
 188:Drivers/STM32L4xx_HAL_Driver/Src/stm32l4xx_hal.c ****   return status;
 189:Drivers/STM32L4xx_HAL_Driver/Src/stm32l4xx_hal.c **** }
 190:Drivers/STM32L4xx_HAL_Driver/Src/stm32l4xx_hal.c **** 
 191:Drivers/STM32L4xx_HAL_Driver/Src/stm32l4xx_hal.c **** /**
 192:Drivers/STM32L4xx_HAL_Driver/Src/stm32l4xx_hal.c ****   * @brief De-initialize common part of the HAL and stop the source of time base.
 193:Drivers/STM32L4xx_HAL_Driver/Src/stm32l4xx_hal.c ****   * @note This function is optional.
 194:Drivers/STM32L4xx_HAL_Driver/Src/stm32l4xx_hal.c ****   * @retval HAL status
 195:Drivers/STM32L4xx_HAL_Driver/Src/stm32l4xx_hal.c ****   */
 196:Drivers/STM32L4xx_HAL_Driver/Src/stm32l4xx_hal.c **** HAL_StatusTypeDef HAL_DeInit(void)
 197:Drivers/STM32L4xx_HAL_Driver/Src/stm32l4xx_hal.c **** {
 198:Drivers/STM32L4xx_HAL_Driver/Src/stm32l4xx_hal.c ****   /* Reset of all peripherals */
 199:Drivers/STM32L4xx_HAL_Driver/Src/stm32l4xx_hal.c ****   __HAL_RCC_APB1_FORCE_RESET();
 200:Drivers/STM32L4xx_HAL_Driver/Src/stm32l4xx_hal.c ****   __HAL_RCC_APB1_RELEASE_RESET();
ARM GAS  C:\Users\ep_ygh\AppData\Local\Temp\ccULJmwJ.s 			page 5


 201:Drivers/STM32L4xx_HAL_Driver/Src/stm32l4xx_hal.c **** 
 202:Drivers/STM32L4xx_HAL_Driver/Src/stm32l4xx_hal.c ****   __HAL_RCC_APB2_FORCE_RESET();
 203:Drivers/STM32L4xx_HAL_Driver/Src/stm32l4xx_hal.c ****   __HAL_RCC_APB2_RELEASE_RESET();
 204:Drivers/STM32L4xx_HAL_Driver/Src/stm32l4xx_hal.c **** 
 205:Drivers/STM32L4xx_HAL_Driver/Src/stm32l4xx_hal.c ****   __HAL_RCC_AHB1_FORCE_RESET();
 206:Drivers/STM32L4xx_HAL_Driver/Src/stm32l4xx_hal.c ****   __HAL_RCC_AHB1_RELEASE_RESET();
 207:Drivers/STM32L4xx_HAL_Driver/Src/stm32l4xx_hal.c **** 
 208:Drivers/STM32L4xx_HAL_Driver/Src/stm32l4xx_hal.c ****   __HAL_RCC_AHB2_FORCE_RESET();
 209:Drivers/STM32L4xx_HAL_Driver/Src/stm32l4xx_hal.c ****   __HAL_RCC_AHB2_RELEASE_RESET();
 210:Drivers/STM32L4xx_HAL_Driver/Src/stm32l4xx_hal.c **** 
 211:Drivers/STM32L4xx_HAL_Driver/Src/stm32l4xx_hal.c ****   __HAL_RCC_AHB3_FORCE_RESET();
 212:Drivers/STM32L4xx_HAL_Driver/Src/stm32l4xx_hal.c ****   __HAL_RCC_AHB3_RELEASE_RESET();
 213:Drivers/STM32L4xx_HAL_Driver/Src/stm32l4xx_hal.c **** 
 214:Drivers/STM32L4xx_HAL_Driver/Src/stm32l4xx_hal.c ****   /* De-Init the low level hardware */
 215:Drivers/STM32L4xx_HAL_Driver/Src/stm32l4xx_hal.c ****   HAL_MspDeInit();
 216:Drivers/STM32L4xx_HAL_Driver/Src/stm32l4xx_hal.c **** 
 217:Drivers/STM32L4xx_HAL_Driver/Src/stm32l4xx_hal.c ****   /* Return function status */
 218:Drivers/STM32L4xx_HAL_Driver/Src/stm32l4xx_hal.c ****   return HAL_OK;
 219:Drivers/STM32L4xx_HAL_Driver/Src/stm32l4xx_hal.c **** }
 220:Drivers/STM32L4xx_HAL_Driver/Src/stm32l4xx_hal.c **** 
 221:Drivers/STM32L4xx_HAL_Driver/Src/stm32l4xx_hal.c **** /**
 222:Drivers/STM32L4xx_HAL_Driver/Src/stm32l4xx_hal.c ****   * @brief  Initialize the MSP.
 223:Drivers/STM32L4xx_HAL_Driver/Src/stm32l4xx_hal.c ****   * @retval None
 224:Drivers/STM32L4xx_HAL_Driver/Src/stm32l4xx_hal.c ****   */
 225:Drivers/STM32L4xx_HAL_Driver/Src/stm32l4xx_hal.c **** __weak void HAL_MspInit(void)
 226:Drivers/STM32L4xx_HAL_Driver/Src/stm32l4xx_hal.c **** {
  30              		.loc 1 226 1 view -0
  31              		.cfi_startproc
  32              		@ args = 0, pretend = 0, frame = 0
  33              		@ frame_needed = 0, uses_anonymous_args = 0
  34              		@ link register save eliminated.
 227:Drivers/STM32L4xx_HAL_Driver/Src/stm32l4xx_hal.c ****   /* NOTE : This function should not be modified, when the callback is needed,
 228:Drivers/STM32L4xx_HAL_Driver/Src/stm32l4xx_hal.c ****             the HAL_MspInit could be implemented in the user file
 229:Drivers/STM32L4xx_HAL_Driver/Src/stm32l4xx_hal.c ****    */
 230:Drivers/STM32L4xx_HAL_Driver/Src/stm32l4xx_hal.c **** }
  35              		.loc 1 230 1 view .LVU1
  36 0000 7047     		bx	lr
  37              		.cfi_endproc
  38              	.LFE319:
  40 0002 00BF     		.section	.text.HAL_MspDeInit,"ax",%progbits
  41              		.align	1
  42              		.p2align 2,,3
  43              		.weak	HAL_MspDeInit
  44              		.syntax unified
  45              		.thumb
  46              		.thumb_func
  48              	HAL_MspDeInit:
  49              	.LFB354:
  50              		.cfi_startproc
  51              		@ args = 0, pretend = 0, frame = 0
  52              		@ frame_needed = 0, uses_anonymous_args = 0
  53              		@ link register save eliminated.
  54 0000 7047     		bx	lr
  55              		.cfi_endproc
  56              	.LFE354:
  58 0002 00BF     		.section	.text.HAL_DeInit,"ax",%progbits
  59              		.align	1
ARM GAS  C:\Users\ep_ygh\AppData\Local\Temp\ccULJmwJ.s 			page 6


  60              		.p2align 2,,3
  61              		.global	HAL_DeInit
  62              		.syntax unified
  63              		.thumb
  64              		.thumb_func
  66              	HAL_DeInit:
  67              	.LFB318:
 197:Drivers/STM32L4xx_HAL_Driver/Src/stm32l4xx_hal.c ****   /* Reset of all peripherals */
  68              		.loc 1 197 1 view -0
  69              		.cfi_startproc
  70              		@ args = 0, pretend = 0, frame = 0
  71              		@ frame_needed = 0, uses_anonymous_args = 0
 199:Drivers/STM32L4xx_HAL_Driver/Src/stm32l4xx_hal.c ****   __HAL_RCC_APB1_RELEASE_RESET();
  72              		.loc 1 199 3 view .LVU3
 199:Drivers/STM32L4xx_HAL_Driver/Src/stm32l4xx_hal.c ****   __HAL_RCC_APB1_RELEASE_RESET();
  73              		.loc 1 199 3 view .LVU4
 197:Drivers/STM32L4xx_HAL_Driver/Src/stm32l4xx_hal.c ****   /* Reset of all peripherals */
  74              		.loc 1 197 1 is_stmt 0 view .LVU5
  75 0000 10B5     		push	{r4, lr}
  76              	.LCFI0:
  77              		.cfi_def_cfa_offset 8
  78              		.cfi_offset 4, -8
  79              		.cfi_offset 14, -4
 199:Drivers/STM32L4xx_HAL_Driver/Src/stm32l4xx_hal.c ****   __HAL_RCC_APB1_RELEASE_RESET();
  80              		.loc 1 199 3 view .LVU6
  81 0002 0A4B     		ldr	r3, .L6
 200:Drivers/STM32L4xx_HAL_Driver/Src/stm32l4xx_hal.c **** 
  82              		.loc 1 200 3 view .LVU7
  83 0004 0024     		movs	r4, #0
 199:Drivers/STM32L4xx_HAL_Driver/Src/stm32l4xx_hal.c ****   __HAL_RCC_APB1_RELEASE_RESET();
  84              		.loc 1 199 3 view .LVU8
  85 0006 4FF0FF32 		mov	r2, #-1
  86 000a 9A63     		str	r2, [r3, #56]
 199:Drivers/STM32L4xx_HAL_Driver/Src/stm32l4xx_hal.c ****   __HAL_RCC_APB1_RELEASE_RESET();
  87              		.loc 1 199 3 is_stmt 1 view .LVU9
  88 000c DA63     		str	r2, [r3, #60]
 199:Drivers/STM32L4xx_HAL_Driver/Src/stm32l4xx_hal.c ****   __HAL_RCC_APB1_RELEASE_RESET();
  89              		.loc 1 199 3 view .LVU10
 200:Drivers/STM32L4xx_HAL_Driver/Src/stm32l4xx_hal.c **** 
  90              		.loc 1 200 3 view .LVU11
 200:Drivers/STM32L4xx_HAL_Driver/Src/stm32l4xx_hal.c **** 
  91              		.loc 1 200 3 view .LVU12
  92 000e 9C63     		str	r4, [r3, #56]
 200:Drivers/STM32L4xx_HAL_Driver/Src/stm32l4xx_hal.c **** 
  93              		.loc 1 200 3 view .LVU13
  94 0010 DC63     		str	r4, [r3, #60]
 200:Drivers/STM32L4xx_HAL_Driver/Src/stm32l4xx_hal.c **** 
  95              		.loc 1 200 3 view .LVU14
 202:Drivers/STM32L4xx_HAL_Driver/Src/stm32l4xx_hal.c ****   __HAL_RCC_APB2_RELEASE_RESET();
  96              		.loc 1 202 3 view .LVU15
  97 0012 1A64     		str	r2, [r3, #64]
 203:Drivers/STM32L4xx_HAL_Driver/Src/stm32l4xx_hal.c **** 
  98              		.loc 1 203 3 view .LVU16
  99 0014 1C64     		str	r4, [r3, #64]
 205:Drivers/STM32L4xx_HAL_Driver/Src/stm32l4xx_hal.c ****   __HAL_RCC_AHB1_RELEASE_RESET();
 100              		.loc 1 205 3 view .LVU17
 101 0016 9A62     		str	r2, [r3, #40]
ARM GAS  C:\Users\ep_ygh\AppData\Local\Temp\ccULJmwJ.s 			page 7


 206:Drivers/STM32L4xx_HAL_Driver/Src/stm32l4xx_hal.c **** 
 102              		.loc 1 206 3 view .LVU18
 103 0018 9C62     		str	r4, [r3, #40]
 208:Drivers/STM32L4xx_HAL_Driver/Src/stm32l4xx_hal.c ****   __HAL_RCC_AHB2_RELEASE_RESET();
 104              		.loc 1 208 3 view .LVU19
 105 001a DA62     		str	r2, [r3, #44]
 209:Drivers/STM32L4xx_HAL_Driver/Src/stm32l4xx_hal.c **** 
 106              		.loc 1 209 3 view .LVU20
 107 001c DC62     		str	r4, [r3, #44]
 211:Drivers/STM32L4xx_HAL_Driver/Src/stm32l4xx_hal.c ****   __HAL_RCC_AHB3_RELEASE_RESET();
 108              		.loc 1 211 3 view .LVU21
 109 001e 1A63     		str	r2, [r3, #48]
 212:Drivers/STM32L4xx_HAL_Driver/Src/stm32l4xx_hal.c **** 
 110              		.loc 1 212 3 view .LVU22
 111 0020 1C63     		str	r4, [r3, #48]
 215:Drivers/STM32L4xx_HAL_Driver/Src/stm32l4xx_hal.c **** 
 112              		.loc 1 215 3 view .LVU23
 113 0022 FFF7FEFF 		bl	HAL_MspDeInit
 114              	.LVL0:
 218:Drivers/STM32L4xx_HAL_Driver/Src/stm32l4xx_hal.c **** }
 115              		.loc 1 218 3 view .LVU24
 219:Drivers/STM32L4xx_HAL_Driver/Src/stm32l4xx_hal.c **** 
 116              		.loc 1 219 1 is_stmt 0 view .LVU25
 117 0026 2046     		mov	r0, r4
 118 0028 10BD     		pop	{r4, pc}
 119              	.L7:
 120 002a 00BF     		.align	2
 121              	.L6:
 122 002c 00100240 		.word	1073876992
 123              		.cfi_endproc
 124              	.LFE318:
 126              		.section	.text.HAL_InitTick,"ax",%progbits
 127              		.align	1
 128              		.p2align 2,,3
 129              		.weak	HAL_InitTick
 130              		.syntax unified
 131              		.thumb
 132              		.thumb_func
 134              	HAL_InitTick:
 135              	.LVL1:
 136              	.LFB321:
 231:Drivers/STM32L4xx_HAL_Driver/Src/stm32l4xx_hal.c **** 
 232:Drivers/STM32L4xx_HAL_Driver/Src/stm32l4xx_hal.c **** /**
 233:Drivers/STM32L4xx_HAL_Driver/Src/stm32l4xx_hal.c ****   * @brief  DeInitialize the MSP.
 234:Drivers/STM32L4xx_HAL_Driver/Src/stm32l4xx_hal.c ****   * @retval None
 235:Drivers/STM32L4xx_HAL_Driver/Src/stm32l4xx_hal.c ****   */
 236:Drivers/STM32L4xx_HAL_Driver/Src/stm32l4xx_hal.c **** __weak void HAL_MspDeInit(void)
 237:Drivers/STM32L4xx_HAL_Driver/Src/stm32l4xx_hal.c **** {
 238:Drivers/STM32L4xx_HAL_Driver/Src/stm32l4xx_hal.c ****   /* NOTE : This function should not be modified, when the callback is needed,
 239:Drivers/STM32L4xx_HAL_Driver/Src/stm32l4xx_hal.c ****             the HAL_MspDeInit could be implemented in the user file
 240:Drivers/STM32L4xx_HAL_Driver/Src/stm32l4xx_hal.c ****    */
 241:Drivers/STM32L4xx_HAL_Driver/Src/stm32l4xx_hal.c **** }
 242:Drivers/STM32L4xx_HAL_Driver/Src/stm32l4xx_hal.c **** 
 243:Drivers/STM32L4xx_HAL_Driver/Src/stm32l4xx_hal.c **** /**
 244:Drivers/STM32L4xx_HAL_Driver/Src/stm32l4xx_hal.c ****   * @brief This function configures the source of the time base:
 245:Drivers/STM32L4xx_HAL_Driver/Src/stm32l4xx_hal.c ****   *        The time source is configured to have 1ms time base with a dedicated
 246:Drivers/STM32L4xx_HAL_Driver/Src/stm32l4xx_hal.c ****   *        Tick interrupt priority.
ARM GAS  C:\Users\ep_ygh\AppData\Local\Temp\ccULJmwJ.s 			page 8


 247:Drivers/STM32L4xx_HAL_Driver/Src/stm32l4xx_hal.c ****   * @note This function is called  automatically at the beginning of program after
 248:Drivers/STM32L4xx_HAL_Driver/Src/stm32l4xx_hal.c ****   *       reset by HAL_Init() or at any time when clock is reconfigured  by HAL_RCC_ClockConfig().
 249:Drivers/STM32L4xx_HAL_Driver/Src/stm32l4xx_hal.c ****   * @note In the default implementation, SysTick timer is the source of time base.
 250:Drivers/STM32L4xx_HAL_Driver/Src/stm32l4xx_hal.c ****   *       It is used to generate interrupts at regular time intervals.
 251:Drivers/STM32L4xx_HAL_Driver/Src/stm32l4xx_hal.c ****   *       Care must be taken if HAL_Delay() is called from a peripheral ISR process,
 252:Drivers/STM32L4xx_HAL_Driver/Src/stm32l4xx_hal.c ****   *       The SysTick interrupt must have higher priority (numerically lower)
 253:Drivers/STM32L4xx_HAL_Driver/Src/stm32l4xx_hal.c ****   *       than the peripheral interrupt. Otherwise the caller ISR process will be blocked.
 254:Drivers/STM32L4xx_HAL_Driver/Src/stm32l4xx_hal.c ****   *       The function is declared as __weak  to be overwritten  in case of other
 255:Drivers/STM32L4xx_HAL_Driver/Src/stm32l4xx_hal.c ****   *       implementation  in user file.
 256:Drivers/STM32L4xx_HAL_Driver/Src/stm32l4xx_hal.c ****   * @param TickPriority  Tick interrupt priority.
 257:Drivers/STM32L4xx_HAL_Driver/Src/stm32l4xx_hal.c ****   * @retval HAL status
 258:Drivers/STM32L4xx_HAL_Driver/Src/stm32l4xx_hal.c ****   */
 259:Drivers/STM32L4xx_HAL_Driver/Src/stm32l4xx_hal.c **** __weak HAL_StatusTypeDef HAL_InitTick(uint32_t TickPriority)
 260:Drivers/STM32L4xx_HAL_Driver/Src/stm32l4xx_hal.c **** {
 137              		.loc 1 260 1 is_stmt 1 view -0
 138              		.cfi_startproc
 139              		@ args = 0, pretend = 0, frame = 0
 140              		@ frame_needed = 0, uses_anonymous_args = 0
 261:Drivers/STM32L4xx_HAL_Driver/Src/stm32l4xx_hal.c ****   HAL_StatusTypeDef  status = HAL_OK;
 141              		.loc 1 261 3 view .LVU27
 262:Drivers/STM32L4xx_HAL_Driver/Src/stm32l4xx_hal.c **** 
 263:Drivers/STM32L4xx_HAL_Driver/Src/stm32l4xx_hal.c ****   /* Check uwTickFreq for MisraC 2012 (even if uwTickFreq is a enum type that doesn't take the valu
 264:Drivers/STM32L4xx_HAL_Driver/Src/stm32l4xx_hal.c ****   if ((uint32_t)uwTickFreq != 0U)
 142              		.loc 1 264 3 view .LVU28
 260:Drivers/STM32L4xx_HAL_Driver/Src/stm32l4xx_hal.c ****   HAL_StatusTypeDef  status = HAL_OK;
 143              		.loc 1 260 1 is_stmt 0 view .LVU29
 144 0000 38B5     		push	{r3, r4, r5, lr}
 145              	.LCFI1:
 146              		.cfi_def_cfa_offset 16
 147              		.cfi_offset 3, -16
 148              		.cfi_offset 4, -12
 149              		.cfi_offset 5, -8
 150              		.cfi_offset 14, -4
 151              		.loc 1 264 28 view .LVU30
 152 0002 0F4B     		ldr	r3, .L13
 153 0004 1B78     		ldrb	r3, [r3]	@ zero_extendqisi2
 154              		.loc 1 264 6 view .LVU31
 155 0006 0BB9     		cbnz	r3, .L9
 156              	.LVL2:
 157              	.L11:
 265:Drivers/STM32L4xx_HAL_Driver/Src/stm32l4xx_hal.c ****   {
 266:Drivers/STM32L4xx_HAL_Driver/Src/stm32l4xx_hal.c ****     /*Configure the SysTick to have interrupt in 1ms time basis*/
 267:Drivers/STM32L4xx_HAL_Driver/Src/stm32l4xx_hal.c ****     if (HAL_SYSTICK_Config(SystemCoreClock / (1000U / (uint32_t)uwTickFreq)) == 0U)
 268:Drivers/STM32L4xx_HAL_Driver/Src/stm32l4xx_hal.c ****     {
 269:Drivers/STM32L4xx_HAL_Driver/Src/stm32l4xx_hal.c ****       /* Configure the SysTick IRQ priority */
 270:Drivers/STM32L4xx_HAL_Driver/Src/stm32l4xx_hal.c ****       if (TickPriority < (1UL << __NVIC_PRIO_BITS))
 271:Drivers/STM32L4xx_HAL_Driver/Src/stm32l4xx_hal.c ****       {
 272:Drivers/STM32L4xx_HAL_Driver/Src/stm32l4xx_hal.c ****         HAL_NVIC_SetPriority(SysTick_IRQn, TickPriority, 0U);
 273:Drivers/STM32L4xx_HAL_Driver/Src/stm32l4xx_hal.c ****         uwTickPrio = TickPriority;
 274:Drivers/STM32L4xx_HAL_Driver/Src/stm32l4xx_hal.c ****       }
 275:Drivers/STM32L4xx_HAL_Driver/Src/stm32l4xx_hal.c ****       else
 276:Drivers/STM32L4xx_HAL_Driver/Src/stm32l4xx_hal.c ****       {
 277:Drivers/STM32L4xx_HAL_Driver/Src/stm32l4xx_hal.c ****         status = HAL_ERROR;
 278:Drivers/STM32L4xx_HAL_Driver/Src/stm32l4xx_hal.c ****       }
 279:Drivers/STM32L4xx_HAL_Driver/Src/stm32l4xx_hal.c ****     }
 280:Drivers/STM32L4xx_HAL_Driver/Src/stm32l4xx_hal.c ****     else
 281:Drivers/STM32L4xx_HAL_Driver/Src/stm32l4xx_hal.c ****     {
ARM GAS  C:\Users\ep_ygh\AppData\Local\Temp\ccULJmwJ.s 			page 9


 282:Drivers/STM32L4xx_HAL_Driver/Src/stm32l4xx_hal.c ****       status = HAL_ERROR;
 283:Drivers/STM32L4xx_HAL_Driver/Src/stm32l4xx_hal.c ****     }
 284:Drivers/STM32L4xx_HAL_Driver/Src/stm32l4xx_hal.c ****   }
 285:Drivers/STM32L4xx_HAL_Driver/Src/stm32l4xx_hal.c ****   else
 286:Drivers/STM32L4xx_HAL_Driver/Src/stm32l4xx_hal.c ****   {
 287:Drivers/STM32L4xx_HAL_Driver/Src/stm32l4xx_hal.c ****     status = HAL_ERROR;
 158              		.loc 1 287 12 view .LVU32
 159 0008 0120     		movs	r0, #1
 160              	.LVL3:
 288:Drivers/STM32L4xx_HAL_Driver/Src/stm32l4xx_hal.c ****   }
 289:Drivers/STM32L4xx_HAL_Driver/Src/stm32l4xx_hal.c **** 
 290:Drivers/STM32L4xx_HAL_Driver/Src/stm32l4xx_hal.c ****   /* Return function status */
 291:Drivers/STM32L4xx_HAL_Driver/Src/stm32l4xx_hal.c ****   return status;
 161              		.loc 1 291 3 is_stmt 1 view .LVU33
 292:Drivers/STM32L4xx_HAL_Driver/Src/stm32l4xx_hal.c **** }
 162              		.loc 1 292 1 is_stmt 0 view .LVU34
 163 000a 38BD     		pop	{r3, r4, r5, pc}
 164              	.LVL4:
 165              	.L9:
 267:Drivers/STM32L4xx_HAL_Driver/Src/stm32l4xx_hal.c ****     {
 166              		.loc 1 267 5 is_stmt 1 view .LVU35
 267:Drivers/STM32L4xx_HAL_Driver/Src/stm32l4xx_hal.c ****     {
 167              		.loc 1 267 9 is_stmt 0 view .LVU36
 168 000c 0D49     		ldr	r1, .L13+4
 267:Drivers/STM32L4xx_HAL_Driver/Src/stm32l4xx_hal.c ****     {
 169              		.loc 1 267 53 view .LVU37
 170 000e 4FF47A72 		mov	r2, #1000
 171 0012 0546     		mov	r5, r0
 172 0014 B2FBF3F3 		udiv	r3, r2, r3
 267:Drivers/STM32L4xx_HAL_Driver/Src/stm32l4xx_hal.c ****     {
 173              		.loc 1 267 9 view .LVU38
 174 0018 0868     		ldr	r0, [r1]
 175              	.LVL5:
 267:Drivers/STM32L4xx_HAL_Driver/Src/stm32l4xx_hal.c ****     {
 176              		.loc 1 267 9 view .LVU39
 177 001a B0FBF3F0 		udiv	r0, r0, r3
 178 001e FFF7FEFF 		bl	HAL_SYSTICK_Config
 179              	.LVL6:
 267:Drivers/STM32L4xx_HAL_Driver/Src/stm32l4xx_hal.c ****     {
 180              		.loc 1 267 8 view .LVU40
 181 0022 0446     		mov	r4, r0
 182 0024 0028     		cmp	r0, #0
 183 0026 EFD1     		bne	.L11
 270:Drivers/STM32L4xx_HAL_Driver/Src/stm32l4xx_hal.c ****       {
 184              		.loc 1 270 7 is_stmt 1 view .LVU41
 270:Drivers/STM32L4xx_HAL_Driver/Src/stm32l4xx_hal.c ****       {
 185              		.loc 1 270 10 is_stmt 0 view .LVU42
 186 0028 0F2D     		cmp	r5, #15
 187 002a EDD8     		bhi	.L11
 188              	.LVL7:
 189              	.LBB4:
 190              	.LBI4:
 259:Drivers/STM32L4xx_HAL_Driver/Src/stm32l4xx_hal.c **** {
 191              		.loc 1 259 26 is_stmt 1 view .LVU43
 192              	.LBB5:
 272:Drivers/STM32L4xx_HAL_Driver/Src/stm32l4xx_hal.c ****         uwTickPrio = TickPriority;
 193              		.loc 1 272 9 view .LVU44
ARM GAS  C:\Users\ep_ygh\AppData\Local\Temp\ccULJmwJ.s 			page 10


 194 002c 0246     		mov	r2, r0
 195 002e 2946     		mov	r1, r5
 196 0030 4FF0FF30 		mov	r0, #-1
 197 0034 FFF7FEFF 		bl	HAL_NVIC_SetPriority
 198              	.LVL8:
 273:Drivers/STM32L4xx_HAL_Driver/Src/stm32l4xx_hal.c ****       }
 199              		.loc 1 273 9 view .LVU45
 273:Drivers/STM32L4xx_HAL_Driver/Src/stm32l4xx_hal.c ****       }
 200              		.loc 1 273 20 is_stmt 0 view .LVU46
 201 0038 034B     		ldr	r3, .L13+8
 202 003a 2046     		mov	r0, r4
 203 003c 1D60     		str	r5, [r3]
 204              	.LVL9:
 291:Drivers/STM32L4xx_HAL_Driver/Src/stm32l4xx_hal.c **** }
 205              		.loc 1 291 3 is_stmt 1 view .LVU47
 291:Drivers/STM32L4xx_HAL_Driver/Src/stm32l4xx_hal.c **** }
 206              		.loc 1 291 3 is_stmt 0 view .LVU48
 207              	.LBE5:
 208              	.LBE4:
 291:Drivers/STM32L4xx_HAL_Driver/Src/stm32l4xx_hal.c **** }
 209              		.loc 1 291 3 is_stmt 1 view .LVU49
 210              		.loc 1 292 1 is_stmt 0 view .LVU50
 211 003e 38BD     		pop	{r3, r4, r5, pc}
 212              	.LVL10:
 213              	.L14:
 214              		.loc 1 292 1 view .LVU51
 215              		.align	2
 216              	.L13:
 217 0040 00000000 		.word	.LANCHOR0
 218 0044 00000000 		.word	SystemCoreClock
 219 0048 00000000 		.word	.LANCHOR1
 220              		.cfi_endproc
 221              	.LFE321:
 223              		.section	.text.HAL_Init,"ax",%progbits
 224              		.align	1
 225              		.p2align 2,,3
 226              		.global	HAL_Init
 227              		.syntax unified
 228              		.thumb
 229              		.thumb_func
 231              	HAL_Init:
 232              	.LFB317:
 153:Drivers/STM32L4xx_HAL_Driver/Src/stm32l4xx_hal.c ****   HAL_StatusTypeDef  status = HAL_OK;
 233              		.loc 1 153 1 is_stmt 1 view -0
 234              		.cfi_startproc
 235              		@ args = 0, pretend = 0, frame = 0
 236              		@ frame_needed = 0, uses_anonymous_args = 0
 154:Drivers/STM32L4xx_HAL_Driver/Src/stm32l4xx_hal.c **** 
 237              		.loc 1 154 3 view .LVU53
 238              	.LVL11:
 170:Drivers/STM32L4xx_HAL_Driver/Src/stm32l4xx_hal.c **** #endif /* PREFETCH_ENABLE */
 239              		.loc 1 170 3 view .LVU54
 240 0000 0A4A     		ldr	r2, .L20
 241 0002 1368     		ldr	r3, [r2]
 242 0004 43F48073 		orr	r3, r3, #256
 153:Drivers/STM32L4xx_HAL_Driver/Src/stm32l4xx_hal.c ****   HAL_StatusTypeDef  status = HAL_OK;
 243              		.loc 1 153 1 is_stmt 0 view .LVU55
ARM GAS  C:\Users\ep_ygh\AppData\Local\Temp\ccULJmwJ.s 			page 11


 244 0008 10B5     		push	{r4, lr}
 245              	.LCFI2:
 246              		.cfi_def_cfa_offset 8
 247              		.cfi_offset 4, -8
 248              		.cfi_offset 14, -4
 174:Drivers/STM32L4xx_HAL_Driver/Src/stm32l4xx_hal.c **** 
 249              		.loc 1 174 3 view .LVU56
 250 000a 0320     		movs	r0, #3
 170:Drivers/STM32L4xx_HAL_Driver/Src/stm32l4xx_hal.c **** #endif /* PREFETCH_ENABLE */
 251              		.loc 1 170 3 view .LVU57
 252 000c 1360     		str	r3, [r2]
 174:Drivers/STM32L4xx_HAL_Driver/Src/stm32l4xx_hal.c **** 
 253              		.loc 1 174 3 is_stmt 1 view .LVU58
 254 000e FFF7FEFF 		bl	HAL_NVIC_SetPriorityGrouping
 255              	.LVL12:
 177:Drivers/STM32L4xx_HAL_Driver/Src/stm32l4xx_hal.c ****   {
 256              		.loc 1 177 3 view .LVU59
 177:Drivers/STM32L4xx_HAL_Driver/Src/stm32l4xx_hal.c ****   {
 257              		.loc 1 177 7 is_stmt 0 view .LVU60
 258 0012 0020     		movs	r0, #0
 259 0014 FFF7FEFF 		bl	HAL_InitTick
 260              	.LVL13:
 177:Drivers/STM32L4xx_HAL_Driver/Src/stm32l4xx_hal.c ****   {
 261              		.loc 1 177 6 view .LVU61
 262 0018 10B1     		cbz	r0, .L19
 179:Drivers/STM32L4xx_HAL_Driver/Src/stm32l4xx_hal.c ****   }
 263              		.loc 1 179 12 view .LVU62
 264 001a 0124     		movs	r4, #1
 265              	.LVL14:
 188:Drivers/STM32L4xx_HAL_Driver/Src/stm32l4xx_hal.c **** }
 266              		.loc 1 188 3 is_stmt 1 view .LVU63
 189:Drivers/STM32L4xx_HAL_Driver/Src/stm32l4xx_hal.c **** 
 267              		.loc 1 189 1 is_stmt 0 view .LVU64
 268 001c 2046     		mov	r0, r4
 269 001e 10BD     		pop	{r4, pc}
 270              	.LVL15:
 271              	.L19:
 189:Drivers/STM32L4xx_HAL_Driver/Src/stm32l4xx_hal.c **** 
 272              		.loc 1 189 1 view .LVU65
 273 0020 0446     		mov	r4, r0
 184:Drivers/STM32L4xx_HAL_Driver/Src/stm32l4xx_hal.c ****   }
 274              		.loc 1 184 5 is_stmt 1 view .LVU66
 275 0022 FFF7FEFF 		bl	HAL_MspInit
 276              	.LVL16:
 188:Drivers/STM32L4xx_HAL_Driver/Src/stm32l4xx_hal.c **** }
 277              		.loc 1 188 3 view .LVU67
 189:Drivers/STM32L4xx_HAL_Driver/Src/stm32l4xx_hal.c **** 
 278              		.loc 1 189 1 is_stmt 0 view .LVU68
 279 0026 2046     		mov	r0, r4
 280 0028 10BD     		pop	{r4, pc}
 281              	.LVL17:
 282              	.L21:
 189:Drivers/STM32L4xx_HAL_Driver/Src/stm32l4xx_hal.c **** 
 283              		.loc 1 189 1 view .LVU69
 284 002a 00BF     		.align	2
 285              	.L20:
 286 002c 00200240 		.word	1073881088
ARM GAS  C:\Users\ep_ygh\AppData\Local\Temp\ccULJmwJ.s 			page 12


 287              		.cfi_endproc
 288              	.LFE317:
 290              		.section	.text.HAL_IncTick,"ax",%progbits
 291              		.align	1
 292              		.p2align 2,,3
 293              		.weak	HAL_IncTick
 294              		.syntax unified
 295              		.thumb
 296              		.thumb_func
 298              	HAL_IncTick:
 299              	.LFB322:
 293:Drivers/STM32L4xx_HAL_Driver/Src/stm32l4xx_hal.c **** 
 294:Drivers/STM32L4xx_HAL_Driver/Src/stm32l4xx_hal.c **** /**
 295:Drivers/STM32L4xx_HAL_Driver/Src/stm32l4xx_hal.c ****   * @}
 296:Drivers/STM32L4xx_HAL_Driver/Src/stm32l4xx_hal.c ****   */
 297:Drivers/STM32L4xx_HAL_Driver/Src/stm32l4xx_hal.c **** 
 298:Drivers/STM32L4xx_HAL_Driver/Src/stm32l4xx_hal.c **** /** @defgroup HAL_Exported_Functions_Group2 HAL Control functions
 299:Drivers/STM32L4xx_HAL_Driver/Src/stm32l4xx_hal.c ****  *  @brief    HAL Control functions
 300:Drivers/STM32L4xx_HAL_Driver/Src/stm32l4xx_hal.c ****  *
 301:Drivers/STM32L4xx_HAL_Driver/Src/stm32l4xx_hal.c **** @verbatim
 302:Drivers/STM32L4xx_HAL_Driver/Src/stm32l4xx_hal.c ****  ===============================================================================
 303:Drivers/STM32L4xx_HAL_Driver/Src/stm32l4xx_hal.c ****                       ##### HAL Control functions #####
 304:Drivers/STM32L4xx_HAL_Driver/Src/stm32l4xx_hal.c ****  ===============================================================================
 305:Drivers/STM32L4xx_HAL_Driver/Src/stm32l4xx_hal.c ****     [..]  This section provides functions allowing to:
 306:Drivers/STM32L4xx_HAL_Driver/Src/stm32l4xx_hal.c ****       (+) Provide a tick value in millisecond
 307:Drivers/STM32L4xx_HAL_Driver/Src/stm32l4xx_hal.c ****       (+) Provide a blocking delay in millisecond
 308:Drivers/STM32L4xx_HAL_Driver/Src/stm32l4xx_hal.c ****       (+) Suspend the time base source interrupt
 309:Drivers/STM32L4xx_HAL_Driver/Src/stm32l4xx_hal.c ****       (+) Resume the time base source interrupt
 310:Drivers/STM32L4xx_HAL_Driver/Src/stm32l4xx_hal.c ****       (+) Get the HAL API driver version
 311:Drivers/STM32L4xx_HAL_Driver/Src/stm32l4xx_hal.c ****       (+) Get the device identifier
 312:Drivers/STM32L4xx_HAL_Driver/Src/stm32l4xx_hal.c ****       (+) Get the device revision identifier
 313:Drivers/STM32L4xx_HAL_Driver/Src/stm32l4xx_hal.c **** 
 314:Drivers/STM32L4xx_HAL_Driver/Src/stm32l4xx_hal.c **** @endverbatim
 315:Drivers/STM32L4xx_HAL_Driver/Src/stm32l4xx_hal.c ****   * @{
 316:Drivers/STM32L4xx_HAL_Driver/Src/stm32l4xx_hal.c ****   */
 317:Drivers/STM32L4xx_HAL_Driver/Src/stm32l4xx_hal.c **** 
 318:Drivers/STM32L4xx_HAL_Driver/Src/stm32l4xx_hal.c **** /**
 319:Drivers/STM32L4xx_HAL_Driver/Src/stm32l4xx_hal.c ****   * @brief This function is called to increment a global variable "uwTick"
 320:Drivers/STM32L4xx_HAL_Driver/Src/stm32l4xx_hal.c ****   *        used as application time base.
 321:Drivers/STM32L4xx_HAL_Driver/Src/stm32l4xx_hal.c ****   * @note In the default implementation, this variable is incremented each 1ms
 322:Drivers/STM32L4xx_HAL_Driver/Src/stm32l4xx_hal.c ****   *       in SysTick ISR.
 323:Drivers/STM32L4xx_HAL_Driver/Src/stm32l4xx_hal.c ****  * @note This function is declared as __weak to be overwritten in case of other
 324:Drivers/STM32L4xx_HAL_Driver/Src/stm32l4xx_hal.c ****   *      implementations in user file.
 325:Drivers/STM32L4xx_HAL_Driver/Src/stm32l4xx_hal.c ****   * @retval None
 326:Drivers/STM32L4xx_HAL_Driver/Src/stm32l4xx_hal.c ****   */
 327:Drivers/STM32L4xx_HAL_Driver/Src/stm32l4xx_hal.c **** __weak void HAL_IncTick(void)
 328:Drivers/STM32L4xx_HAL_Driver/Src/stm32l4xx_hal.c **** {
 300              		.loc 1 328 1 is_stmt 1 view -0
 301              		.cfi_startproc
 302              		@ args = 0, pretend = 0, frame = 0
 303              		@ frame_needed = 0, uses_anonymous_args = 0
 304              		@ link register save eliminated.
 329:Drivers/STM32L4xx_HAL_Driver/Src/stm32l4xx_hal.c ****   uwTick += (uint32_t)uwTickFreq;
 305              		.loc 1 329 3 view .LVU71
 306              		.loc 1 329 10 is_stmt 0 view .LVU72
 307 0000 034A     		ldr	r2, .L23
 308              		.loc 1 329 13 view .LVU73
ARM GAS  C:\Users\ep_ygh\AppData\Local\Temp\ccULJmwJ.s 			page 13


 309 0002 044B     		ldr	r3, .L23+4
 310              		.loc 1 329 10 view .LVU74
 311 0004 1168     		ldr	r1, [r2]
 312              		.loc 1 329 13 view .LVU75
 313 0006 1B78     		ldrb	r3, [r3]	@ zero_extendqisi2
 314              		.loc 1 329 10 view .LVU76
 315 0008 0B44     		add	r3, r3, r1
 316 000a 1360     		str	r3, [r2]
 330:Drivers/STM32L4xx_HAL_Driver/Src/stm32l4xx_hal.c **** }
 317              		.loc 1 330 1 view .LVU77
 318 000c 7047     		bx	lr
 319              	.L24:
 320 000e 00BF     		.align	2
 321              	.L23:
 322 0010 00000000 		.word	.LANCHOR2
 323 0014 00000000 		.word	.LANCHOR0
 324              		.cfi_endproc
 325              	.LFE322:
 327              		.section	.text.HAL_GetTick,"ax",%progbits
 328              		.align	1
 329              		.p2align 2,,3
 330              		.weak	HAL_GetTick
 331              		.syntax unified
 332              		.thumb
 333              		.thumb_func
 335              	HAL_GetTick:
 336              	.LFB323:
 331:Drivers/STM32L4xx_HAL_Driver/Src/stm32l4xx_hal.c **** 
 332:Drivers/STM32L4xx_HAL_Driver/Src/stm32l4xx_hal.c **** /**
 333:Drivers/STM32L4xx_HAL_Driver/Src/stm32l4xx_hal.c ****   * @brief Provide a tick value in millisecond.
 334:Drivers/STM32L4xx_HAL_Driver/Src/stm32l4xx_hal.c ****   * @note This function is declared as __weak to be overwritten in case of other
 335:Drivers/STM32L4xx_HAL_Driver/Src/stm32l4xx_hal.c ****   *       implementations in user file.
 336:Drivers/STM32L4xx_HAL_Driver/Src/stm32l4xx_hal.c ****   * @retval tick value
 337:Drivers/STM32L4xx_HAL_Driver/Src/stm32l4xx_hal.c ****   */
 338:Drivers/STM32L4xx_HAL_Driver/Src/stm32l4xx_hal.c **** __weak uint32_t HAL_GetTick(void)
 339:Drivers/STM32L4xx_HAL_Driver/Src/stm32l4xx_hal.c **** {
 337              		.loc 1 339 1 is_stmt 1 view -0
 338              		.cfi_startproc
 339              		@ args = 0, pretend = 0, frame = 0
 340              		@ frame_needed = 0, uses_anonymous_args = 0
 341              		@ link register save eliminated.
 340:Drivers/STM32L4xx_HAL_Driver/Src/stm32l4xx_hal.c ****   return uwTick;
 342              		.loc 1 340 3 view .LVU79
 343              		.loc 1 340 10 is_stmt 0 view .LVU80
 344 0000 014B     		ldr	r3, .L26
 345 0002 1868     		ldr	r0, [r3]
 341:Drivers/STM32L4xx_HAL_Driver/Src/stm32l4xx_hal.c **** }
 346              		.loc 1 341 1 view .LVU81
 347 0004 7047     		bx	lr
 348              	.L27:
 349 0006 00BF     		.align	2
 350              	.L26:
 351 0008 00000000 		.word	.LANCHOR2
 352              		.cfi_endproc
 353              	.LFE323:
 355              		.section	.text.HAL_GetTickPrio,"ax",%progbits
 356              		.align	1
ARM GAS  C:\Users\ep_ygh\AppData\Local\Temp\ccULJmwJ.s 			page 14


 357              		.p2align 2,,3
 358              		.global	HAL_GetTickPrio
 359              		.syntax unified
 360              		.thumb
 361              		.thumb_func
 363              	HAL_GetTickPrio:
 364              	.LFB324:
 342:Drivers/STM32L4xx_HAL_Driver/Src/stm32l4xx_hal.c **** 
 343:Drivers/STM32L4xx_HAL_Driver/Src/stm32l4xx_hal.c **** /**
 344:Drivers/STM32L4xx_HAL_Driver/Src/stm32l4xx_hal.c ****   * @brief This function returns a tick priority.
 345:Drivers/STM32L4xx_HAL_Driver/Src/stm32l4xx_hal.c ****   * @retval tick priority
 346:Drivers/STM32L4xx_HAL_Driver/Src/stm32l4xx_hal.c ****   */
 347:Drivers/STM32L4xx_HAL_Driver/Src/stm32l4xx_hal.c **** uint32_t HAL_GetTickPrio(void)
 348:Drivers/STM32L4xx_HAL_Driver/Src/stm32l4xx_hal.c **** {
 365              		.loc 1 348 1 is_stmt 1 view -0
 366              		.cfi_startproc
 367              		@ args = 0, pretend = 0, frame = 0
 368              		@ frame_needed = 0, uses_anonymous_args = 0
 369              		@ link register save eliminated.
 349:Drivers/STM32L4xx_HAL_Driver/Src/stm32l4xx_hal.c ****   return uwTickPrio;
 370              		.loc 1 349 3 view .LVU83
 371              		.loc 1 349 10 is_stmt 0 view .LVU84
 372 0000 014B     		ldr	r3, .L29
 350:Drivers/STM32L4xx_HAL_Driver/Src/stm32l4xx_hal.c **** }
 373              		.loc 1 350 1 view .LVU85
 374 0002 1868     		ldr	r0, [r3]
 375 0004 7047     		bx	lr
 376              	.L30:
 377 0006 00BF     		.align	2
 378              	.L29:
 379 0008 00000000 		.word	.LANCHOR1
 380              		.cfi_endproc
 381              	.LFE324:
 383              		.section	.text.HAL_SetTickFreq,"ax",%progbits
 384              		.align	1
 385              		.p2align 2,,3
 386              		.global	HAL_SetTickFreq
 387              		.syntax unified
 388              		.thumb
 389              		.thumb_func
 391              	HAL_SetTickFreq:
 392              	.LVL18:
 393              	.LFB325:
 351:Drivers/STM32L4xx_HAL_Driver/Src/stm32l4xx_hal.c **** 
 352:Drivers/STM32L4xx_HAL_Driver/Src/stm32l4xx_hal.c **** /**
 353:Drivers/STM32L4xx_HAL_Driver/Src/stm32l4xx_hal.c ****   * @brief Set new tick Freq.
 354:Drivers/STM32L4xx_HAL_Driver/Src/stm32l4xx_hal.c ****   * @param Freq tick frequency
 355:Drivers/STM32L4xx_HAL_Driver/Src/stm32l4xx_hal.c ****   * @retval HAL status
 356:Drivers/STM32L4xx_HAL_Driver/Src/stm32l4xx_hal.c ****   */
 357:Drivers/STM32L4xx_HAL_Driver/Src/stm32l4xx_hal.c **** HAL_StatusTypeDef HAL_SetTickFreq(HAL_TickFreqTypeDef Freq)
 358:Drivers/STM32L4xx_HAL_Driver/Src/stm32l4xx_hal.c **** {
 394              		.loc 1 358 1 is_stmt 1 view -0
 395              		.cfi_startproc
 396              		@ args = 0, pretend = 0, frame = 0
 397              		@ frame_needed = 0, uses_anonymous_args = 0
 359:Drivers/STM32L4xx_HAL_Driver/Src/stm32l4xx_hal.c ****   HAL_StatusTypeDef status  = HAL_OK;
 398              		.loc 1 359 3 view .LVU87
ARM GAS  C:\Users\ep_ygh\AppData\Local\Temp\ccULJmwJ.s 			page 15


 360:Drivers/STM32L4xx_HAL_Driver/Src/stm32l4xx_hal.c ****   HAL_TickFreqTypeDef prevTickFreq;
 399              		.loc 1 360 3 view .LVU88
 361:Drivers/STM32L4xx_HAL_Driver/Src/stm32l4xx_hal.c **** 
 362:Drivers/STM32L4xx_HAL_Driver/Src/stm32l4xx_hal.c ****   if (uwTickFreq != Freq)
 400              		.loc 1 362 3 view .LVU89
 358:Drivers/STM32L4xx_HAL_Driver/Src/stm32l4xx_hal.c ****   HAL_StatusTypeDef status  = HAL_OK;
 401              		.loc 1 358 1 is_stmt 0 view .LVU90
 402 0000 38B5     		push	{r3, r4, r5, lr}
 403              	.LCFI3:
 404              		.cfi_def_cfa_offset 16
 405              		.cfi_offset 3, -16
 406              		.cfi_offset 4, -12
 407              		.cfi_offset 5, -8
 408              		.cfi_offset 14, -4
 409              		.loc 1 362 18 view .LVU91
 410 0002 074C     		ldr	r4, .L39
 411 0004 2578     		ldrb	r5, [r4]	@ zero_extendqisi2
 412              		.loc 1 362 6 view .LVU92
 413 0006 8542     		cmp	r5, r0
 414 0008 01D1     		bne	.L38
 359:Drivers/STM32L4xx_HAL_Driver/Src/stm32l4xx_hal.c ****   HAL_TickFreqTypeDef prevTickFreq;
 415              		.loc 1 359 21 view .LVU93
 416 000a 0020     		movs	r0, #0
 417              	.LVL19:
 418              	.L32:
 363:Drivers/STM32L4xx_HAL_Driver/Src/stm32l4xx_hal.c ****   {
 364:Drivers/STM32L4xx_HAL_Driver/Src/stm32l4xx_hal.c ****     /* Back up uwTickFreq frequency */
 365:Drivers/STM32L4xx_HAL_Driver/Src/stm32l4xx_hal.c ****     prevTickFreq = uwTickFreq;
 366:Drivers/STM32L4xx_HAL_Driver/Src/stm32l4xx_hal.c **** 
 367:Drivers/STM32L4xx_HAL_Driver/Src/stm32l4xx_hal.c ****     /* Update uwTickFreq global variable used by HAL_InitTick() */
 368:Drivers/STM32L4xx_HAL_Driver/Src/stm32l4xx_hal.c ****     uwTickFreq = Freq;
 369:Drivers/STM32L4xx_HAL_Driver/Src/stm32l4xx_hal.c **** 
 370:Drivers/STM32L4xx_HAL_Driver/Src/stm32l4xx_hal.c ****     /* Apply the new tick Freq  */
 371:Drivers/STM32L4xx_HAL_Driver/Src/stm32l4xx_hal.c ****     status = HAL_InitTick(uwTickPrio);
 372:Drivers/STM32L4xx_HAL_Driver/Src/stm32l4xx_hal.c ****     if (status != HAL_OK)
 373:Drivers/STM32L4xx_HAL_Driver/Src/stm32l4xx_hal.c ****     {
 374:Drivers/STM32L4xx_HAL_Driver/Src/stm32l4xx_hal.c ****       /* Restore previous tick frequency */
 375:Drivers/STM32L4xx_HAL_Driver/Src/stm32l4xx_hal.c ****       uwTickFreq = prevTickFreq;
 376:Drivers/STM32L4xx_HAL_Driver/Src/stm32l4xx_hal.c ****     }
 377:Drivers/STM32L4xx_HAL_Driver/Src/stm32l4xx_hal.c ****   }
 378:Drivers/STM32L4xx_HAL_Driver/Src/stm32l4xx_hal.c **** 
 379:Drivers/STM32L4xx_HAL_Driver/Src/stm32l4xx_hal.c ****   return status;
 419              		.loc 1 379 3 is_stmt 1 view .LVU94
 380:Drivers/STM32L4xx_HAL_Driver/Src/stm32l4xx_hal.c **** }
 420              		.loc 1 380 1 is_stmt 0 view .LVU95
 421 000c 38BD     		pop	{r3, r4, r5, pc}
 422              	.LVL20:
 423              	.L38:
 365:Drivers/STM32L4xx_HAL_Driver/Src/stm32l4xx_hal.c **** 
 424              		.loc 1 365 5 is_stmt 1 view .LVU96
 368:Drivers/STM32L4xx_HAL_Driver/Src/stm32l4xx_hal.c **** 
 425              		.loc 1 368 5 view .LVU97
 371:Drivers/STM32L4xx_HAL_Driver/Src/stm32l4xx_hal.c ****     if (status != HAL_OK)
 426              		.loc 1 371 14 is_stmt 0 view .LVU98
 427 000e 054B     		ldr	r3, .L39+4
 368:Drivers/STM32L4xx_HAL_Driver/Src/stm32l4xx_hal.c **** 
 428              		.loc 1 368 16 view .LVU99
ARM GAS  C:\Users\ep_ygh\AppData\Local\Temp\ccULJmwJ.s 			page 16


 429 0010 2070     		strb	r0, [r4]
 371:Drivers/STM32L4xx_HAL_Driver/Src/stm32l4xx_hal.c ****     if (status != HAL_OK)
 430              		.loc 1 371 5 is_stmt 1 view .LVU100
 371:Drivers/STM32L4xx_HAL_Driver/Src/stm32l4xx_hal.c ****     if (status != HAL_OK)
 431              		.loc 1 371 14 is_stmt 0 view .LVU101
 432 0012 1868     		ldr	r0, [r3]
 433              	.LVL21:
 371:Drivers/STM32L4xx_HAL_Driver/Src/stm32l4xx_hal.c ****     if (status != HAL_OK)
 434              		.loc 1 371 14 view .LVU102
 435 0014 FFF7FEFF 		bl	HAL_InitTick
 436              	.LVL22:
 372:Drivers/STM32L4xx_HAL_Driver/Src/stm32l4xx_hal.c ****     {
 437              		.loc 1 372 5 is_stmt 1 view .LVU103
 372:Drivers/STM32L4xx_HAL_Driver/Src/stm32l4xx_hal.c ****     {
 438              		.loc 1 372 8 is_stmt 0 view .LVU104
 439 0018 0028     		cmp	r0, #0
 440 001a F7D0     		beq	.L32
 375:Drivers/STM32L4xx_HAL_Driver/Src/stm32l4xx_hal.c ****     }
 441              		.loc 1 375 7 is_stmt 1 view .LVU105
 375:Drivers/STM32L4xx_HAL_Driver/Src/stm32l4xx_hal.c ****     }
 442              		.loc 1 375 18 is_stmt 0 view .LVU106
 443 001c 2570     		strb	r5, [r4]
 379:Drivers/STM32L4xx_HAL_Driver/Src/stm32l4xx_hal.c **** }
 444              		.loc 1 379 3 is_stmt 1 view .LVU107
 445              		.loc 1 380 1 is_stmt 0 view .LVU108
 446 001e 38BD     		pop	{r3, r4, r5, pc}
 447              	.LVL23:
 448              	.L40:
 449              		.loc 1 380 1 view .LVU109
 450              		.align	2
 451              	.L39:
 452 0020 00000000 		.word	.LANCHOR0
 453 0024 00000000 		.word	.LANCHOR1
 454              		.cfi_endproc
 455              	.LFE325:
 457              		.section	.text.HAL_GetTickFreq,"ax",%progbits
 458              		.align	1
 459              		.p2align 2,,3
 460              		.global	HAL_GetTickFreq
 461              		.syntax unified
 462              		.thumb
 463              		.thumb_func
 465              	HAL_GetTickFreq:
 466              	.LFB326:
 381:Drivers/STM32L4xx_HAL_Driver/Src/stm32l4xx_hal.c **** 
 382:Drivers/STM32L4xx_HAL_Driver/Src/stm32l4xx_hal.c **** /**
 383:Drivers/STM32L4xx_HAL_Driver/Src/stm32l4xx_hal.c ****   * @brief Return tick frequency.
 384:Drivers/STM32L4xx_HAL_Driver/Src/stm32l4xx_hal.c ****   * @retval Tick frequency.
 385:Drivers/STM32L4xx_HAL_Driver/Src/stm32l4xx_hal.c ****   *         Value of @ref HAL_TickFreqTypeDef.
 386:Drivers/STM32L4xx_HAL_Driver/Src/stm32l4xx_hal.c ****   */
 387:Drivers/STM32L4xx_HAL_Driver/Src/stm32l4xx_hal.c **** HAL_TickFreqTypeDef HAL_GetTickFreq(void)
 388:Drivers/STM32L4xx_HAL_Driver/Src/stm32l4xx_hal.c **** {
 467              		.loc 1 388 1 is_stmt 1 view -0
 468              		.cfi_startproc
 469              		@ args = 0, pretend = 0, frame = 0
 470              		@ frame_needed = 0, uses_anonymous_args = 0
 471              		@ link register save eliminated.
ARM GAS  C:\Users\ep_ygh\AppData\Local\Temp\ccULJmwJ.s 			page 17


 389:Drivers/STM32L4xx_HAL_Driver/Src/stm32l4xx_hal.c ****   return uwTickFreq;
 472              		.loc 1 389 3 view .LVU111
 473              		.loc 1 389 10 is_stmt 0 view .LVU112
 474 0000 014B     		ldr	r3, .L42
 390:Drivers/STM32L4xx_HAL_Driver/Src/stm32l4xx_hal.c **** }
 475              		.loc 1 390 1 view .LVU113
 476 0002 1878     		ldrb	r0, [r3]	@ zero_extendqisi2
 477 0004 7047     		bx	lr
 478              	.L43:
 479 0006 00BF     		.align	2
 480              	.L42:
 481 0008 00000000 		.word	.LANCHOR0
 482              		.cfi_endproc
 483              	.LFE326:
 485              		.section	.text.HAL_Delay,"ax",%progbits
 486              		.align	1
 487              		.p2align 2,,3
 488              		.weak	HAL_Delay
 489              		.syntax unified
 490              		.thumb
 491              		.thumb_func
 493              	HAL_Delay:
 494              	.LVL24:
 495              	.LFB327:
 391:Drivers/STM32L4xx_HAL_Driver/Src/stm32l4xx_hal.c **** 
 392:Drivers/STM32L4xx_HAL_Driver/Src/stm32l4xx_hal.c **** /**
 393:Drivers/STM32L4xx_HAL_Driver/Src/stm32l4xx_hal.c ****   * @brief This function provides minimum delay (in milliseconds) based
 394:Drivers/STM32L4xx_HAL_Driver/Src/stm32l4xx_hal.c ****   *        on variable incremented.
 395:Drivers/STM32L4xx_HAL_Driver/Src/stm32l4xx_hal.c ****   * @note In the default implementation , SysTick timer is the source of time base.
 396:Drivers/STM32L4xx_HAL_Driver/Src/stm32l4xx_hal.c ****   *       It is used to generate interrupts at regular time intervals where uwTick
 397:Drivers/STM32L4xx_HAL_Driver/Src/stm32l4xx_hal.c ****   *       is incremented.
 398:Drivers/STM32L4xx_HAL_Driver/Src/stm32l4xx_hal.c ****   * @note This function is declared as __weak to be overwritten in case of other
 399:Drivers/STM32L4xx_HAL_Driver/Src/stm32l4xx_hal.c ****   *       implementations in user file.
 400:Drivers/STM32L4xx_HAL_Driver/Src/stm32l4xx_hal.c ****   * @param Delay  specifies the delay time length, in milliseconds.
 401:Drivers/STM32L4xx_HAL_Driver/Src/stm32l4xx_hal.c ****   * @retval None
 402:Drivers/STM32L4xx_HAL_Driver/Src/stm32l4xx_hal.c ****   */
 403:Drivers/STM32L4xx_HAL_Driver/Src/stm32l4xx_hal.c **** __weak void HAL_Delay(uint32_t Delay)
 404:Drivers/STM32L4xx_HAL_Driver/Src/stm32l4xx_hal.c **** {
 496              		.loc 1 404 1 is_stmt 1 view -0
 497              		.cfi_startproc
 498              		@ args = 0, pretend = 0, frame = 0
 499              		@ frame_needed = 0, uses_anonymous_args = 0
 405:Drivers/STM32L4xx_HAL_Driver/Src/stm32l4xx_hal.c ****   uint32_t tickstart = HAL_GetTick();
 500              		.loc 1 405 3 view .LVU115
 404:Drivers/STM32L4xx_HAL_Driver/Src/stm32l4xx_hal.c ****   uint32_t tickstart = HAL_GetTick();
 501              		.loc 1 404 1 is_stmt 0 view .LVU116
 502 0000 38B5     		push	{r3, r4, r5, lr}
 503              	.LCFI4:
 504              		.cfi_def_cfa_offset 16
 505              		.cfi_offset 3, -16
 506              		.cfi_offset 4, -12
 507              		.cfi_offset 5, -8
 508              		.cfi_offset 14, -4
 404:Drivers/STM32L4xx_HAL_Driver/Src/stm32l4xx_hal.c ****   uint32_t tickstart = HAL_GetTick();
 509              		.loc 1 404 1 view .LVU117
 510 0002 0446     		mov	r4, r0
 511              		.loc 1 405 24 view .LVU118
ARM GAS  C:\Users\ep_ygh\AppData\Local\Temp\ccULJmwJ.s 			page 18


 512 0004 FFF7FEFF 		bl	HAL_GetTick
 513              	.LVL25:
 406:Drivers/STM32L4xx_HAL_Driver/Src/stm32l4xx_hal.c ****   uint32_t wait = Delay;
 407:Drivers/STM32L4xx_HAL_Driver/Src/stm32l4xx_hal.c **** 
 408:Drivers/STM32L4xx_HAL_Driver/Src/stm32l4xx_hal.c ****   /* Add a period to guaranty minimum wait */
 409:Drivers/STM32L4xx_HAL_Driver/Src/stm32l4xx_hal.c ****   if (wait < HAL_MAX_DELAY)
 514              		.loc 1 409 6 view .LVU119
 515 0008 631C     		adds	r3, r4, #1
 405:Drivers/STM32L4xx_HAL_Driver/Src/stm32l4xx_hal.c ****   uint32_t wait = Delay;
 516              		.loc 1 405 24 view .LVU120
 517 000a 0546     		mov	r5, r0
 518              	.LVL26:
 406:Drivers/STM32L4xx_HAL_Driver/Src/stm32l4xx_hal.c ****   uint32_t wait = Delay;
 519              		.loc 1 406 3 is_stmt 1 view .LVU121
 520              		.loc 1 409 3 view .LVU122
 521              		.loc 1 409 6 is_stmt 0 view .LVU123
 522 000c 02D0     		beq	.L46
 410:Drivers/STM32L4xx_HAL_Driver/Src/stm32l4xx_hal.c ****   {
 411:Drivers/STM32L4xx_HAL_Driver/Src/stm32l4xx_hal.c ****     wait += (uint32_t)uwTickFreq;
 523              		.loc 1 411 5 is_stmt 1 view .LVU124
 524              		.loc 1 411 13 is_stmt 0 view .LVU125
 525 000e 044B     		ldr	r3, .L52
 526 0010 1B78     		ldrb	r3, [r3]	@ zero_extendqisi2
 527              		.loc 1 411 10 view .LVU126
 528 0012 1C44     		add	r4, r4, r3
 529              	.LVL27:
 530              	.L46:
 412:Drivers/STM32L4xx_HAL_Driver/Src/stm32l4xx_hal.c ****   }
 413:Drivers/STM32L4xx_HAL_Driver/Src/stm32l4xx_hal.c **** 
 414:Drivers/STM32L4xx_HAL_Driver/Src/stm32l4xx_hal.c ****   while ((HAL_GetTick() - tickstart) < wait)
 415:Drivers/STM32L4xx_HAL_Driver/Src/stm32l4xx_hal.c ****   {
 416:Drivers/STM32L4xx_HAL_Driver/Src/stm32l4xx_hal.c ****   }
 531              		.loc 1 416 3 is_stmt 1 discriminator 1 view .LVU127
 414:Drivers/STM32L4xx_HAL_Driver/Src/stm32l4xx_hal.c ****   {
 532              		.loc 1 414 9 discriminator 1 view .LVU128
 414:Drivers/STM32L4xx_HAL_Driver/Src/stm32l4xx_hal.c ****   {
 533              		.loc 1 414 11 is_stmt 0 discriminator 1 view .LVU129
 534 0014 FFF7FEFF 		bl	HAL_GetTick
 535              	.LVL28:
 414:Drivers/STM32L4xx_HAL_Driver/Src/stm32l4xx_hal.c ****   {
 536              		.loc 1 414 25 discriminator 1 view .LVU130
 537 0018 431B     		subs	r3, r0, r5
 414:Drivers/STM32L4xx_HAL_Driver/Src/stm32l4xx_hal.c ****   {
 538              		.loc 1 414 9 discriminator 1 view .LVU131
 539 001a A342     		cmp	r3, r4
 540 001c FAD3     		bcc	.L46
 417:Drivers/STM32L4xx_HAL_Driver/Src/stm32l4xx_hal.c **** }
 541              		.loc 1 417 1 view .LVU132
 542 001e 38BD     		pop	{r3, r4, r5, pc}
 543              	.LVL29:
 544              	.L53:
 545              		.loc 1 417 1 view .LVU133
 546              		.align	2
 547              	.L52:
 548 0020 00000000 		.word	.LANCHOR0
 549              		.cfi_endproc
 550              	.LFE327:
ARM GAS  C:\Users\ep_ygh\AppData\Local\Temp\ccULJmwJ.s 			page 19


 552              		.section	.text.HAL_SuspendTick,"ax",%progbits
 553              		.align	1
 554              		.p2align 2,,3
 555              		.weak	HAL_SuspendTick
 556              		.syntax unified
 557              		.thumb
 558              		.thumb_func
 560              	HAL_SuspendTick:
 561              	.LFB328:
 418:Drivers/STM32L4xx_HAL_Driver/Src/stm32l4xx_hal.c **** 
 419:Drivers/STM32L4xx_HAL_Driver/Src/stm32l4xx_hal.c **** /**
 420:Drivers/STM32L4xx_HAL_Driver/Src/stm32l4xx_hal.c ****   * @brief Suspend Tick increment.
 421:Drivers/STM32L4xx_HAL_Driver/Src/stm32l4xx_hal.c ****   * @note In the default implementation , SysTick timer is the source of time base. It is
 422:Drivers/STM32L4xx_HAL_Driver/Src/stm32l4xx_hal.c ****   *       used to generate interrupts at regular time intervals. Once HAL_SuspendTick()
 423:Drivers/STM32L4xx_HAL_Driver/Src/stm32l4xx_hal.c ****   *       is called, the SysTick interrupt will be disabled and so Tick increment
 424:Drivers/STM32L4xx_HAL_Driver/Src/stm32l4xx_hal.c ****   *       is suspended.
 425:Drivers/STM32L4xx_HAL_Driver/Src/stm32l4xx_hal.c ****   * @note This function is declared as __weak to be overwritten in case of other
 426:Drivers/STM32L4xx_HAL_Driver/Src/stm32l4xx_hal.c ****   *       implementations in user file.
 427:Drivers/STM32L4xx_HAL_Driver/Src/stm32l4xx_hal.c ****   * @retval None
 428:Drivers/STM32L4xx_HAL_Driver/Src/stm32l4xx_hal.c ****   */
 429:Drivers/STM32L4xx_HAL_Driver/Src/stm32l4xx_hal.c **** __weak void HAL_SuspendTick(void)
 430:Drivers/STM32L4xx_HAL_Driver/Src/stm32l4xx_hal.c **** {
 562              		.loc 1 430 1 is_stmt 1 view -0
 563              		.cfi_startproc
 564              		@ args = 0, pretend = 0, frame = 0
 565              		@ frame_needed = 0, uses_anonymous_args = 0
 566              		@ link register save eliminated.
 431:Drivers/STM32L4xx_HAL_Driver/Src/stm32l4xx_hal.c ****   /* Disable SysTick Interrupt */
 432:Drivers/STM32L4xx_HAL_Driver/Src/stm32l4xx_hal.c ****   SysTick->CTRL &= ~SysTick_CTRL_TICKINT_Msk;
 567              		.loc 1 432 3 view .LVU135
 568              		.loc 1 432 17 is_stmt 0 view .LVU136
 569 0000 4FF0E022 		mov	r2, #-536813568
 570 0004 1369     		ldr	r3, [r2, #16]
 571 0006 23F00203 		bic	r3, r3, #2
 572 000a 1361     		str	r3, [r2, #16]
 433:Drivers/STM32L4xx_HAL_Driver/Src/stm32l4xx_hal.c **** }
 573              		.loc 1 433 1 view .LVU137
 574 000c 7047     		bx	lr
 575              		.cfi_endproc
 576              	.LFE328:
 578 000e 00BF     		.section	.text.HAL_ResumeTick,"ax",%progbits
 579              		.align	1
 580              		.p2align 2,,3
 581              		.weak	HAL_ResumeTick
 582              		.syntax unified
 583              		.thumb
 584              		.thumb_func
 586              	HAL_ResumeTick:
 587              	.LFB329:
 434:Drivers/STM32L4xx_HAL_Driver/Src/stm32l4xx_hal.c **** 
 435:Drivers/STM32L4xx_HAL_Driver/Src/stm32l4xx_hal.c **** /**
 436:Drivers/STM32L4xx_HAL_Driver/Src/stm32l4xx_hal.c ****   * @brief Resume Tick increment.
 437:Drivers/STM32L4xx_HAL_Driver/Src/stm32l4xx_hal.c ****   * @note In the default implementation , SysTick timer is the source of time base. It is
 438:Drivers/STM32L4xx_HAL_Driver/Src/stm32l4xx_hal.c ****   *       used to generate interrupts at regular time intervals. Once HAL_ResumeTick()
 439:Drivers/STM32L4xx_HAL_Driver/Src/stm32l4xx_hal.c ****   *       is called, the SysTick interrupt will be enabled and so Tick increment
 440:Drivers/STM32L4xx_HAL_Driver/Src/stm32l4xx_hal.c ****   *       is resumed.
 441:Drivers/STM32L4xx_HAL_Driver/Src/stm32l4xx_hal.c ****   * @note This function is declared as __weak to be overwritten in case of other
ARM GAS  C:\Users\ep_ygh\AppData\Local\Temp\ccULJmwJ.s 			page 20


 442:Drivers/STM32L4xx_HAL_Driver/Src/stm32l4xx_hal.c ****   *       implementations in user file.
 443:Drivers/STM32L4xx_HAL_Driver/Src/stm32l4xx_hal.c ****   * @retval None
 444:Drivers/STM32L4xx_HAL_Driver/Src/stm32l4xx_hal.c ****   */
 445:Drivers/STM32L4xx_HAL_Driver/Src/stm32l4xx_hal.c **** __weak void HAL_ResumeTick(void)
 446:Drivers/STM32L4xx_HAL_Driver/Src/stm32l4xx_hal.c **** {
 588              		.loc 1 446 1 is_stmt 1 view -0
 589              		.cfi_startproc
 590              		@ args = 0, pretend = 0, frame = 0
 591              		@ frame_needed = 0, uses_anonymous_args = 0
 592              		@ link register save eliminated.
 447:Drivers/STM32L4xx_HAL_Driver/Src/stm32l4xx_hal.c ****   /* Enable SysTick Interrupt */
 448:Drivers/STM32L4xx_HAL_Driver/Src/stm32l4xx_hal.c ****   SysTick->CTRL  |= SysTick_CTRL_TICKINT_Msk;
 593              		.loc 1 448 3 view .LVU139
 594              		.loc 1 448 18 is_stmt 0 view .LVU140
 595 0000 4FF0E022 		mov	r2, #-536813568
 596 0004 1369     		ldr	r3, [r2, #16]
 597 0006 43F00203 		orr	r3, r3, #2
 598 000a 1361     		str	r3, [r2, #16]
 449:Drivers/STM32L4xx_HAL_Driver/Src/stm32l4xx_hal.c **** }
 599              		.loc 1 449 1 view .LVU141
 600 000c 7047     		bx	lr
 601              		.cfi_endproc
 602              	.LFE329:
 604 000e 00BF     		.section	.text.HAL_GetHalVersion,"ax",%progbits
 605              		.align	1
 606              		.p2align 2,,3
 607              		.global	HAL_GetHalVersion
 608              		.syntax unified
 609              		.thumb
 610              		.thumb_func
 612              	HAL_GetHalVersion:
 613              	.LFB330:
 450:Drivers/STM32L4xx_HAL_Driver/Src/stm32l4xx_hal.c **** 
 451:Drivers/STM32L4xx_HAL_Driver/Src/stm32l4xx_hal.c **** /**
 452:Drivers/STM32L4xx_HAL_Driver/Src/stm32l4xx_hal.c ****   * @brief  Return the HAL revision.
 453:Drivers/STM32L4xx_HAL_Driver/Src/stm32l4xx_hal.c ****   * @retval version : 0xXYZR (8bits for each decimal, R for RC)
 454:Drivers/STM32L4xx_HAL_Driver/Src/stm32l4xx_hal.c ****   */
 455:Drivers/STM32L4xx_HAL_Driver/Src/stm32l4xx_hal.c **** uint32_t HAL_GetHalVersion(void)
 456:Drivers/STM32L4xx_HAL_Driver/Src/stm32l4xx_hal.c **** {
 614              		.loc 1 456 1 is_stmt 1 view -0
 615              		.cfi_startproc
 616              		@ args = 0, pretend = 0, frame = 0
 617              		@ frame_needed = 0, uses_anonymous_args = 0
 618              		@ link register save eliminated.
 457:Drivers/STM32L4xx_HAL_Driver/Src/stm32l4xx_hal.c ****   return STM32L4XX_HAL_VERSION;
 619              		.loc 1 457 3 view .LVU143
 458:Drivers/STM32L4xx_HAL_Driver/Src/stm32l4xx_hal.c **** }
 620              		.loc 1 458 1 is_stmt 0 view .LVU144
 621 0000 0048     		ldr	r0, .L57
 622 0002 7047     		bx	lr
 623              	.L58:
 624              		.align	2
 625              	.L57:
 626 0004 00040D01 		.word	17630208
 627              		.cfi_endproc
 628              	.LFE330:
 630              		.section	.text.HAL_GetREVID,"ax",%progbits
ARM GAS  C:\Users\ep_ygh\AppData\Local\Temp\ccULJmwJ.s 			page 21


 631              		.align	1
 632              		.p2align 2,,3
 633              		.global	HAL_GetREVID
 634              		.syntax unified
 635              		.thumb
 636              		.thumb_func
 638              	HAL_GetREVID:
 639              	.LFB331:
 459:Drivers/STM32L4xx_HAL_Driver/Src/stm32l4xx_hal.c **** 
 460:Drivers/STM32L4xx_HAL_Driver/Src/stm32l4xx_hal.c **** /**
 461:Drivers/STM32L4xx_HAL_Driver/Src/stm32l4xx_hal.c ****   * @brief  Return the device revision identifier.
 462:Drivers/STM32L4xx_HAL_Driver/Src/stm32l4xx_hal.c ****   * @retval Device revision identifier
 463:Drivers/STM32L4xx_HAL_Driver/Src/stm32l4xx_hal.c ****   */
 464:Drivers/STM32L4xx_HAL_Driver/Src/stm32l4xx_hal.c **** uint32_t HAL_GetREVID(void)
 465:Drivers/STM32L4xx_HAL_Driver/Src/stm32l4xx_hal.c **** {
 640              		.loc 1 465 1 is_stmt 1 view -0
 641              		.cfi_startproc
 642              		@ args = 0, pretend = 0, frame = 0
 643              		@ frame_needed = 0, uses_anonymous_args = 0
 644              		@ link register save eliminated.
 466:Drivers/STM32L4xx_HAL_Driver/Src/stm32l4xx_hal.c ****   return((DBGMCU->IDCODE & DBGMCU_IDCODE_REV_ID) >> 16);
 645              		.loc 1 466 3 view .LVU146
 646              		.loc 1 466 17 is_stmt 0 view .LVU147
 647 0000 014B     		ldr	r3, .L60
 648 0002 1868     		ldr	r0, [r3]
 467:Drivers/STM32L4xx_HAL_Driver/Src/stm32l4xx_hal.c **** }
 649              		.loc 1 467 1 view .LVU148
 650 0004 000C     		lsrs	r0, r0, #16
 651 0006 7047     		bx	lr
 652              	.L61:
 653              		.align	2
 654              	.L60:
 655 0008 002004E0 		.word	-536600576
 656              		.cfi_endproc
 657              	.LFE331:
 659              		.section	.text.HAL_GetDEVID,"ax",%progbits
 660              		.align	1
 661              		.p2align 2,,3
 662              		.global	HAL_GetDEVID
 663              		.syntax unified
 664              		.thumb
 665              		.thumb_func
 667              	HAL_GetDEVID:
 668              	.LFB332:
 468:Drivers/STM32L4xx_HAL_Driver/Src/stm32l4xx_hal.c **** 
 469:Drivers/STM32L4xx_HAL_Driver/Src/stm32l4xx_hal.c **** /**
 470:Drivers/STM32L4xx_HAL_Driver/Src/stm32l4xx_hal.c ****   * @brief  Return the device identifier.
 471:Drivers/STM32L4xx_HAL_Driver/Src/stm32l4xx_hal.c ****   * @retval Device identifier
 472:Drivers/STM32L4xx_HAL_Driver/Src/stm32l4xx_hal.c ****   */
 473:Drivers/STM32L4xx_HAL_Driver/Src/stm32l4xx_hal.c **** uint32_t HAL_GetDEVID(void)
 474:Drivers/STM32L4xx_HAL_Driver/Src/stm32l4xx_hal.c **** {
 669              		.loc 1 474 1 is_stmt 1 view -0
 670              		.cfi_startproc
 671              		@ args = 0, pretend = 0, frame = 0
 672              		@ frame_needed = 0, uses_anonymous_args = 0
 673              		@ link register save eliminated.
 475:Drivers/STM32L4xx_HAL_Driver/Src/stm32l4xx_hal.c ****   return(DBGMCU->IDCODE & DBGMCU_IDCODE_DEV_ID);
ARM GAS  C:\Users\ep_ygh\AppData\Local\Temp\ccULJmwJ.s 			page 22


 674              		.loc 1 475 3 view .LVU150
 675              		.loc 1 475 16 is_stmt 0 view .LVU151
 676 0000 024B     		ldr	r3, .L63
 677 0002 1868     		ldr	r0, [r3]
 476:Drivers/STM32L4xx_HAL_Driver/Src/stm32l4xx_hal.c **** }
 678              		.loc 1 476 1 view .LVU152
 679 0004 C0F30B00 		ubfx	r0, r0, #0, #12
 680 0008 7047     		bx	lr
 681              	.L64:
 682 000a 00BF     		.align	2
 683              	.L63:
 684 000c 002004E0 		.word	-536600576
 685              		.cfi_endproc
 686              	.LFE332:
 688              		.section	.text.HAL_GetUIDw0,"ax",%progbits
 689              		.align	1
 690              		.p2align 2,,3
 691              		.global	HAL_GetUIDw0
 692              		.syntax unified
 693              		.thumb
 694              		.thumb_func
 696              	HAL_GetUIDw0:
 697              	.LFB333:
 477:Drivers/STM32L4xx_HAL_Driver/Src/stm32l4xx_hal.c **** 
 478:Drivers/STM32L4xx_HAL_Driver/Src/stm32l4xx_hal.c **** /**
 479:Drivers/STM32L4xx_HAL_Driver/Src/stm32l4xx_hal.c ****   * @brief  Return the first word of the unique device identifier (UID based on 96 bits)
 480:Drivers/STM32L4xx_HAL_Driver/Src/stm32l4xx_hal.c ****   * @retval Device identifier
 481:Drivers/STM32L4xx_HAL_Driver/Src/stm32l4xx_hal.c ****   */
 482:Drivers/STM32L4xx_HAL_Driver/Src/stm32l4xx_hal.c **** uint32_t HAL_GetUIDw0(void)
 483:Drivers/STM32L4xx_HAL_Driver/Src/stm32l4xx_hal.c **** {
 698              		.loc 1 483 1 is_stmt 1 view -0
 699              		.cfi_startproc
 700              		@ args = 0, pretend = 0, frame = 0
 701              		@ frame_needed = 0, uses_anonymous_args = 0
 702              		@ link register save eliminated.
 484:Drivers/STM32L4xx_HAL_Driver/Src/stm32l4xx_hal.c ****   return(READ_REG(*((uint32_t *)UID_BASE)));
 703              		.loc 1 484 3 view .LVU154
 704              		.loc 1 484 10 is_stmt 0 view .LVU155
 705 0000 014B     		ldr	r3, .L66
 485:Drivers/STM32L4xx_HAL_Driver/Src/stm32l4xx_hal.c **** }
 706              		.loc 1 485 1 view .LVU156
 707 0002 D3F89005 		ldr	r0, [r3, #1424]
 708 0006 7047     		bx	lr
 709              	.L67:
 710              		.align	2
 711              	.L66:
 712 0008 0070FF1F 		.word	536834048
 713              		.cfi_endproc
 714              	.LFE333:
 716              		.section	.text.HAL_GetUIDw1,"ax",%progbits
 717              		.align	1
 718              		.p2align 2,,3
 719              		.global	HAL_GetUIDw1
 720              		.syntax unified
 721              		.thumb
 722              		.thumb_func
 724              	HAL_GetUIDw1:
ARM GAS  C:\Users\ep_ygh\AppData\Local\Temp\ccULJmwJ.s 			page 23


 725              	.LFB334:
 486:Drivers/STM32L4xx_HAL_Driver/Src/stm32l4xx_hal.c **** 
 487:Drivers/STM32L4xx_HAL_Driver/Src/stm32l4xx_hal.c **** /**
 488:Drivers/STM32L4xx_HAL_Driver/Src/stm32l4xx_hal.c ****   * @brief  Return the second word of the unique device identifier (UID based on 96 bits)
 489:Drivers/STM32L4xx_HAL_Driver/Src/stm32l4xx_hal.c ****   * @retval Device identifier
 490:Drivers/STM32L4xx_HAL_Driver/Src/stm32l4xx_hal.c ****   */
 491:Drivers/STM32L4xx_HAL_Driver/Src/stm32l4xx_hal.c **** uint32_t HAL_GetUIDw1(void)
 492:Drivers/STM32L4xx_HAL_Driver/Src/stm32l4xx_hal.c **** {
 726              		.loc 1 492 1 is_stmt 1 view -0
 727              		.cfi_startproc
 728              		@ args = 0, pretend = 0, frame = 0
 729              		@ frame_needed = 0, uses_anonymous_args = 0
 730              		@ link register save eliminated.
 493:Drivers/STM32L4xx_HAL_Driver/Src/stm32l4xx_hal.c ****   return(READ_REG(*((uint32_t *)(UID_BASE + 4U))));
 731              		.loc 1 493 3 view .LVU158
 732              		.loc 1 493 10 is_stmt 0 view .LVU159
 733 0000 014B     		ldr	r3, .L69
 494:Drivers/STM32L4xx_HAL_Driver/Src/stm32l4xx_hal.c **** }
 734              		.loc 1 494 1 view .LVU160
 735 0002 D3F89405 		ldr	r0, [r3, #1428]
 736 0006 7047     		bx	lr
 737              	.L70:
 738              		.align	2
 739              	.L69:
 740 0008 0070FF1F 		.word	536834048
 741              		.cfi_endproc
 742              	.LFE334:
 744              		.section	.text.HAL_GetUIDw2,"ax",%progbits
 745              		.align	1
 746              		.p2align 2,,3
 747              		.global	HAL_GetUIDw2
 748              		.syntax unified
 749              		.thumb
 750              		.thumb_func
 752              	HAL_GetUIDw2:
 753              	.LFB335:
 495:Drivers/STM32L4xx_HAL_Driver/Src/stm32l4xx_hal.c **** 
 496:Drivers/STM32L4xx_HAL_Driver/Src/stm32l4xx_hal.c **** /**
 497:Drivers/STM32L4xx_HAL_Driver/Src/stm32l4xx_hal.c ****   * @brief  Return the third word of the unique device identifier (UID based on 96 bits)
 498:Drivers/STM32L4xx_HAL_Driver/Src/stm32l4xx_hal.c ****   * @retval Device identifier
 499:Drivers/STM32L4xx_HAL_Driver/Src/stm32l4xx_hal.c ****   */
 500:Drivers/STM32L4xx_HAL_Driver/Src/stm32l4xx_hal.c **** uint32_t HAL_GetUIDw2(void)
 501:Drivers/STM32L4xx_HAL_Driver/Src/stm32l4xx_hal.c **** {
 754              		.loc 1 501 1 is_stmt 1 view -0
 755              		.cfi_startproc
 756              		@ args = 0, pretend = 0, frame = 0
 757              		@ frame_needed = 0, uses_anonymous_args = 0
 758              		@ link register save eliminated.
 502:Drivers/STM32L4xx_HAL_Driver/Src/stm32l4xx_hal.c ****   return(READ_REG(*((uint32_t *)(UID_BASE + 8U))));
 759              		.loc 1 502 3 view .LVU162
 760              		.loc 1 502 10 is_stmt 0 view .LVU163
 761 0000 014B     		ldr	r3, .L72
 503:Drivers/STM32L4xx_HAL_Driver/Src/stm32l4xx_hal.c **** }
 762              		.loc 1 503 1 view .LVU164
 763 0002 D3F89805 		ldr	r0, [r3, #1432]
 764 0006 7047     		bx	lr
 765              	.L73:
ARM GAS  C:\Users\ep_ygh\AppData\Local\Temp\ccULJmwJ.s 			page 24


 766              		.align	2
 767              	.L72:
 768 0008 0070FF1F 		.word	536834048
 769              		.cfi_endproc
 770              	.LFE335:
 772              		.section	.text.HAL_DBGMCU_EnableDBGSleepMode,"ax",%progbits
 773              		.align	1
 774              		.p2align 2,,3
 775              		.global	HAL_DBGMCU_EnableDBGSleepMode
 776              		.syntax unified
 777              		.thumb
 778              		.thumb_func
 780              	HAL_DBGMCU_EnableDBGSleepMode:
 781              	.LFB336:
 504:Drivers/STM32L4xx_HAL_Driver/Src/stm32l4xx_hal.c **** 
 505:Drivers/STM32L4xx_HAL_Driver/Src/stm32l4xx_hal.c **** /**
 506:Drivers/STM32L4xx_HAL_Driver/Src/stm32l4xx_hal.c ****   * @}
 507:Drivers/STM32L4xx_HAL_Driver/Src/stm32l4xx_hal.c ****   */
 508:Drivers/STM32L4xx_HAL_Driver/Src/stm32l4xx_hal.c **** 
 509:Drivers/STM32L4xx_HAL_Driver/Src/stm32l4xx_hal.c **** /** @defgroup HAL_Exported_Functions_Group3 HAL Debug functions
 510:Drivers/STM32L4xx_HAL_Driver/Src/stm32l4xx_hal.c ****  *  @brief    HAL Debug functions
 511:Drivers/STM32L4xx_HAL_Driver/Src/stm32l4xx_hal.c ****  *
 512:Drivers/STM32L4xx_HAL_Driver/Src/stm32l4xx_hal.c **** @verbatim
 513:Drivers/STM32L4xx_HAL_Driver/Src/stm32l4xx_hal.c ****  ===============================================================================
 514:Drivers/STM32L4xx_HAL_Driver/Src/stm32l4xx_hal.c ****                       ##### HAL Debug functions #####
 515:Drivers/STM32L4xx_HAL_Driver/Src/stm32l4xx_hal.c ****  ===============================================================================
 516:Drivers/STM32L4xx_HAL_Driver/Src/stm32l4xx_hal.c ****     [..]  This section provides functions allowing to:
 517:Drivers/STM32L4xx_HAL_Driver/Src/stm32l4xx_hal.c ****       (+) Enable/Disable Debug module during SLEEP mode
 518:Drivers/STM32L4xx_HAL_Driver/Src/stm32l4xx_hal.c ****       (+) Enable/Disable Debug module during STOP0/STOP1/STOP2 modes
 519:Drivers/STM32L4xx_HAL_Driver/Src/stm32l4xx_hal.c ****       (+) Enable/Disable Debug module during STANDBY mode
 520:Drivers/STM32L4xx_HAL_Driver/Src/stm32l4xx_hal.c **** 
 521:Drivers/STM32L4xx_HAL_Driver/Src/stm32l4xx_hal.c **** @endverbatim
 522:Drivers/STM32L4xx_HAL_Driver/Src/stm32l4xx_hal.c ****   * @{
 523:Drivers/STM32L4xx_HAL_Driver/Src/stm32l4xx_hal.c ****   */
 524:Drivers/STM32L4xx_HAL_Driver/Src/stm32l4xx_hal.c **** 
 525:Drivers/STM32L4xx_HAL_Driver/Src/stm32l4xx_hal.c **** /**
 526:Drivers/STM32L4xx_HAL_Driver/Src/stm32l4xx_hal.c ****   * @brief  Enable the Debug Module during SLEEP mode.
 527:Drivers/STM32L4xx_HAL_Driver/Src/stm32l4xx_hal.c ****   * @retval None
 528:Drivers/STM32L4xx_HAL_Driver/Src/stm32l4xx_hal.c ****   */
 529:Drivers/STM32L4xx_HAL_Driver/Src/stm32l4xx_hal.c **** void HAL_DBGMCU_EnableDBGSleepMode(void)
 530:Drivers/STM32L4xx_HAL_Driver/Src/stm32l4xx_hal.c **** {
 782              		.loc 1 530 1 is_stmt 1 view -0
 783              		.cfi_startproc
 784              		@ args = 0, pretend = 0, frame = 0
 785              		@ frame_needed = 0, uses_anonymous_args = 0
 786              		@ link register save eliminated.
 531:Drivers/STM32L4xx_HAL_Driver/Src/stm32l4xx_hal.c ****   SET_BIT(DBGMCU->CR, DBGMCU_CR_DBG_SLEEP);
 787              		.loc 1 531 3 view .LVU166
 788 0000 024A     		ldr	r2, .L75
 789 0002 5368     		ldr	r3, [r2, #4]
 790 0004 43F00103 		orr	r3, r3, #1
 791 0008 5360     		str	r3, [r2, #4]
 532:Drivers/STM32L4xx_HAL_Driver/Src/stm32l4xx_hal.c **** }
 792              		.loc 1 532 1 is_stmt 0 view .LVU167
 793 000a 7047     		bx	lr
 794              	.L76:
 795              		.align	2
ARM GAS  C:\Users\ep_ygh\AppData\Local\Temp\ccULJmwJ.s 			page 25


 796              	.L75:
 797 000c 002004E0 		.word	-536600576
 798              		.cfi_endproc
 799              	.LFE336:
 801              		.section	.text.HAL_DBGMCU_DisableDBGSleepMode,"ax",%progbits
 802              		.align	1
 803              		.p2align 2,,3
 804              		.global	HAL_DBGMCU_DisableDBGSleepMode
 805              		.syntax unified
 806              		.thumb
 807              		.thumb_func
 809              	HAL_DBGMCU_DisableDBGSleepMode:
 810              	.LFB337:
 533:Drivers/STM32L4xx_HAL_Driver/Src/stm32l4xx_hal.c **** 
 534:Drivers/STM32L4xx_HAL_Driver/Src/stm32l4xx_hal.c **** /**
 535:Drivers/STM32L4xx_HAL_Driver/Src/stm32l4xx_hal.c ****   * @brief  Disable the Debug Module during SLEEP mode.
 536:Drivers/STM32L4xx_HAL_Driver/Src/stm32l4xx_hal.c ****   * @retval None
 537:Drivers/STM32L4xx_HAL_Driver/Src/stm32l4xx_hal.c ****   */
 538:Drivers/STM32L4xx_HAL_Driver/Src/stm32l4xx_hal.c **** void HAL_DBGMCU_DisableDBGSleepMode(void)
 539:Drivers/STM32L4xx_HAL_Driver/Src/stm32l4xx_hal.c **** {
 811              		.loc 1 539 1 is_stmt 1 view -0
 812              		.cfi_startproc
 813              		@ args = 0, pretend = 0, frame = 0
 814              		@ frame_needed = 0, uses_anonymous_args = 0
 815              		@ link register save eliminated.
 540:Drivers/STM32L4xx_HAL_Driver/Src/stm32l4xx_hal.c ****   CLEAR_BIT(DBGMCU->CR, DBGMCU_CR_DBG_SLEEP);
 816              		.loc 1 540 3 view .LVU169
 817 0000 024A     		ldr	r2, .L78
 818 0002 5368     		ldr	r3, [r2, #4]
 819 0004 23F00103 		bic	r3, r3, #1
 820 0008 5360     		str	r3, [r2, #4]
 541:Drivers/STM32L4xx_HAL_Driver/Src/stm32l4xx_hal.c **** }
 821              		.loc 1 541 1 is_stmt 0 view .LVU170
 822 000a 7047     		bx	lr
 823              	.L79:
 824              		.align	2
 825              	.L78:
 826 000c 002004E0 		.word	-536600576
 827              		.cfi_endproc
 828              	.LFE337:
 830              		.section	.text.HAL_DBGMCU_EnableDBGStopMode,"ax",%progbits
 831              		.align	1
 832              		.p2align 2,,3
 833              		.global	HAL_DBGMCU_EnableDBGStopMode
 834              		.syntax unified
 835              		.thumb
 836              		.thumb_func
 838              	HAL_DBGMCU_EnableDBGStopMode:
 839              	.LFB338:
 542:Drivers/STM32L4xx_HAL_Driver/Src/stm32l4xx_hal.c **** 
 543:Drivers/STM32L4xx_HAL_Driver/Src/stm32l4xx_hal.c **** /**
 544:Drivers/STM32L4xx_HAL_Driver/Src/stm32l4xx_hal.c ****   * @brief  Enable the Debug Module during STOP0/STOP1/STOP2 modes.
 545:Drivers/STM32L4xx_HAL_Driver/Src/stm32l4xx_hal.c ****   * @retval None
 546:Drivers/STM32L4xx_HAL_Driver/Src/stm32l4xx_hal.c ****   */
 547:Drivers/STM32L4xx_HAL_Driver/Src/stm32l4xx_hal.c **** void HAL_DBGMCU_EnableDBGStopMode(void)
 548:Drivers/STM32L4xx_HAL_Driver/Src/stm32l4xx_hal.c **** {
 840              		.loc 1 548 1 is_stmt 1 view -0
ARM GAS  C:\Users\ep_ygh\AppData\Local\Temp\ccULJmwJ.s 			page 26


 841              		.cfi_startproc
 842              		@ args = 0, pretend = 0, frame = 0
 843              		@ frame_needed = 0, uses_anonymous_args = 0
 844              		@ link register save eliminated.
 549:Drivers/STM32L4xx_HAL_Driver/Src/stm32l4xx_hal.c ****   SET_BIT(DBGMCU->CR, DBGMCU_CR_DBG_STOP);
 845              		.loc 1 549 3 view .LVU172
 846 0000 024A     		ldr	r2, .L81
 847 0002 5368     		ldr	r3, [r2, #4]
 848 0004 43F00203 		orr	r3, r3, #2
 849 0008 5360     		str	r3, [r2, #4]
 550:Drivers/STM32L4xx_HAL_Driver/Src/stm32l4xx_hal.c **** }
 850              		.loc 1 550 1 is_stmt 0 view .LVU173
 851 000a 7047     		bx	lr
 852              	.L82:
 853              		.align	2
 854              	.L81:
 855 000c 002004E0 		.word	-536600576
 856              		.cfi_endproc
 857              	.LFE338:
 859              		.section	.text.HAL_DBGMCU_DisableDBGStopMode,"ax",%progbits
 860              		.align	1
 861              		.p2align 2,,3
 862              		.global	HAL_DBGMCU_DisableDBGStopMode
 863              		.syntax unified
 864              		.thumb
 865              		.thumb_func
 867              	HAL_DBGMCU_DisableDBGStopMode:
 868              	.LFB339:
 551:Drivers/STM32L4xx_HAL_Driver/Src/stm32l4xx_hal.c **** 
 552:Drivers/STM32L4xx_HAL_Driver/Src/stm32l4xx_hal.c **** /**
 553:Drivers/STM32L4xx_HAL_Driver/Src/stm32l4xx_hal.c ****   * @brief  Disable the Debug Module during STOP0/STOP1/STOP2 modes.
 554:Drivers/STM32L4xx_HAL_Driver/Src/stm32l4xx_hal.c ****   * @retval None
 555:Drivers/STM32L4xx_HAL_Driver/Src/stm32l4xx_hal.c ****   */
 556:Drivers/STM32L4xx_HAL_Driver/Src/stm32l4xx_hal.c **** void HAL_DBGMCU_DisableDBGStopMode(void)
 557:Drivers/STM32L4xx_HAL_Driver/Src/stm32l4xx_hal.c **** {
 869              		.loc 1 557 1 is_stmt 1 view -0
 870              		.cfi_startproc
 871              		@ args = 0, pretend = 0, frame = 0
 872              		@ frame_needed = 0, uses_anonymous_args = 0
 873              		@ link register save eliminated.
 558:Drivers/STM32L4xx_HAL_Driver/Src/stm32l4xx_hal.c ****   CLEAR_BIT(DBGMCU->CR, DBGMCU_CR_DBG_STOP);
 874              		.loc 1 558 3 view .LVU175
 875 0000 024A     		ldr	r2, .L84
 876 0002 5368     		ldr	r3, [r2, #4]
 877 0004 23F00203 		bic	r3, r3, #2
 878 0008 5360     		str	r3, [r2, #4]
 559:Drivers/STM32L4xx_HAL_Driver/Src/stm32l4xx_hal.c **** }
 879              		.loc 1 559 1 is_stmt 0 view .LVU176
 880 000a 7047     		bx	lr
 881              	.L85:
 882              		.align	2
 883              	.L84:
 884 000c 002004E0 		.word	-536600576
 885              		.cfi_endproc
 886              	.LFE339:
 888              		.section	.text.HAL_DBGMCU_EnableDBGStandbyMode,"ax",%progbits
 889              		.align	1
ARM GAS  C:\Users\ep_ygh\AppData\Local\Temp\ccULJmwJ.s 			page 27


 890              		.p2align 2,,3
 891              		.global	HAL_DBGMCU_EnableDBGStandbyMode
 892              		.syntax unified
 893              		.thumb
 894              		.thumb_func
 896              	HAL_DBGMCU_EnableDBGStandbyMode:
 897              	.LFB340:
 560:Drivers/STM32L4xx_HAL_Driver/Src/stm32l4xx_hal.c **** 
 561:Drivers/STM32L4xx_HAL_Driver/Src/stm32l4xx_hal.c **** /**
 562:Drivers/STM32L4xx_HAL_Driver/Src/stm32l4xx_hal.c ****   * @brief  Enable the Debug Module during STANDBY mode.
 563:Drivers/STM32L4xx_HAL_Driver/Src/stm32l4xx_hal.c ****   * @retval None
 564:Drivers/STM32L4xx_HAL_Driver/Src/stm32l4xx_hal.c ****   */
 565:Drivers/STM32L4xx_HAL_Driver/Src/stm32l4xx_hal.c **** void HAL_DBGMCU_EnableDBGStandbyMode(void)
 566:Drivers/STM32L4xx_HAL_Driver/Src/stm32l4xx_hal.c **** {
 898              		.loc 1 566 1 is_stmt 1 view -0
 899              		.cfi_startproc
 900              		@ args = 0, pretend = 0, frame = 0
 901              		@ frame_needed = 0, uses_anonymous_args = 0
 902              		@ link register save eliminated.
 567:Drivers/STM32L4xx_HAL_Driver/Src/stm32l4xx_hal.c ****   SET_BIT(DBGMCU->CR, DBGMCU_CR_DBG_STANDBY);
 903              		.loc 1 567 3 view .LVU178
 904 0000 024A     		ldr	r2, .L87
 905 0002 5368     		ldr	r3, [r2, #4]
 906 0004 43F00403 		orr	r3, r3, #4
 907 0008 5360     		str	r3, [r2, #4]
 568:Drivers/STM32L4xx_HAL_Driver/Src/stm32l4xx_hal.c **** }
 908              		.loc 1 568 1 is_stmt 0 view .LVU179
 909 000a 7047     		bx	lr
 910              	.L88:
 911              		.align	2
 912              	.L87:
 913 000c 002004E0 		.word	-536600576
 914              		.cfi_endproc
 915              	.LFE340:
 917              		.section	.text.HAL_DBGMCU_DisableDBGStandbyMode,"ax",%progbits
 918              		.align	1
 919              		.p2align 2,,3
 920              		.global	HAL_DBGMCU_DisableDBGStandbyMode
 921              		.syntax unified
 922              		.thumb
 923              		.thumb_func
 925              	HAL_DBGMCU_DisableDBGStandbyMode:
 926              	.LFB341:
 569:Drivers/STM32L4xx_HAL_Driver/Src/stm32l4xx_hal.c **** 
 570:Drivers/STM32L4xx_HAL_Driver/Src/stm32l4xx_hal.c **** /**
 571:Drivers/STM32L4xx_HAL_Driver/Src/stm32l4xx_hal.c ****   * @brief  Disable the Debug Module during STANDBY mode.
 572:Drivers/STM32L4xx_HAL_Driver/Src/stm32l4xx_hal.c ****   * @retval None
 573:Drivers/STM32L4xx_HAL_Driver/Src/stm32l4xx_hal.c ****   */
 574:Drivers/STM32L4xx_HAL_Driver/Src/stm32l4xx_hal.c **** void HAL_DBGMCU_DisableDBGStandbyMode(void)
 575:Drivers/STM32L4xx_HAL_Driver/Src/stm32l4xx_hal.c **** {
 927              		.loc 1 575 1 is_stmt 1 view -0
 928              		.cfi_startproc
 929              		@ args = 0, pretend = 0, frame = 0
 930              		@ frame_needed = 0, uses_anonymous_args = 0
 931              		@ link register save eliminated.
 576:Drivers/STM32L4xx_HAL_Driver/Src/stm32l4xx_hal.c ****   CLEAR_BIT(DBGMCU->CR, DBGMCU_CR_DBG_STANDBY);
 932              		.loc 1 576 3 view .LVU181
ARM GAS  C:\Users\ep_ygh\AppData\Local\Temp\ccULJmwJ.s 			page 28


 933 0000 024A     		ldr	r2, .L90
 934 0002 5368     		ldr	r3, [r2, #4]
 935 0004 23F00403 		bic	r3, r3, #4
 936 0008 5360     		str	r3, [r2, #4]
 577:Drivers/STM32L4xx_HAL_Driver/Src/stm32l4xx_hal.c **** }
 937              		.loc 1 577 1 is_stmt 0 view .LVU182
 938 000a 7047     		bx	lr
 939              	.L91:
 940              		.align	2
 941              	.L90:
 942 000c 002004E0 		.word	-536600576
 943              		.cfi_endproc
 944              	.LFE341:
 946              		.section	.text.HAL_SYSCFG_SRAM2Erase,"ax",%progbits
 947              		.align	1
 948              		.p2align 2,,3
 949              		.global	HAL_SYSCFG_SRAM2Erase
 950              		.syntax unified
 951              		.thumb
 952              		.thumb_func
 954              	HAL_SYSCFG_SRAM2Erase:
 955              	.LFB342:
 578:Drivers/STM32L4xx_HAL_Driver/Src/stm32l4xx_hal.c **** 
 579:Drivers/STM32L4xx_HAL_Driver/Src/stm32l4xx_hal.c **** /**
 580:Drivers/STM32L4xx_HAL_Driver/Src/stm32l4xx_hal.c ****   * @}
 581:Drivers/STM32L4xx_HAL_Driver/Src/stm32l4xx_hal.c ****   */
 582:Drivers/STM32L4xx_HAL_Driver/Src/stm32l4xx_hal.c **** 
 583:Drivers/STM32L4xx_HAL_Driver/Src/stm32l4xx_hal.c **** /** @defgroup HAL_Exported_Functions_Group4 HAL SYSCFG configuration functions
 584:Drivers/STM32L4xx_HAL_Driver/Src/stm32l4xx_hal.c ****  *  @brief    HAL SYSCFG configuration functions
 585:Drivers/STM32L4xx_HAL_Driver/Src/stm32l4xx_hal.c ****  *
 586:Drivers/STM32L4xx_HAL_Driver/Src/stm32l4xx_hal.c **** @verbatim
 587:Drivers/STM32L4xx_HAL_Driver/Src/stm32l4xx_hal.c ****  ===============================================================================
 588:Drivers/STM32L4xx_HAL_Driver/Src/stm32l4xx_hal.c ****                       ##### HAL SYSCFG configuration functions #####
 589:Drivers/STM32L4xx_HAL_Driver/Src/stm32l4xx_hal.c ****  ===============================================================================
 590:Drivers/STM32L4xx_HAL_Driver/Src/stm32l4xx_hal.c ****     [..]  This section provides functions allowing to:
 591:Drivers/STM32L4xx_HAL_Driver/Src/stm32l4xx_hal.c ****       (+) Start a hardware SRAM2 erase operation
 592:Drivers/STM32L4xx_HAL_Driver/Src/stm32l4xx_hal.c ****       (+) Enable/Disable the Internal FLASH Bank Swapping
 593:Drivers/STM32L4xx_HAL_Driver/Src/stm32l4xx_hal.c ****       (+) Configure the Voltage reference buffer
 594:Drivers/STM32L4xx_HAL_Driver/Src/stm32l4xx_hal.c ****       (+) Enable/Disable the Voltage reference buffer
 595:Drivers/STM32L4xx_HAL_Driver/Src/stm32l4xx_hal.c ****       (+) Enable/Disable the I/O analog switch voltage booster
 596:Drivers/STM32L4xx_HAL_Driver/Src/stm32l4xx_hal.c **** 
 597:Drivers/STM32L4xx_HAL_Driver/Src/stm32l4xx_hal.c **** @endverbatim
 598:Drivers/STM32L4xx_HAL_Driver/Src/stm32l4xx_hal.c ****   * @{
 599:Drivers/STM32L4xx_HAL_Driver/Src/stm32l4xx_hal.c ****   */
 600:Drivers/STM32L4xx_HAL_Driver/Src/stm32l4xx_hal.c **** 
 601:Drivers/STM32L4xx_HAL_Driver/Src/stm32l4xx_hal.c **** /**
 602:Drivers/STM32L4xx_HAL_Driver/Src/stm32l4xx_hal.c ****   * @brief  Start a hardware SRAM2 erase operation.
 603:Drivers/STM32L4xx_HAL_Driver/Src/stm32l4xx_hal.c ****   * @note   As long as SRAM2 is not erased the SRAM2ER bit will be set.
 604:Drivers/STM32L4xx_HAL_Driver/Src/stm32l4xx_hal.c ****   *         This bit is automatically reset at the end of the SRAM2 erase operation.
 605:Drivers/STM32L4xx_HAL_Driver/Src/stm32l4xx_hal.c ****   * @retval None
 606:Drivers/STM32L4xx_HAL_Driver/Src/stm32l4xx_hal.c ****   */
 607:Drivers/STM32L4xx_HAL_Driver/Src/stm32l4xx_hal.c **** void HAL_SYSCFG_SRAM2Erase(void)
 608:Drivers/STM32L4xx_HAL_Driver/Src/stm32l4xx_hal.c **** {
 956              		.loc 1 608 1 is_stmt 1 view -0
 957              		.cfi_startproc
 958              		@ args = 0, pretend = 0, frame = 0
 959              		@ frame_needed = 0, uses_anonymous_args = 0
ARM GAS  C:\Users\ep_ygh\AppData\Local\Temp\ccULJmwJ.s 			page 29


 960              		@ link register save eliminated.
 609:Drivers/STM32L4xx_HAL_Driver/Src/stm32l4xx_hal.c ****   /* unlock the write protection of the SRAM2ER bit */
 610:Drivers/STM32L4xx_HAL_Driver/Src/stm32l4xx_hal.c ****   SYSCFG->SKR = 0xCA;
 961              		.loc 1 610 3 view .LVU184
 962              		.loc 1 610 15 is_stmt 0 view .LVU185
 963 0000 064B     		ldr	r3, .L94
 611:Drivers/STM32L4xx_HAL_Driver/Src/stm32l4xx_hal.c ****   SYSCFG->SKR = 0x53;
 612:Drivers/STM32L4xx_HAL_Driver/Src/stm32l4xx_hal.c ****   /* Starts a hardware SRAM2 erase operation*/
 613:Drivers/STM32L4xx_HAL_Driver/Src/stm32l4xx_hal.c ****   *(__IO uint32_t *) SCSR_SRAM2ER_BB = 0x00000001UL;
 964              		.loc 1 613 38 view .LVU186
 965 0002 074A     		ldr	r2, .L94+4
 608:Drivers/STM32L4xx_HAL_Driver/Src/stm32l4xx_hal.c ****   /* unlock the write protection of the SRAM2ER bit */
 966              		.loc 1 608 1 view .LVU187
 967 0004 10B4     		push	{r4}
 968              	.LCFI5:
 969              		.cfi_def_cfa_offset 4
 970              		.cfi_offset 4, -4
 611:Drivers/STM32L4xx_HAL_Driver/Src/stm32l4xx_hal.c ****   SYSCFG->SKR = 0x53;
 971              		.loc 1 611 15 view .LVU188
 972 0006 5320     		movs	r0, #83
 610:Drivers/STM32L4xx_HAL_Driver/Src/stm32l4xx_hal.c ****   SYSCFG->SKR = 0x53;
 973              		.loc 1 610 15 view .LVU189
 974 0008 CA24     		movs	r4, #202
 975              		.loc 1 613 38 view .LVU190
 976 000a 0121     		movs	r1, #1
 610:Drivers/STM32L4xx_HAL_Driver/Src/stm32l4xx_hal.c ****   SYSCFG->SKR = 0x53;
 977              		.loc 1 610 15 view .LVU191
 978 000c 5C62     		str	r4, [r3, #36]
 611:Drivers/STM32L4xx_HAL_Driver/Src/stm32l4xx_hal.c ****   SYSCFG->SKR = 0x53;
 979              		.loc 1 611 3 is_stmt 1 view .LVU192
 611:Drivers/STM32L4xx_HAL_Driver/Src/stm32l4xx_hal.c ****   SYSCFG->SKR = 0x53;
 980              		.loc 1 611 15 is_stmt 0 view .LVU193
 981 000e 5862     		str	r0, [r3, #36]
 982              		.loc 1 613 3 is_stmt 1 view .LVU194
 614:Drivers/STM32L4xx_HAL_Driver/Src/stm32l4xx_hal.c **** }
 983              		.loc 1 614 1 is_stmt 0 view .LVU195
 984 0010 5DF8044B 		ldr	r4, [sp], #4
 985              	.LCFI6:
 986              		.cfi_restore 4
 987              		.cfi_def_cfa_offset 0
 613:Drivers/STM32L4xx_HAL_Driver/Src/stm32l4xx_hal.c **** }
 988              		.loc 1 613 38 view .LVU196
 989 0014 C2F80013 		str	r1, [r2, #768]
 990              		.loc 1 614 1 view .LVU197
 991 0018 7047     		bx	lr
 992              	.L95:
 993 001a 00BF     		.align	2
 994              	.L94:
 995 001c 00000140 		.word	1073807360
 996 0020 00002042 		.word	1109393408
 997              		.cfi_endproc
 998              	.LFE342:
 1000              		.section	.text.HAL_SYSCFG_EnableMemorySwappingBank,"ax",%progbits
 1001              		.align	1
 1002              		.p2align 2,,3
 1003              		.global	HAL_SYSCFG_EnableMemorySwappingBank
 1004              		.syntax unified
ARM GAS  C:\Users\ep_ygh\AppData\Local\Temp\ccULJmwJ.s 			page 30


 1005              		.thumb
 1006              		.thumb_func
 1008              	HAL_SYSCFG_EnableMemorySwappingBank:
 1009              	.LFB343:
 615:Drivers/STM32L4xx_HAL_Driver/Src/stm32l4xx_hal.c **** 
 616:Drivers/STM32L4xx_HAL_Driver/Src/stm32l4xx_hal.c **** /**
 617:Drivers/STM32L4xx_HAL_Driver/Src/stm32l4xx_hal.c ****   * @brief  Enable the Internal FLASH Bank Swapping.
 618:Drivers/STM32L4xx_HAL_Driver/Src/stm32l4xx_hal.c ****   *
 619:Drivers/STM32L4xx_HAL_Driver/Src/stm32l4xx_hal.c ****   * @note   This function can be used only for STM32L4xx devices.
 620:Drivers/STM32L4xx_HAL_Driver/Src/stm32l4xx_hal.c ****   *
 621:Drivers/STM32L4xx_HAL_Driver/Src/stm32l4xx_hal.c ****   * @note   Flash Bank2 mapped at 0x08000000 (and aliased @0x00000000)
 622:Drivers/STM32L4xx_HAL_Driver/Src/stm32l4xx_hal.c ****   *         and Flash Bank1 mapped at 0x08100000 (and aliased at 0x00100000)
 623:Drivers/STM32L4xx_HAL_Driver/Src/stm32l4xx_hal.c ****   *
 624:Drivers/STM32L4xx_HAL_Driver/Src/stm32l4xx_hal.c ****   * @retval None
 625:Drivers/STM32L4xx_HAL_Driver/Src/stm32l4xx_hal.c ****   */
 626:Drivers/STM32L4xx_HAL_Driver/Src/stm32l4xx_hal.c **** void HAL_SYSCFG_EnableMemorySwappingBank(void)
 627:Drivers/STM32L4xx_HAL_Driver/Src/stm32l4xx_hal.c **** {
 1010              		.loc 1 627 1 is_stmt 1 view -0
 1011              		.cfi_startproc
 1012              		@ args = 0, pretend = 0, frame = 0
 1013              		@ frame_needed = 0, uses_anonymous_args = 0
 1014              		@ link register save eliminated.
 628:Drivers/STM32L4xx_HAL_Driver/Src/stm32l4xx_hal.c ****   *(__IO uint32_t *)FB_MODE_BB = 0x00000001UL;
 1015              		.loc 1 628 3 view .LVU199
 1016              		.loc 1 628 32 is_stmt 0 view .LVU200
 1017 0000 014B     		ldr	r3, .L97
 1018 0002 0122     		movs	r2, #1
 1019 0004 1A62     		str	r2, [r3, #32]
 629:Drivers/STM32L4xx_HAL_Driver/Src/stm32l4xx_hal.c **** }
 1020              		.loc 1 629 1 view .LVU201
 1021 0006 7047     		bx	lr
 1022              	.L98:
 1023              		.align	2
 1024              	.L97:
 1025 0008 00002042 		.word	1109393408
 1026              		.cfi_endproc
 1027              	.LFE343:
 1029              		.section	.text.HAL_SYSCFG_DisableMemorySwappingBank,"ax",%progbits
 1030              		.align	1
 1031              		.p2align 2,,3
 1032              		.global	HAL_SYSCFG_DisableMemorySwappingBank
 1033              		.syntax unified
 1034              		.thumb
 1035              		.thumb_func
 1037              	HAL_SYSCFG_DisableMemorySwappingBank:
 1038              	.LFB344:
 630:Drivers/STM32L4xx_HAL_Driver/Src/stm32l4xx_hal.c **** 
 631:Drivers/STM32L4xx_HAL_Driver/Src/stm32l4xx_hal.c **** /**
 632:Drivers/STM32L4xx_HAL_Driver/Src/stm32l4xx_hal.c ****   * @brief  Disable the Internal FLASH Bank Swapping.
 633:Drivers/STM32L4xx_HAL_Driver/Src/stm32l4xx_hal.c ****   *
 634:Drivers/STM32L4xx_HAL_Driver/Src/stm32l4xx_hal.c ****   * @note   This function can be used only for STM32L4xx devices.
 635:Drivers/STM32L4xx_HAL_Driver/Src/stm32l4xx_hal.c ****   *
 636:Drivers/STM32L4xx_HAL_Driver/Src/stm32l4xx_hal.c ****   * @note   The default state : Flash Bank1 mapped at 0x08000000 (and aliased @0x0000 0000)
 637:Drivers/STM32L4xx_HAL_Driver/Src/stm32l4xx_hal.c ****   *         and Flash Bank2 mapped at 0x08100000 (and aliased at 0x00100000)
 638:Drivers/STM32L4xx_HAL_Driver/Src/stm32l4xx_hal.c ****   *
 639:Drivers/STM32L4xx_HAL_Driver/Src/stm32l4xx_hal.c ****   * @retval None
 640:Drivers/STM32L4xx_HAL_Driver/Src/stm32l4xx_hal.c ****   */
ARM GAS  C:\Users\ep_ygh\AppData\Local\Temp\ccULJmwJ.s 			page 31


 641:Drivers/STM32L4xx_HAL_Driver/Src/stm32l4xx_hal.c **** void HAL_SYSCFG_DisableMemorySwappingBank(void)
 642:Drivers/STM32L4xx_HAL_Driver/Src/stm32l4xx_hal.c **** {
 1039              		.loc 1 642 1 is_stmt 1 view -0
 1040              		.cfi_startproc
 1041              		@ args = 0, pretend = 0, frame = 0
 1042              		@ frame_needed = 0, uses_anonymous_args = 0
 1043              		@ link register save eliminated.
 643:Drivers/STM32L4xx_HAL_Driver/Src/stm32l4xx_hal.c **** 
 644:Drivers/STM32L4xx_HAL_Driver/Src/stm32l4xx_hal.c ****   *(__IO uint32_t *)FB_MODE_BB = 0x00000000UL;
 1044              		.loc 1 644 3 view .LVU203
 1045              		.loc 1 644 32 is_stmt 0 view .LVU204
 1046 0000 014B     		ldr	r3, .L100
 1047 0002 0022     		movs	r2, #0
 1048 0004 1A62     		str	r2, [r3, #32]
 645:Drivers/STM32L4xx_HAL_Driver/Src/stm32l4xx_hal.c **** }
 1049              		.loc 1 645 1 view .LVU205
 1050 0006 7047     		bx	lr
 1051              	.L101:
 1052              		.align	2
 1053              	.L100:
 1054 0008 00002042 		.word	1109393408
 1055              		.cfi_endproc
 1056              	.LFE344:
 1058              		.section	.text.HAL_SYSCFG_VREFBUF_VoltageScalingConfig,"ax",%progbits
 1059              		.align	1
 1060              		.p2align 2,,3
 1061              		.global	HAL_SYSCFG_VREFBUF_VoltageScalingConfig
 1062              		.syntax unified
 1063              		.thumb
 1064              		.thumb_func
 1066              	HAL_SYSCFG_VREFBUF_VoltageScalingConfig:
 1067              	.LVL30:
 1068              	.LFB345:
 646:Drivers/STM32L4xx_HAL_Driver/Src/stm32l4xx_hal.c **** 
 647:Drivers/STM32L4xx_HAL_Driver/Src/stm32l4xx_hal.c **** #if defined(VREFBUF)
 648:Drivers/STM32L4xx_HAL_Driver/Src/stm32l4xx_hal.c **** /**
 649:Drivers/STM32L4xx_HAL_Driver/Src/stm32l4xx_hal.c ****   * @brief Configure the internal voltage reference buffer voltage scale.
 650:Drivers/STM32L4xx_HAL_Driver/Src/stm32l4xx_hal.c ****   * @param VoltageScaling  specifies the output voltage to achieve
 651:Drivers/STM32L4xx_HAL_Driver/Src/stm32l4xx_hal.c ****   *          This parameter can be one of the following values:
 652:Drivers/STM32L4xx_HAL_Driver/Src/stm32l4xx_hal.c ****   *            @arg SYSCFG_VREFBUF_VOLTAGE_SCALE0: VREF_OUT1 around 2.048 V.
 653:Drivers/STM32L4xx_HAL_Driver/Src/stm32l4xx_hal.c ****   *                                                This requires VDDA equal to or higher than 2.4 V
 654:Drivers/STM32L4xx_HAL_Driver/Src/stm32l4xx_hal.c ****   *            @arg SYSCFG_VREFBUF_VOLTAGE_SCALE1: VREF_OUT2 around 2.5 V.
 655:Drivers/STM32L4xx_HAL_Driver/Src/stm32l4xx_hal.c ****   *                                                This requires VDDA equal to or higher than 2.8 V
 656:Drivers/STM32L4xx_HAL_Driver/Src/stm32l4xx_hal.c ****   * @retval None
 657:Drivers/STM32L4xx_HAL_Driver/Src/stm32l4xx_hal.c ****   */
 658:Drivers/STM32L4xx_HAL_Driver/Src/stm32l4xx_hal.c **** void HAL_SYSCFG_VREFBUF_VoltageScalingConfig(uint32_t VoltageScaling)
 659:Drivers/STM32L4xx_HAL_Driver/Src/stm32l4xx_hal.c **** {
 1069              		.loc 1 659 1 is_stmt 1 view -0
 1070              		.cfi_startproc
 1071              		@ args = 0, pretend = 0, frame = 0
 1072              		@ frame_needed = 0, uses_anonymous_args = 0
 1073              		@ link register save eliminated.
 660:Drivers/STM32L4xx_HAL_Driver/Src/stm32l4xx_hal.c ****   /* Check the parameters */
 661:Drivers/STM32L4xx_HAL_Driver/Src/stm32l4xx_hal.c ****   assert_param(IS_SYSCFG_VREFBUF_VOLTAGE_SCALE(VoltageScaling));
 1074              		.loc 1 661 3 view .LVU207
 662:Drivers/STM32L4xx_HAL_Driver/Src/stm32l4xx_hal.c **** 
 663:Drivers/STM32L4xx_HAL_Driver/Src/stm32l4xx_hal.c ****   MODIFY_REG(VREFBUF->CSR, VREFBUF_CSR_VRS, VoltageScaling);
ARM GAS  C:\Users\ep_ygh\AppData\Local\Temp\ccULJmwJ.s 			page 32


 1075              		.loc 1 663 3 view .LVU208
 1076 0000 034A     		ldr	r2, .L103
 1077 0002 136B     		ldr	r3, [r2, #48]
 1078 0004 23F00403 		bic	r3, r3, #4
 1079 0008 1843     		orrs	r0, r0, r3
 1080              	.LVL31:
 1081              		.loc 1 663 3 is_stmt 0 view .LVU209
 1082 000a 1063     		str	r0, [r2, #48]
 664:Drivers/STM32L4xx_HAL_Driver/Src/stm32l4xx_hal.c **** }
 1083              		.loc 1 664 1 view .LVU210
 1084 000c 7047     		bx	lr
 1085              	.L104:
 1086 000e 00BF     		.align	2
 1087              	.L103:
 1088 0010 00000140 		.word	1073807360
 1089              		.cfi_endproc
 1090              	.LFE345:
 1092              		.section	.text.HAL_SYSCFG_VREFBUF_HighImpedanceConfig,"ax",%progbits
 1093              		.align	1
 1094              		.p2align 2,,3
 1095              		.global	HAL_SYSCFG_VREFBUF_HighImpedanceConfig
 1096              		.syntax unified
 1097              		.thumb
 1098              		.thumb_func
 1100              	HAL_SYSCFG_VREFBUF_HighImpedanceConfig:
 1101              	.LVL32:
 1102              	.LFB346:
 665:Drivers/STM32L4xx_HAL_Driver/Src/stm32l4xx_hal.c **** 
 666:Drivers/STM32L4xx_HAL_Driver/Src/stm32l4xx_hal.c **** /**
 667:Drivers/STM32L4xx_HAL_Driver/Src/stm32l4xx_hal.c ****   * @brief Configure the internal voltage reference buffer high impedance mode.
 668:Drivers/STM32L4xx_HAL_Driver/Src/stm32l4xx_hal.c ****   * @param Mode  specifies the high impedance mode
 669:Drivers/STM32L4xx_HAL_Driver/Src/stm32l4xx_hal.c ****   *          This parameter can be one of the following values:
 670:Drivers/STM32L4xx_HAL_Driver/Src/stm32l4xx_hal.c ****   *            @arg SYSCFG_VREFBUF_HIGH_IMPEDANCE_DISABLE: VREF+ pin is internally connect to VREFI
 671:Drivers/STM32L4xx_HAL_Driver/Src/stm32l4xx_hal.c ****   *            @arg SYSCFG_VREFBUF_HIGH_IMPEDANCE_ENABLE: VREF+ pin is high impedance.
 672:Drivers/STM32L4xx_HAL_Driver/Src/stm32l4xx_hal.c ****   * @retval None
 673:Drivers/STM32L4xx_HAL_Driver/Src/stm32l4xx_hal.c ****   */
 674:Drivers/STM32L4xx_HAL_Driver/Src/stm32l4xx_hal.c **** void HAL_SYSCFG_VREFBUF_HighImpedanceConfig(uint32_t Mode)
 675:Drivers/STM32L4xx_HAL_Driver/Src/stm32l4xx_hal.c **** {
 1103              		.loc 1 675 1 is_stmt 1 view -0
 1104              		.cfi_startproc
 1105              		@ args = 0, pretend = 0, frame = 0
 1106              		@ frame_needed = 0, uses_anonymous_args = 0
 1107              		@ link register save eliminated.
 676:Drivers/STM32L4xx_HAL_Driver/Src/stm32l4xx_hal.c ****   /* Check the parameters */
 677:Drivers/STM32L4xx_HAL_Driver/Src/stm32l4xx_hal.c ****   assert_param(IS_SYSCFG_VREFBUF_HIGH_IMPEDANCE(Mode));
 1108              		.loc 1 677 3 view .LVU212
 678:Drivers/STM32L4xx_HAL_Driver/Src/stm32l4xx_hal.c **** 
 679:Drivers/STM32L4xx_HAL_Driver/Src/stm32l4xx_hal.c ****   MODIFY_REG(VREFBUF->CSR, VREFBUF_CSR_HIZ, Mode);
 1109              		.loc 1 679 3 view .LVU213
 1110 0000 034A     		ldr	r2, .L106
 1111 0002 136B     		ldr	r3, [r2, #48]
 1112 0004 23F00203 		bic	r3, r3, #2
 1113 0008 1843     		orrs	r0, r0, r3
 1114              	.LVL33:
 1115              		.loc 1 679 3 is_stmt 0 view .LVU214
 1116 000a 1063     		str	r0, [r2, #48]
 680:Drivers/STM32L4xx_HAL_Driver/Src/stm32l4xx_hal.c **** }
ARM GAS  C:\Users\ep_ygh\AppData\Local\Temp\ccULJmwJ.s 			page 33


 1117              		.loc 1 680 1 view .LVU215
 1118 000c 7047     		bx	lr
 1119              	.L107:
 1120 000e 00BF     		.align	2
 1121              	.L106:
 1122 0010 00000140 		.word	1073807360
 1123              		.cfi_endproc
 1124              	.LFE346:
 1126              		.section	.text.HAL_SYSCFG_VREFBUF_TrimmingConfig,"ax",%progbits
 1127              		.align	1
 1128              		.p2align 2,,3
 1129              		.global	HAL_SYSCFG_VREFBUF_TrimmingConfig
 1130              		.syntax unified
 1131              		.thumb
 1132              		.thumb_func
 1134              	HAL_SYSCFG_VREFBUF_TrimmingConfig:
 1135              	.LVL34:
 1136              	.LFB347:
 681:Drivers/STM32L4xx_HAL_Driver/Src/stm32l4xx_hal.c **** 
 682:Drivers/STM32L4xx_HAL_Driver/Src/stm32l4xx_hal.c **** /**
 683:Drivers/STM32L4xx_HAL_Driver/Src/stm32l4xx_hal.c ****   * @brief  Tune the Internal Voltage Reference buffer (VREFBUF).
 684:Drivers/STM32L4xx_HAL_Driver/Src/stm32l4xx_hal.c ****   * @retval None
 685:Drivers/STM32L4xx_HAL_Driver/Src/stm32l4xx_hal.c ****   */
 686:Drivers/STM32L4xx_HAL_Driver/Src/stm32l4xx_hal.c **** void HAL_SYSCFG_VREFBUF_TrimmingConfig(uint32_t TrimmingValue)
 687:Drivers/STM32L4xx_HAL_Driver/Src/stm32l4xx_hal.c **** {
 1137              		.loc 1 687 1 is_stmt 1 view -0
 1138              		.cfi_startproc
 1139              		@ args = 0, pretend = 0, frame = 0
 1140              		@ frame_needed = 0, uses_anonymous_args = 0
 1141              		@ link register save eliminated.
 688:Drivers/STM32L4xx_HAL_Driver/Src/stm32l4xx_hal.c ****   /* Check the parameters */
 689:Drivers/STM32L4xx_HAL_Driver/Src/stm32l4xx_hal.c ****   assert_param(IS_SYSCFG_VREFBUF_TRIMMING(TrimmingValue));
 1142              		.loc 1 689 3 view .LVU217
 690:Drivers/STM32L4xx_HAL_Driver/Src/stm32l4xx_hal.c **** 
 691:Drivers/STM32L4xx_HAL_Driver/Src/stm32l4xx_hal.c ****   MODIFY_REG(VREFBUF->CCR, VREFBUF_CCR_TRIM, TrimmingValue);
 1143              		.loc 1 691 3 view .LVU218
 1144 0000 034A     		ldr	r2, .L109
 1145 0002 536B     		ldr	r3, [r2, #52]
 1146 0004 23F03F03 		bic	r3, r3, #63
 1147 0008 1843     		orrs	r0, r0, r3
 1148              	.LVL35:
 1149              		.loc 1 691 3 is_stmt 0 view .LVU219
 1150 000a 5063     		str	r0, [r2, #52]
 692:Drivers/STM32L4xx_HAL_Driver/Src/stm32l4xx_hal.c **** }
 1151              		.loc 1 692 1 view .LVU220
 1152 000c 7047     		bx	lr
 1153              	.L110:
 1154 000e 00BF     		.align	2
 1155              	.L109:
 1156 0010 00000140 		.word	1073807360
 1157              		.cfi_endproc
 1158              	.LFE347:
 1160              		.section	.text.HAL_SYSCFG_EnableVREFBUF,"ax",%progbits
 1161              		.align	1
 1162              		.p2align 2,,3
 1163              		.global	HAL_SYSCFG_EnableVREFBUF
 1164              		.syntax unified
ARM GAS  C:\Users\ep_ygh\AppData\Local\Temp\ccULJmwJ.s 			page 34


 1165              		.thumb
 1166              		.thumb_func
 1168              	HAL_SYSCFG_EnableVREFBUF:
 1169              	.LFB348:
 693:Drivers/STM32L4xx_HAL_Driver/Src/stm32l4xx_hal.c **** 
 694:Drivers/STM32L4xx_HAL_Driver/Src/stm32l4xx_hal.c **** /**
 695:Drivers/STM32L4xx_HAL_Driver/Src/stm32l4xx_hal.c ****   * @brief  Enable the Internal Voltage Reference buffer (VREFBUF).
 696:Drivers/STM32L4xx_HAL_Driver/Src/stm32l4xx_hal.c ****   * @retval HAL_OK/HAL_TIMEOUT
 697:Drivers/STM32L4xx_HAL_Driver/Src/stm32l4xx_hal.c ****   */
 698:Drivers/STM32L4xx_HAL_Driver/Src/stm32l4xx_hal.c **** HAL_StatusTypeDef HAL_SYSCFG_EnableVREFBUF(void)
 699:Drivers/STM32L4xx_HAL_Driver/Src/stm32l4xx_hal.c **** {
 1170              		.loc 1 699 1 is_stmt 1 view -0
 1171              		.cfi_startproc
 1172              		@ args = 0, pretend = 0, frame = 0
 1173              		@ frame_needed = 0, uses_anonymous_args = 0
 700:Drivers/STM32L4xx_HAL_Driver/Src/stm32l4xx_hal.c ****   uint32_t  tickstart;
 1174              		.loc 1 700 3 view .LVU222
 701:Drivers/STM32L4xx_HAL_Driver/Src/stm32l4xx_hal.c **** 
 702:Drivers/STM32L4xx_HAL_Driver/Src/stm32l4xx_hal.c ****   SET_BIT(VREFBUF->CSR, VREFBUF_CSR_ENVR);
 1175              		.loc 1 702 3 view .LVU223
 699:Drivers/STM32L4xx_HAL_Driver/Src/stm32l4xx_hal.c ****   uint32_t  tickstart;
 1176              		.loc 1 699 1 is_stmt 0 view .LVU224
 1177 0000 38B5     		push	{r3, r4, r5, lr}
 1178              	.LCFI7:
 1179              		.cfi_def_cfa_offset 16
 1180              		.cfi_offset 3, -16
 1181              		.cfi_offset 4, -12
 1182              		.cfi_offset 5, -8
 1183              		.cfi_offset 14, -4
 1184              		.loc 1 702 3 view .LVU225
 1185 0002 0A4C     		ldr	r4, .L117
 1186 0004 236B     		ldr	r3, [r4, #48]
 1187 0006 43F00103 		orr	r3, r3, #1
 1188 000a 2363     		str	r3, [r4, #48]
 703:Drivers/STM32L4xx_HAL_Driver/Src/stm32l4xx_hal.c **** 
 704:Drivers/STM32L4xx_HAL_Driver/Src/stm32l4xx_hal.c ****   /* Get Start Tick*/
 705:Drivers/STM32L4xx_HAL_Driver/Src/stm32l4xx_hal.c ****   tickstart = HAL_GetTick();
 1189              		.loc 1 705 3 is_stmt 1 view .LVU226
 1190              		.loc 1 705 15 is_stmt 0 view .LVU227
 1191 000c FFF7FEFF 		bl	HAL_GetTick
 1192              	.LVL36:
 1193 0010 0546     		mov	r5, r0
 1194              	.LVL37:
 706:Drivers/STM32L4xx_HAL_Driver/Src/stm32l4xx_hal.c **** 
 707:Drivers/STM32L4xx_HAL_Driver/Src/stm32l4xx_hal.c ****   /* Wait for VRR bit  */
 708:Drivers/STM32L4xx_HAL_Driver/Src/stm32l4xx_hal.c ****   while(READ_BIT(VREFBUF->CSR, VREFBUF_CSR_VRR) == 0U)
 1195              		.loc 1 708 3 is_stmt 1 view .LVU228
 1196              		.loc 1 708 8 is_stmt 0 view .LVU229
 1197 0012 04E0     		b	.L112
 1198              	.LVL38:
 1199              	.L114:
 709:Drivers/STM32L4xx_HAL_Driver/Src/stm32l4xx_hal.c ****   {
 710:Drivers/STM32L4xx_HAL_Driver/Src/stm32l4xx_hal.c ****     if((HAL_GetTick() - tickstart) > VREFBUF_TIMEOUT_VALUE)
 1200              		.loc 1 710 9 view .LVU230
 1201 0014 FFF7FEFF 		bl	HAL_GetTick
 1202              	.LVL39:
 1203              		.loc 1 710 23 view .LVU231
ARM GAS  C:\Users\ep_ygh\AppData\Local\Temp\ccULJmwJ.s 			page 35


 1204 0018 401B     		subs	r0, r0, r5
 1205              		.loc 1 710 7 view .LVU232
 1206 001a 0A28     		cmp	r0, #10
 1207 001c 04D8     		bhi	.L115
 1208              	.L112:
 1209              		.loc 1 710 5 is_stmt 1 view .LVU233
 708:Drivers/STM32L4xx_HAL_Driver/Src/stm32l4xx_hal.c ****   {
 1210              		.loc 1 708 8 view .LVU234
 708:Drivers/STM32L4xx_HAL_Driver/Src/stm32l4xx_hal.c ****   {
 1211              		.loc 1 708 9 is_stmt 0 view .LVU235
 1212 001e 236B     		ldr	r3, [r4, #48]
 708:Drivers/STM32L4xx_HAL_Driver/Src/stm32l4xx_hal.c ****   {
 1213              		.loc 1 708 8 view .LVU236
 1214 0020 1B07     		lsls	r3, r3, #28
 1215 0022 F7D5     		bpl	.L114
 711:Drivers/STM32L4xx_HAL_Driver/Src/stm32l4xx_hal.c ****     {
 712:Drivers/STM32L4xx_HAL_Driver/Src/stm32l4xx_hal.c ****       return HAL_TIMEOUT;
 713:Drivers/STM32L4xx_HAL_Driver/Src/stm32l4xx_hal.c ****     }
 714:Drivers/STM32L4xx_HAL_Driver/Src/stm32l4xx_hal.c ****   }
 715:Drivers/STM32L4xx_HAL_Driver/Src/stm32l4xx_hal.c **** 
 716:Drivers/STM32L4xx_HAL_Driver/Src/stm32l4xx_hal.c ****   return HAL_OK;
 1216              		.loc 1 716 10 view .LVU237
 1217 0024 0020     		movs	r0, #0
 717:Drivers/STM32L4xx_HAL_Driver/Src/stm32l4xx_hal.c **** }
 1218              		.loc 1 717 1 view .LVU238
 1219 0026 38BD     		pop	{r3, r4, r5, pc}
 1220              	.LVL40:
 1221              	.L115:
 712:Drivers/STM32L4xx_HAL_Driver/Src/stm32l4xx_hal.c ****     }
 1222              		.loc 1 712 14 view .LVU239
 1223 0028 0320     		movs	r0, #3
 1224              		.loc 1 717 1 view .LVU240
 1225 002a 38BD     		pop	{r3, r4, r5, pc}
 1226              	.LVL41:
 1227              	.L118:
 1228              		.loc 1 717 1 view .LVU241
 1229              		.align	2
 1230              	.L117:
 1231 002c 00000140 		.word	1073807360
 1232              		.cfi_endproc
 1233              	.LFE348:
 1235              		.section	.text.HAL_SYSCFG_DisableVREFBUF,"ax",%progbits
 1236              		.align	1
 1237              		.p2align 2,,3
 1238              		.global	HAL_SYSCFG_DisableVREFBUF
 1239              		.syntax unified
 1240              		.thumb
 1241              		.thumb_func
 1243              	HAL_SYSCFG_DisableVREFBUF:
 1244              	.LFB349:
 718:Drivers/STM32L4xx_HAL_Driver/Src/stm32l4xx_hal.c **** 
 719:Drivers/STM32L4xx_HAL_Driver/Src/stm32l4xx_hal.c **** /**
 720:Drivers/STM32L4xx_HAL_Driver/Src/stm32l4xx_hal.c ****   * @brief  Disable the Internal Voltage Reference buffer (VREFBUF).
 721:Drivers/STM32L4xx_HAL_Driver/Src/stm32l4xx_hal.c ****   *
 722:Drivers/STM32L4xx_HAL_Driver/Src/stm32l4xx_hal.c ****   * @retval None
 723:Drivers/STM32L4xx_HAL_Driver/Src/stm32l4xx_hal.c ****   */
 724:Drivers/STM32L4xx_HAL_Driver/Src/stm32l4xx_hal.c **** void HAL_SYSCFG_DisableVREFBUF(void)
ARM GAS  C:\Users\ep_ygh\AppData\Local\Temp\ccULJmwJ.s 			page 36


 725:Drivers/STM32L4xx_HAL_Driver/Src/stm32l4xx_hal.c **** {
 1245              		.loc 1 725 1 is_stmt 1 view -0
 1246              		.cfi_startproc
 1247              		@ args = 0, pretend = 0, frame = 0
 1248              		@ frame_needed = 0, uses_anonymous_args = 0
 1249              		@ link register save eliminated.
 726:Drivers/STM32L4xx_HAL_Driver/Src/stm32l4xx_hal.c ****   CLEAR_BIT(VREFBUF->CSR, VREFBUF_CSR_ENVR);
 1250              		.loc 1 726 3 view .LVU243
 1251 0000 024A     		ldr	r2, .L120
 1252 0002 136B     		ldr	r3, [r2, #48]
 1253 0004 23F00103 		bic	r3, r3, #1
 1254 0008 1363     		str	r3, [r2, #48]
 727:Drivers/STM32L4xx_HAL_Driver/Src/stm32l4xx_hal.c **** }
 1255              		.loc 1 727 1 is_stmt 0 view .LVU244
 1256 000a 7047     		bx	lr
 1257              	.L121:
 1258              		.align	2
 1259              	.L120:
 1260 000c 00000140 		.word	1073807360
 1261              		.cfi_endproc
 1262              	.LFE349:
 1264              		.section	.text.HAL_SYSCFG_EnableIOAnalogSwitchBooster,"ax",%progbits
 1265              		.align	1
 1266              		.p2align 2,,3
 1267              		.global	HAL_SYSCFG_EnableIOAnalogSwitchBooster
 1268              		.syntax unified
 1269              		.thumb
 1270              		.thumb_func
 1272              	HAL_SYSCFG_EnableIOAnalogSwitchBooster:
 1273              	.LFB350:
 728:Drivers/STM32L4xx_HAL_Driver/Src/stm32l4xx_hal.c **** #endif /* VREFBUF */
 729:Drivers/STM32L4xx_HAL_Driver/Src/stm32l4xx_hal.c **** 
 730:Drivers/STM32L4xx_HAL_Driver/Src/stm32l4xx_hal.c **** /**
 731:Drivers/STM32L4xx_HAL_Driver/Src/stm32l4xx_hal.c ****   * @brief  Enable the I/O analog switch voltage booster
 732:Drivers/STM32L4xx_HAL_Driver/Src/stm32l4xx_hal.c ****   *
 733:Drivers/STM32L4xx_HAL_Driver/Src/stm32l4xx_hal.c ****   * @retval None
 734:Drivers/STM32L4xx_HAL_Driver/Src/stm32l4xx_hal.c ****   */
 735:Drivers/STM32L4xx_HAL_Driver/Src/stm32l4xx_hal.c **** void HAL_SYSCFG_EnableIOAnalogSwitchBooster(void)
 736:Drivers/STM32L4xx_HAL_Driver/Src/stm32l4xx_hal.c **** {
 1274              		.loc 1 736 1 is_stmt 1 view -0
 1275              		.cfi_startproc
 1276              		@ args = 0, pretend = 0, frame = 0
 1277              		@ frame_needed = 0, uses_anonymous_args = 0
 1278              		@ link register save eliminated.
 737:Drivers/STM32L4xx_HAL_Driver/Src/stm32l4xx_hal.c ****   SET_BIT(SYSCFG->CFGR1, SYSCFG_CFGR1_BOOSTEN);
 1279              		.loc 1 737 3 view .LVU246
 1280 0000 024A     		ldr	r2, .L123
 1281 0002 5368     		ldr	r3, [r2, #4]
 1282 0004 43F48073 		orr	r3, r3, #256
 1283 0008 5360     		str	r3, [r2, #4]
 738:Drivers/STM32L4xx_HAL_Driver/Src/stm32l4xx_hal.c **** }
 1284              		.loc 1 738 1 is_stmt 0 view .LVU247
 1285 000a 7047     		bx	lr
 1286              	.L124:
 1287              		.align	2
 1288              	.L123:
 1289 000c 00000140 		.word	1073807360
ARM GAS  C:\Users\ep_ygh\AppData\Local\Temp\ccULJmwJ.s 			page 37


 1290              		.cfi_endproc
 1291              	.LFE350:
 1293              		.section	.text.HAL_SYSCFG_DisableIOAnalogSwitchBooster,"ax",%progbits
 1294              		.align	1
 1295              		.p2align 2,,3
 1296              		.global	HAL_SYSCFG_DisableIOAnalogSwitchBooster
 1297              		.syntax unified
 1298              		.thumb
 1299              		.thumb_func
 1301              	HAL_SYSCFG_DisableIOAnalogSwitchBooster:
 1302              	.LFB351:
 739:Drivers/STM32L4xx_HAL_Driver/Src/stm32l4xx_hal.c **** 
 740:Drivers/STM32L4xx_HAL_Driver/Src/stm32l4xx_hal.c **** /**
 741:Drivers/STM32L4xx_HAL_Driver/Src/stm32l4xx_hal.c ****   * @brief  Disable the I/O analog switch voltage booster
 742:Drivers/STM32L4xx_HAL_Driver/Src/stm32l4xx_hal.c ****   *
 743:Drivers/STM32L4xx_HAL_Driver/Src/stm32l4xx_hal.c ****   * @retval None
 744:Drivers/STM32L4xx_HAL_Driver/Src/stm32l4xx_hal.c ****   */
 745:Drivers/STM32L4xx_HAL_Driver/Src/stm32l4xx_hal.c **** void HAL_SYSCFG_DisableIOAnalogSwitchBooster(void)
 746:Drivers/STM32L4xx_HAL_Driver/Src/stm32l4xx_hal.c **** {
 1303              		.loc 1 746 1 is_stmt 1 view -0
 1304              		.cfi_startproc
 1305              		@ args = 0, pretend = 0, frame = 0
 1306              		@ frame_needed = 0, uses_anonymous_args = 0
 1307              		@ link register save eliminated.
 747:Drivers/STM32L4xx_HAL_Driver/Src/stm32l4xx_hal.c ****   CLEAR_BIT(SYSCFG->CFGR1, SYSCFG_CFGR1_BOOSTEN);
 1308              		.loc 1 747 3 view .LVU249
 1309 0000 024A     		ldr	r2, .L126
 1310 0002 5368     		ldr	r3, [r2, #4]
 1311 0004 23F48073 		bic	r3, r3, #256
 1312 0008 5360     		str	r3, [r2, #4]
 748:Drivers/STM32L4xx_HAL_Driver/Src/stm32l4xx_hal.c **** }
 1313              		.loc 1 748 1 is_stmt 0 view .LVU250
 1314 000a 7047     		bx	lr
 1315              	.L127:
 1316              		.align	2
 1317              	.L126:
 1318 000c 00000140 		.word	1073807360
 1319              		.cfi_endproc
 1320              	.LFE351:
 1322              		.global	uwTickFreq
 1323              		.global	uwTickPrio
 1324              		.global	uwTick
 1325              		.section	.bss.uwTick,"aw",%nobits
 1326              		.align	2
 1327              		.set	.LANCHOR2,. + 0
 1330              	uwTick:
 1331 0000 00000000 		.space	4
 1332              		.section	.data.uwTickFreq,"aw"
 1333              		.set	.LANCHOR0,. + 0
 1336              	uwTickFreq:
 1337 0000 01       		.byte	1
 1338              		.section	.data.uwTickPrio,"aw"
 1339              		.align	2
 1340              		.set	.LANCHOR1,. + 0
 1343              	uwTickPrio:
 1344 0000 10000000 		.word	16
 1345              		.text
ARM GAS  C:\Users\ep_ygh\AppData\Local\Temp\ccULJmwJ.s 			page 38


 1346              	.Letext0:
 1347              		.file 2 "c:\\programdata\\chocolatey\\lib\\gcc-arm-embedded\\tools\\gcc-arm-none-eabi-10.3-2021.10
 1348              		.file 3 "c:\\programdata\\chocolatey\\lib\\gcc-arm-embedded\\tools\\gcc-arm-none-eabi-10.3-2021.10
 1349              		.file 4 "Drivers/CMSIS/Include/core_cm4.h"
 1350              		.file 5 "Drivers/CMSIS/Device/ST/STM32L4xx/Include/stm32l476xx.h"
 1351              		.file 6 "Drivers/STM32L4xx_HAL_Driver/Inc/stm32l4xx_hal_def.h"
 1352              		.file 7 "Drivers/STM32L4xx_HAL_Driver/Inc/stm32l4xx_hal.h"
 1353              		.file 8 "Drivers/CMSIS/Device/ST/STM32L4xx/Include/system_stm32l4xx.h"
 1354              		.file 9 "Drivers/STM32L4xx_HAL_Driver/Inc/stm32l4xx_hal_cortex.h"
ARM GAS  C:\Users\ep_ygh\AppData\Local\Temp\ccULJmwJ.s 			page 39

