ARM GAS  C:\Users\ep_ygh\AppData\Local\Temp\cc16k1Ab.s 			page 1


   1              		.cpu cortex-m4
   2              		.arch armv7e-m
   3              		.fpu fpv4-sp-d16
   4              		.eabi_attribute 27, 1
   5              		.eabi_attribute 28, 1
   6              		.eabi_attribute 20, 1
   7              		.eabi_attribute 21, 1
   8              		.eabi_attribute 23, 3
   9              		.eabi_attribute 24, 1
  10              		.eabi_attribute 25, 1
  11              		.eabi_attribute 26, 1
  12              		.eabi_attribute 30, 2
  13              		.eabi_attribute 34, 1
  14              		.eabi_attribute 18, 4
  15              		.file	"sto_pll_speed_pos_fdbk.c"
  16              		.text
  17              	.Ltext0:
  18              		.cfi_sections	.debug_frame
  19              		.section	.text.STO_PLL_Return,"ax",%progbits
  20              		.align	1
  21              		.p2align 2,,3
  22              		.weak	STO_PLL_Return
  23              		.syntax unified
  24              		.thumb
  25              		.thumb_func
  27              	STO_PLL_Return:
  28              	.LVL0:
  29              	.LFB1091:
  30              		.file 1 "MCSDK_v6.2.1-Full/MotorControl/MCSDK/MCLib/Any/Src/sto_pll_speed_pos_fdbk.c"
   1:MCSDK_v6.2.1-Full/MotorControl/MCSDK/MCLib/Any/Src/sto_pll_speed_pos_fdbk.c **** /**
   2:MCSDK_v6.2.1-Full/MotorControl/MCSDK/MCLib/Any/Src/sto_pll_speed_pos_fdbk.c ****   ******************************************************************************
   3:MCSDK_v6.2.1-Full/MotorControl/MCSDK/MCLib/Any/Src/sto_pll_speed_pos_fdbk.c ****   * @file    sto_pll_speed_pos_fdbk.c
   4:MCSDK_v6.2.1-Full/MotorControl/MCSDK/MCLib/Any/Src/sto_pll_speed_pos_fdbk.c ****   * @author  Motor Control SDK Team, ST Microelectronics
   5:MCSDK_v6.2.1-Full/MotorControl/MCSDK/MCLib/Any/Src/sto_pll_speed_pos_fdbk.c ****   * @brief   This file provides firmware functions that implement the features
   6:MCSDK_v6.2.1-Full/MotorControl/MCSDK/MCLib/Any/Src/sto_pll_speed_pos_fdbk.c ****   *          of the State Observer + PLL Speed & Position Feedback component of the
   7:MCSDK_v6.2.1-Full/MotorControl/MCSDK/MCLib/Any/Src/sto_pll_speed_pos_fdbk.c ****   *          Motor Control SDK.
   8:MCSDK_v6.2.1-Full/MotorControl/MCSDK/MCLib/Any/Src/sto_pll_speed_pos_fdbk.c ****   *
   9:MCSDK_v6.2.1-Full/MotorControl/MCSDK/MCLib/Any/Src/sto_pll_speed_pos_fdbk.c ****   ******************************************************************************
  10:MCSDK_v6.2.1-Full/MotorControl/MCSDK/MCLib/Any/Src/sto_pll_speed_pos_fdbk.c ****   * @attention
  11:MCSDK_v6.2.1-Full/MotorControl/MCSDK/MCLib/Any/Src/sto_pll_speed_pos_fdbk.c ****   *
  12:MCSDK_v6.2.1-Full/MotorControl/MCSDK/MCLib/Any/Src/sto_pll_speed_pos_fdbk.c ****   * <h2><center>&copy; Copyright (c) 2023 STMicroelectronics.
  13:MCSDK_v6.2.1-Full/MotorControl/MCSDK/MCLib/Any/Src/sto_pll_speed_pos_fdbk.c ****   * All rights reserved.</center></h2>
  14:MCSDK_v6.2.1-Full/MotorControl/MCSDK/MCLib/Any/Src/sto_pll_speed_pos_fdbk.c ****   *
  15:MCSDK_v6.2.1-Full/MotorControl/MCSDK/MCLib/Any/Src/sto_pll_speed_pos_fdbk.c ****   * This software component is licensed by ST under Ultimate Liberty license
  16:MCSDK_v6.2.1-Full/MotorControl/MCSDK/MCLib/Any/Src/sto_pll_speed_pos_fdbk.c ****   * SLA0044, the "License"; You may not use this file except in compliance with
  17:MCSDK_v6.2.1-Full/MotorControl/MCSDK/MCLib/Any/Src/sto_pll_speed_pos_fdbk.c ****   * the License. You may obtain a copy of the License at:
  18:MCSDK_v6.2.1-Full/MotorControl/MCSDK/MCLib/Any/Src/sto_pll_speed_pos_fdbk.c ****   *                             www.st.com/SLA0044
  19:MCSDK_v6.2.1-Full/MotorControl/MCSDK/MCLib/Any/Src/sto_pll_speed_pos_fdbk.c ****   *
  20:MCSDK_v6.2.1-Full/MotorControl/MCSDK/MCLib/Any/Src/sto_pll_speed_pos_fdbk.c ****   ******************************************************************************
  21:MCSDK_v6.2.1-Full/MotorControl/MCSDK/MCLib/Any/Src/sto_pll_speed_pos_fdbk.c ****   * @ingroup SpeednPosFdbk_STO_PLL
  22:MCSDK_v6.2.1-Full/MotorControl/MCSDK/MCLib/Any/Src/sto_pll_speed_pos_fdbk.c ****   */
  23:MCSDK_v6.2.1-Full/MotorControl/MCSDK/MCLib/Any/Src/sto_pll_speed_pos_fdbk.c **** 
  24:MCSDK_v6.2.1-Full/MotorControl/MCSDK/MCLib/Any/Src/sto_pll_speed_pos_fdbk.c **** /* Includes ------------------------------------------------------------------*/
  25:MCSDK_v6.2.1-Full/MotorControl/MCSDK/MCLib/Any/Src/sto_pll_speed_pos_fdbk.c **** #include "sto_pll_speed_pos_fdbk.h"
  26:MCSDK_v6.2.1-Full/MotorControl/MCSDK/MCLib/Any/Src/sto_pll_speed_pos_fdbk.c **** #include "mc_math.h"
  27:MCSDK_v6.2.1-Full/MotorControl/MCSDK/MCLib/Any/Src/sto_pll_speed_pos_fdbk.c **** 
  28:MCSDK_v6.2.1-Full/MotorControl/MCSDK/MCLib/Any/Src/sto_pll_speed_pos_fdbk.c **** 
ARM GAS  C:\Users\ep_ygh\AppData\Local\Temp\cc16k1Ab.s 			page 2


  29:MCSDK_v6.2.1-Full/MotorControl/MCSDK/MCLib/Any/Src/sto_pll_speed_pos_fdbk.c **** 
  30:MCSDK_v6.2.1-Full/MotorControl/MCSDK/MCLib/Any/Src/sto_pll_speed_pos_fdbk.c **** /** @addtogroup MCSDK
  31:MCSDK_v6.2.1-Full/MotorControl/MCSDK/MCLib/Any/Src/sto_pll_speed_pos_fdbk.c ****   * @{
  32:MCSDK_v6.2.1-Full/MotorControl/MCSDK/MCLib/Any/Src/sto_pll_speed_pos_fdbk.c ****   */
  33:MCSDK_v6.2.1-Full/MotorControl/MCSDK/MCLib/Any/Src/sto_pll_speed_pos_fdbk.c **** 
  34:MCSDK_v6.2.1-Full/MotorControl/MCSDK/MCLib/Any/Src/sto_pll_speed_pos_fdbk.c **** /** @addtogroup SpeednPosFdbk
  35:MCSDK_v6.2.1-Full/MotorControl/MCSDK/MCLib/Any/Src/sto_pll_speed_pos_fdbk.c ****   * @{
  36:MCSDK_v6.2.1-Full/MotorControl/MCSDK/MCLib/Any/Src/sto_pll_speed_pos_fdbk.c ****   */
  37:MCSDK_v6.2.1-Full/MotorControl/MCSDK/MCLib/Any/Src/sto_pll_speed_pos_fdbk.c **** 
  38:MCSDK_v6.2.1-Full/MotorControl/MCSDK/MCLib/Any/Src/sto_pll_speed_pos_fdbk.c **** /**
  39:MCSDK_v6.2.1-Full/MotorControl/MCSDK/MCLib/Any/Src/sto_pll_speed_pos_fdbk.c ****   * @defgroup SpeednPosFdbk_STO_PLL State Observer PLL Speed & Position Feedback.
  40:MCSDK_v6.2.1-Full/MotorControl/MCSDK/MCLib/Any/Src/sto_pll_speed_pos_fdbk.c ****   * @brief State Observer with PLL Speed & Position Feedback component of MCSDK.
  41:MCSDK_v6.2.1-Full/MotorControl/MCSDK/MCLib/Any/Src/sto_pll_speed_pos_fdbk.c ****   *
  42:MCSDK_v6.2.1-Full/MotorControl/MCSDK/MCLib/Any/Src/sto_pll_speed_pos_fdbk.c ****   * This component uses a State Observer coupled with a software PLL to provide an estimation of
  43:MCSDK_v6.2.1-Full/MotorControl/MCSDK/MCLib/Any/Src/sto_pll_speed_pos_fdbk.c ****   * the speed and the position of the rotor of the motor.
  44:MCSDK_v6.2.1-Full/MotorControl/MCSDK/MCLib/Any/Src/sto_pll_speed_pos_fdbk.c ****   *
  45:MCSDK_v6.2.1-Full/MotorControl/MCSDK/MCLib/Any/Src/sto_pll_speed_pos_fdbk.c ****   * See the [Speed & position feedback sensorless chapter of the User Manual](speed_pos_sensorless_
  46:MCSDK_v6.2.1-Full/MotorControl/MCSDK/MCLib/Any/Src/sto_pll_speed_pos_fdbk.c ****   * @{
  47:MCSDK_v6.2.1-Full/MotorControl/MCSDK/MCLib/Any/Src/sto_pll_speed_pos_fdbk.c ****   */
  48:MCSDK_v6.2.1-Full/MotorControl/MCSDK/MCLib/Any/Src/sto_pll_speed_pos_fdbk.c **** 
  49:MCSDK_v6.2.1-Full/MotorControl/MCSDK/MCLib/Any/Src/sto_pll_speed_pos_fdbk.c **** /* Private defines -----------------------------------------------------------*/
  50:MCSDK_v6.2.1-Full/MotorControl/MCSDK/MCLib/Any/Src/sto_pll_speed_pos_fdbk.c **** #define C6_COMP_CONST1  ((int32_t)1043038)
  51:MCSDK_v6.2.1-Full/MotorControl/MCSDK/MCLib/Any/Src/sto_pll_speed_pos_fdbk.c **** #define C6_COMP_CONST2  ((int32_t)10430)
  52:MCSDK_v6.2.1-Full/MotorControl/MCSDK/MCLib/Any/Src/sto_pll_speed_pos_fdbk.c **** 
  53:MCSDK_v6.2.1-Full/MotorControl/MCSDK/MCLib/Any/Src/sto_pll_speed_pos_fdbk.c **** /* Private function prototypes -----------------------------------------------*/
  54:MCSDK_v6.2.1-Full/MotorControl/MCSDK/MCLib/Any/Src/sto_pll_speed_pos_fdbk.c **** static void STO_Store_Rotor_Speed(STO_PLL_Handle_t *pHandle, int16_t hRotor_Speed);
  55:MCSDK_v6.2.1-Full/MotorControl/MCSDK/MCLib/Any/Src/sto_pll_speed_pos_fdbk.c **** static int16_t STO_ExecutePLL(STO_PLL_Handle_t *pHandle, int16_t hBemf_alfa_est, int16_t hBemf_beta
  56:MCSDK_v6.2.1-Full/MotorControl/MCSDK/MCLib/Any/Src/sto_pll_speed_pos_fdbk.c **** static void STO_InitSpeedBuffer(STO_PLL_Handle_t *pHandle);
  57:MCSDK_v6.2.1-Full/MotorControl/MCSDK/MCLib/Any/Src/sto_pll_speed_pos_fdbk.c **** 
  58:MCSDK_v6.2.1-Full/MotorControl/MCSDK/MCLib/Any/Src/sto_pll_speed_pos_fdbk.c **** 
  59:MCSDK_v6.2.1-Full/MotorControl/MCSDK/MCLib/Any/Src/sto_pll_speed_pos_fdbk.c **** /**
  60:MCSDK_v6.2.1-Full/MotorControl/MCSDK/MCLib/Any/Src/sto_pll_speed_pos_fdbk.c ****   * @brief  Initializes the @p pHandle of STate Observer (STO) PLL component.
  61:MCSDK_v6.2.1-Full/MotorControl/MCSDK/MCLib/Any/Src/sto_pll_speed_pos_fdbk.c ****   *
  62:MCSDK_v6.2.1-Full/MotorControl/MCSDK/MCLib/Any/Src/sto_pll_speed_pos_fdbk.c ****   */
  63:MCSDK_v6.2.1-Full/MotorControl/MCSDK/MCLib/Any/Src/sto_pll_speed_pos_fdbk.c **** __weak void STO_PLL_Init(STO_PLL_Handle_t *pHandle)
  64:MCSDK_v6.2.1-Full/MotorControl/MCSDK/MCLib/Any/Src/sto_pll_speed_pos_fdbk.c **** {
  65:MCSDK_v6.2.1-Full/MotorControl/MCSDK/MCLib/Any/Src/sto_pll_speed_pos_fdbk.c **** #ifdef NULL_PTR_CHECK_STO_PLL_SPD_POS_FDB
  66:MCSDK_v6.2.1-Full/MotorControl/MCSDK/MCLib/Any/Src/sto_pll_speed_pos_fdbk.c ****   if (MC_NULL == pHandle)
  67:MCSDK_v6.2.1-Full/MotorControl/MCSDK/MCLib/Any/Src/sto_pll_speed_pos_fdbk.c ****   {
  68:MCSDK_v6.2.1-Full/MotorControl/MCSDK/MCLib/Any/Src/sto_pll_speed_pos_fdbk.c ****     /* Nothing to do */
  69:MCSDK_v6.2.1-Full/MotorControl/MCSDK/MCLib/Any/Src/sto_pll_speed_pos_fdbk.c ****   }
  70:MCSDK_v6.2.1-Full/MotorControl/MCSDK/MCLib/Any/Src/sto_pll_speed_pos_fdbk.c ****   else
  71:MCSDK_v6.2.1-Full/MotorControl/MCSDK/MCLib/Any/Src/sto_pll_speed_pos_fdbk.c ****   {
  72:MCSDK_v6.2.1-Full/MotorControl/MCSDK/MCLib/Any/Src/sto_pll_speed_pos_fdbk.c **** #endif
  73:MCSDK_v6.2.1-Full/MotorControl/MCSDK/MCLib/Any/Src/sto_pll_speed_pos_fdbk.c ****     int16_t htempk;
  74:MCSDK_v6.2.1-Full/MotorControl/MCSDK/MCLib/Any/Src/sto_pll_speed_pos_fdbk.c ****     int32_t wAux;
  75:MCSDK_v6.2.1-Full/MotorControl/MCSDK/MCLib/Any/Src/sto_pll_speed_pos_fdbk.c **** 
  76:MCSDK_v6.2.1-Full/MotorControl/MCSDK/MCLib/Any/Src/sto_pll_speed_pos_fdbk.c ****     pHandle->ConsistencyCounter = pHandle->StartUpConsistThreshold;
  77:MCSDK_v6.2.1-Full/MotorControl/MCSDK/MCLib/Any/Src/sto_pll_speed_pos_fdbk.c ****     pHandle->EnableDualCheck = true;
  78:MCSDK_v6.2.1-Full/MotorControl/MCSDK/MCLib/Any/Src/sto_pll_speed_pos_fdbk.c **** 
  79:MCSDK_v6.2.1-Full/MotorControl/MCSDK/MCLib/Any/Src/sto_pll_speed_pos_fdbk.c ****     wAux = ((int32_t)1);
  80:MCSDK_v6.2.1-Full/MotorControl/MCSDK/MCLib/Any/Src/sto_pll_speed_pos_fdbk.c ****     pHandle->F3POW2 = 0U;
  81:MCSDK_v6.2.1-Full/MotorControl/MCSDK/MCLib/Any/Src/sto_pll_speed_pos_fdbk.c **** 
  82:MCSDK_v6.2.1-Full/MotorControl/MCSDK/MCLib/Any/Src/sto_pll_speed_pos_fdbk.c ****     htempk = (int16_t)(C6_COMP_CONST1 / pHandle->hF2);
  83:MCSDK_v6.2.1-Full/MotorControl/MCSDK/MCLib/Any/Src/sto_pll_speed_pos_fdbk.c **** 
  84:MCSDK_v6.2.1-Full/MotorControl/MCSDK/MCLib/Any/Src/sto_pll_speed_pos_fdbk.c ****     while (htempk != 0)
  85:MCSDK_v6.2.1-Full/MotorControl/MCSDK/MCLib/Any/Src/sto_pll_speed_pos_fdbk.c ****     {
ARM GAS  C:\Users\ep_ygh\AppData\Local\Temp\cc16k1Ab.s 			page 3


  86:MCSDK_v6.2.1-Full/MotorControl/MCSDK/MCLib/Any/Src/sto_pll_speed_pos_fdbk.c ****       htempk /= ((int16_t)2);
  87:MCSDK_v6.2.1-Full/MotorControl/MCSDK/MCLib/Any/Src/sto_pll_speed_pos_fdbk.c ****       wAux *= ((int32_t)2);
  88:MCSDK_v6.2.1-Full/MotorControl/MCSDK/MCLib/Any/Src/sto_pll_speed_pos_fdbk.c ****       pHandle->F3POW2++;
  89:MCSDK_v6.2.1-Full/MotorControl/MCSDK/MCLib/Any/Src/sto_pll_speed_pos_fdbk.c ****     }
  90:MCSDK_v6.2.1-Full/MotorControl/MCSDK/MCLib/Any/Src/sto_pll_speed_pos_fdbk.c **** 
  91:MCSDK_v6.2.1-Full/MotorControl/MCSDK/MCLib/Any/Src/sto_pll_speed_pos_fdbk.c ****     pHandle->hF3 = (int16_t)wAux;
  92:MCSDK_v6.2.1-Full/MotorControl/MCSDK/MCLib/Any/Src/sto_pll_speed_pos_fdbk.c ****     wAux = ((int32_t)(pHandle->hF2)) * pHandle->hF3;
  93:MCSDK_v6.2.1-Full/MotorControl/MCSDK/MCLib/Any/Src/sto_pll_speed_pos_fdbk.c ****     pHandle->hC6 = (int16_t)(wAux / C6_COMP_CONST2);
  94:MCSDK_v6.2.1-Full/MotorControl/MCSDK/MCLib/Any/Src/sto_pll_speed_pos_fdbk.c **** 
  95:MCSDK_v6.2.1-Full/MotorControl/MCSDK/MCLib/Any/Src/sto_pll_speed_pos_fdbk.c ****     STO_PLL_Clear(pHandle);
  96:MCSDK_v6.2.1-Full/MotorControl/MCSDK/MCLib/Any/Src/sto_pll_speed_pos_fdbk.c **** 
  97:MCSDK_v6.2.1-Full/MotorControl/MCSDK/MCLib/Any/Src/sto_pll_speed_pos_fdbk.c ****     PID_HandleInit(&pHandle->PIRegulator);
  98:MCSDK_v6.2.1-Full/MotorControl/MCSDK/MCLib/Any/Src/sto_pll_speed_pos_fdbk.c **** 
  99:MCSDK_v6.2.1-Full/MotorControl/MCSDK/MCLib/Any/Src/sto_pll_speed_pos_fdbk.c ****     /* Acceleration measurement set to zero */
 100:MCSDK_v6.2.1-Full/MotorControl/MCSDK/MCLib/Any/Src/sto_pll_speed_pos_fdbk.c ****     pHandle->_Super.hMecAccelUnitP = 0;
 101:MCSDK_v6.2.1-Full/MotorControl/MCSDK/MCLib/Any/Src/sto_pll_speed_pos_fdbk.c **** #ifdef NULL_PTR_CHECK_STO_PLL_SPD_POS_FDB
 102:MCSDK_v6.2.1-Full/MotorControl/MCSDK/MCLib/Any/Src/sto_pll_speed_pos_fdbk.c ****   }
 103:MCSDK_v6.2.1-Full/MotorControl/MCSDK/MCLib/Any/Src/sto_pll_speed_pos_fdbk.c **** #endif
 104:MCSDK_v6.2.1-Full/MotorControl/MCSDK/MCLib/Any/Src/sto_pll_speed_pos_fdbk.c ****   return;
 105:MCSDK_v6.2.1-Full/MotorControl/MCSDK/MCLib/Any/Src/sto_pll_speed_pos_fdbk.c **** }
 106:MCSDK_v6.2.1-Full/MotorControl/MCSDK/MCLib/Any/Src/sto_pll_speed_pos_fdbk.c **** 
 107:MCSDK_v6.2.1-Full/MotorControl/MCSDK/MCLib/Any/Src/sto_pll_speed_pos_fdbk.c **** /**
 108:MCSDK_v6.2.1-Full/MotorControl/MCSDK/MCLib/Any/Src/sto_pll_speed_pos_fdbk.c ****   * @brief  Necessary empty return to implement fictitious IRQ_Handler.
 109:MCSDK_v6.2.1-Full/MotorControl/MCSDK/MCLib/Any/Src/sto_pll_speed_pos_fdbk.c ****   * 
 110:MCSDK_v6.2.1-Full/MotorControl/MCSDK/MCLib/Any/Src/sto_pll_speed_pos_fdbk.c ****   * @param  pHandle: Handler of the current instance of the STO component.
 111:MCSDK_v6.2.1-Full/MotorControl/MCSDK/MCLib/Any/Src/sto_pll_speed_pos_fdbk.c ****   * @param  uint8_t: Fictitious interrupt flag.
 112:MCSDK_v6.2.1-Full/MotorControl/MCSDK/MCLib/Any/Src/sto_pll_speed_pos_fdbk.c ****   */
 113:MCSDK_v6.2.1-Full/MotorControl/MCSDK/MCLib/Any/Src/sto_pll_speed_pos_fdbk.c **** //cstat !MISRAC2012-Rule-8.13 !RED-func-no-effect
 114:MCSDK_v6.2.1-Full/MotorControl/MCSDK/MCLib/Any/Src/sto_pll_speed_pos_fdbk.c **** __weak void STO_PLL_Return(STO_PLL_Handle_t *pHandle, uint8_t flag)
 115:MCSDK_v6.2.1-Full/MotorControl/MCSDK/MCLib/Any/Src/sto_pll_speed_pos_fdbk.c **** {
  31              		.loc 1 115 1 view -0
  32              		.cfi_startproc
  33              		@ args = 0, pretend = 0, frame = 0
  34              		@ frame_needed = 0, uses_anonymous_args = 0
  35              		@ link register save eliminated.
 116:MCSDK_v6.2.1-Full/MotorControl/MCSDK/MCLib/Any/Src/sto_pll_speed_pos_fdbk.c **** #ifdef NULL_PTR_CHECK_STO_PLL_SPD_POS_FDB
 117:MCSDK_v6.2.1-Full/MotorControl/MCSDK/MCLib/Any/Src/sto_pll_speed_pos_fdbk.c ****   if ((MC_NULL == (void *)pHandle) || ((uint8_t)0 == flag))
 118:MCSDK_v6.2.1-Full/MotorControl/MCSDK/MCLib/Any/Src/sto_pll_speed_pos_fdbk.c ****   {
 119:MCSDK_v6.2.1-Full/MotorControl/MCSDK/MCLib/Any/Src/sto_pll_speed_pos_fdbk.c ****     /* Nothing to do */
 120:MCSDK_v6.2.1-Full/MotorControl/MCSDK/MCLib/Any/Src/sto_pll_speed_pos_fdbk.c ****   }
 121:MCSDK_v6.2.1-Full/MotorControl/MCSDK/MCLib/Any/Src/sto_pll_speed_pos_fdbk.c ****   else
 122:MCSDK_v6.2.1-Full/MotorControl/MCSDK/MCLib/Any/Src/sto_pll_speed_pos_fdbk.c ****   {
 123:MCSDK_v6.2.1-Full/MotorControl/MCSDK/MCLib/Any/Src/sto_pll_speed_pos_fdbk.c ****     /* Nothing to do */
 124:MCSDK_v6.2.1-Full/MotorControl/MCSDK/MCLib/Any/Src/sto_pll_speed_pos_fdbk.c ****   }
 125:MCSDK_v6.2.1-Full/MotorControl/MCSDK/MCLib/Any/Src/sto_pll_speed_pos_fdbk.c **** #endif
 126:MCSDK_v6.2.1-Full/MotorControl/MCSDK/MCLib/Any/Src/sto_pll_speed_pos_fdbk.c ****   return;
  36              		.loc 1 126 3 view .LVU1
 127:MCSDK_v6.2.1-Full/MotorControl/MCSDK/MCLib/Any/Src/sto_pll_speed_pos_fdbk.c **** }
  37              		.loc 1 127 1 is_stmt 0 view .LVU2
  38 0000 7047     		bx	lr
  39              		.cfi_endproc
  40              	.LFE1091:
  42 0002 00BF     		.section	.text.STO_PLL_CalcElAngle,"ax",%progbits
  43              		.align	1
  44              		.p2align 2,,3
  45              		.weak	STO_PLL_CalcElAngle
  46              		.syntax unified
ARM GAS  C:\Users\ep_ygh\AppData\Local\Temp\cc16k1Ab.s 			page 4


  47              		.thumb
  48              		.thumb_func
  50              	STO_PLL_CalcElAngle:
  51              	.LVL1:
  52              	.LFB1092:
 128:MCSDK_v6.2.1-Full/MotorControl/MCSDK/MCLib/Any/Src/sto_pll_speed_pos_fdbk.c **** 
 129:MCSDK_v6.2.1-Full/MotorControl/MCSDK/MCLib/Any/Src/sto_pll_speed_pos_fdbk.c **** #if defined (CCMRAM)
 130:MCSDK_v6.2.1-Full/MotorControl/MCSDK/MCLib/Any/Src/sto_pll_speed_pos_fdbk.c **** #if defined (__ICCARM__)
 131:MCSDK_v6.2.1-Full/MotorControl/MCSDK/MCLib/Any/Src/sto_pll_speed_pos_fdbk.c **** #pragma location = ".ccmram"
 132:MCSDK_v6.2.1-Full/MotorControl/MCSDK/MCLib/Any/Src/sto_pll_speed_pos_fdbk.c **** #elif defined (__CC_ARM) || defined(__GNUC__)
 133:MCSDK_v6.2.1-Full/MotorControl/MCSDK/MCLib/Any/Src/sto_pll_speed_pos_fdbk.c **** __attribute__((section(".ccmram")))
 134:MCSDK_v6.2.1-Full/MotorControl/MCSDK/MCLib/Any/Src/sto_pll_speed_pos_fdbk.c **** #endif
 135:MCSDK_v6.2.1-Full/MotorControl/MCSDK/MCLib/Any/Src/sto_pll_speed_pos_fdbk.c **** #endif
 136:MCSDK_v6.2.1-Full/MotorControl/MCSDK/MCLib/Any/Src/sto_pll_speed_pos_fdbk.c **** /**
 137:MCSDK_v6.2.1-Full/MotorControl/MCSDK/MCLib/Any/Src/sto_pll_speed_pos_fdbk.c ****   * @brief  Calculates the estimated electrical angle.
 138:MCSDK_v6.2.1-Full/MotorControl/MCSDK/MCLib/Any/Src/sto_pll_speed_pos_fdbk.c ****   * 
 139:MCSDK_v6.2.1-Full/MotorControl/MCSDK/MCLib/Any/Src/sto_pll_speed_pos_fdbk.c ****   * Executes Luenberger state observer equations and calls
 140:MCSDK_v6.2.1-Full/MotorControl/MCSDK/MCLib/Any/Src/sto_pll_speed_pos_fdbk.c ****   * PLL to compute a new speed estimation and
 141:MCSDK_v6.2.1-Full/MotorControl/MCSDK/MCLib/Any/Src/sto_pll_speed_pos_fdbk.c ****   * update the estimated electrical angle.
 142:MCSDK_v6.2.1-Full/MotorControl/MCSDK/MCLib/Any/Src/sto_pll_speed_pos_fdbk.c ****   * 
 143:MCSDK_v6.2.1-Full/MotorControl/MCSDK/MCLib/Any/Src/sto_pll_speed_pos_fdbk.c ****   * @param  pHandle: Handler of the current instance of the STO component.
 144:MCSDK_v6.2.1-Full/MotorControl/MCSDK/MCLib/Any/Src/sto_pll_speed_pos_fdbk.c ****   * @param  pInput: Pointer to the observer inputs structure.
 145:MCSDK_v6.2.1-Full/MotorControl/MCSDK/MCLib/Any/Src/sto_pll_speed_pos_fdbk.c ****   * @retval int16_t Rotor electrical angle (s16Degrees).
 146:MCSDK_v6.2.1-Full/MotorControl/MCSDK/MCLib/Any/Src/sto_pll_speed_pos_fdbk.c ****   */
 147:MCSDK_v6.2.1-Full/MotorControl/MCSDK/MCLib/Any/Src/sto_pll_speed_pos_fdbk.c **** //cstat !MISRAC2012-Rule-8.13
 148:MCSDK_v6.2.1-Full/MotorControl/MCSDK/MCLib/Any/Src/sto_pll_speed_pos_fdbk.c **** __weak int16_t STO_PLL_CalcElAngle(STO_PLL_Handle_t *pHandle, Observer_Inputs_t *pInputs)
 149:MCSDK_v6.2.1-Full/MotorControl/MCSDK/MCLib/Any/Src/sto_pll_speed_pos_fdbk.c **** {
  53              		.loc 1 149 1 is_stmt 1 view -0
  54              		.cfi_startproc
  55              		@ args = 0, pretend = 0, frame = 24
  56              		@ frame_needed = 0, uses_anonymous_args = 0
 150:MCSDK_v6.2.1-Full/MotorControl/MCSDK/MCLib/Any/Src/sto_pll_speed_pos_fdbk.c ****   int16_t retValue;
  57              		.loc 1 150 3 view .LVU4
 151:MCSDK_v6.2.1-Full/MotorControl/MCSDK/MCLib/Any/Src/sto_pll_speed_pos_fdbk.c **** 
 152:MCSDK_v6.2.1-Full/MotorControl/MCSDK/MCLib/Any/Src/sto_pll_speed_pos_fdbk.c ****   if ((MC_NULL == pHandle) || (MC_NULL == pInputs))
  58              		.loc 1 152 3 view .LVU5
 149:MCSDK_v6.2.1-Full/MotorControl/MCSDK/MCLib/Any/Src/sto_pll_speed_pos_fdbk.c ****   int16_t retValue;
  59              		.loc 1 149 1 is_stmt 0 view .LVU6
  60 0000 2DE9F04F 		push	{r4, r5, r6, r7, r8, r9, r10, fp, lr}
  61              	.LCFI0:
  62              		.cfi_def_cfa_offset 36
  63              		.cfi_offset 4, -36
  64              		.cfi_offset 5, -32
  65              		.cfi_offset 6, -28
  66              		.cfi_offset 7, -24
  67              		.cfi_offset 8, -20
  68              		.cfi_offset 9, -16
  69              		.cfi_offset 10, -12
  70              		.cfi_offset 11, -8
  71              		.cfi_offset 14, -4
  72              		.loc 1 152 6 view .LVU7
  73 0004 0446     		mov	r4, r0
 149:MCSDK_v6.2.1-Full/MotorControl/MCSDK/MCLib/Any/Src/sto_pll_speed_pos_fdbk.c ****   int16_t retValue;
  74              		.loc 1 149 1 view .LVU8
  75 0006 87B0     		sub	sp, sp, #28
  76              	.LCFI1:
  77              		.cfi_def_cfa_offset 64
ARM GAS  C:\Users\ep_ygh\AppData\Local\Temp\cc16k1Ab.s 			page 5


  78              		.loc 1 152 6 view .LVU9
  79 0008 0028     		cmp	r0, #0
  80 000a 00F0CC80 		beq	.L4
  81              		.loc 1 152 28 discriminator 1 view .LVU10
  82 000e 0029     		cmp	r1, #0
  83 0010 00F0CC80 		beq	.L17
  84              	.LBB12:
 153:MCSDK_v6.2.1-Full/MotorControl/MCSDK/MCLib/Any/Src/sto_pll_speed_pos_fdbk.c ****   {
 154:MCSDK_v6.2.1-Full/MotorControl/MCSDK/MCLib/Any/Src/sto_pll_speed_pos_fdbk.c ****     retValue = 0;
 155:MCSDK_v6.2.1-Full/MotorControl/MCSDK/MCLib/Any/Src/sto_pll_speed_pos_fdbk.c ****   }
 156:MCSDK_v6.2.1-Full/MotorControl/MCSDK/MCLib/Any/Src/sto_pll_speed_pos_fdbk.c ****   else
 157:MCSDK_v6.2.1-Full/MotorControl/MCSDK/MCLib/Any/Src/sto_pll_speed_pos_fdbk.c ****   {
 158:MCSDK_v6.2.1-Full/MotorControl/MCSDK/MCLib/Any/Src/sto_pll_speed_pos_fdbk.c ****     int32_t wAux;
  85              		.loc 1 158 5 is_stmt 1 view .LVU11
 159:MCSDK_v6.2.1-Full/MotorControl/MCSDK/MCLib/Any/Src/sto_pll_speed_pos_fdbk.c ****     int32_t wDirection;
  86              		.loc 1 159 5 view .LVU12
 160:MCSDK_v6.2.1-Full/MotorControl/MCSDK/MCLib/Any/Src/sto_pll_speed_pos_fdbk.c ****     int32_t wIalfa_est_Next;
  87              		.loc 1 160 5 view .LVU13
 161:MCSDK_v6.2.1-Full/MotorControl/MCSDK/MCLib/Any/Src/sto_pll_speed_pos_fdbk.c ****     int32_t wIbeta_est_Next;
  88              		.loc 1 161 5 view .LVU14
 162:MCSDK_v6.2.1-Full/MotorControl/MCSDK/MCLib/Any/Src/sto_pll_speed_pos_fdbk.c ****     int32_t wBemf_alfa_est_Next;
  89              		.loc 1 162 5 view .LVU15
 163:MCSDK_v6.2.1-Full/MotorControl/MCSDK/MCLib/Any/Src/sto_pll_speed_pos_fdbk.c ****     int32_t wBemf_beta_est_Next;
  90              		.loc 1 163 5 view .LVU16
 164:MCSDK_v6.2.1-Full/MotorControl/MCSDK/MCLib/Any/Src/sto_pll_speed_pos_fdbk.c ****     int16_t hAux;
  91              		.loc 1 164 5 view .LVU17
 165:MCSDK_v6.2.1-Full/MotorControl/MCSDK/MCLib/Any/Src/sto_pll_speed_pos_fdbk.c ****     int16_t hAux_Alfa;
  92              		.loc 1 165 5 view .LVU18
 166:MCSDK_v6.2.1-Full/MotorControl/MCSDK/MCLib/Any/Src/sto_pll_speed_pos_fdbk.c ****     int16_t hAux_Beta;
  93              		.loc 1 166 5 view .LVU19
 167:MCSDK_v6.2.1-Full/MotorControl/MCSDK/MCLib/Any/Src/sto_pll_speed_pos_fdbk.c ****     int16_t hIalfa_err;
  94              		.loc 1 167 5 view .LVU20
 168:MCSDK_v6.2.1-Full/MotorControl/MCSDK/MCLib/Any/Src/sto_pll_speed_pos_fdbk.c ****     int16_t hIbeta_err;
  95              		.loc 1 168 5 view .LVU21
 169:MCSDK_v6.2.1-Full/MotorControl/MCSDK/MCLib/Any/Src/sto_pll_speed_pos_fdbk.c ****     int16_t hRotor_Speed;
  96              		.loc 1 169 5 view .LVU22
 170:MCSDK_v6.2.1-Full/MotorControl/MCSDK/MCLib/Any/Src/sto_pll_speed_pos_fdbk.c ****     int16_t hValfa;
  97              		.loc 1 170 5 view .LVU23
 171:MCSDK_v6.2.1-Full/MotorControl/MCSDK/MCLib/Any/Src/sto_pll_speed_pos_fdbk.c ****     int16_t hVbeta;
  98              		.loc 1 171 5 view .LVU24
 172:MCSDK_v6.2.1-Full/MotorControl/MCSDK/MCLib/Any/Src/sto_pll_speed_pos_fdbk.c **** 
 173:MCSDK_v6.2.1-Full/MotorControl/MCSDK/MCLib/Any/Src/sto_pll_speed_pos_fdbk.c ****     if (pHandle->wBemf_alfa_est > (((int32_t)pHandle->hF2) * INT16_MAX))
  99              		.loc 1 173 5 view .LVU25
 100              		.loc 1 173 53 is_stmt 0 view .LVU26
 101 0014 B0F92E30 		ldrsh	r3, [r0, #46]
 102              		.loc 1 173 16 view .LVU27
 103 0018 876E     		ldr	r7, [r0, #104]
 104              		.loc 1 173 60 view .LVU28
 105 001a C3EBC332 		rsb	r2, r3, r3, lsl #15
 106              		.loc 1 173 8 view .LVU29
 107 001e 9742     		cmp	r7, r2
 108              		.loc 1 173 60 view .LVU30
 109 0020 4FEAC330 		lsl	r0, r3, #15
 110              	.LVL2:
 111              		.loc 1 173 8 view .LVU31
 112 0024 40F3DD80 		ble	.L5
 174:MCSDK_v6.2.1-Full/MotorControl/MCSDK/MCLib/Any/Src/sto_pll_speed_pos_fdbk.c ****     {
ARM GAS  C:\Users\ep_ygh\AppData\Local\Temp\cc16k1Ab.s 			page 6


 175:MCSDK_v6.2.1-Full/MotorControl/MCSDK/MCLib/Any/Src/sto_pll_speed_pos_fdbk.c ****       pHandle->wBemf_alfa_est = INT16_MAX * ((int32_t)pHandle->hF2);
 113              		.loc 1 175 7 is_stmt 1 view .LVU32
 114              		.loc 1 175 31 is_stmt 0 view .LVU33
 115 0028 A266     		str	r2, [r4, #104]
 116 002a 1746     		mov	r7, r2
 117              	.L6:
 176:MCSDK_v6.2.1-Full/MotorControl/MCSDK/MCLib/Any/Src/sto_pll_speed_pos_fdbk.c ****     }
 177:MCSDK_v6.2.1-Full/MotorControl/MCSDK/MCLib/Any/Src/sto_pll_speed_pos_fdbk.c ****     else if (pHandle->wBemf_alfa_est <= (-INT16_MAX * ((int32_t)pHandle->hF2)))
 178:MCSDK_v6.2.1-Full/MotorControl/MCSDK/MCLib/Any/Src/sto_pll_speed_pos_fdbk.c ****     {
 179:MCSDK_v6.2.1-Full/MotorControl/MCSDK/MCLib/Any/Src/sto_pll_speed_pos_fdbk.c ****       pHandle->wBemf_alfa_est = -INT16_MAX * ((int32_t)pHandle->hF2);
 180:MCSDK_v6.2.1-Full/MotorControl/MCSDK/MCLib/Any/Src/sto_pll_speed_pos_fdbk.c ****     }
 181:MCSDK_v6.2.1-Full/MotorControl/MCSDK/MCLib/Any/Src/sto_pll_speed_pos_fdbk.c ****     else
 182:MCSDK_v6.2.1-Full/MotorControl/MCSDK/MCLib/Any/Src/sto_pll_speed_pos_fdbk.c ****     {
 183:MCSDK_v6.2.1-Full/MotorControl/MCSDK/MCLib/Any/Src/sto_pll_speed_pos_fdbk.c ****       /* Nothing to do */
 184:MCSDK_v6.2.1-Full/MotorControl/MCSDK/MCLib/Any/Src/sto_pll_speed_pos_fdbk.c ****     }
 118              		.loc 1 184 5 is_stmt 1 view .LVU34
 185:MCSDK_v6.2.1-Full/MotorControl/MCSDK/MCLib/Any/Src/sto_pll_speed_pos_fdbk.c **** #ifndef FULL_MISRA_C_COMPLIANCY_STO_PLL
 186:MCSDK_v6.2.1-Full/MotorControl/MCSDK/MCLib/Any/Src/sto_pll_speed_pos_fdbk.c ****     //cstat !MISRAC2012-Rule-1.3_n !ATH-shift-neg !MISRAC2012-Rule-10.1_R6
 187:MCSDK_v6.2.1-Full/MotorControl/MCSDK/MCLib/Any/Src/sto_pll_speed_pos_fdbk.c ****       hAux_Alfa = (int16_t)(pHandle->wBemf_alfa_est >> pHandle->F2LOG);
 119              		.loc 1 187 7 view .LVU35
 120              		.loc 1 187 63 is_stmt 0 view .LVU36
 121 002c B4F81E51 		ldrh	r5, [r4, #286]
 188:MCSDK_v6.2.1-Full/MotorControl/MCSDK/MCLib/Any/Src/sto_pll_speed_pos_fdbk.c **** #else
 189:MCSDK_v6.2.1-Full/MotorControl/MCSDK/MCLib/Any/Src/sto_pll_speed_pos_fdbk.c ****       hAux_Alfa = (int16_t)(pHandle->wBemf_alfa_est / pHandle->hF2);
 190:MCSDK_v6.2.1-Full/MotorControl/MCSDK/MCLib/Any/Src/sto_pll_speed_pos_fdbk.c **** #endif
 191:MCSDK_v6.2.1-Full/MotorControl/MCSDK/MCLib/Any/Src/sto_pll_speed_pos_fdbk.c **** 
 192:MCSDK_v6.2.1-Full/MotorControl/MCSDK/MCLib/Any/Src/sto_pll_speed_pos_fdbk.c ****     if (pHandle->wBemf_beta_est > (INT16_MAX * ((int32_t)pHandle->hF2)))
 122              		.loc 1 192 16 view .LVU37
 123 0030 E66E     		ldr	r6, [r4, #108]
 124 0032 0196     		str	r6, [sp, #4]
 187:MCSDK_v6.2.1-Full/MotorControl/MCSDK/MCLib/Any/Src/sto_pll_speed_pos_fdbk.c **** #else
 125              		.loc 1 187 53 view .LVU38
 126 0034 47FA05F6 		asr	r6, r7, r5
 127 0038 0296     		str	r6, [sp, #8]
 187:MCSDK_v6.2.1-Full/MotorControl/MCSDK/MCLib/Any/Src/sto_pll_speed_pos_fdbk.c **** #else
 128              		.loc 1 187 17 view .LVU39
 129 003a 0FFA86FE 		sxth	lr, r6
 130              	.LVL3:
 131              		.loc 1 192 5 is_stmt 1 view .LVU40
 132              		.loc 1 192 8 is_stmt 0 view .LVU41
 133 003e 019E     		ldr	r6, [sp, #4]
 134 0040 B242     		cmp	r2, r6
 135 0042 80F2C880 		bge	.L7
 193:MCSDK_v6.2.1-Full/MotorControl/MCSDK/MCLib/Any/Src/sto_pll_speed_pos_fdbk.c ****     {
 194:MCSDK_v6.2.1-Full/MotorControl/MCSDK/MCLib/Any/Src/sto_pll_speed_pos_fdbk.c ****       pHandle->wBemf_beta_est = INT16_MAX * ((int32_t)pHandle->hF2);
 136              		.loc 1 194 7 is_stmt 1 view .LVU42
 137              		.loc 1 194 31 is_stmt 0 view .LVU43
 138 0046 E266     		str	r2, [r4, #108]
 139 0048 0192     		str	r2, [sp, #4]
 140              	.L8:
 195:MCSDK_v6.2.1-Full/MotorControl/MCSDK/MCLib/Any/Src/sto_pll_speed_pos_fdbk.c ****     }
 196:MCSDK_v6.2.1-Full/MotorControl/MCSDK/MCLib/Any/Src/sto_pll_speed_pos_fdbk.c ****     else if (pHandle->wBemf_beta_est <= (-INT16_MAX * ((int32_t)pHandle->hF2)))
 197:MCSDK_v6.2.1-Full/MotorControl/MCSDK/MCLib/Any/Src/sto_pll_speed_pos_fdbk.c ****     {
 198:MCSDK_v6.2.1-Full/MotorControl/MCSDK/MCLib/Any/Src/sto_pll_speed_pos_fdbk.c ****       pHandle->wBemf_beta_est = (-INT16_MAX * ((int32_t)pHandle->hF2));
 199:MCSDK_v6.2.1-Full/MotorControl/MCSDK/MCLib/Any/Src/sto_pll_speed_pos_fdbk.c ****     }
 200:MCSDK_v6.2.1-Full/MotorControl/MCSDK/MCLib/Any/Src/sto_pll_speed_pos_fdbk.c ****     else
 201:MCSDK_v6.2.1-Full/MotorControl/MCSDK/MCLib/Any/Src/sto_pll_speed_pos_fdbk.c ****     {
ARM GAS  C:\Users\ep_ygh\AppData\Local\Temp\cc16k1Ab.s 			page 7


 202:MCSDK_v6.2.1-Full/MotorControl/MCSDK/MCLib/Any/Src/sto_pll_speed_pos_fdbk.c ****       /* Nothing to do */
 203:MCSDK_v6.2.1-Full/MotorControl/MCSDK/MCLib/Any/Src/sto_pll_speed_pos_fdbk.c ****     }
 141              		.loc 1 203 5 is_stmt 1 view .LVU44
 204:MCSDK_v6.2.1-Full/MotorControl/MCSDK/MCLib/Any/Src/sto_pll_speed_pos_fdbk.c **** #ifndef FULL_MISRA_C_COMPLIANCY_STO_PLL
 205:MCSDK_v6.2.1-Full/MotorControl/MCSDK/MCLib/Any/Src/sto_pll_speed_pos_fdbk.c ****     //cstat !MISRAC2012-Rule-1.3_n !ATH-shift-neg !MISRAC2012-Rule-10.1_R6
 206:MCSDK_v6.2.1-Full/MotorControl/MCSDK/MCLib/Any/Src/sto_pll_speed_pos_fdbk.c ****     hAux_Beta = (int16_t)(pHandle->wBemf_beta_est >> pHandle->F2LOG);
 142              		.loc 1 206 5 view .LVU45
 143              		.loc 1 206 51 is_stmt 0 view .LVU46
 144 004a 019B     		ldr	r3, [sp, #4]
 207:MCSDK_v6.2.1-Full/MotorControl/MCSDK/MCLib/Any/Src/sto_pll_speed_pos_fdbk.c **** #else
 208:MCSDK_v6.2.1-Full/MotorControl/MCSDK/MCLib/Any/Src/sto_pll_speed_pos_fdbk.c ****     hAux_Beta = (int16_t)(pHandle->wBemf_beta_est / pHandle->hF2);
 209:MCSDK_v6.2.1-Full/MotorControl/MCSDK/MCLib/Any/Src/sto_pll_speed_pos_fdbk.c **** #endif
 210:MCSDK_v6.2.1-Full/MotorControl/MCSDK/MCLib/Any/Src/sto_pll_speed_pos_fdbk.c **** 
 211:MCSDK_v6.2.1-Full/MotorControl/MCSDK/MCLib/Any/Src/sto_pll_speed_pos_fdbk.c ****     if (pHandle->Ialfa_est > (INT16_MAX * ((int32_t)pHandle->hF1)))
 145              		.loc 1 211 16 view .LVU47
 146 004c D4F86090 		ldr	r9, [r4, #96]
 206:MCSDK_v6.2.1-Full/MotorControl/MCSDK/MCLib/Any/Src/sto_pll_speed_pos_fdbk.c **** #else
 147              		.loc 1 206 51 view .LVU48
 148 0050 43FA05F5 		asr	r5, r3, r5
 149              		.loc 1 211 60 view .LVU49
 150 0054 B4F92C30 		ldrsh	r3, [r4, #44]
 151              		.loc 1 211 41 view .LVU50
 152 0058 C3EBC332 		rsb	r2, r3, r3, lsl #15
 153              		.loc 1 211 8 view .LVU51
 154 005c 9145     		cmp	r9, r2
 206:MCSDK_v6.2.1-Full/MotorControl/MCSDK/MCLib/Any/Src/sto_pll_speed_pos_fdbk.c **** #else
 155              		.loc 1 206 15 view .LVU52
 156 005e 0FFA85FC 		sxth	ip, r5
 157              	.LVL4:
 158              		.loc 1 211 5 is_stmt 1 view .LVU53
 159              		.loc 1 211 41 is_stmt 0 view .LVU54
 160 0062 4FEAC330 		lsl	r0, r3, #15
 161              		.loc 1 211 8 view .LVU55
 162 0066 40F3AE80 		ble	.L9
 212:MCSDK_v6.2.1-Full/MotorControl/MCSDK/MCLib/Any/Src/sto_pll_speed_pos_fdbk.c ****     {
 213:MCSDK_v6.2.1-Full/MotorControl/MCSDK/MCLib/Any/Src/sto_pll_speed_pos_fdbk.c ****       pHandle->Ialfa_est = INT16_MAX * ((int32_t)pHandle->hF1);
 163              		.loc 1 213 7 is_stmt 1 view .LVU56
 164              		.loc 1 213 26 is_stmt 0 view .LVU57
 165 006a 2266     		str	r2, [r4, #96]
 166 006c 9146     		mov	r9, r2
 167              	.L10:
 214:MCSDK_v6.2.1-Full/MotorControl/MCSDK/MCLib/Any/Src/sto_pll_speed_pos_fdbk.c ****     }
 215:MCSDK_v6.2.1-Full/MotorControl/MCSDK/MCLib/Any/Src/sto_pll_speed_pos_fdbk.c ****     else if (pHandle->Ialfa_est <= (-INT16_MAX * ((int32_t)pHandle->hF1)))
 216:MCSDK_v6.2.1-Full/MotorControl/MCSDK/MCLib/Any/Src/sto_pll_speed_pos_fdbk.c ****     {
 217:MCSDK_v6.2.1-Full/MotorControl/MCSDK/MCLib/Any/Src/sto_pll_speed_pos_fdbk.c ****       pHandle->Ialfa_est = -INT16_MAX * ((int32_t)pHandle->hF1);
 218:MCSDK_v6.2.1-Full/MotorControl/MCSDK/MCLib/Any/Src/sto_pll_speed_pos_fdbk.c ****     }
 219:MCSDK_v6.2.1-Full/MotorControl/MCSDK/MCLib/Any/Src/sto_pll_speed_pos_fdbk.c ****     else
 220:MCSDK_v6.2.1-Full/MotorControl/MCSDK/MCLib/Any/Src/sto_pll_speed_pos_fdbk.c ****     {
 221:MCSDK_v6.2.1-Full/MotorControl/MCSDK/MCLib/Any/Src/sto_pll_speed_pos_fdbk.c ****       /* Nothing to do */
 222:MCSDK_v6.2.1-Full/MotorControl/MCSDK/MCLib/Any/Src/sto_pll_speed_pos_fdbk.c ****     }
 168              		.loc 1 222 5 is_stmt 1 view .LVU58
 223:MCSDK_v6.2.1-Full/MotorControl/MCSDK/MCLib/Any/Src/sto_pll_speed_pos_fdbk.c **** 
 224:MCSDK_v6.2.1-Full/MotorControl/MCSDK/MCLib/Any/Src/sto_pll_speed_pos_fdbk.c ****     if (pHandle->Ibeta_est > (INT16_MAX * ((int32_t)pHandle->hF1)))
 169              		.loc 1 224 5 view .LVU59
 170              		.loc 1 224 16 is_stmt 0 view .LVU60
 171 006e D4F86480 		ldr	r8, [r4, #100]
 172              		.loc 1 224 8 view .LVU61
ARM GAS  C:\Users\ep_ygh\AppData\Local\Temp\cc16k1Ab.s 			page 8


 173 0072 4245     		cmp	r2, r8
 174 0074 80F2A180 		bge	.L11
 225:MCSDK_v6.2.1-Full/MotorControl/MCSDK/MCLib/Any/Src/sto_pll_speed_pos_fdbk.c ****     {
 226:MCSDK_v6.2.1-Full/MotorControl/MCSDK/MCLib/Any/Src/sto_pll_speed_pos_fdbk.c ****       pHandle->Ibeta_est = INT16_MAX * ((int32_t)pHandle->hF1);
 175              		.loc 1 226 7 is_stmt 1 view .LVU62
 176              		.loc 1 226 26 is_stmt 0 view .LVU63
 177 0078 6266     		str	r2, [r4, #100]
 178 007a 9046     		mov	r8, r2
 179              	.L12:
 227:MCSDK_v6.2.1-Full/MotorControl/MCSDK/MCLib/Any/Src/sto_pll_speed_pos_fdbk.c ****     }
 228:MCSDK_v6.2.1-Full/MotorControl/MCSDK/MCLib/Any/Src/sto_pll_speed_pos_fdbk.c ****     else if (pHandle->Ibeta_est <= (-INT16_MAX * ((int32_t)pHandle->hF1)))
 229:MCSDK_v6.2.1-Full/MotorControl/MCSDK/MCLib/Any/Src/sto_pll_speed_pos_fdbk.c ****     {
 230:MCSDK_v6.2.1-Full/MotorControl/MCSDK/MCLib/Any/Src/sto_pll_speed_pos_fdbk.c ****       pHandle->Ibeta_est = -INT16_MAX * ((int32_t)pHandle->hF1);
 231:MCSDK_v6.2.1-Full/MotorControl/MCSDK/MCLib/Any/Src/sto_pll_speed_pos_fdbk.c ****     }
 232:MCSDK_v6.2.1-Full/MotorControl/MCSDK/MCLib/Any/Src/sto_pll_speed_pos_fdbk.c ****     else
 233:MCSDK_v6.2.1-Full/MotorControl/MCSDK/MCLib/Any/Src/sto_pll_speed_pos_fdbk.c ****     {
 234:MCSDK_v6.2.1-Full/MotorControl/MCSDK/MCLib/Any/Src/sto_pll_speed_pos_fdbk.c ****       /* Nothing to do */
 235:MCSDK_v6.2.1-Full/MotorControl/MCSDK/MCLib/Any/Src/sto_pll_speed_pos_fdbk.c ****     }
 180              		.loc 1 235 5 is_stmt 1 view .LVU64
 236:MCSDK_v6.2.1-Full/MotorControl/MCSDK/MCLib/Any/Src/sto_pll_speed_pos_fdbk.c **** 
 237:MCSDK_v6.2.1-Full/MotorControl/MCSDK/MCLib/Any/Src/sto_pll_speed_pos_fdbk.c **** #ifndef FULL_MISRA_C_COMPLIANCY_STO_PLL
 238:MCSDK_v6.2.1-Full/MotorControl/MCSDK/MCLib/Any/Src/sto_pll_speed_pos_fdbk.c ****     //cstat !MISRAC2012-Rule-1.3_n !ATH-shift-neg !MISRAC2012-Rule-10.1_R6
 239:MCSDK_v6.2.1-Full/MotorControl/MCSDK/MCLib/Any/Src/sto_pll_speed_pos_fdbk.c ****     hIalfa_err = (int16_t)(pHandle->Ialfa_est >> pHandle->F1LOG);
 181              		.loc 1 239 5 view .LVU65
 240:MCSDK_v6.2.1-Full/MotorControl/MCSDK/MCLib/Any/Src/sto_pll_speed_pos_fdbk.c **** #else
 241:MCSDK_v6.2.1-Full/MotorControl/MCSDK/MCLib/Any/Src/sto_pll_speed_pos_fdbk.c ****     hIalfa_err = (int16_t)(pHandle->Ialfa_est / pHandle->hF1);
 242:MCSDK_v6.2.1-Full/MotorControl/MCSDK/MCLib/Any/Src/sto_pll_speed_pos_fdbk.c **** #endif
 243:MCSDK_v6.2.1-Full/MotorControl/MCSDK/MCLib/Any/Src/sto_pll_speed_pos_fdbk.c **** 
 244:MCSDK_v6.2.1-Full/MotorControl/MCSDK/MCLib/Any/Src/sto_pll_speed_pos_fdbk.c ****     hIalfa_err = hIalfa_err - pInputs->Ialfa_beta.alpha;
 182              		.loc 1 244 29 is_stmt 0 view .LVU66
 183 007c 8B88     		ldrh	r3, [r1, #4]
 245:MCSDK_v6.2.1-Full/MotorControl/MCSDK/MCLib/Any/Src/sto_pll_speed_pos_fdbk.c **** 
 246:MCSDK_v6.2.1-Full/MotorControl/MCSDK/MCLib/Any/Src/sto_pll_speed_pos_fdbk.c **** #ifndef FULL_MISRA_C_COMPLIANCY_STO_PLL
 247:MCSDK_v6.2.1-Full/MotorControl/MCSDK/MCLib/Any/Src/sto_pll_speed_pos_fdbk.c ****     //cstat !MISRAC2012-Rule-1.3_n !ATH-shift-neg !MISRAC2012-Rule-10.1_R6
 248:MCSDK_v6.2.1-Full/MotorControl/MCSDK/MCLib/Any/Src/sto_pll_speed_pos_fdbk.c ****     hIbeta_err = (int16_t)(pHandle->Ibeta_est >> pHandle->F1LOG);
 249:MCSDK_v6.2.1-Full/MotorControl/MCSDK/MCLib/Any/Src/sto_pll_speed_pos_fdbk.c **** #else
 250:MCSDK_v6.2.1-Full/MotorControl/MCSDK/MCLib/Any/Src/sto_pll_speed_pos_fdbk.c ****     hIbeta_err = (int16_t)(pHandle->Ibeta_est / pHandle->hF1);
 251:MCSDK_v6.2.1-Full/MotorControl/MCSDK/MCLib/Any/Src/sto_pll_speed_pos_fdbk.c **** #endif
 252:MCSDK_v6.2.1-Full/MotorControl/MCSDK/MCLib/Any/Src/sto_pll_speed_pos_fdbk.c **** 
 253:MCSDK_v6.2.1-Full/MotorControl/MCSDK/MCLib/Any/Src/sto_pll_speed_pos_fdbk.c ****     hIbeta_err = hIbeta_err - pInputs->Ialfa_beta.beta;
 254:MCSDK_v6.2.1-Full/MotorControl/MCSDK/MCLib/Any/Src/sto_pll_speed_pos_fdbk.c **** 
 255:MCSDK_v6.2.1-Full/MotorControl/MCSDK/MCLib/Any/Src/sto_pll_speed_pos_fdbk.c ****     wAux = ((int32_t)pInputs->Vbus) * pInputs->Valfa_beta.alpha;
 184              		.loc 1 255 13 view .LVU67
 185 007e 0889     		ldrh	r0, [r1, #8]
 244:MCSDK_v6.2.1-Full/MotorControl/MCSDK/MCLib/Any/Src/sto_pll_speed_pos_fdbk.c **** 
 186              		.loc 1 244 29 view .LVU68
 187 0080 ADF80C30 		strh	r3, [sp, #12]	@ movhi
 188              		.loc 1 255 58 view .LVU69
 189 0084 B1F90030 		ldrsh	r3, [r1]
 253:MCSDK_v6.2.1-Full/MotorControl/MCSDK/MCLib/Any/Src/sto_pll_speed_pos_fdbk.c **** 
 190              		.loc 1 253 29 view .LVU70
 191 0088 B1F806A0 		ldrh	r10, [r1, #6]
 239:MCSDK_v6.2.1-Full/MotorControl/MCSDK/MCLib/Any/Src/sto_pll_speed_pos_fdbk.c **** #else
 192              		.loc 1 239 57 view .LVU71
 193 008c B4F81C21 		ldrh	r2, [r4, #284]
 256:MCSDK_v6.2.1-Full/MotorControl/MCSDK/MCLib/Any/Src/sto_pll_speed_pos_fdbk.c **** #ifndef FULL_MISRA_C_COMPLIANCY_STO_PLL
 257:MCSDK_v6.2.1-Full/MotorControl/MCSDK/MCLib/Any/Src/sto_pll_speed_pos_fdbk.c ****     hValfa = (int16_t)(wAux >> 16); //cstat !MISRAC2012-Rule-1.3_n !ATH-shift-neg !MISRAC2012-Rule-
ARM GAS  C:\Users\ep_ygh\AppData\Local\Temp\cc16k1Ab.s 			page 9


 258:MCSDK_v6.2.1-Full/MotorControl/MCSDK/MCLib/Any/Src/sto_pll_speed_pos_fdbk.c **** #else
 259:MCSDK_v6.2.1-Full/MotorControl/MCSDK/MCLib/Any/Src/sto_pll_speed_pos_fdbk.c ****     hValfa = (int16_t)(wAux / 65536);
 260:MCSDK_v6.2.1-Full/MotorControl/MCSDK/MCLib/Any/Src/sto_pll_speed_pos_fdbk.c **** #endif
 261:MCSDK_v6.2.1-Full/MotorControl/MCSDK/MCLib/Any/Src/sto_pll_speed_pos_fdbk.c **** 
 262:MCSDK_v6.2.1-Full/MotorControl/MCSDK/MCLib/Any/Src/sto_pll_speed_pos_fdbk.c ****     wAux = ((int32_t)pInputs->Vbus) * pInputs->Valfa_beta.beta;
 194              		.loc 1 262 58 view .LVU72
 195 0090 B1F90210 		ldrsh	r1, [r1, #2]
 196              	.LVL5:
 263:MCSDK_v6.2.1-Full/MotorControl/MCSDK/MCLib/Any/Src/sto_pll_speed_pos_fdbk.c **** 
 264:MCSDK_v6.2.1-Full/MotorControl/MCSDK/MCLib/Any/Src/sto_pll_speed_pos_fdbk.c **** #ifndef FULL_MISRA_C_COMPLIANCY_STO_PLL
 265:MCSDK_v6.2.1-Full/MotorControl/MCSDK/MCLib/Any/Src/sto_pll_speed_pos_fdbk.c ****     hVbeta = ( int16_t ) ( wAux >> 16 ); //cstat !MISRAC2012-Rule-1.3_n !ATH-shift-neg !MISRAC2012-
 266:MCSDK_v6.2.1-Full/MotorControl/MCSDK/MCLib/Any/Src/sto_pll_speed_pos_fdbk.c **** #else
 267:MCSDK_v6.2.1-Full/MotorControl/MCSDK/MCLib/Any/Src/sto_pll_speed_pos_fdbk.c ****     hVbeta = (int16_t)(wAux / 65536);
 268:MCSDK_v6.2.1-Full/MotorControl/MCSDK/MCLib/Any/Src/sto_pll_speed_pos_fdbk.c **** #endif
 269:MCSDK_v6.2.1-Full/MotorControl/MCSDK/MCLib/Any/Src/sto_pll_speed_pos_fdbk.c **** 
 270:MCSDK_v6.2.1-Full/MotorControl/MCSDK/MCLib/Any/Src/sto_pll_speed_pos_fdbk.c ****     /* alfa axes observer */
 271:MCSDK_v6.2.1-Full/MotorControl/MCSDK/MCLib/Any/Src/sto_pll_speed_pos_fdbk.c **** #ifndef FULL_MISRA_C_COMPLIANCY_STO_PLL
 272:MCSDK_v6.2.1-Full/MotorControl/MCSDK/MCLib/Any/Src/sto_pll_speed_pos_fdbk.c ****     //cstat !MISRAC2012-Rule-1.3_n !ATH-shift-neg !MISRAC2012-Rule-10.1_R6
 273:MCSDK_v6.2.1-Full/MotorControl/MCSDK/MCLib/Any/Src/sto_pll_speed_pos_fdbk.c ****     hAux = (int16_t)(pHandle->Ialfa_est >> pHandle->F1LOG);
 274:MCSDK_v6.2.1-Full/MotorControl/MCSDK/MCLib/Any/Src/sto_pll_speed_pos_fdbk.c **** #else
 275:MCSDK_v6.2.1-Full/MotorControl/MCSDK/MCLib/Any/Src/sto_pll_speed_pos_fdbk.c ****     hAux = (int16_t)(pHandle->Ialfa_est / pHandle->hF1);
 276:MCSDK_v6.2.1-Full/MotorControl/MCSDK/MCLib/Any/Src/sto_pll_speed_pos_fdbk.c **** #endif
 277:MCSDK_v6.2.1-Full/MotorControl/MCSDK/MCLib/Any/Src/sto_pll_speed_pos_fdbk.c **** 
 278:MCSDK_v6.2.1-Full/MotorControl/MCSDK/MCLib/Any/Src/sto_pll_speed_pos_fdbk.c ****     wAux = ((int32_t)pHandle->hC1) * hAux;
 197              		.loc 1 278 29 view .LVU73
 198 0094 B4F920B0 		ldrsh	fp, [r4, #32]
 279:MCSDK_v6.2.1-Full/MotorControl/MCSDK/MCLib/Any/Src/sto_pll_speed_pos_fdbk.c ****     wIalfa_est_Next = pHandle->Ialfa_est - wAux;
 280:MCSDK_v6.2.1-Full/MotorControl/MCSDK/MCLib/Any/Src/sto_pll_speed_pos_fdbk.c **** 
 281:MCSDK_v6.2.1-Full/MotorControl/MCSDK/MCLib/Any/Src/sto_pll_speed_pos_fdbk.c ****     wAux = ((int32_t)pHandle->hC2) * hIalfa_err;
 282:MCSDK_v6.2.1-Full/MotorControl/MCSDK/MCLib/Any/Src/sto_pll_speed_pos_fdbk.c ****     wIalfa_est_Next += wAux;
 283:MCSDK_v6.2.1-Full/MotorControl/MCSDK/MCLib/Any/Src/sto_pll_speed_pos_fdbk.c **** 
 284:MCSDK_v6.2.1-Full/MotorControl/MCSDK/MCLib/Any/Src/sto_pll_speed_pos_fdbk.c ****     wAux = ((int32_t)pHandle->hC5) * hValfa;
 285:MCSDK_v6.2.1-Full/MotorControl/MCSDK/MCLib/Any/Src/sto_pll_speed_pos_fdbk.c ****     wIalfa_est_Next += wAux;
 286:MCSDK_v6.2.1-Full/MotorControl/MCSDK/MCLib/Any/Src/sto_pll_speed_pos_fdbk.c **** 
 287:MCSDK_v6.2.1-Full/MotorControl/MCSDK/MCLib/Any/Src/sto_pll_speed_pos_fdbk.c ****     wAux = ((int32_t)pHandle->hC3) * hAux_Alfa;
 288:MCSDK_v6.2.1-Full/MotorControl/MCSDK/MCLib/Any/Src/sto_pll_speed_pos_fdbk.c ****     wIalfa_est_Next -= wAux;
 289:MCSDK_v6.2.1-Full/MotorControl/MCSDK/MCLib/Any/Src/sto_pll_speed_pos_fdbk.c **** 
 290:MCSDK_v6.2.1-Full/MotorControl/MCSDK/MCLib/Any/Src/sto_pll_speed_pos_fdbk.c ****     wAux = ((int32_t)pHandle->hC4) * hIalfa_err;
 291:MCSDK_v6.2.1-Full/MotorControl/MCSDK/MCLib/Any/Src/sto_pll_speed_pos_fdbk.c ****     wBemf_alfa_est_Next = pHandle->wBemf_alfa_est + wAux;
 292:MCSDK_v6.2.1-Full/MotorControl/MCSDK/MCLib/Any/Src/sto_pll_speed_pos_fdbk.c **** 
 293:MCSDK_v6.2.1-Full/MotorControl/MCSDK/MCLib/Any/Src/sto_pll_speed_pos_fdbk.c **** #ifndef FULL_MISRA_C_COMPLIANCY_STO_PLL
 294:MCSDK_v6.2.1-Full/MotorControl/MCSDK/MCLib/Any/Src/sto_pll_speed_pos_fdbk.c ****     wAux = (int32_t)hAux_Beta >> pHandle->F3POW2; //cstat !MISRAC2012-Rule-1.3_n !ATH-shift-neg !MI
 295:MCSDK_v6.2.1-Full/MotorControl/MCSDK/MCLib/Any/Src/sto_pll_speed_pos_fdbk.c **** #else
 296:MCSDK_v6.2.1-Full/MotorControl/MCSDK/MCLib/Any/Src/sto_pll_speed_pos_fdbk.c ****     wAux = ((int32_t)hAux_Beta) / pHandle->hF3;
 297:MCSDK_v6.2.1-Full/MotorControl/MCSDK/MCLib/Any/Src/sto_pll_speed_pos_fdbk.c **** #endif
 298:MCSDK_v6.2.1-Full/MotorControl/MCSDK/MCLib/Any/Src/sto_pll_speed_pos_fdbk.c **** 
 299:MCSDK_v6.2.1-Full/MotorControl/MCSDK/MCLib/Any/Src/sto_pll_speed_pos_fdbk.c ****     wAux = wAux * pHandle->hC6;
 300:MCSDK_v6.2.1-Full/MotorControl/MCSDK/MCLib/Any/Src/sto_pll_speed_pos_fdbk.c ****     wAux = pHandle->_Super.hElSpeedDpp * wAux;
 301:MCSDK_v6.2.1-Full/MotorControl/MCSDK/MCLib/Any/Src/sto_pll_speed_pos_fdbk.c ****     wBemf_alfa_est_Next += wAux;
 302:MCSDK_v6.2.1-Full/MotorControl/MCSDK/MCLib/Any/Src/sto_pll_speed_pos_fdbk.c **** 
 303:MCSDK_v6.2.1-Full/MotorControl/MCSDK/MCLib/Any/Src/sto_pll_speed_pos_fdbk.c ****     /* beta axes observer */
 304:MCSDK_v6.2.1-Full/MotorControl/MCSDK/MCLib/Any/Src/sto_pll_speed_pos_fdbk.c **** #ifndef FULL_MISRA_C_COMPLIANCY_STO_PLL
 305:MCSDK_v6.2.1-Full/MotorControl/MCSDK/MCLib/Any/Src/sto_pll_speed_pos_fdbk.c ****     //cstat !MISRAC2012-Rule-1.3_n !ATH-shift-neg !MISRAC2012-Rule-10.1_R6
 306:MCSDK_v6.2.1-Full/MotorControl/MCSDK/MCLib/Any/Src/sto_pll_speed_pos_fdbk.c ****     hAux = (int16_t)(pHandle->Ibeta_est >> pHandle->F1LOG);
 307:MCSDK_v6.2.1-Full/MotorControl/MCSDK/MCLib/Any/Src/sto_pll_speed_pos_fdbk.c **** #else
 308:MCSDK_v6.2.1-Full/MotorControl/MCSDK/MCLib/Any/Src/sto_pll_speed_pos_fdbk.c ****     hAux = (int16_t)(pHandle->Ibeta_est / pHandle->hF1);
 309:MCSDK_v6.2.1-Full/MotorControl/MCSDK/MCLib/Any/Src/sto_pll_speed_pos_fdbk.c **** #endif
ARM GAS  C:\Users\ep_ygh\AppData\Local\Temp\cc16k1Ab.s 			page 10


 310:MCSDK_v6.2.1-Full/MotorControl/MCSDK/MCLib/Any/Src/sto_pll_speed_pos_fdbk.c **** 
 311:MCSDK_v6.2.1-Full/MotorControl/MCSDK/MCLib/Any/Src/sto_pll_speed_pos_fdbk.c ****     wAux = ((int32_t)pHandle->hC1) * hAux;
 312:MCSDK_v6.2.1-Full/MotorControl/MCSDK/MCLib/Any/Src/sto_pll_speed_pos_fdbk.c ****     wIbeta_est_Next = pHandle->Ibeta_est - wAux;
 313:MCSDK_v6.2.1-Full/MotorControl/MCSDK/MCLib/Any/Src/sto_pll_speed_pos_fdbk.c **** 
 314:MCSDK_v6.2.1-Full/MotorControl/MCSDK/MCLib/Any/Src/sto_pll_speed_pos_fdbk.c ****     wAux = ((int32_t)pHandle->hC2) * hIbeta_err;
 315:MCSDK_v6.2.1-Full/MotorControl/MCSDK/MCLib/Any/Src/sto_pll_speed_pos_fdbk.c ****     wIbeta_est_Next += wAux;
 316:MCSDK_v6.2.1-Full/MotorControl/MCSDK/MCLib/Any/Src/sto_pll_speed_pos_fdbk.c **** 
 317:MCSDK_v6.2.1-Full/MotorControl/MCSDK/MCLib/Any/Src/sto_pll_speed_pos_fdbk.c ****     wAux = ((int32_t)pHandle->hC5) * hVbeta;
 318:MCSDK_v6.2.1-Full/MotorControl/MCSDK/MCLib/Any/Src/sto_pll_speed_pos_fdbk.c ****     wIbeta_est_Next += wAux;
 319:MCSDK_v6.2.1-Full/MotorControl/MCSDK/MCLib/Any/Src/sto_pll_speed_pos_fdbk.c **** 
 320:MCSDK_v6.2.1-Full/MotorControl/MCSDK/MCLib/Any/Src/sto_pll_speed_pos_fdbk.c ****     wAux = ((int32_t)pHandle->hC3) * hAux_Beta;
 321:MCSDK_v6.2.1-Full/MotorControl/MCSDK/MCLib/Any/Src/sto_pll_speed_pos_fdbk.c ****     wIbeta_est_Next -= wAux;
 322:MCSDK_v6.2.1-Full/MotorControl/MCSDK/MCLib/Any/Src/sto_pll_speed_pos_fdbk.c **** 
 323:MCSDK_v6.2.1-Full/MotorControl/MCSDK/MCLib/Any/Src/sto_pll_speed_pos_fdbk.c ****     wAux = ((int32_t)pHandle->hC4) * hIbeta_err;
 324:MCSDK_v6.2.1-Full/MotorControl/MCSDK/MCLib/Any/Src/sto_pll_speed_pos_fdbk.c ****     wBemf_beta_est_Next = pHandle->wBemf_beta_est + wAux;
 325:MCSDK_v6.2.1-Full/MotorControl/MCSDK/MCLib/Any/Src/sto_pll_speed_pos_fdbk.c **** 
 326:MCSDK_v6.2.1-Full/MotorControl/MCSDK/MCLib/Any/Src/sto_pll_speed_pos_fdbk.c **** #ifndef FULL_MISRA_C_COMPLIANCY_STO_PLL
 327:MCSDK_v6.2.1-Full/MotorControl/MCSDK/MCLib/Any/Src/sto_pll_speed_pos_fdbk.c ****     wAux = (int32_t)hAux_Alfa >> pHandle->F3POW2; //cstat !MISRAC2012-Rule-1.3_n !ATH-shift-neg !MI
 328:MCSDK_v6.2.1-Full/MotorControl/MCSDK/MCLib/Any/Src/sto_pll_speed_pos_fdbk.c **** #else
 329:MCSDK_v6.2.1-Full/MotorControl/MCSDK/MCLib/Any/Src/sto_pll_speed_pos_fdbk.c ****     wAux = ((int32_t)hAux_Alfa) / pHandle->hF3;
 330:MCSDK_v6.2.1-Full/MotorControl/MCSDK/MCLib/Any/Src/sto_pll_speed_pos_fdbk.c **** #endif
 331:MCSDK_v6.2.1-Full/MotorControl/MCSDK/MCLib/Any/Src/sto_pll_speed_pos_fdbk.c **** 
 332:MCSDK_v6.2.1-Full/MotorControl/MCSDK/MCLib/Any/Src/sto_pll_speed_pos_fdbk.c ****     wAux = wAux * pHandle->hC6;
 333:MCSDK_v6.2.1-Full/MotorControl/MCSDK/MCLib/Any/Src/sto_pll_speed_pos_fdbk.c ****     wAux = pHandle->_Super.hElSpeedDpp * wAux;
 334:MCSDK_v6.2.1-Full/MotorControl/MCSDK/MCLib/Any/Src/sto_pll_speed_pos_fdbk.c ****     wBemf_beta_est_Next -= wAux;
 335:MCSDK_v6.2.1-Full/MotorControl/MCSDK/MCLib/Any/Src/sto_pll_speed_pos_fdbk.c **** 
 336:MCSDK_v6.2.1-Full/MotorControl/MCSDK/MCLib/Any/Src/sto_pll_speed_pos_fdbk.c ****     /* Calls the PLL blockset */
 337:MCSDK_v6.2.1-Full/MotorControl/MCSDK/MCLib/Any/Src/sto_pll_speed_pos_fdbk.c ****     pHandle->hBemf_alfa_est = hAux_Alfa;
 338:MCSDK_v6.2.1-Full/MotorControl/MCSDK/MCLib/Any/Src/sto_pll_speed_pos_fdbk.c ****     pHandle->hBemf_beta_est = hAux_Beta;
 199              		.loc 1 338 29 view .LVU74
 200 0098 A4F872C0 		strh	ip, [r4, #114]	@ movhi
 255:MCSDK_v6.2.1-Full/MotorControl/MCSDK/MCLib/Any/Src/sto_pll_speed_pos_fdbk.c **** #ifndef FULL_MISRA_C_COMPLIANCY_STO_PLL
 201              		.loc 1 255 10 view .LVU75
 202 009c 00FB03F3 		mul	r3, r0, r3
 257:MCSDK_v6.2.1-Full/MotorControl/MCSDK/MCLib/Any/Src/sto_pll_speed_pos_fdbk.c **** #else
 203              		.loc 1 257 29 view .LVU76
 204 00a0 1E14     		asrs	r6, r3, #16
 262:MCSDK_v6.2.1-Full/MotorControl/MCSDK/MCLib/Any/Src/sto_pll_speed_pos_fdbk.c **** 
 205              		.loc 1 262 10 view .LVU77
 206 00a2 01FB00F0 		mul	r0, r1, r0
 239:MCSDK_v6.2.1-Full/MotorControl/MCSDK/MCLib/Any/Src/sto_pll_speed_pos_fdbk.c **** #else
 207              		.loc 1 239 47 view .LVU78
 208 00a6 49FA02F3 		asr	r3, r9, r2
 209              	.LVL6:
 244:MCSDK_v6.2.1-Full/MotorControl/MCSDK/MCLib/Any/Src/sto_pll_speed_pos_fdbk.c **** 
 210              		.loc 1 244 5 is_stmt 1 view .LVU79
 244:MCSDK_v6.2.1-Full/MotorControl/MCSDK/MCLib/Any/Src/sto_pll_speed_pos_fdbk.c **** 
 211              		.loc 1 244 29 is_stmt 0 view .LVU80
 212 00aa 0399     		ldr	r1, [sp, #12]
 337:MCSDK_v6.2.1-Full/MotorControl/MCSDK/MCLib/Any/Src/sto_pll_speed_pos_fdbk.c ****     pHandle->hBemf_beta_est = hAux_Beta;
 213              		.loc 1 337 29 view .LVU81
 214 00ac A4F870E0 		strh	lr, [r4, #112]	@ movhi
 248:MCSDK_v6.2.1-Full/MotorControl/MCSDK/MCLib/Any/Src/sto_pll_speed_pos_fdbk.c **** #else
 215              		.loc 1 248 47 view .LVU82
 216 00b0 48FA02F2 		asr	r2, r8, r2
 253:MCSDK_v6.2.1-Full/MotorControl/MCSDK/MCLib/Any/Src/sto_pll_speed_pos_fdbk.c **** 
 217              		.loc 1 253 29 view .LVU83
ARM GAS  C:\Users\ep_ygh\AppData\Local\Temp\cc16k1Ab.s 			page 11


 218 00b4 A2EB0A0A 		sub	r10, r2, r10
 311:MCSDK_v6.2.1-Full/MotorControl/MCSDK/MCLib/Any/Src/sto_pll_speed_pos_fdbk.c ****     wIbeta_est_Next = pHandle->Ibeta_est - wAux;
 219              		.loc 1 311 10 view .LVU84
 220 00b8 12FB0BF2 		smulbb	r2, r2, fp
 312:MCSDK_v6.2.1-Full/MotorControl/MCSDK/MCLib/Any/Src/sto_pll_speed_pos_fdbk.c **** 
 221              		.loc 1 312 21 view .LVU85
 222 00bc A8EB0202 		sub	r2, r8, r2
 244:MCSDK_v6.2.1-Full/MotorControl/MCSDK/MCLib/Any/Src/sto_pll_speed_pos_fdbk.c **** 
 223              		.loc 1 244 29 view .LVU86
 224 00c0 591A     		subs	r1, r3, r1
 281:MCSDK_v6.2.1-Full/MotorControl/MCSDK/MCLib/Any/Src/sto_pll_speed_pos_fdbk.c ****     wIalfa_est_Next += wAux;
 225              		.loc 1 281 29 view .LVU87
 226 00c2 B4F92280 		ldrsh	r8, [r4, #34]
 278:MCSDK_v6.2.1-Full/MotorControl/MCSDK/MCLib/Any/Src/sto_pll_speed_pos_fdbk.c ****     wIalfa_est_Next = pHandle->Ialfa_est - wAux;
 227              		.loc 1 278 10 view .LVU88
 228 00c6 13FB0BF3 		smulbb	r3, r3, fp
 229              	.LVL7:
 279:MCSDK_v6.2.1-Full/MotorControl/MCSDK/MCLib/Any/Src/sto_pll_speed_pos_fdbk.c **** 
 230              		.loc 1 279 21 view .LVU89
 231 00ca A9EB0303 		sub	r3, r9, r3
 284:MCSDK_v6.2.1-Full/MotorControl/MCSDK/MCLib/Any/Src/sto_pll_speed_pos_fdbk.c ****     wIalfa_est_Next += wAux;
 232              		.loc 1 284 13 view .LVU90
 233 00ce B4F928B0 		ldrsh	fp, [r4, #40]
 299:MCSDK_v6.2.1-Full/MotorControl/MCSDK/MCLib/Any/Src/sto_pll_speed_pos_fdbk.c ****     wAux = pHandle->_Super.hElSpeedDpp * wAux;
 234              		.loc 1 299 26 view .LVU91
 235 00d2 B4F92A90 		ldrsh	r9, [r4, #42]
 236              	.LVL8:
 244:MCSDK_v6.2.1-Full/MotorControl/MCSDK/MCLib/Any/Src/sto_pll_speed_pos_fdbk.c **** 
 237              		.loc 1 244 16 view .LVU92
 238 00d6 09B2     		sxth	r1, r1
 239              	.LVL9:
 248:MCSDK_v6.2.1-Full/MotorControl/MCSDK/MCLib/Any/Src/sto_pll_speed_pos_fdbk.c **** #else
 240              		.loc 1 248 5 is_stmt 1 view .LVU93
 253:MCSDK_v6.2.1-Full/MotorControl/MCSDK/MCLib/Any/Src/sto_pll_speed_pos_fdbk.c **** 
 241              		.loc 1 253 5 view .LVU94
 253:MCSDK_v6.2.1-Full/MotorControl/MCSDK/MCLib/Any/Src/sto_pll_speed_pos_fdbk.c **** 
 242              		.loc 1 253 16 is_stmt 0 view .LVU95
 243 00d8 0FFA8AFA 		sxth	r10, r10
 244              	.LVL10:
 255:MCSDK_v6.2.1-Full/MotorControl/MCSDK/MCLib/Any/Src/sto_pll_speed_pos_fdbk.c **** #ifndef FULL_MISRA_C_COMPLIANCY_STO_PLL
 245              		.loc 1 255 5 is_stmt 1 view .LVU96
 257:MCSDK_v6.2.1-Full/MotorControl/MCSDK/MCLib/Any/Src/sto_pll_speed_pos_fdbk.c **** #else
 246              		.loc 1 257 5 view .LVU97
 262:MCSDK_v6.2.1-Full/MotorControl/MCSDK/MCLib/Any/Src/sto_pll_speed_pos_fdbk.c **** 
 247              		.loc 1 262 5 view .LVU98
 265:MCSDK_v6.2.1-Full/MotorControl/MCSDK/MCLib/Any/Src/sto_pll_speed_pos_fdbk.c **** #else
 248              		.loc 1 265 5 view .LVU99
 282:MCSDK_v6.2.1-Full/MotorControl/MCSDK/MCLib/Any/Src/sto_pll_speed_pos_fdbk.c **** 
 249              		.loc 1 282 21 is_stmt 0 view .LVU100
 250 00dc 08FB0133 		mla	r3, r8, r1, r3
 265:MCSDK_v6.2.1-Full/MotorControl/MCSDK/MCLib/Any/Src/sto_pll_speed_pos_fdbk.c **** #else
 251              		.loc 1 265 33 view .LVU101
 252 00e0 0014     		asrs	r0, r0, #16
 253              	.LVL11:
 273:MCSDK_v6.2.1-Full/MotorControl/MCSDK/MCLib/Any/Src/sto_pll_speed_pos_fdbk.c **** #else
 254              		.loc 1 273 5 is_stmt 1 view .LVU102
 278:MCSDK_v6.2.1-Full/MotorControl/MCSDK/MCLib/Any/Src/sto_pll_speed_pos_fdbk.c ****     wIalfa_est_Next = pHandle->Ialfa_est - wAux;
ARM GAS  C:\Users\ep_ygh\AppData\Local\Temp\cc16k1Ab.s 			page 12


 255              		.loc 1 278 5 view .LVU103
 279:MCSDK_v6.2.1-Full/MotorControl/MCSDK/MCLib/Any/Src/sto_pll_speed_pos_fdbk.c **** 
 256              		.loc 1 279 5 view .LVU104
 281:MCSDK_v6.2.1-Full/MotorControl/MCSDK/MCLib/Any/Src/sto_pll_speed_pos_fdbk.c ****     wIalfa_est_Next += wAux;
 257              		.loc 1 281 5 view .LVU105
 282:MCSDK_v6.2.1-Full/MotorControl/MCSDK/MCLib/Any/Src/sto_pll_speed_pos_fdbk.c **** 
 258              		.loc 1 282 5 view .LVU106
 284:MCSDK_v6.2.1-Full/MotorControl/MCSDK/MCLib/Any/Src/sto_pll_speed_pos_fdbk.c ****     wIalfa_est_Next += wAux;
 259              		.loc 1 284 5 view .LVU107
 285:MCSDK_v6.2.1-Full/MotorControl/MCSDK/MCLib/Any/Src/sto_pll_speed_pos_fdbk.c **** 
 260              		.loc 1 285 5 view .LVU108
 315:MCSDK_v6.2.1-Full/MotorControl/MCSDK/MCLib/Any/Src/sto_pll_speed_pos_fdbk.c **** 
 261              		.loc 1 315 21 is_stmt 0 view .LVU109
 262 00e2 08FB0A28 		mla	r8, r8, r10, r2
 285:MCSDK_v6.2.1-Full/MotorControl/MCSDK/MCLib/Any/Src/sto_pll_speed_pos_fdbk.c **** 
 263              		.loc 1 285 21 view .LVU110
 264 00e6 0BFB0633 		mla	r3, fp, r6, r3
 265              	.LVL12:
 287:MCSDK_v6.2.1-Full/MotorControl/MCSDK/MCLib/Any/Src/sto_pll_speed_pos_fdbk.c ****     wIalfa_est_Next -= wAux;
 266              		.loc 1 287 5 is_stmt 1 view .LVU111
 318:MCSDK_v6.2.1-Full/MotorControl/MCSDK/MCLib/Any/Src/sto_pll_speed_pos_fdbk.c **** 
 267              		.loc 1 318 21 is_stmt 0 view .LVU112
 268 00ea 0BFB0088 		mla	r8, fp, r0, r8
 324:MCSDK_v6.2.1-Full/MotorControl/MCSDK/MCLib/Any/Src/sto_pll_speed_pos_fdbk.c **** 
 269              		.loc 1 324 25 view .LVU113
 270 00ee 019E     		ldr	r6, [sp, #4]
 271              	.LVL13:
 290:MCSDK_v6.2.1-Full/MotorControl/MCSDK/MCLib/Any/Src/sto_pll_speed_pos_fdbk.c ****     wBemf_alfa_est_Next = pHandle->wBemf_alfa_est + wAux;
 272              		.loc 1 290 29 view .LVU114
 273 00f0 B4F92600 		ldrsh	r0, [r4, #38]
 274              	.LVL14:
 294:MCSDK_v6.2.1-Full/MotorControl/MCSDK/MCLib/Any/Src/sto_pll_speed_pos_fdbk.c **** #else
 275              		.loc 1 294 41 view .LVU115
 276 00f4 628E     		ldrh	r2, [r4, #50]
 324:MCSDK_v6.2.1-Full/MotorControl/MCSDK/MCLib/Any/Src/sto_pll_speed_pos_fdbk.c **** 
 277              		.loc 1 324 25 view .LVU116
 278 00f6 00FB0A6A 		mla	r10, r0, r10, r6
 279              	.LVL15:
 287:MCSDK_v6.2.1-Full/MotorControl/MCSDK/MCLib/Any/Src/sto_pll_speed_pos_fdbk.c ****     wIalfa_est_Next -= wAux;
 280              		.loc 1 287 29 view .LVU117
 281 00fa B4F92460 		ldrsh	r6, [r4, #36]
 291:MCSDK_v6.2.1-Full/MotorControl/MCSDK/MCLib/Any/Src/sto_pll_speed_pos_fdbk.c **** 
 282              		.loc 1 291 25 view .LVU118
 283 00fe 01FB0071 		mla	r1, r1, r0, r7
 284              	.LVL16:
 288:MCSDK_v6.2.1-Full/MotorControl/MCSDK/MCLib/Any/Src/sto_pll_speed_pos_fdbk.c **** 
 285              		.loc 1 288 5 is_stmt 1 view .LVU119
 288:MCSDK_v6.2.1-Full/MotorControl/MCSDK/MCLib/Any/Src/sto_pll_speed_pos_fdbk.c **** 
 286              		.loc 1 288 21 is_stmt 0 view .LVU120
 287 0102 06FB1E37 		mls	r7, r6, lr, r3
 288              	.LVL17:
 290:MCSDK_v6.2.1-Full/MotorControl/MCSDK/MCLib/Any/Src/sto_pll_speed_pos_fdbk.c ****     wBemf_alfa_est_Next = pHandle->wBemf_alfa_est + wAux;
 289              		.loc 1 290 5 is_stmt 1 view .LVU121
 291:MCSDK_v6.2.1-Full/MotorControl/MCSDK/MCLib/Any/Src/sto_pll_speed_pos_fdbk.c **** 
 290              		.loc 1 291 5 view .LVU122
 294:MCSDK_v6.2.1-Full/MotorControl/MCSDK/MCLib/Any/Src/sto_pll_speed_pos_fdbk.c **** #else
 291              		.loc 1 294 5 view .LVU123
ARM GAS  C:\Users\ep_ygh\AppData\Local\Temp\cc16k1Ab.s 			page 13


 339:MCSDK_v6.2.1-Full/MotorControl/MCSDK/MCLib/Any/Src/sto_pll_speed_pos_fdbk.c **** 
 340:MCSDK_v6.2.1-Full/MotorControl/MCSDK/MCLib/Any/Src/sto_pll_speed_pos_fdbk.c ****     if (0 == pHandle->hForcedDirection)
 292              		.loc 1 340 21 is_stmt 0 view .LVU124
 293 0106 94F92401 		ldrsb	r0, [r4, #292]
 300:MCSDK_v6.2.1-Full/MotorControl/MCSDK/MCLib/Any/Src/sto_pll_speed_pos_fdbk.c ****     wBemf_alfa_est_Next += wAux;
 294              		.loc 1 300 27 view .LVU125
 295 010a B4F90E30 		ldrsh	r3, [r4, #14]
 321:MCSDK_v6.2.1-Full/MotorControl/MCSDK/MCLib/Any/Src/sto_pll_speed_pos_fdbk.c **** 
 296              		.loc 1 321 21 view .LVU126
 297 010e 06FB1C86 		mls	r6, r6, ip, r8
 294:MCSDK_v6.2.1-Full/MotorControl/MCSDK/MCLib/Any/Src/sto_pll_speed_pos_fdbk.c **** #else
 298              		.loc 1 294 10 view .LVU127
 299 0112 4CFA02FC 		asr	ip, ip, r2
 300              	.LVL18:
 299:MCSDK_v6.2.1-Full/MotorControl/MCSDK/MCLib/Any/Src/sto_pll_speed_pos_fdbk.c ****     wAux = pHandle->_Super.hElSpeedDpp * wAux;
 301              		.loc 1 299 5 is_stmt 1 view .LVU128
 327:MCSDK_v6.2.1-Full/MotorControl/MCSDK/MCLib/Any/Src/sto_pll_speed_pos_fdbk.c **** #else
 302              		.loc 1 327 10 is_stmt 0 view .LVU129
 303 0116 4EFA02F2 		asr	r2, lr, r2
 299:MCSDK_v6.2.1-Full/MotorControl/MCSDK/MCLib/Any/Src/sto_pll_speed_pos_fdbk.c ****     wAux = pHandle->_Super.hElSpeedDpp * wAux;
 304              		.loc 1 299 10 view .LVU130
 305 011a 0CFB09FC 		mul	ip, ip, r9
 306              	.LVL19:
 300:MCSDK_v6.2.1-Full/MotorControl/MCSDK/MCLib/Any/Src/sto_pll_speed_pos_fdbk.c ****     wBemf_alfa_est_Next += wAux;
 307              		.loc 1 300 5 is_stmt 1 view .LVU131
 301:MCSDK_v6.2.1-Full/MotorControl/MCSDK/MCLib/Any/Src/sto_pll_speed_pos_fdbk.c **** 
 308              		.loc 1 301 5 view .LVU132
 332:MCSDK_v6.2.1-Full/MotorControl/MCSDK/MCLib/Any/Src/sto_pll_speed_pos_fdbk.c ****     wAux = pHandle->_Super.hElSpeedDpp * wAux;
 309              		.loc 1 332 10 is_stmt 0 view .LVU133
 310 011e 02FB09F2 		mul	r2, r2, r9
 301:MCSDK_v6.2.1-Full/MotorControl/MCSDK/MCLib/Any/Src/sto_pll_speed_pos_fdbk.c **** 
 311              		.loc 1 301 25 view .LVU134
 312 0122 0CFB0318 		mla	r8, ip, r3, r1
 313              	.LVL20:
 306:MCSDK_v6.2.1-Full/MotorControl/MCSDK/MCLib/Any/Src/sto_pll_speed_pos_fdbk.c **** #else
 314              		.loc 1 306 5 is_stmt 1 view .LVU135
 311:MCSDK_v6.2.1-Full/MotorControl/MCSDK/MCLib/Any/Src/sto_pll_speed_pos_fdbk.c ****     wIbeta_est_Next = pHandle->Ibeta_est - wAux;
 315              		.loc 1 311 5 view .LVU136
 312:MCSDK_v6.2.1-Full/MotorControl/MCSDK/MCLib/Any/Src/sto_pll_speed_pos_fdbk.c **** 
 316              		.loc 1 312 5 view .LVU137
 314:MCSDK_v6.2.1-Full/MotorControl/MCSDK/MCLib/Any/Src/sto_pll_speed_pos_fdbk.c ****     wIbeta_est_Next += wAux;
 317              		.loc 1 314 5 view .LVU138
 315:MCSDK_v6.2.1-Full/MotorControl/MCSDK/MCLib/Any/Src/sto_pll_speed_pos_fdbk.c **** 
 318              		.loc 1 315 5 view .LVU139
 317:MCSDK_v6.2.1-Full/MotorControl/MCSDK/MCLib/Any/Src/sto_pll_speed_pos_fdbk.c ****     wIbeta_est_Next += wAux;
 319              		.loc 1 317 5 view .LVU140
 318:MCSDK_v6.2.1-Full/MotorControl/MCSDK/MCLib/Any/Src/sto_pll_speed_pos_fdbk.c **** 
 320              		.loc 1 318 5 view .LVU141
 320:MCSDK_v6.2.1-Full/MotorControl/MCSDK/MCLib/Any/Src/sto_pll_speed_pos_fdbk.c ****     wIbeta_est_Next -= wAux;
 321              		.loc 1 320 5 view .LVU142
 321:MCSDK_v6.2.1-Full/MotorControl/MCSDK/MCLib/Any/Src/sto_pll_speed_pos_fdbk.c **** 
 322              		.loc 1 321 5 view .LVU143
 323:MCSDK_v6.2.1-Full/MotorControl/MCSDK/MCLib/Any/Src/sto_pll_speed_pos_fdbk.c ****     wBemf_beta_est_Next = pHandle->wBemf_beta_est + wAux;
 323              		.loc 1 323 5 view .LVU144
 324:MCSDK_v6.2.1-Full/MotorControl/MCSDK/MCLib/Any/Src/sto_pll_speed_pos_fdbk.c **** 
 324              		.loc 1 324 5 view .LVU145
 327:MCSDK_v6.2.1-Full/MotorControl/MCSDK/MCLib/Any/Src/sto_pll_speed_pos_fdbk.c **** #else
ARM GAS  C:\Users\ep_ygh\AppData\Local\Temp\cc16k1Ab.s 			page 14


 325              		.loc 1 327 5 view .LVU146
 332:MCSDK_v6.2.1-Full/MotorControl/MCSDK/MCLib/Any/Src/sto_pll_speed_pos_fdbk.c ****     wAux = pHandle->_Super.hElSpeedDpp * wAux;
 326              		.loc 1 332 5 view .LVU147
 333:MCSDK_v6.2.1-Full/MotorControl/MCSDK/MCLib/Any/Src/sto_pll_speed_pos_fdbk.c ****     wBemf_beta_est_Next -= wAux;
 327              		.loc 1 333 5 view .LVU148
 334:MCSDK_v6.2.1-Full/MotorControl/MCSDK/MCLib/Any/Src/sto_pll_speed_pos_fdbk.c **** 
 328              		.loc 1 334 5 view .LVU149
 334:MCSDK_v6.2.1-Full/MotorControl/MCSDK/MCLib/Any/Src/sto_pll_speed_pos_fdbk.c **** 
 329              		.loc 1 334 25 is_stmt 0 view .LVU150
 330 0126 02FB13AA 		mls	r10, r2, r3, r10
 331              	.LVL21:
 337:MCSDK_v6.2.1-Full/MotorControl/MCSDK/MCLib/Any/Src/sto_pll_speed_pos_fdbk.c ****     pHandle->hBemf_beta_est = hAux_Beta;
 332              		.loc 1 337 5 is_stmt 1 view .LVU151
 338:MCSDK_v6.2.1-Full/MotorControl/MCSDK/MCLib/Any/Src/sto_pll_speed_pos_fdbk.c **** 
 333              		.loc 1 338 5 view .LVU152
 334              		.loc 1 340 5 view .LVU153
 335              		.loc 1 340 8 is_stmt 0 view .LVU154
 336 012a 0028     		cmp	r0, #0
 337 012c 42D1     		bne	.L13
 341:MCSDK_v6.2.1-Full/MotorControl/MCSDK/MCLib/Any/Src/sto_pll_speed_pos_fdbk.c ****     {
 342:MCSDK_v6.2.1-Full/MotorControl/MCSDK/MCLib/Any/Src/sto_pll_speed_pos_fdbk.c ****       /* We are in auxiliary mode, then rely on the speed detected */
 343:MCSDK_v6.2.1-Full/MotorControl/MCSDK/MCLib/Any/Src/sto_pll_speed_pos_fdbk.c ****       if(pHandle->_Super.hElSpeedDpp >= 0)
 338              		.loc 1 343 7 is_stmt 1 view .LVU155
 339              		.loc 1 343 9 is_stmt 0 view .LVU156
 340 012e 002B     		cmp	r3, #0
 341 0130 4FF6FF79 		movw	r9, #65535
 342 0134 A8BF     		it	ge
 343 0136 4FF00109 		movge	r9, #1
 344              	.L14:
 344:MCSDK_v6.2.1-Full/MotorControl/MCSDK/MCLib/Any/Src/sto_pll_speed_pos_fdbk.c ****       {
 345:MCSDK_v6.2.1-Full/MotorControl/MCSDK/MCLib/Any/Src/sto_pll_speed_pos_fdbk.c ****         wDirection = 1;
 346:MCSDK_v6.2.1-Full/MotorControl/MCSDK/MCLib/Any/Src/sto_pll_speed_pos_fdbk.c ****       }
 347:MCSDK_v6.2.1-Full/MotorControl/MCSDK/MCLib/Any/Src/sto_pll_speed_pos_fdbk.c ****       else
 348:MCSDK_v6.2.1-Full/MotorControl/MCSDK/MCLib/Any/Src/sto_pll_speed_pos_fdbk.c ****       {
 349:MCSDK_v6.2.1-Full/MotorControl/MCSDK/MCLib/Any/Src/sto_pll_speed_pos_fdbk.c ****         wDirection = -1;
 350:MCSDK_v6.2.1-Full/MotorControl/MCSDK/MCLib/Any/Src/sto_pll_speed_pos_fdbk.c ****       }
 351:MCSDK_v6.2.1-Full/MotorControl/MCSDK/MCLib/Any/Src/sto_pll_speed_pos_fdbk.c ****     }
 352:MCSDK_v6.2.1-Full/MotorControl/MCSDK/MCLib/Any/Src/sto_pll_speed_pos_fdbk.c ****     else
 353:MCSDK_v6.2.1-Full/MotorControl/MCSDK/MCLib/Any/Src/sto_pll_speed_pos_fdbk.c ****     {
 354:MCSDK_v6.2.1-Full/MotorControl/MCSDK/MCLib/Any/Src/sto_pll_speed_pos_fdbk.c ****       /* We are in main sensor mode, use a forced direction */
 355:MCSDK_v6.2.1-Full/MotorControl/MCSDK/MCLib/Any/Src/sto_pll_speed_pos_fdbk.c ****       wDirection = pHandle->hForcedDirection;
 356:MCSDK_v6.2.1-Full/MotorControl/MCSDK/MCLib/Any/Src/sto_pll_speed_pos_fdbk.c ****     }
 357:MCSDK_v6.2.1-Full/MotorControl/MCSDK/MCLib/Any/Src/sto_pll_speed_pos_fdbk.c **** 
 358:MCSDK_v6.2.1-Full/MotorControl/MCSDK/MCLib/Any/Src/sto_pll_speed_pos_fdbk.c ****     hAux_Alfa = (int16_t)(hAux_Alfa * wDirection);
 345              		.loc 1 358 5 is_stmt 1 view .LVU157
 346              	.LVL22:
 359:MCSDK_v6.2.1-Full/MotorControl/MCSDK/MCLib/Any/Src/sto_pll_speed_pos_fdbk.c ****     hAux_Beta = (int16_t)(hAux_Beta * wDirection);
 347              		.loc 1 359 5 view .LVU158
 360:MCSDK_v6.2.1-Full/MotorControl/MCSDK/MCLib/Any/Src/sto_pll_speed_pos_fdbk.c **** 
 361:MCSDK_v6.2.1-Full/MotorControl/MCSDK/MCLib/Any/Src/sto_pll_speed_pos_fdbk.c ****     hRotor_Speed = STO_ExecutePLL(pHandle, hAux_Alfa, -hAux_Beta);
 348              		.loc 1 361 5 view .LVU159
 349              	.LBB13:
 350              	.LBI13:
 362:MCSDK_v6.2.1-Full/MotorControl/MCSDK/MCLib/Any/Src/sto_pll_speed_pos_fdbk.c ****     pHandle->_Super.InstantaneousElSpeedDpp = hRotor_Speed;
 363:MCSDK_v6.2.1-Full/MotorControl/MCSDK/MCLib/Any/Src/sto_pll_speed_pos_fdbk.c **** 
 364:MCSDK_v6.2.1-Full/MotorControl/MCSDK/MCLib/Any/Src/sto_pll_speed_pos_fdbk.c ****     STO_Store_Rotor_Speed(pHandle, hRotor_Speed);
 365:MCSDK_v6.2.1-Full/MotorControl/MCSDK/MCLib/Any/Src/sto_pll_speed_pos_fdbk.c **** 
ARM GAS  C:\Users\ep_ygh\AppData\Local\Temp\cc16k1Ab.s 			page 15


 366:MCSDK_v6.2.1-Full/MotorControl/MCSDK/MCLib/Any/Src/sto_pll_speed_pos_fdbk.c ****     pHandle->_Super.hElAngle += hRotor_Speed;
 367:MCSDK_v6.2.1-Full/MotorControl/MCSDK/MCLib/Any/Src/sto_pll_speed_pos_fdbk.c **** 
 368:MCSDK_v6.2.1-Full/MotorControl/MCSDK/MCLib/Any/Src/sto_pll_speed_pos_fdbk.c ****     /* Storing previous values of currents and bemfs */
 369:MCSDK_v6.2.1-Full/MotorControl/MCSDK/MCLib/Any/Src/sto_pll_speed_pos_fdbk.c ****     pHandle->Ialfa_est = wIalfa_est_Next;
 370:MCSDK_v6.2.1-Full/MotorControl/MCSDK/MCLib/Any/Src/sto_pll_speed_pos_fdbk.c ****     pHandle->wBemf_alfa_est = wBemf_alfa_est_Next;
 371:MCSDK_v6.2.1-Full/MotorControl/MCSDK/MCLib/Any/Src/sto_pll_speed_pos_fdbk.c **** 
 372:MCSDK_v6.2.1-Full/MotorControl/MCSDK/MCLib/Any/Src/sto_pll_speed_pos_fdbk.c ****     pHandle->Ibeta_est = wIbeta_est_Next;
 373:MCSDK_v6.2.1-Full/MotorControl/MCSDK/MCLib/Any/Src/sto_pll_speed_pos_fdbk.c ****     pHandle->wBemf_beta_est = wBemf_beta_est_Next;
 374:MCSDK_v6.2.1-Full/MotorControl/MCSDK/MCLib/Any/Src/sto_pll_speed_pos_fdbk.c ****     retValue = pHandle->_Super.hElAngle;
 375:MCSDK_v6.2.1-Full/MotorControl/MCSDK/MCLib/Any/Src/sto_pll_speed_pos_fdbk.c ****   }
 376:MCSDK_v6.2.1-Full/MotorControl/MCSDK/MCLib/Any/Src/sto_pll_speed_pos_fdbk.c ****   return (retValue);
 377:MCSDK_v6.2.1-Full/MotorControl/MCSDK/MCLib/Any/Src/sto_pll_speed_pos_fdbk.c **** }
 378:MCSDK_v6.2.1-Full/MotorControl/MCSDK/MCLib/Any/Src/sto_pll_speed_pos_fdbk.c **** 
 379:MCSDK_v6.2.1-Full/MotorControl/MCSDK/MCLib/Any/Src/sto_pll_speed_pos_fdbk.c **** /**
 380:MCSDK_v6.2.1-Full/MotorControl/MCSDK/MCLib/Any/Src/sto_pll_speed_pos_fdbk.c ****   * @brief  Computes and returns the average mechanical speed.
 381:MCSDK_v6.2.1-Full/MotorControl/MCSDK/MCLib/Any/Src/sto_pll_speed_pos_fdbk.c ****   * 
 382:MCSDK_v6.2.1-Full/MotorControl/MCSDK/MCLib/Any/Src/sto_pll_speed_pos_fdbk.c ****   * This method must be called - at least - with the same periodicity
 383:MCSDK_v6.2.1-Full/MotorControl/MCSDK/MCLib/Any/Src/sto_pll_speed_pos_fdbk.c ****   * on which speed control is executed. It computes and returns - through
 384:MCSDK_v6.2.1-Full/MotorControl/MCSDK/MCLib/Any/Src/sto_pll_speed_pos_fdbk.c ****   * parameter hMecSpeedUnit - the rotor average mechanical speed,
 385:MCSDK_v6.2.1-Full/MotorControl/MCSDK/MCLib/Any/Src/sto_pll_speed_pos_fdbk.c ****   * expressed in #SPEED_UNIT. Average is computed considering a FIFO depth
 386:MCSDK_v6.2.1-Full/MotorControl/MCSDK/MCLib/Any/Src/sto_pll_speed_pos_fdbk.c ****   * equal to bSpeedBufferSizeUnit. Moreover it also computes and returns
 387:MCSDK_v6.2.1-Full/MotorControl/MCSDK/MCLib/Any/Src/sto_pll_speed_pos_fdbk.c ****   * the reliability state of the sensor.
 388:MCSDK_v6.2.1-Full/MotorControl/MCSDK/MCLib/Any/Src/sto_pll_speed_pos_fdbk.c ****   * 
 389:MCSDK_v6.2.1-Full/MotorControl/MCSDK/MCLib/Any/Src/sto_pll_speed_pos_fdbk.c ****   * @param  pHandle: Handler of the current instance of the STO component.
 390:MCSDK_v6.2.1-Full/MotorControl/MCSDK/MCLib/Any/Src/sto_pll_speed_pos_fdbk.c ****   * @param  pMecSpeedUnit: Pointer to int16_t, used to return the rotor average
 391:MCSDK_v6.2.1-Full/MotorControl/MCSDK/MCLib/Any/Src/sto_pll_speed_pos_fdbk.c ****   *         mechanical speed (expressed in #SPEED_UNIT).
 392:MCSDK_v6.2.1-Full/MotorControl/MCSDK/MCLib/Any/Src/sto_pll_speed_pos_fdbk.c ****   * @retval True if the sensor information is reliable, false otherwise.
 393:MCSDK_v6.2.1-Full/MotorControl/MCSDK/MCLib/Any/Src/sto_pll_speed_pos_fdbk.c ****   */
 394:MCSDK_v6.2.1-Full/MotorControl/MCSDK/MCLib/Any/Src/sto_pll_speed_pos_fdbk.c **** 
 395:MCSDK_v6.2.1-Full/MotorControl/MCSDK/MCLib/Any/Src/sto_pll_speed_pos_fdbk.c **** __weak bool STO_PLL_CalcAvrgMecSpeedUnit(STO_PLL_Handle_t *pHandle, int16_t *pMecSpeedUnit)
 396:MCSDK_v6.2.1-Full/MotorControl/MCSDK/MCLib/Any/Src/sto_pll_speed_pos_fdbk.c **** {
 397:MCSDK_v6.2.1-Full/MotorControl/MCSDK/MCLib/Any/Src/sto_pll_speed_pos_fdbk.c ****   bool bAux;
 398:MCSDK_v6.2.1-Full/MotorControl/MCSDK/MCLib/Any/Src/sto_pll_speed_pos_fdbk.c **** #ifdef NULL_PTR_CHECK_STO_PLL_SPD_POS_FDB
 399:MCSDK_v6.2.1-Full/MotorControl/MCSDK/MCLib/Any/Src/sto_pll_speed_pos_fdbk.c ****   if ((MC_NULL == pHandle) || (MC_NULL == pMecSpeedUnit))
 400:MCSDK_v6.2.1-Full/MotorControl/MCSDK/MCLib/Any/Src/sto_pll_speed_pos_fdbk.c ****   {
 401:MCSDK_v6.2.1-Full/MotorControl/MCSDK/MCLib/Any/Src/sto_pll_speed_pos_fdbk.c ****     bAux = false;
 402:MCSDK_v6.2.1-Full/MotorControl/MCSDK/MCLib/Any/Src/sto_pll_speed_pos_fdbk.c ****   }
 403:MCSDK_v6.2.1-Full/MotorControl/MCSDK/MCLib/Any/Src/sto_pll_speed_pos_fdbk.c ****   else
 404:MCSDK_v6.2.1-Full/MotorControl/MCSDK/MCLib/Any/Src/sto_pll_speed_pos_fdbk.c ****   {
 405:MCSDK_v6.2.1-Full/MotorControl/MCSDK/MCLib/Any/Src/sto_pll_speed_pos_fdbk.c **** #endif
 406:MCSDK_v6.2.1-Full/MotorControl/MCSDK/MCLib/Any/Src/sto_pll_speed_pos_fdbk.c ****     int32_t wAvrSpeed_dpp = (int32_t)0;
 407:MCSDK_v6.2.1-Full/MotorControl/MCSDK/MCLib/Any/Src/sto_pll_speed_pos_fdbk.c ****     int32_t wError;
 408:MCSDK_v6.2.1-Full/MotorControl/MCSDK/MCLib/Any/Src/sto_pll_speed_pos_fdbk.c ****     int32_t wAux;
 409:MCSDK_v6.2.1-Full/MotorControl/MCSDK/MCLib/Any/Src/sto_pll_speed_pos_fdbk.c ****     int32_t wAvrSquareSpeed;
 410:MCSDK_v6.2.1-Full/MotorControl/MCSDK/MCLib/Any/Src/sto_pll_speed_pos_fdbk.c ****     int32_t wAvrQuadraticError = 0;
 411:MCSDK_v6.2.1-Full/MotorControl/MCSDK/MCLib/Any/Src/sto_pll_speed_pos_fdbk.c ****     int32_t wObsBemf, wEstBemf;
 412:MCSDK_v6.2.1-Full/MotorControl/MCSDK/MCLib/Any/Src/sto_pll_speed_pos_fdbk.c ****     int32_t wObsBemfSq = 0;
 413:MCSDK_v6.2.1-Full/MotorControl/MCSDK/MCLib/Any/Src/sto_pll_speed_pos_fdbk.c ****     int32_t wEstBemfSq = 0;
 414:MCSDK_v6.2.1-Full/MotorControl/MCSDK/MCLib/Any/Src/sto_pll_speed_pos_fdbk.c ****     int32_t wEstBemfSqLo;
 415:MCSDK_v6.2.1-Full/MotorControl/MCSDK/MCLib/Any/Src/sto_pll_speed_pos_fdbk.c ****     bool bIs_Speed_Reliable = false;
 416:MCSDK_v6.2.1-Full/MotorControl/MCSDK/MCLib/Any/Src/sto_pll_speed_pos_fdbk.c ****     bool bIs_Bemf_Consistent = false;
 417:MCSDK_v6.2.1-Full/MotorControl/MCSDK/MCLib/Any/Src/sto_pll_speed_pos_fdbk.c ****     uint8_t i, bSpeedBufferSizeUnit = pHandle->SpeedBufferSizeUnit;
 418:MCSDK_v6.2.1-Full/MotorControl/MCSDK/MCLib/Any/Src/sto_pll_speed_pos_fdbk.c **** 
 419:MCSDK_v6.2.1-Full/MotorControl/MCSDK/MCLib/Any/Src/sto_pll_speed_pos_fdbk.c ****     for (i = 0U; i < bSpeedBufferSizeUnit; i++)
 420:MCSDK_v6.2.1-Full/MotorControl/MCSDK/MCLib/Any/Src/sto_pll_speed_pos_fdbk.c ****     {
 421:MCSDK_v6.2.1-Full/MotorControl/MCSDK/MCLib/Any/Src/sto_pll_speed_pos_fdbk.c ****       wAvrSpeed_dpp += (int32_t)(pHandle->Speed_Buffer[i]);
 422:MCSDK_v6.2.1-Full/MotorControl/MCSDK/MCLib/Any/Src/sto_pll_speed_pos_fdbk.c ****     }
ARM GAS  C:\Users\ep_ygh\AppData\Local\Temp\cc16k1Ab.s 			page 16


 423:MCSDK_v6.2.1-Full/MotorControl/MCSDK/MCLib/Any/Src/sto_pll_speed_pos_fdbk.c **** 
 424:MCSDK_v6.2.1-Full/MotorControl/MCSDK/MCLib/Any/Src/sto_pll_speed_pos_fdbk.c ****     if (0U == bSpeedBufferSizeUnit)
 425:MCSDK_v6.2.1-Full/MotorControl/MCSDK/MCLib/Any/Src/sto_pll_speed_pos_fdbk.c ****     {
 426:MCSDK_v6.2.1-Full/MotorControl/MCSDK/MCLib/Any/Src/sto_pll_speed_pos_fdbk.c ****       /* Nothing to do */
 427:MCSDK_v6.2.1-Full/MotorControl/MCSDK/MCLib/Any/Src/sto_pll_speed_pos_fdbk.c ****     }
 428:MCSDK_v6.2.1-Full/MotorControl/MCSDK/MCLib/Any/Src/sto_pll_speed_pos_fdbk.c ****     else
 429:MCSDK_v6.2.1-Full/MotorControl/MCSDK/MCLib/Any/Src/sto_pll_speed_pos_fdbk.c ****     {
 430:MCSDK_v6.2.1-Full/MotorControl/MCSDK/MCLib/Any/Src/sto_pll_speed_pos_fdbk.c ****       wAvrSpeed_dpp = wAvrSpeed_dpp / ((int16_t)bSpeedBufferSizeUnit);
 431:MCSDK_v6.2.1-Full/MotorControl/MCSDK/MCLib/Any/Src/sto_pll_speed_pos_fdbk.c ****     }
 432:MCSDK_v6.2.1-Full/MotorControl/MCSDK/MCLib/Any/Src/sto_pll_speed_pos_fdbk.c **** 
 433:MCSDK_v6.2.1-Full/MotorControl/MCSDK/MCLib/Any/Src/sto_pll_speed_pos_fdbk.c ****     for (i = 0U; i < bSpeedBufferSizeUnit; i++)
 434:MCSDK_v6.2.1-Full/MotorControl/MCSDK/MCLib/Any/Src/sto_pll_speed_pos_fdbk.c ****     {
 435:MCSDK_v6.2.1-Full/MotorControl/MCSDK/MCLib/Any/Src/sto_pll_speed_pos_fdbk.c ****       wError = ((int32_t)pHandle->Speed_Buffer[i]) - wAvrSpeed_dpp;
 436:MCSDK_v6.2.1-Full/MotorControl/MCSDK/MCLib/Any/Src/sto_pll_speed_pos_fdbk.c ****       wError = (wError * wError);
 437:MCSDK_v6.2.1-Full/MotorControl/MCSDK/MCLib/Any/Src/sto_pll_speed_pos_fdbk.c ****       wAvrQuadraticError += wError;
 438:MCSDK_v6.2.1-Full/MotorControl/MCSDK/MCLib/Any/Src/sto_pll_speed_pos_fdbk.c ****     }
 439:MCSDK_v6.2.1-Full/MotorControl/MCSDK/MCLib/Any/Src/sto_pll_speed_pos_fdbk.c **** 
 440:MCSDK_v6.2.1-Full/MotorControl/MCSDK/MCLib/Any/Src/sto_pll_speed_pos_fdbk.c ****     /* It computes the measurement variance */
 441:MCSDK_v6.2.1-Full/MotorControl/MCSDK/MCLib/Any/Src/sto_pll_speed_pos_fdbk.c ****     wAvrQuadraticError = wAvrQuadraticError / ((int16_t)bSpeedBufferSizeUnit);
 442:MCSDK_v6.2.1-Full/MotorControl/MCSDK/MCLib/Any/Src/sto_pll_speed_pos_fdbk.c **** 
 443:MCSDK_v6.2.1-Full/MotorControl/MCSDK/MCLib/Any/Src/sto_pll_speed_pos_fdbk.c ****     /* The maximum variance acceptable is here calculated as a function of average speed */
 444:MCSDK_v6.2.1-Full/MotorControl/MCSDK/MCLib/Any/Src/sto_pll_speed_pos_fdbk.c ****     wAvrSquareSpeed = wAvrSpeed_dpp * wAvrSpeed_dpp;
 445:MCSDK_v6.2.1-Full/MotorControl/MCSDK/MCLib/Any/Src/sto_pll_speed_pos_fdbk.c ****     int64_t lAvrSquareSpeed = (int64_t)(wAvrSquareSpeed) * (int64_t)pHandle->VariancePercentage;
 446:MCSDK_v6.2.1-Full/MotorControl/MCSDK/MCLib/Any/Src/sto_pll_speed_pos_fdbk.c ****     wAvrSquareSpeed = (int32_t)(lAvrSquareSpeed / (int64_t)128);
 447:MCSDK_v6.2.1-Full/MotorControl/MCSDK/MCLib/Any/Src/sto_pll_speed_pos_fdbk.c ****     
 448:MCSDK_v6.2.1-Full/MotorControl/MCSDK/MCLib/Any/Src/sto_pll_speed_pos_fdbk.c ****     if (wAvrQuadraticError < wAvrSquareSpeed)
 449:MCSDK_v6.2.1-Full/MotorControl/MCSDK/MCLib/Any/Src/sto_pll_speed_pos_fdbk.c ****     {
 450:MCSDK_v6.2.1-Full/MotorControl/MCSDK/MCLib/Any/Src/sto_pll_speed_pos_fdbk.c ****       bIs_Speed_Reliable = true;
 451:MCSDK_v6.2.1-Full/MotorControl/MCSDK/MCLib/Any/Src/sto_pll_speed_pos_fdbk.c ****     }
 452:MCSDK_v6.2.1-Full/MotorControl/MCSDK/MCLib/Any/Src/sto_pll_speed_pos_fdbk.c **** 
 453:MCSDK_v6.2.1-Full/MotorControl/MCSDK/MCLib/Any/Src/sto_pll_speed_pos_fdbk.c ****     /* Computation of Mechanical speed Unit */
 454:MCSDK_v6.2.1-Full/MotorControl/MCSDK/MCLib/Any/Src/sto_pll_speed_pos_fdbk.c ****     wAux = wAvrSpeed_dpp * ((int32_t)pHandle->_Super.hMeasurementFrequency);
 455:MCSDK_v6.2.1-Full/MotorControl/MCSDK/MCLib/Any/Src/sto_pll_speed_pos_fdbk.c ****     wAux = wAux * ((int32_t)pHandle->_Super.SpeedUnit);
 456:MCSDK_v6.2.1-Full/MotorControl/MCSDK/MCLib/Any/Src/sto_pll_speed_pos_fdbk.c ****     wAux = wAux / ((int32_t)pHandle->_Super.DPPConvFactor);
 457:MCSDK_v6.2.1-Full/MotorControl/MCSDK/MCLib/Any/Src/sto_pll_speed_pos_fdbk.c ****     wAux = wAux / ((int16_t)pHandle->_Super.bElToMecRatio);
 458:MCSDK_v6.2.1-Full/MotorControl/MCSDK/MCLib/Any/Src/sto_pll_speed_pos_fdbk.c **** 
 459:MCSDK_v6.2.1-Full/MotorControl/MCSDK/MCLib/Any/Src/sto_pll_speed_pos_fdbk.c ****     *pMecSpeedUnit = (int16_t)wAux;
 460:MCSDK_v6.2.1-Full/MotorControl/MCSDK/MCLib/Any/Src/sto_pll_speed_pos_fdbk.c ****     pHandle->_Super.hAvrMecSpeedUnit = (int16_t)wAux;
 461:MCSDK_v6.2.1-Full/MotorControl/MCSDK/MCLib/Any/Src/sto_pll_speed_pos_fdbk.c **** 
 462:MCSDK_v6.2.1-Full/MotorControl/MCSDK/MCLib/Any/Src/sto_pll_speed_pos_fdbk.c ****     pHandle->IsSpeedReliable = bIs_Speed_Reliable;
 463:MCSDK_v6.2.1-Full/MotorControl/MCSDK/MCLib/Any/Src/sto_pll_speed_pos_fdbk.c **** 
 464:MCSDK_v6.2.1-Full/MotorControl/MCSDK/MCLib/Any/Src/sto_pll_speed_pos_fdbk.c ****     /* Bemf Consistency Check algorithm */
 465:MCSDK_v6.2.1-Full/MotorControl/MCSDK/MCLib/Any/Src/sto_pll_speed_pos_fdbk.c ****     if (true == pHandle->EnableDualCheck) /* Do algorithm if it's enabled */
 466:MCSDK_v6.2.1-Full/MotorControl/MCSDK/MCLib/Any/Src/sto_pll_speed_pos_fdbk.c ****     {
 467:MCSDK_v6.2.1-Full/MotorControl/MCSDK/MCLib/Any/Src/sto_pll_speed_pos_fdbk.c ****       /* wAux abs value */
 468:MCSDK_v6.2.1-Full/MotorControl/MCSDK/MCLib/Any/Src/sto_pll_speed_pos_fdbk.c ****       //cstat !MISRAC2012-Rule-14.3_b !RED-func-no-effect !RED-cmp-never !RED-cond-never
 469:MCSDK_v6.2.1-Full/MotorControl/MCSDK/MCLib/Any/Src/sto_pll_speed_pos_fdbk.c ****       wAux = ((wAux < 0) ? (-wAux) : (wAux));
 470:MCSDK_v6.2.1-Full/MotorControl/MCSDK/MCLib/Any/Src/sto_pll_speed_pos_fdbk.c ****       if (wAux < (int32_t)(pHandle->MaxAppPositiveMecSpeedUnit))
 471:MCSDK_v6.2.1-Full/MotorControl/MCSDK/MCLib/Any/Src/sto_pll_speed_pos_fdbk.c ****       {
 472:MCSDK_v6.2.1-Full/MotorControl/MCSDK/MCLib/Any/Src/sto_pll_speed_pos_fdbk.c ****         /* Computation of Observed back-emf */
 473:MCSDK_v6.2.1-Full/MotorControl/MCSDK/MCLib/Any/Src/sto_pll_speed_pos_fdbk.c ****         wObsBemf = (int32_t)pHandle->hBemf_alfa_est;
 474:MCSDK_v6.2.1-Full/MotorControl/MCSDK/MCLib/Any/Src/sto_pll_speed_pos_fdbk.c ****         wObsBemfSq = wObsBemf * wObsBemf;
 475:MCSDK_v6.2.1-Full/MotorControl/MCSDK/MCLib/Any/Src/sto_pll_speed_pos_fdbk.c ****         wObsBemf = (int32_t)pHandle->hBemf_beta_est;
 476:MCSDK_v6.2.1-Full/MotorControl/MCSDK/MCLib/Any/Src/sto_pll_speed_pos_fdbk.c ****         wObsBemfSq += wObsBemf * wObsBemf;
 477:MCSDK_v6.2.1-Full/MotorControl/MCSDK/MCLib/Any/Src/sto_pll_speed_pos_fdbk.c **** 
 478:MCSDK_v6.2.1-Full/MotorControl/MCSDK/MCLib/Any/Src/sto_pll_speed_pos_fdbk.c ****         /* Computation of Estimated back-emf */
 479:MCSDK_v6.2.1-Full/MotorControl/MCSDK/MCLib/Any/Src/sto_pll_speed_pos_fdbk.c ****         wEstBemf = (wAux * 32767) / ((int16_t)pHandle->_Super.hMaxReliableMecSpeedUnit);
ARM GAS  C:\Users\ep_ygh\AppData\Local\Temp\cc16k1Ab.s 			page 17


 480:MCSDK_v6.2.1-Full/MotorControl/MCSDK/MCLib/Any/Src/sto_pll_speed_pos_fdbk.c ****         wEstBemfSq = (wEstBemf * ((int32_t)pHandle->BemfConsistencyGain)) / 64;
 481:MCSDK_v6.2.1-Full/MotorControl/MCSDK/MCLib/Any/Src/sto_pll_speed_pos_fdbk.c ****         wEstBemfSq *= wEstBemf;
 482:MCSDK_v6.2.1-Full/MotorControl/MCSDK/MCLib/Any/Src/sto_pll_speed_pos_fdbk.c **** 
 483:MCSDK_v6.2.1-Full/MotorControl/MCSDK/MCLib/Any/Src/sto_pll_speed_pos_fdbk.c ****         /* Computation of threshold */
 484:MCSDK_v6.2.1-Full/MotorControl/MCSDK/MCLib/Any/Src/sto_pll_speed_pos_fdbk.c ****         wEstBemfSqLo = wEstBemfSq - ((wEstBemfSq / 64) * ((int32_t)pHandle->BemfConsistencyCheck));
 485:MCSDK_v6.2.1-Full/MotorControl/MCSDK/MCLib/Any/Src/sto_pll_speed_pos_fdbk.c **** 
 486:MCSDK_v6.2.1-Full/MotorControl/MCSDK/MCLib/Any/Src/sto_pll_speed_pos_fdbk.c ****         /* Check */
 487:MCSDK_v6.2.1-Full/MotorControl/MCSDK/MCLib/Any/Src/sto_pll_speed_pos_fdbk.c ****         if (wObsBemfSq > wEstBemfSqLo)
 488:MCSDK_v6.2.1-Full/MotorControl/MCSDK/MCLib/Any/Src/sto_pll_speed_pos_fdbk.c ****         {
 489:MCSDK_v6.2.1-Full/MotorControl/MCSDK/MCLib/Any/Src/sto_pll_speed_pos_fdbk.c ****           bIs_Bemf_Consistent = true;
 490:MCSDK_v6.2.1-Full/MotorControl/MCSDK/MCLib/Any/Src/sto_pll_speed_pos_fdbk.c ****         }
 491:MCSDK_v6.2.1-Full/MotorControl/MCSDK/MCLib/Any/Src/sto_pll_speed_pos_fdbk.c ****         else
 492:MCSDK_v6.2.1-Full/MotorControl/MCSDK/MCLib/Any/Src/sto_pll_speed_pos_fdbk.c ****         {
 493:MCSDK_v6.2.1-Full/MotorControl/MCSDK/MCLib/Any/Src/sto_pll_speed_pos_fdbk.c ****           /* Nothing to do */
 494:MCSDK_v6.2.1-Full/MotorControl/MCSDK/MCLib/Any/Src/sto_pll_speed_pos_fdbk.c ****         }
 495:MCSDK_v6.2.1-Full/MotorControl/MCSDK/MCLib/Any/Src/sto_pll_speed_pos_fdbk.c ****       }
 496:MCSDK_v6.2.1-Full/MotorControl/MCSDK/MCLib/Any/Src/sto_pll_speed_pos_fdbk.c **** 
 497:MCSDK_v6.2.1-Full/MotorControl/MCSDK/MCLib/Any/Src/sto_pll_speed_pos_fdbk.c ****       pHandle->IsBemfConsistent = bIs_Bemf_Consistent;
 498:MCSDK_v6.2.1-Full/MotorControl/MCSDK/MCLib/Any/Src/sto_pll_speed_pos_fdbk.c ****       pHandle->Obs_Bemf_Level = wObsBemfSq;
 499:MCSDK_v6.2.1-Full/MotorControl/MCSDK/MCLib/Any/Src/sto_pll_speed_pos_fdbk.c ****       pHandle->Est_Bemf_Level = wEstBemfSq;
 500:MCSDK_v6.2.1-Full/MotorControl/MCSDK/MCLib/Any/Src/sto_pll_speed_pos_fdbk.c ****     }
 501:MCSDK_v6.2.1-Full/MotorControl/MCSDK/MCLib/Any/Src/sto_pll_speed_pos_fdbk.c ****     else
 502:MCSDK_v6.2.1-Full/MotorControl/MCSDK/MCLib/Any/Src/sto_pll_speed_pos_fdbk.c ****     {
 503:MCSDK_v6.2.1-Full/MotorControl/MCSDK/MCLib/Any/Src/sto_pll_speed_pos_fdbk.c ****       bIs_Bemf_Consistent = true;
 504:MCSDK_v6.2.1-Full/MotorControl/MCSDK/MCLib/Any/Src/sto_pll_speed_pos_fdbk.c ****     }
 505:MCSDK_v6.2.1-Full/MotorControl/MCSDK/MCLib/Any/Src/sto_pll_speed_pos_fdbk.c **** 
 506:MCSDK_v6.2.1-Full/MotorControl/MCSDK/MCLib/Any/Src/sto_pll_speed_pos_fdbk.c ****     /* Decision making */
 507:MCSDK_v6.2.1-Full/MotorControl/MCSDK/MCLib/Any/Src/sto_pll_speed_pos_fdbk.c ****     if (false == pHandle->IsAlgorithmConverged)
 508:MCSDK_v6.2.1-Full/MotorControl/MCSDK/MCLib/Any/Src/sto_pll_speed_pos_fdbk.c ****     {
 509:MCSDK_v6.2.1-Full/MotorControl/MCSDK/MCLib/Any/Src/sto_pll_speed_pos_fdbk.c ****       bAux = SPD_IsMecSpeedReliable (&pHandle->_Super, pMecSpeedUnit);
 510:MCSDK_v6.2.1-Full/MotorControl/MCSDK/MCLib/Any/Src/sto_pll_speed_pos_fdbk.c ****     }
 511:MCSDK_v6.2.1-Full/MotorControl/MCSDK/MCLib/Any/Src/sto_pll_speed_pos_fdbk.c ****     else
 512:MCSDK_v6.2.1-Full/MotorControl/MCSDK/MCLib/Any/Src/sto_pll_speed_pos_fdbk.c ****     {
 513:MCSDK_v6.2.1-Full/MotorControl/MCSDK/MCLib/Any/Src/sto_pll_speed_pos_fdbk.c ****       if ((false == pHandle->IsSpeedReliable) || (false == bIs_Bemf_Consistent))
 514:MCSDK_v6.2.1-Full/MotorControl/MCSDK/MCLib/Any/Src/sto_pll_speed_pos_fdbk.c ****       {
 515:MCSDK_v6.2.1-Full/MotorControl/MCSDK/MCLib/Any/Src/sto_pll_speed_pos_fdbk.c ****         pHandle->ReliabilityCounter++;
 516:MCSDK_v6.2.1-Full/MotorControl/MCSDK/MCLib/Any/Src/sto_pll_speed_pos_fdbk.c ****         if (pHandle->ReliabilityCounter >= pHandle->Reliability_hysteresys)
 517:MCSDK_v6.2.1-Full/MotorControl/MCSDK/MCLib/Any/Src/sto_pll_speed_pos_fdbk.c ****         {
 518:MCSDK_v6.2.1-Full/MotorControl/MCSDK/MCLib/Any/Src/sto_pll_speed_pos_fdbk.c ****           pHandle->ReliabilityCounter = 0U;
 519:MCSDK_v6.2.1-Full/MotorControl/MCSDK/MCLib/Any/Src/sto_pll_speed_pos_fdbk.c ****           pHandle->_Super.bSpeedErrorNumber = pHandle->_Super.bMaximumSpeedErrorsNumber;
 520:MCSDK_v6.2.1-Full/MotorControl/MCSDK/MCLib/Any/Src/sto_pll_speed_pos_fdbk.c ****           bAux = false;
 521:MCSDK_v6.2.1-Full/MotorControl/MCSDK/MCLib/Any/Src/sto_pll_speed_pos_fdbk.c ****         }
 522:MCSDK_v6.2.1-Full/MotorControl/MCSDK/MCLib/Any/Src/sto_pll_speed_pos_fdbk.c ****         else
 523:MCSDK_v6.2.1-Full/MotorControl/MCSDK/MCLib/Any/Src/sto_pll_speed_pos_fdbk.c ****         {
 524:MCSDK_v6.2.1-Full/MotorControl/MCSDK/MCLib/Any/Src/sto_pll_speed_pos_fdbk.c ****           bAux = SPD_IsMecSpeedReliable (&pHandle->_Super, pMecSpeedUnit);
 525:MCSDK_v6.2.1-Full/MotorControl/MCSDK/MCLib/Any/Src/sto_pll_speed_pos_fdbk.c ****         }
 526:MCSDK_v6.2.1-Full/MotorControl/MCSDK/MCLib/Any/Src/sto_pll_speed_pos_fdbk.c ****       }
 527:MCSDK_v6.2.1-Full/MotorControl/MCSDK/MCLib/Any/Src/sto_pll_speed_pos_fdbk.c ****       else
 528:MCSDK_v6.2.1-Full/MotorControl/MCSDK/MCLib/Any/Src/sto_pll_speed_pos_fdbk.c ****       {
 529:MCSDK_v6.2.1-Full/MotorControl/MCSDK/MCLib/Any/Src/sto_pll_speed_pos_fdbk.c ****         pHandle->ReliabilityCounter = 0U;
 530:MCSDK_v6.2.1-Full/MotorControl/MCSDK/MCLib/Any/Src/sto_pll_speed_pos_fdbk.c ****         bAux = SPD_IsMecSpeedReliable (&pHandle->_Super, pMecSpeedUnit);
 531:MCSDK_v6.2.1-Full/MotorControl/MCSDK/MCLib/Any/Src/sto_pll_speed_pos_fdbk.c ****       }
 532:MCSDK_v6.2.1-Full/MotorControl/MCSDK/MCLib/Any/Src/sto_pll_speed_pos_fdbk.c ****     }
 533:MCSDK_v6.2.1-Full/MotorControl/MCSDK/MCLib/Any/Src/sto_pll_speed_pos_fdbk.c **** #ifdef NULL_PTR_CHECK_STO_PLL_SPD_POS_FDB
 534:MCSDK_v6.2.1-Full/MotorControl/MCSDK/MCLib/Any/Src/sto_pll_speed_pos_fdbk.c ****   }
 535:MCSDK_v6.2.1-Full/MotorControl/MCSDK/MCLib/Any/Src/sto_pll_speed_pos_fdbk.c **** #endif
 536:MCSDK_v6.2.1-Full/MotorControl/MCSDK/MCLib/Any/Src/sto_pll_speed_pos_fdbk.c ****   return (bAux);
ARM GAS  C:\Users\ep_ygh\AppData\Local\Temp\cc16k1Ab.s 			page 18


 537:MCSDK_v6.2.1-Full/MotorControl/MCSDK/MCLib/Any/Src/sto_pll_speed_pos_fdbk.c **** }
 538:MCSDK_v6.2.1-Full/MotorControl/MCSDK/MCLib/Any/Src/sto_pll_speed_pos_fdbk.c **** 
 539:MCSDK_v6.2.1-Full/MotorControl/MCSDK/MCLib/Any/Src/sto_pll_speed_pos_fdbk.c **** #if defined (CCMRAM)
 540:MCSDK_v6.2.1-Full/MotorControl/MCSDK/MCLib/Any/Src/sto_pll_speed_pos_fdbk.c **** #if defined (__ICCARM__)
 541:MCSDK_v6.2.1-Full/MotorControl/MCSDK/MCLib/Any/Src/sto_pll_speed_pos_fdbk.c **** #pragma location = ".ccmram"
 542:MCSDK_v6.2.1-Full/MotorControl/MCSDK/MCLib/Any/Src/sto_pll_speed_pos_fdbk.c **** #elif defined (__CC_ARM) || defined(__GNUC__)
 543:MCSDK_v6.2.1-Full/MotorControl/MCSDK/MCLib/Any/Src/sto_pll_speed_pos_fdbk.c **** __attribute__( ( section ( ".ccmram" ) ) )
 544:MCSDK_v6.2.1-Full/MotorControl/MCSDK/MCLib/Any/Src/sto_pll_speed_pos_fdbk.c **** #endif
 545:MCSDK_v6.2.1-Full/MotorControl/MCSDK/MCLib/Any/Src/sto_pll_speed_pos_fdbk.c **** #endif
 546:MCSDK_v6.2.1-Full/MotorControl/MCSDK/MCLib/Any/Src/sto_pll_speed_pos_fdbk.c **** /**
 547:MCSDK_v6.2.1-Full/MotorControl/MCSDK/MCLib/Any/Src/sto_pll_speed_pos_fdbk.c ****   * @brief  Computes and updates the average electrical speed.
 548:MCSDK_v6.2.1-Full/MotorControl/MCSDK/MCLib/Any/Src/sto_pll_speed_pos_fdbk.c ****   * 
 549:MCSDK_v6.2.1-Full/MotorControl/MCSDK/MCLib/Any/Src/sto_pll_speed_pos_fdbk.c ****   * This method must be called - at least - with the same periodicity
 550:MCSDK_v6.2.1-Full/MotorControl/MCSDK/MCLib/Any/Src/sto_pll_speed_pos_fdbk.c ****   * on which speed control is executed. It computes and update component
 551:MCSDK_v6.2.1-Full/MotorControl/MCSDK/MCLib/Any/Src/sto_pll_speed_pos_fdbk.c ****   * variable hElSpeedDpp that is estimated average electrical speed
 552:MCSDK_v6.2.1-Full/MotorControl/MCSDK/MCLib/Any/Src/sto_pll_speed_pos_fdbk.c ****   * expressed in dpp used for instance in observer equations.
 553:MCSDK_v6.2.1-Full/MotorControl/MCSDK/MCLib/Any/Src/sto_pll_speed_pos_fdbk.c ****   * Average is computed considering a FIFO depth equal to
 554:MCSDK_v6.2.1-Full/MotorControl/MCSDK/MCLib/Any/Src/sto_pll_speed_pos_fdbk.c ****   * bSpeedBufferSizedpp.
 555:MCSDK_v6.2.1-Full/MotorControl/MCSDK/MCLib/Any/Src/sto_pll_speed_pos_fdbk.c ****   * 
 556:MCSDK_v6.2.1-Full/MotorControl/MCSDK/MCLib/Any/Src/sto_pll_speed_pos_fdbk.c ****   * @param  pHandle: Handler of the current instance of the STO component.
 557:MCSDK_v6.2.1-Full/MotorControl/MCSDK/MCLib/Any/Src/sto_pll_speed_pos_fdbk.c ****   */
 558:MCSDK_v6.2.1-Full/MotorControl/MCSDK/MCLib/Any/Src/sto_pll_speed_pos_fdbk.c **** __weak void STO_PLL_CalcAvrgElSpeedDpp(STO_PLL_Handle_t *pHandle)
 559:MCSDK_v6.2.1-Full/MotorControl/MCSDK/MCLib/Any/Src/sto_pll_speed_pos_fdbk.c **** {
 560:MCSDK_v6.2.1-Full/MotorControl/MCSDK/MCLib/Any/Src/sto_pll_speed_pos_fdbk.c **** #ifdef NULL_PTR_CHECK_STO_PLL_SPD_POS_FDB
 561:MCSDK_v6.2.1-Full/MotorControl/MCSDK/MCLib/Any/Src/sto_pll_speed_pos_fdbk.c ****   if (MC_NULL == pHandle)
 562:MCSDK_v6.2.1-Full/MotorControl/MCSDK/MCLib/Any/Src/sto_pll_speed_pos_fdbk.c ****   {
 563:MCSDK_v6.2.1-Full/MotorControl/MCSDK/MCLib/Any/Src/sto_pll_speed_pos_fdbk.c ****     /* Nothing to do */
 564:MCSDK_v6.2.1-Full/MotorControl/MCSDK/MCLib/Any/Src/sto_pll_speed_pos_fdbk.c ****   }
 565:MCSDK_v6.2.1-Full/MotorControl/MCSDK/MCLib/Any/Src/sto_pll_speed_pos_fdbk.c ****   else
 566:MCSDK_v6.2.1-Full/MotorControl/MCSDK/MCLib/Any/Src/sto_pll_speed_pos_fdbk.c ****   {
 567:MCSDK_v6.2.1-Full/MotorControl/MCSDK/MCLib/Any/Src/sto_pll_speed_pos_fdbk.c **** #endif
 568:MCSDK_v6.2.1-Full/MotorControl/MCSDK/MCLib/Any/Src/sto_pll_speed_pos_fdbk.c ****     int32_t wSum = pHandle->DppBufferSum;
 569:MCSDK_v6.2.1-Full/MotorControl/MCSDK/MCLib/Any/Src/sto_pll_speed_pos_fdbk.c ****     int32_t wAvrSpeed_dpp;
 570:MCSDK_v6.2.1-Full/MotorControl/MCSDK/MCLib/Any/Src/sto_pll_speed_pos_fdbk.c ****     int16_t hSpeedBufferSizedpp = (int16_t)pHandle->SpeedBufferSizeDpp;
 571:MCSDK_v6.2.1-Full/MotorControl/MCSDK/MCLib/Any/Src/sto_pll_speed_pos_fdbk.c ****     int16_t hSpeedBufferSizeUnit = (int16_t)pHandle->SpeedBufferSizeUnit;
 572:MCSDK_v6.2.1-Full/MotorControl/MCSDK/MCLib/Any/Src/sto_pll_speed_pos_fdbk.c ****     int16_t hBufferSizeDiff;
 573:MCSDK_v6.2.1-Full/MotorControl/MCSDK/MCLib/Any/Src/sto_pll_speed_pos_fdbk.c ****     int16_t hIndexNew = (int16_t)pHandle->Speed_Buffer_Index;
 574:MCSDK_v6.2.1-Full/MotorControl/MCSDK/MCLib/Any/Src/sto_pll_speed_pos_fdbk.c ****     int16_t hIndexOld;
 575:MCSDK_v6.2.1-Full/MotorControl/MCSDK/MCLib/Any/Src/sto_pll_speed_pos_fdbk.c ****     int16_t hIndexOldTemp;
 576:MCSDK_v6.2.1-Full/MotorControl/MCSDK/MCLib/Any/Src/sto_pll_speed_pos_fdbk.c **** 
 577:MCSDK_v6.2.1-Full/MotorControl/MCSDK/MCLib/Any/Src/sto_pll_speed_pos_fdbk.c ****     hBufferSizeDiff = hSpeedBufferSizeUnit - hSpeedBufferSizedpp;
 578:MCSDK_v6.2.1-Full/MotorControl/MCSDK/MCLib/Any/Src/sto_pll_speed_pos_fdbk.c **** 
 579:MCSDK_v6.2.1-Full/MotorControl/MCSDK/MCLib/Any/Src/sto_pll_speed_pos_fdbk.c ****     if (0 == hBufferSizeDiff)
 580:MCSDK_v6.2.1-Full/MotorControl/MCSDK/MCLib/Any/Src/sto_pll_speed_pos_fdbk.c ****     {
 581:MCSDK_v6.2.1-Full/MotorControl/MCSDK/MCLib/Any/Src/sto_pll_speed_pos_fdbk.c ****       wSum = wSum + pHandle->Speed_Buffer[hIndexNew] - pHandle->SpeedBufferOldestEl;
 582:MCSDK_v6.2.1-Full/MotorControl/MCSDK/MCLib/Any/Src/sto_pll_speed_pos_fdbk.c ****     }
 583:MCSDK_v6.2.1-Full/MotorControl/MCSDK/MCLib/Any/Src/sto_pll_speed_pos_fdbk.c ****     else
 584:MCSDK_v6.2.1-Full/MotorControl/MCSDK/MCLib/Any/Src/sto_pll_speed_pos_fdbk.c ****     {
 585:MCSDK_v6.2.1-Full/MotorControl/MCSDK/MCLib/Any/Src/sto_pll_speed_pos_fdbk.c ****       hIndexOldTemp = hIndexNew + hBufferSizeDiff;
 586:MCSDK_v6.2.1-Full/MotorControl/MCSDK/MCLib/Any/Src/sto_pll_speed_pos_fdbk.c **** 
 587:MCSDK_v6.2.1-Full/MotorControl/MCSDK/MCLib/Any/Src/sto_pll_speed_pos_fdbk.c ****       if (hIndexOldTemp >= hSpeedBufferSizeUnit)
 588:MCSDK_v6.2.1-Full/MotorControl/MCSDK/MCLib/Any/Src/sto_pll_speed_pos_fdbk.c ****       {
 589:MCSDK_v6.2.1-Full/MotorControl/MCSDK/MCLib/Any/Src/sto_pll_speed_pos_fdbk.c ****         hIndexOld = hIndexOldTemp - hSpeedBufferSizeUnit;
 590:MCSDK_v6.2.1-Full/MotorControl/MCSDK/MCLib/Any/Src/sto_pll_speed_pos_fdbk.c ****       }
 591:MCSDK_v6.2.1-Full/MotorControl/MCSDK/MCLib/Any/Src/sto_pll_speed_pos_fdbk.c ****       else
 592:MCSDK_v6.2.1-Full/MotorControl/MCSDK/MCLib/Any/Src/sto_pll_speed_pos_fdbk.c ****       {
 593:MCSDK_v6.2.1-Full/MotorControl/MCSDK/MCLib/Any/Src/sto_pll_speed_pos_fdbk.c ****         hIndexOld = hIndexOldTemp;
ARM GAS  C:\Users\ep_ygh\AppData\Local\Temp\cc16k1Ab.s 			page 19


 594:MCSDK_v6.2.1-Full/MotorControl/MCSDK/MCLib/Any/Src/sto_pll_speed_pos_fdbk.c ****       }
 595:MCSDK_v6.2.1-Full/MotorControl/MCSDK/MCLib/Any/Src/sto_pll_speed_pos_fdbk.c **** 
 596:MCSDK_v6.2.1-Full/MotorControl/MCSDK/MCLib/Any/Src/sto_pll_speed_pos_fdbk.c ****       wSum = wSum + pHandle->Speed_Buffer[hIndexNew] - pHandle->Speed_Buffer[hIndexOld];
 597:MCSDK_v6.2.1-Full/MotorControl/MCSDK/MCLib/Any/Src/sto_pll_speed_pos_fdbk.c ****     }
 598:MCSDK_v6.2.1-Full/MotorControl/MCSDK/MCLib/Any/Src/sto_pll_speed_pos_fdbk.c **** 
 599:MCSDK_v6.2.1-Full/MotorControl/MCSDK/MCLib/Any/Src/sto_pll_speed_pos_fdbk.c **** #ifndef FULL_MISRA_C_COMPLIANCY_STO_PLL
 600:MCSDK_v6.2.1-Full/MotorControl/MCSDK/MCLib/Any/Src/sto_pll_speed_pos_fdbk.c ****   //cstat !MISRAC2012-Rule-1.3_n !ATH-shift-neg !MISRAC2012-Rule-10.1_R6
 601:MCSDK_v6.2.1-Full/MotorControl/MCSDK/MCLib/Any/Src/sto_pll_speed_pos_fdbk.c ****   wAvrSpeed_dpp = wSum >> pHandle->SpeedBufferSizeDppLOG;
 602:MCSDK_v6.2.1-Full/MotorControl/MCSDK/MCLib/Any/Src/sto_pll_speed_pos_fdbk.c **** #else
 603:MCSDK_v6.2.1-Full/MotorControl/MCSDK/MCLib/Any/Src/sto_pll_speed_pos_fdbk.c ****   if ((int16_t )0 == hSpeedBufferSizedpp)
 604:MCSDK_v6.2.1-Full/MotorControl/MCSDK/MCLib/Any/Src/sto_pll_speed_pos_fdbk.c ****   {
 605:MCSDK_v6.2.1-Full/MotorControl/MCSDK/MCLib/Any/Src/sto_pll_speed_pos_fdbk.c ****     /* Nothing to do */
 606:MCSDK_v6.2.1-Full/MotorControl/MCSDK/MCLib/Any/Src/sto_pll_speed_pos_fdbk.c ****     wAvrSpeed_dpp = wSum;
 607:MCSDK_v6.2.1-Full/MotorControl/MCSDK/MCLib/Any/Src/sto_pll_speed_pos_fdbk.c ****   }
 608:MCSDK_v6.2.1-Full/MotorControl/MCSDK/MCLib/Any/Src/sto_pll_speed_pos_fdbk.c ****   else
 609:MCSDK_v6.2.1-Full/MotorControl/MCSDK/MCLib/Any/Src/sto_pll_speed_pos_fdbk.c ****   {
 610:MCSDK_v6.2.1-Full/MotorControl/MCSDK/MCLib/Any/Src/sto_pll_speed_pos_fdbk.c ****     wAvrSpeed_dpp = wSum / hSpeedBufferSizedpp;
 611:MCSDK_v6.2.1-Full/MotorControl/MCSDK/MCLib/Any/Src/sto_pll_speed_pos_fdbk.c ****   }
 612:MCSDK_v6.2.1-Full/MotorControl/MCSDK/MCLib/Any/Src/sto_pll_speed_pos_fdbk.c **** #endif
 613:MCSDK_v6.2.1-Full/MotorControl/MCSDK/MCLib/Any/Src/sto_pll_speed_pos_fdbk.c ****     pHandle->_Super.hElSpeedDpp = (int16_t)wAvrSpeed_dpp;
 614:MCSDK_v6.2.1-Full/MotorControl/MCSDK/MCLib/Any/Src/sto_pll_speed_pos_fdbk.c ****     pHandle->DppBufferSum = wSum;
 615:MCSDK_v6.2.1-Full/MotorControl/MCSDK/MCLib/Any/Src/sto_pll_speed_pos_fdbk.c **** #ifdef NULL_PTR_CHECK_STO_PLL_SPD_POS_FDB
 616:MCSDK_v6.2.1-Full/MotorControl/MCSDK/MCLib/Any/Src/sto_pll_speed_pos_fdbk.c ****   }
 617:MCSDK_v6.2.1-Full/MotorControl/MCSDK/MCLib/Any/Src/sto_pll_speed_pos_fdbk.c **** #endif
 618:MCSDK_v6.2.1-Full/MotorControl/MCSDK/MCLib/Any/Src/sto_pll_speed_pos_fdbk.c **** }
 619:MCSDK_v6.2.1-Full/MotorControl/MCSDK/MCLib/Any/Src/sto_pll_speed_pos_fdbk.c **** 
 620:MCSDK_v6.2.1-Full/MotorControl/MCSDK/MCLib/Any/Src/sto_pll_speed_pos_fdbk.c **** /**
 621:MCSDK_v6.2.1-Full/MotorControl/MCSDK/MCLib/Any/Src/sto_pll_speed_pos_fdbk.c ****   * @brief  Clears state observer component by re-initializing private variables in @p pHandle.
 622:MCSDK_v6.2.1-Full/MotorControl/MCSDK/MCLib/Any/Src/sto_pll_speed_pos_fdbk.c ****   * 
 623:MCSDK_v6.2.1-Full/MotorControl/MCSDK/MCLib/Any/Src/sto_pll_speed_pos_fdbk.c ****   */
 624:MCSDK_v6.2.1-Full/MotorControl/MCSDK/MCLib/Any/Src/sto_pll_speed_pos_fdbk.c **** __weak void STO_PLL_Clear(STO_PLL_Handle_t *pHandle)
 625:MCSDK_v6.2.1-Full/MotorControl/MCSDK/MCLib/Any/Src/sto_pll_speed_pos_fdbk.c **** {
 626:MCSDK_v6.2.1-Full/MotorControl/MCSDK/MCLib/Any/Src/sto_pll_speed_pos_fdbk.c **** #ifdef NULL_PTR_CHECK_STO_PLL_SPD_POS_FDB
 627:MCSDK_v6.2.1-Full/MotorControl/MCSDK/MCLib/Any/Src/sto_pll_speed_pos_fdbk.c ****   if (MC_NULL == pHandle)
 628:MCSDK_v6.2.1-Full/MotorControl/MCSDK/MCLib/Any/Src/sto_pll_speed_pos_fdbk.c ****   {
 629:MCSDK_v6.2.1-Full/MotorControl/MCSDK/MCLib/Any/Src/sto_pll_speed_pos_fdbk.c ****     /* Nothing to do */
 630:MCSDK_v6.2.1-Full/MotorControl/MCSDK/MCLib/Any/Src/sto_pll_speed_pos_fdbk.c ****   }
 631:MCSDK_v6.2.1-Full/MotorControl/MCSDK/MCLib/Any/Src/sto_pll_speed_pos_fdbk.c ****   else
 632:MCSDK_v6.2.1-Full/MotorControl/MCSDK/MCLib/Any/Src/sto_pll_speed_pos_fdbk.c ****   {
 633:MCSDK_v6.2.1-Full/MotorControl/MCSDK/MCLib/Any/Src/sto_pll_speed_pos_fdbk.c **** #endif
 634:MCSDK_v6.2.1-Full/MotorControl/MCSDK/MCLib/Any/Src/sto_pll_speed_pos_fdbk.c ****     pHandle->Ialfa_est = (int32_t)0;
 635:MCSDK_v6.2.1-Full/MotorControl/MCSDK/MCLib/Any/Src/sto_pll_speed_pos_fdbk.c ****     pHandle->Ibeta_est = (int32_t)0;
 636:MCSDK_v6.2.1-Full/MotorControl/MCSDK/MCLib/Any/Src/sto_pll_speed_pos_fdbk.c ****     pHandle->wBemf_alfa_est = (int32_t)0;
 637:MCSDK_v6.2.1-Full/MotorControl/MCSDK/MCLib/Any/Src/sto_pll_speed_pos_fdbk.c ****     pHandle->wBemf_beta_est = (int32_t)0;
 638:MCSDK_v6.2.1-Full/MotorControl/MCSDK/MCLib/Any/Src/sto_pll_speed_pos_fdbk.c ****     pHandle->_Super.hElAngle = (int16_t)0;
 639:MCSDK_v6.2.1-Full/MotorControl/MCSDK/MCLib/Any/Src/sto_pll_speed_pos_fdbk.c ****     pHandle->_Super.hElSpeedDpp = (int16_t)0;
 640:MCSDK_v6.2.1-Full/MotorControl/MCSDK/MCLib/Any/Src/sto_pll_speed_pos_fdbk.c ****     pHandle->ConsistencyCounter = 0u;
 641:MCSDK_v6.2.1-Full/MotorControl/MCSDK/MCLib/Any/Src/sto_pll_speed_pos_fdbk.c ****     pHandle->ReliabilityCounter = 0u;
 642:MCSDK_v6.2.1-Full/MotorControl/MCSDK/MCLib/Any/Src/sto_pll_speed_pos_fdbk.c ****     pHandle->IsAlgorithmConverged = false;
 643:MCSDK_v6.2.1-Full/MotorControl/MCSDK/MCLib/Any/Src/sto_pll_speed_pos_fdbk.c ****     pHandle->IsBemfConsistent = false;
 644:MCSDK_v6.2.1-Full/MotorControl/MCSDK/MCLib/Any/Src/sto_pll_speed_pos_fdbk.c ****     pHandle->Obs_Bemf_Level = (int32_t)0;
 645:MCSDK_v6.2.1-Full/MotorControl/MCSDK/MCLib/Any/Src/sto_pll_speed_pos_fdbk.c ****     pHandle->Est_Bemf_Level = (int32_t)0;
 646:MCSDK_v6.2.1-Full/MotorControl/MCSDK/MCLib/Any/Src/sto_pll_speed_pos_fdbk.c ****     pHandle->DppBufferSum = (int32_t)0;
 647:MCSDK_v6.2.1-Full/MotorControl/MCSDK/MCLib/Any/Src/sto_pll_speed_pos_fdbk.c ****     pHandle->ForceConvergency = false;
 648:MCSDK_v6.2.1-Full/MotorControl/MCSDK/MCLib/Any/Src/sto_pll_speed_pos_fdbk.c ****     pHandle->ForceConvergency2 = false;
 649:MCSDK_v6.2.1-Full/MotorControl/MCSDK/MCLib/Any/Src/sto_pll_speed_pos_fdbk.c **** 
 650:MCSDK_v6.2.1-Full/MotorControl/MCSDK/MCLib/Any/Src/sto_pll_speed_pos_fdbk.c ****     STO_InitSpeedBuffer(pHandle);
ARM GAS  C:\Users\ep_ygh\AppData\Local\Temp\cc16k1Ab.s 			page 20


 651:MCSDK_v6.2.1-Full/MotorControl/MCSDK/MCLib/Any/Src/sto_pll_speed_pos_fdbk.c ****     PID_SetIntegralTerm(& pHandle->PIRegulator, (int32_t)0);
 652:MCSDK_v6.2.1-Full/MotorControl/MCSDK/MCLib/Any/Src/sto_pll_speed_pos_fdbk.c **** #ifdef NULL_PTR_CHECK_STO_PLL_SPD_POS_FDB
 653:MCSDK_v6.2.1-Full/MotorControl/MCSDK/MCLib/Any/Src/sto_pll_speed_pos_fdbk.c ****   }
 654:MCSDK_v6.2.1-Full/MotorControl/MCSDK/MCLib/Any/Src/sto_pll_speed_pos_fdbk.c **** #endif
 655:MCSDK_v6.2.1-Full/MotorControl/MCSDK/MCLib/Any/Src/sto_pll_speed_pos_fdbk.c **** }
 656:MCSDK_v6.2.1-Full/MotorControl/MCSDK/MCLib/Any/Src/sto_pll_speed_pos_fdbk.c **** 
 657:MCSDK_v6.2.1-Full/MotorControl/MCSDK/MCLib/Any/Src/sto_pll_speed_pos_fdbk.c **** /**
 658:MCSDK_v6.2.1-Full/MotorControl/MCSDK/MCLib/Any/Src/sto_pll_speed_pos_fdbk.c ****   * @brief  Stores in @p pHandle the latest calculated value of @p hRotor_Speed.
 659:MCSDK_v6.2.1-Full/MotorControl/MCSDK/MCLib/Any/Src/sto_pll_speed_pos_fdbk.c ****   * 
 660:MCSDK_v6.2.1-Full/MotorControl/MCSDK/MCLib/Any/Src/sto_pll_speed_pos_fdbk.c ****   */
 661:MCSDK_v6.2.1-Full/MotorControl/MCSDK/MCLib/Any/Src/sto_pll_speed_pos_fdbk.c **** inline static void STO_Store_Rotor_Speed(STO_PLL_Handle_t *pHandle, int16_t hRotor_Speed)
 662:MCSDK_v6.2.1-Full/MotorControl/MCSDK/MCLib/Any/Src/sto_pll_speed_pos_fdbk.c **** {
 663:MCSDK_v6.2.1-Full/MotorControl/MCSDK/MCLib/Any/Src/sto_pll_speed_pos_fdbk.c ****   uint8_t bBuffer_index = pHandle->Speed_Buffer_Index;
 664:MCSDK_v6.2.1-Full/MotorControl/MCSDK/MCLib/Any/Src/sto_pll_speed_pos_fdbk.c **** 
 665:MCSDK_v6.2.1-Full/MotorControl/MCSDK/MCLib/Any/Src/sto_pll_speed_pos_fdbk.c ****   bBuffer_index++;
 666:MCSDK_v6.2.1-Full/MotorControl/MCSDK/MCLib/Any/Src/sto_pll_speed_pos_fdbk.c ****   if (bBuffer_index == pHandle->SpeedBufferSizeUnit)
 667:MCSDK_v6.2.1-Full/MotorControl/MCSDK/MCLib/Any/Src/sto_pll_speed_pos_fdbk.c ****   {
 668:MCSDK_v6.2.1-Full/MotorControl/MCSDK/MCLib/Any/Src/sto_pll_speed_pos_fdbk.c ****     bBuffer_index = 0U;
 669:MCSDK_v6.2.1-Full/MotorControl/MCSDK/MCLib/Any/Src/sto_pll_speed_pos_fdbk.c ****   }
 670:MCSDK_v6.2.1-Full/MotorControl/MCSDK/MCLib/Any/Src/sto_pll_speed_pos_fdbk.c ****   else
 671:MCSDK_v6.2.1-Full/MotorControl/MCSDK/MCLib/Any/Src/sto_pll_speed_pos_fdbk.c ****   {
 672:MCSDK_v6.2.1-Full/MotorControl/MCSDK/MCLib/Any/Src/sto_pll_speed_pos_fdbk.c ****     /* Nothing to do */
 673:MCSDK_v6.2.1-Full/MotorControl/MCSDK/MCLib/Any/Src/sto_pll_speed_pos_fdbk.c ****   }
 674:MCSDK_v6.2.1-Full/MotorControl/MCSDK/MCLib/Any/Src/sto_pll_speed_pos_fdbk.c **** 
 675:MCSDK_v6.2.1-Full/MotorControl/MCSDK/MCLib/Any/Src/sto_pll_speed_pos_fdbk.c ****   pHandle->SpeedBufferOldestEl = pHandle->Speed_Buffer[bBuffer_index];
 676:MCSDK_v6.2.1-Full/MotorControl/MCSDK/MCLib/Any/Src/sto_pll_speed_pos_fdbk.c ****   pHandle->Speed_Buffer[bBuffer_index] = hRotor_Speed;
 677:MCSDK_v6.2.1-Full/MotorControl/MCSDK/MCLib/Any/Src/sto_pll_speed_pos_fdbk.c ****   pHandle->Speed_Buffer_Index = bBuffer_index;
 678:MCSDK_v6.2.1-Full/MotorControl/MCSDK/MCLib/Any/Src/sto_pll_speed_pos_fdbk.c **** }
 679:MCSDK_v6.2.1-Full/MotorControl/MCSDK/MCLib/Any/Src/sto_pll_speed_pos_fdbk.c **** 
 680:MCSDK_v6.2.1-Full/MotorControl/MCSDK/MCLib/Any/Src/sto_pll_speed_pos_fdbk.c **** /**
 681:MCSDK_v6.2.1-Full/MotorControl/MCSDK/MCLib/Any/Src/sto_pll_speed_pos_fdbk.c ****   * @brief  Executes PLL algorithm for rotor position extraction from B-emf alpha and beta.
 682:MCSDK_v6.2.1-Full/MotorControl/MCSDK/MCLib/Any/Src/sto_pll_speed_pos_fdbk.c ****   * 
 683:MCSDK_v6.2.1-Full/MotorControl/MCSDK/MCLib/Any/Src/sto_pll_speed_pos_fdbk.c ****   * @param  pHandle: Handler of the current instance of the STO component.
 684:MCSDK_v6.2.1-Full/MotorControl/MCSDK/MCLib/Any/Src/sto_pll_speed_pos_fdbk.c ****   * @param  hBemf_alfa_est: Estimated Bemf alpha on the stator reference frame.
 685:MCSDK_v6.2.1-Full/MotorControl/MCSDK/MCLib/Any/Src/sto_pll_speed_pos_fdbk.c ****   * @param  hBemf_beta_est: Estimated Bemf beta on the stator reference frame.
 686:MCSDK_v6.2.1-Full/MotorControl/MCSDK/MCLib/Any/Src/sto_pll_speed_pos_fdbk.c ****   * @retval 
 687:MCSDK_v6.2.1-Full/MotorControl/MCSDK/MCLib/Any/Src/sto_pll_speed_pos_fdbk.c ****   */
 688:MCSDK_v6.2.1-Full/MotorControl/MCSDK/MCLib/Any/Src/sto_pll_speed_pos_fdbk.c **** inline static int16_t STO_ExecutePLL(STO_PLL_Handle_t *pHandle, int16_t hBemf_alfa_est, int16_t hBe
 351              		.loc 1 688 23 view .LVU160
 352              	.LBB14:
 689:MCSDK_v6.2.1-Full/MotorControl/MCSDK/MCLib/Any/Src/sto_pll_speed_pos_fdbk.c **** {
 690:MCSDK_v6.2.1-Full/MotorControl/MCSDK/MCLib/Any/Src/sto_pll_speed_pos_fdbk.c ****   int32_t wAlfa_Sin_tmp;
 353              		.loc 1 690 3 view .LVU161
 691:MCSDK_v6.2.1-Full/MotorControl/MCSDK/MCLib/Any/Src/sto_pll_speed_pos_fdbk.c ****   int32_t wBeta_Cos_tmp;
 354              		.loc 1 691 3 view .LVU162
 692:MCSDK_v6.2.1-Full/MotorControl/MCSDK/MCLib/Any/Src/sto_pll_speed_pos_fdbk.c ****   int16_t hAux1;
 355              		.loc 1 692 3 view .LVU163
 693:MCSDK_v6.2.1-Full/MotorControl/MCSDK/MCLib/Any/Src/sto_pll_speed_pos_fdbk.c ****   int16_t hAux2;
 356              		.loc 1 693 3 view .LVU164
 694:MCSDK_v6.2.1-Full/MotorControl/MCSDK/MCLib/Any/Src/sto_pll_speed_pos_fdbk.c ****   int16_t hOutput;
 357              		.loc 1 694 3 view .LVU165
 695:MCSDK_v6.2.1-Full/MotorControl/MCSDK/MCLib/Any/Src/sto_pll_speed_pos_fdbk.c ****   Trig_Components Local_Components;
 358              		.loc 1 695 3 view .LVU166
 696:MCSDK_v6.2.1-Full/MotorControl/MCSDK/MCLib/Any/Src/sto_pll_speed_pos_fdbk.c **** 
 697:MCSDK_v6.2.1-Full/MotorControl/MCSDK/MCLib/Any/Src/sto_pll_speed_pos_fdbk.c ****   Local_Components = MCM_Trig_Functions(pHandle->_Super.hElAngle);
 359              		.loc 1 697 3 view .LVU167
 360              		.loc 1 697 22 is_stmt 0 view .LVU168
ARM GAS  C:\Users\ep_ygh\AppData\Local\Temp\cc16k1Ab.s 			page 21


 361 013a B4F90400 		ldrsh	r0, [r4, #4]
 362 013e FFF7FEFF 		bl	MCM_Trig_Functions
 363              	.LVL23:
 698:MCSDK_v6.2.1-Full/MotorControl/MCSDK/MCLib/Any/Src/sto_pll_speed_pos_fdbk.c **** 
 699:MCSDK_v6.2.1-Full/MotorControl/MCSDK/MCLib/Any/Src/sto_pll_speed_pos_fdbk.c ****   /* Alfa & Beta BEMF multiplied by Cos & Sin */
 700:MCSDK_v6.2.1-Full/MotorControl/MCSDK/MCLib/Any/Src/sto_pll_speed_pos_fdbk.c ****   wAlfa_Sin_tmp = ((int32_t )hBemf_alfa_est) * ((int32_t )Local_Components.hSin);
 364              		.loc 1 700 3 is_stmt 1 view .LVU169
 701:MCSDK_v6.2.1-Full/MotorControl/MCSDK/MCLib/Any/Src/sto_pll_speed_pos_fdbk.c ****   wBeta_Cos_tmp = ((int32_t )hBemf_beta_est) * ((int32_t )Local_Components.hCos);
 365              		.loc 1 701 3 view .LVU170
 702:MCSDK_v6.2.1-Full/MotorControl/MCSDK/MCLib/Any/Src/sto_pll_speed_pos_fdbk.c **** 
 703:MCSDK_v6.2.1-Full/MotorControl/MCSDK/MCLib/Any/Src/sto_pll_speed_pos_fdbk.c **** #ifndef FULL_MISRA_C_COMPLIANCY_STO_PLL
 704:MCSDK_v6.2.1-Full/MotorControl/MCSDK/MCLib/Any/Src/sto_pll_speed_pos_fdbk.c ****   hAux1 = (int16_t)(wBeta_Cos_tmp >> 15); //cstat !MISRAC2012-Rule-1.3_n !ATH-shift-neg !MISRAC2012
 366              		.loc 1 704 3 view .LVU171
 705:MCSDK_v6.2.1-Full/MotorControl/MCSDK/MCLib/Any/Src/sto_pll_speed_pos_fdbk.c **** #else
 706:MCSDK_v6.2.1-Full/MotorControl/MCSDK/MCLib/Any/Src/sto_pll_speed_pos_fdbk.c ****   hAux1 = (int16_t)(wBeta_Cos_tmp / 32768);
 707:MCSDK_v6.2.1-Full/MotorControl/MCSDK/MCLib/Any/Src/sto_pll_speed_pos_fdbk.c **** #endif
 708:MCSDK_v6.2.1-Full/MotorControl/MCSDK/MCLib/Any/Src/sto_pll_speed_pos_fdbk.c **** 
 709:MCSDK_v6.2.1-Full/MotorControl/MCSDK/MCLib/Any/Src/sto_pll_speed_pos_fdbk.c **** #ifndef FULL_MISRA_C_COMPLIANCY_STO_PLL
 710:MCSDK_v6.2.1-Full/MotorControl/MCSDK/MCLib/Any/Src/sto_pll_speed_pos_fdbk.c ****   hAux2 = (int16_t)(wAlfa_Sin_tmp >> 15); //cstat !MISRAC2012-Rule-1.3_n !ATH-shift-neg !MISRAC2012
 367              		.loc 1 710 3 view .LVU172
 711:MCSDK_v6.2.1-Full/MotorControl/MCSDK/MCLib/Any/Src/sto_pll_speed_pos_fdbk.c **** #else
 712:MCSDK_v6.2.1-Full/MotorControl/MCSDK/MCLib/Any/Src/sto_pll_speed_pos_fdbk.c ****   hAux2 = (int16_t)(wAlfa_Sin_tmp / 32768);
 713:MCSDK_v6.2.1-Full/MotorControl/MCSDK/MCLib/Any/Src/sto_pll_speed_pos_fdbk.c **** #endif
 714:MCSDK_v6.2.1-Full/MotorControl/MCSDK/MCLib/Any/Src/sto_pll_speed_pos_fdbk.c **** 
 715:MCSDK_v6.2.1-Full/MotorControl/MCSDK/MCLib/Any/Src/sto_pll_speed_pos_fdbk.c ****   /* Speed PI regulator */
 716:MCSDK_v6.2.1-Full/MotorControl/MCSDK/MCLib/Any/Src/sto_pll_speed_pos_fdbk.c ****   hOutput = PI_Controller(& pHandle->PIRegulator, (int32_t)(hAux1 ) - hAux2);
 368              		.loc 1 716 3 view .LVU173
 369              	.LBE14:
 370              	.LBE13:
 358:MCSDK_v6.2.1-Full/MotorControl/MCSDK/MCLib/Any/Src/sto_pll_speed_pos_fdbk.c ****     hAux_Beta = (int16_t)(hAux_Beta * wDirection);
 371              		.loc 1 358 17 is_stmt 0 view .LVU174
 372 0142 029B     		ldr	r3, [sp, #8]
 359:MCSDK_v6.2.1-Full/MotorControl/MCSDK/MCLib/Any/Src/sto_pll_speed_pos_fdbk.c **** 
 373              		.loc 1 359 17 view .LVU175
 374 0144 15FB09F5 		smulbb	r5, r5, r9
 375              	.LVL24:
 358:MCSDK_v6.2.1-Full/MotorControl/MCSDK/MCLib/Any/Src/sto_pll_speed_pos_fdbk.c ****     hAux_Beta = (int16_t)(hAux_Beta * wDirection);
 376              		.loc 1 358 17 view .LVU176
 377 0148 13FB09F1 		smulbb	r1, r3, r9
 361:MCSDK_v6.2.1-Full/MotorControl/MCSDK/MCLib/Any/Src/sto_pll_speed_pos_fdbk.c ****     pHandle->_Super.InstantaneousElSpeedDpp = hRotor_Speed;
 378              		.loc 1 361 20 view .LVU177
 379 014c 6D42     		rsbs	r5, r5, #0
 380              	.LBB16:
 381              	.LBB15:
 701:MCSDK_v6.2.1-Full/MotorControl/MCSDK/MCLib/Any/Src/sto_pll_speed_pos_fdbk.c **** 
 382              		.loc 1 701 17 view .LVU178
 383 014e 10FB05F5 		smulbb	r5, r0, r5
 700:MCSDK_v6.2.1-Full/MotorControl/MCSDK/MCLib/Any/Src/sto_pll_speed_pos_fdbk.c ****   wBeta_Cos_tmp = ((int32_t )hBemf_beta_est) * ((int32_t )Local_Components.hCos);
 384              		.loc 1 700 17 view .LVU179
 385 0152 10FB21F0 		smultb	r0, r0, r1
 386              		.loc 1 716 13 view .LVU180
 387 0156 40F3CF31 		sbfx	r1, r0, #15, #16
 388              		.loc 1 716 51 view .LVU181
 389 015a 45F3CF35 		sbfx	r5, r5, #15, #16
 390              		.loc 1 716 13 view .LVU182
 391 015e 691A     		subs	r1, r5, r1
 392 0160 04F13400 		add	r0, r4, #52
ARM GAS  C:\Users\ep_ygh\AppData\Local\Temp\cc16k1Ab.s 			page 22


 393 0164 FFF7FEFF 		bl	PI_Controller
 394              	.LVL25:
 717:MCSDK_v6.2.1-Full/MotorControl/MCSDK/MCLib/Any/Src/sto_pll_speed_pos_fdbk.c ****   return (hOutput);
 395              		.loc 1 717 3 is_stmt 1 view .LVU183
 396              		.loc 1 717 3 is_stmt 0 view .LVU184
 397              	.LBE15:
 398              	.LBE16:
 362:MCSDK_v6.2.1-Full/MotorControl/MCSDK/MCLib/Any/Src/sto_pll_speed_pos_fdbk.c **** 
 399              		.loc 1 362 5 is_stmt 1 view .LVU185
 400              	.LBB17:
 401              	.LBB18:
 663:MCSDK_v6.2.1-Full/MotorControl/MCSDK/MCLib/Any/Src/sto_pll_speed_pos_fdbk.c **** 
 402              		.loc 1 663 11 is_stmt 0 view .LVU186
 403 0168 94F8F430 		ldrb	r3, [r4, #244]	@ zero_extendqisi2
 666:MCSDK_v6.2.1-Full/MotorControl/MCSDK/MCLib/Any/Src/sto_pll_speed_pos_fdbk.c ****   {
 404              		.loc 1 666 6 view .LVU187
 405 016c 94F80E21 		ldrb	r2, [r4, #270]	@ zero_extendqisi2
 406              	.LBE18:
 407              	.LBE17:
 362:MCSDK_v6.2.1-Full/MotorControl/MCSDK/MCLib/Any/Src/sto_pll_speed_pos_fdbk.c **** 
 408              		.loc 1 362 45 view .LVU188
 409 0170 2082     		strh	r0, [r4, #16]	@ movhi
 364:MCSDK_v6.2.1-Full/MotorControl/MCSDK/MCLib/Any/Src/sto_pll_speed_pos_fdbk.c **** 
 410              		.loc 1 364 5 is_stmt 1 view .LVU189
 411              	.LVL26:
 412              	.LBB21:
 413              	.LBI17:
 661:MCSDK_v6.2.1-Full/MotorControl/MCSDK/MCLib/Any/Src/sto_pll_speed_pos_fdbk.c **** {
 414              		.loc 1 661 20 view .LVU190
 415              	.LBB19:
 663:MCSDK_v6.2.1-Full/MotorControl/MCSDK/MCLib/Any/Src/sto_pll_speed_pos_fdbk.c **** 
 416              		.loc 1 663 3 view .LVU191
 665:MCSDK_v6.2.1-Full/MotorControl/MCSDK/MCLib/Any/Src/sto_pll_speed_pos_fdbk.c ****   if (bBuffer_index == pHandle->SpeedBufferSizeUnit)
 417              		.loc 1 665 3 view .LVU192
 665:MCSDK_v6.2.1-Full/MotorControl/MCSDK/MCLib/Any/Src/sto_pll_speed_pos_fdbk.c ****   if (bBuffer_index == pHandle->SpeedBufferSizeUnit)
 418              		.loc 1 665 16 is_stmt 0 view .LVU193
 419 0172 0133     		adds	r3, r3, #1
 420              	.LVL27:
 665:MCSDK_v6.2.1-Full/MotorControl/MCSDK/MCLib/Any/Src/sto_pll_speed_pos_fdbk.c ****   if (bBuffer_index == pHandle->SpeedBufferSizeUnit)
 421              		.loc 1 665 16 view .LVU194
 422 0174 DBB2     		uxtb	r3, r3
 423              	.LVL28:
 666:MCSDK_v6.2.1-Full/MotorControl/MCSDK/MCLib/Any/Src/sto_pll_speed_pos_fdbk.c ****   {
 424              		.loc 1 666 3 is_stmt 1 view .LVU195
 666:MCSDK_v6.2.1-Full/MotorControl/MCSDK/MCLib/Any/Src/sto_pll_speed_pos_fdbk.c ****   {
 425              		.loc 1 666 6 is_stmt 0 view .LVU196
 426 0176 9A42     		cmp	r2, r3
 427 0178 0ABF     		itet	eq
 428 017a 0022     		moveq	r2, #0
 675:MCSDK_v6.2.1-Full/MotorControl/MCSDK/MCLib/Any/Src/sto_pll_speed_pos_fdbk.c ****   pHandle->Speed_Buffer[bBuffer_index] = hRotor_Speed;
 429              		.loc 1 675 55 view .LVU197
 430 017c 1A46     		movne	r2, r3
 668:MCSDK_v6.2.1-Full/MotorControl/MCSDK/MCLib/Any/Src/sto_pll_speed_pos_fdbk.c ****   }
 431              		.loc 1 668 19 view .LVU198
 432 017e 1346     		moveq	r3, r2
 433              	.LVL29:
 673:MCSDK_v6.2.1-Full/MotorControl/MCSDK/MCLib/Any/Src/sto_pll_speed_pos_fdbk.c **** 
ARM GAS  C:\Users\ep_ygh\AppData\Local\Temp\cc16k1Ab.s 			page 23


 434              		.loc 1 673 3 is_stmt 1 view .LVU199
 675:MCSDK_v6.2.1-Full/MotorControl/MCSDK/MCLib/Any/Src/sto_pll_speed_pos_fdbk.c ****   pHandle->Speed_Buffer[bBuffer_index] = hRotor_Speed;
 435              		.loc 1 675 3 view .LVU200
 436 0180 04EB4202 		add	r2, r4, r2, lsl #1
 675:MCSDK_v6.2.1-Full/MotorControl/MCSDK/MCLib/Any/Src/sto_pll_speed_pos_fdbk.c ****   pHandle->Speed_Buffer[bBuffer_index] = hRotor_Speed;
 437              		.loc 1 675 55 is_stmt 0 view .LVU201
 438 0184 B2F97410 		ldrsh	r1, [r2, #116]
 675:MCSDK_v6.2.1-Full/MotorControl/MCSDK/MCLib/Any/Src/sto_pll_speed_pos_fdbk.c ****   pHandle->Speed_Buffer[bBuffer_index] = hRotor_Speed;
 439              		.loc 1 675 32 view .LVU202
 440 0188 A4F80C11 		strh	r1, [r4, #268]	@ movhi
 676:MCSDK_v6.2.1-Full/MotorControl/MCSDK/MCLib/Any/Src/sto_pll_speed_pos_fdbk.c ****   pHandle->Speed_Buffer_Index = bBuffer_index;
 441              		.loc 1 676 3 is_stmt 1 view .LVU203
 676:MCSDK_v6.2.1-Full/MotorControl/MCSDK/MCLib/Any/Src/sto_pll_speed_pos_fdbk.c ****   pHandle->Speed_Buffer_Index = bBuffer_index;
 442              		.loc 1 676 40 is_stmt 0 view .LVU204
 443 018c A2F87400 		strh	r0, [r2, #116]	@ movhi
 677:MCSDK_v6.2.1-Full/MotorControl/MCSDK/MCLib/Any/Src/sto_pll_speed_pos_fdbk.c **** }
 444              		.loc 1 677 3 is_stmt 1 view .LVU205
 445              	.LBE19:
 446              	.LBE21:
 366:MCSDK_v6.2.1-Full/MotorControl/MCSDK/MCLib/Any/Src/sto_pll_speed_pos_fdbk.c **** 
 447              		.loc 1 366 30 is_stmt 0 view .LVU206
 448 0190 A188     		ldrh	r1, [r4, #4]
 449              	.LBB22:
 450              	.LBB20:
 677:MCSDK_v6.2.1-Full/MotorControl/MCSDK/MCLib/Any/Src/sto_pll_speed_pos_fdbk.c **** }
 451              		.loc 1 677 31 view .LVU207
 452 0192 84F8F430 		strb	r3, [r4, #244]
 453              	.LVL30:
 677:MCSDK_v6.2.1-Full/MotorControl/MCSDK/MCLib/Any/Src/sto_pll_speed_pos_fdbk.c **** }
 454              		.loc 1 677 31 view .LVU208
 455              	.LBE20:
 456              	.LBE22:
 366:MCSDK_v6.2.1-Full/MotorControl/MCSDK/MCLib/Any/Src/sto_pll_speed_pos_fdbk.c **** 
 457              		.loc 1 366 5 is_stmt 1 view .LVU209
 366:MCSDK_v6.2.1-Full/MotorControl/MCSDK/MCLib/Any/Src/sto_pll_speed_pos_fdbk.c **** 
 458              		.loc 1 366 30 is_stmt 0 view .LVU210
 459 0196 0844     		add	r0, r0, r1
 460              	.LVL31:
 372:MCSDK_v6.2.1-Full/MotorControl/MCSDK/MCLib/Any/Src/sto_pll_speed_pos_fdbk.c ****     pHandle->wBemf_beta_est = wBemf_beta_est_Next;
 461              		.loc 1 372 24 view .LVU211
 462 0198 C4E91968 		strd	r6, r8, [r4, #100]
 366:MCSDK_v6.2.1-Full/MotorControl/MCSDK/MCLib/Any/Src/sto_pll_speed_pos_fdbk.c **** 
 463              		.loc 1 366 30 view .LVU212
 464 019c 00B2     		sxth	r0, r0
 369:MCSDK_v6.2.1-Full/MotorControl/MCSDK/MCLib/Any/Src/sto_pll_speed_pos_fdbk.c ****     pHandle->wBemf_alfa_est = wBemf_alfa_est_Next;
 465              		.loc 1 369 24 view .LVU213
 466 019e 2766     		str	r7, [r4, #96]
 373:MCSDK_v6.2.1-Full/MotorControl/MCSDK/MCLib/Any/Src/sto_pll_speed_pos_fdbk.c ****     retValue = pHandle->_Super.hElAngle;
 467              		.loc 1 373 29 view .LVU214
 468 01a0 C4F86CA0 		str	r10, [r4, #108]
 366:MCSDK_v6.2.1-Full/MotorControl/MCSDK/MCLib/Any/Src/sto_pll_speed_pos_fdbk.c **** 
 469              		.loc 1 366 30 view .LVU215
 470 01a4 A080     		strh	r0, [r4, #4]	@ movhi
 369:MCSDK_v6.2.1-Full/MotorControl/MCSDK/MCLib/Any/Src/sto_pll_speed_pos_fdbk.c ****     pHandle->wBemf_alfa_est = wBemf_alfa_est_Next;
 471              		.loc 1 369 5 is_stmt 1 view .LVU216
 370:MCSDK_v6.2.1-Full/MotorControl/MCSDK/MCLib/Any/Src/sto_pll_speed_pos_fdbk.c **** 
 472              		.loc 1 370 5 view .LVU217
ARM GAS  C:\Users\ep_ygh\AppData\Local\Temp\cc16k1Ab.s 			page 24


 372:MCSDK_v6.2.1-Full/MotorControl/MCSDK/MCLib/Any/Src/sto_pll_speed_pos_fdbk.c ****     pHandle->wBemf_beta_est = wBemf_beta_est_Next;
 473              		.loc 1 372 5 view .LVU218
 373:MCSDK_v6.2.1-Full/MotorControl/MCSDK/MCLib/Any/Src/sto_pll_speed_pos_fdbk.c ****     retValue = pHandle->_Super.hElAngle;
 474              		.loc 1 373 5 view .LVU219
 374:MCSDK_v6.2.1-Full/MotorControl/MCSDK/MCLib/Any/Src/sto_pll_speed_pos_fdbk.c ****   }
 475              		.loc 1 374 5 view .LVU220
 476              	.LVL32:
 477              	.L4:
 374:MCSDK_v6.2.1-Full/MotorControl/MCSDK/MCLib/Any/Src/sto_pll_speed_pos_fdbk.c ****   }
 478              		.loc 1 374 5 is_stmt 0 view .LVU221
 479              	.LBE12:
 376:MCSDK_v6.2.1-Full/MotorControl/MCSDK/MCLib/Any/Src/sto_pll_speed_pos_fdbk.c **** }
 480              		.loc 1 376 3 is_stmt 1 view .LVU222
 377:MCSDK_v6.2.1-Full/MotorControl/MCSDK/MCLib/Any/Src/sto_pll_speed_pos_fdbk.c **** 
 481              		.loc 1 377 1 is_stmt 0 view .LVU223
 482 01a6 07B0     		add	sp, sp, #28
 483              	.LCFI2:
 484              		.cfi_remember_state
 485              		.cfi_def_cfa_offset 36
 486              		@ sp needed
 487 01a8 BDE8F08F 		pop	{r4, r5, r6, r7, r8, r9, r10, fp, pc}
 488              	.LVL33:
 489              	.L17:
 490              	.LCFI3:
 491              		.cfi_restore_state
 154:MCSDK_v6.2.1-Full/MotorControl/MCSDK/MCLib/Any/Src/sto_pll_speed_pos_fdbk.c ****   }
 492              		.loc 1 154 14 view .LVU224
 493 01ac 0846     		mov	r0, r1
 494              	.LVL34:
 376:MCSDK_v6.2.1-Full/MotorControl/MCSDK/MCLib/Any/Src/sto_pll_speed_pos_fdbk.c **** }
 495              		.loc 1 376 3 is_stmt 1 view .LVU225
 377:MCSDK_v6.2.1-Full/MotorControl/MCSDK/MCLib/Any/Src/sto_pll_speed_pos_fdbk.c **** 
 496              		.loc 1 377 1 is_stmt 0 view .LVU226
 497 01ae 07B0     		add	sp, sp, #28
 498              	.LCFI4:
 499              		.cfi_remember_state
 500              		.cfi_def_cfa_offset 36
 501              		@ sp needed
 502 01b0 BDE8F08F 		pop	{r4, r5, r6, r7, r8, r9, r10, fp, pc}
 503              	.LVL35:
 504              	.L13:
 505              	.LCFI5:
 506              		.cfi_restore_state
 507              	.LBB23:
 355:MCSDK_v6.2.1-Full/MotorControl/MCSDK/MCLib/Any/Src/sto_pll_speed_pos_fdbk.c ****     }
 508              		.loc 1 355 7 is_stmt 1 view .LVU227
 358:MCSDK_v6.2.1-Full/MotorControl/MCSDK/MCLib/Any/Src/sto_pll_speed_pos_fdbk.c ****     hAux_Beta = (int16_t)(hAux_Beta * wDirection);
 509              		.loc 1 358 17 is_stmt 0 view .LVU228
 510 01b4 1FFA80F9 		uxth	r9, r0
 511 01b8 BFE7     		b	.L14
 512              	.LVL36:
 513              	.L11:
 228:MCSDK_v6.2.1-Full/MotorControl/MCSDK/MCLib/Any/Src/sto_pll_speed_pos_fdbk.c ****     {
 514              		.loc 1 228 10 is_stmt 1 view .LVU229
 228:MCSDK_v6.2.1-Full/MotorControl/MCSDK/MCLib/Any/Src/sto_pll_speed_pos_fdbk.c ****     {
 515              		.loc 1 228 48 is_stmt 0 view .LVU230
 516 01ba 1B1A     		subs	r3, r3, r0
ARM GAS  C:\Users\ep_ygh\AppData\Local\Temp\cc16k1Ab.s 			page 25


 228:MCSDK_v6.2.1-Full/MotorControl/MCSDK/MCLib/Any/Src/sto_pll_speed_pos_fdbk.c ****     {
 517              		.loc 1 228 13 view .LVU231
 518 01bc 9845     		cmp	r8, r3
 230:MCSDK_v6.2.1-Full/MotorControl/MCSDK/MCLib/Any/Src/sto_pll_speed_pos_fdbk.c ****     }
 519              		.loc 1 230 7 is_stmt 1 view .LVU232
 230:MCSDK_v6.2.1-Full/MotorControl/MCSDK/MCLib/Any/Src/sto_pll_speed_pos_fdbk.c ****     }
 520              		.loc 1 230 26 is_stmt 0 view .LVU233
 521 01be DCBF     		itt	le
 522 01c0 6366     		strle	r3, [r4, #100]
 523 01c2 9846     		movle	r8, r3
 524 01c4 5AE7     		b	.L12
 525              	.L9:
 215:MCSDK_v6.2.1-Full/MotorControl/MCSDK/MCLib/Any/Src/sto_pll_speed_pos_fdbk.c ****     {
 526              		.loc 1 215 10 is_stmt 1 view .LVU234
 215:MCSDK_v6.2.1-Full/MotorControl/MCSDK/MCLib/Any/Src/sto_pll_speed_pos_fdbk.c ****     {
 527              		.loc 1 215 48 is_stmt 0 view .LVU235
 528 01c6 A3EB0008 		sub	r8, r3, r0
 215:MCSDK_v6.2.1-Full/MotorControl/MCSDK/MCLib/Any/Src/sto_pll_speed_pos_fdbk.c ****     {
 529              		.loc 1 215 13 view .LVU236
 530 01ca C145     		cmp	r9, r8
 217:MCSDK_v6.2.1-Full/MotorControl/MCSDK/MCLib/Any/Src/sto_pll_speed_pos_fdbk.c ****     }
 531              		.loc 1 217 7 is_stmt 1 view .LVU237
 217:MCSDK_v6.2.1-Full/MotorControl/MCSDK/MCLib/Any/Src/sto_pll_speed_pos_fdbk.c ****     }
 532              		.loc 1 217 26 is_stmt 0 view .LVU238
 533 01cc DCBF     		itt	le
 534 01ce C4F86080 		strle	r8, [r4, #96]
 535 01d2 C146     		movle	r9, r8
 536 01d4 4BE7     		b	.L10
 537              	.LVL37:
 538              	.L7:
 196:MCSDK_v6.2.1-Full/MotorControl/MCSDK/MCLib/Any/Src/sto_pll_speed_pos_fdbk.c ****     {
 539              		.loc 1 196 10 is_stmt 1 view .LVU239
 196:MCSDK_v6.2.1-Full/MotorControl/MCSDK/MCLib/Any/Src/sto_pll_speed_pos_fdbk.c ****     {
 540              		.loc 1 196 53 is_stmt 0 view .LVU240
 541 01d6 1B1A     		subs	r3, r3, r0
 196:MCSDK_v6.2.1-Full/MotorControl/MCSDK/MCLib/Any/Src/sto_pll_speed_pos_fdbk.c ****     {
 542              		.loc 1 196 13 view .LVU241
 543 01d8 9E42     		cmp	r6, r3
 198:MCSDK_v6.2.1-Full/MotorControl/MCSDK/MCLib/Any/Src/sto_pll_speed_pos_fdbk.c ****     }
 544              		.loc 1 198 7 is_stmt 1 view .LVU242
 198:MCSDK_v6.2.1-Full/MotorControl/MCSDK/MCLib/Any/Src/sto_pll_speed_pos_fdbk.c ****     }
 545              		.loc 1 198 31 is_stmt 0 view .LVU243
 546 01da DCBF     		itt	le
 547 01dc E366     		strle	r3, [r4, #108]
 548 01de 0193     		strle	r3, [sp, #4]
 549 01e0 33E7     		b	.L8
 550              	.LVL38:
 551              	.L5:
 177:MCSDK_v6.2.1-Full/MotorControl/MCSDK/MCLib/Any/Src/sto_pll_speed_pos_fdbk.c ****     {
 552              		.loc 1 177 10 is_stmt 1 view .LVU244
 177:MCSDK_v6.2.1-Full/MotorControl/MCSDK/MCLib/Any/Src/sto_pll_speed_pos_fdbk.c ****     {
 553              		.loc 1 177 53 is_stmt 0 view .LVU245
 554 01e2 1D1A     		subs	r5, r3, r0
 177:MCSDK_v6.2.1-Full/MotorControl/MCSDK/MCLib/Any/Src/sto_pll_speed_pos_fdbk.c ****     {
 555              		.loc 1 177 13 view .LVU246
 556 01e4 AF42     		cmp	r7, r5
 179:MCSDK_v6.2.1-Full/MotorControl/MCSDK/MCLib/Any/Src/sto_pll_speed_pos_fdbk.c ****     }
ARM GAS  C:\Users\ep_ygh\AppData\Local\Temp\cc16k1Ab.s 			page 26


 557              		.loc 1 179 7 is_stmt 1 view .LVU247
 179:MCSDK_v6.2.1-Full/MotorControl/MCSDK/MCLib/Any/Src/sto_pll_speed_pos_fdbk.c ****     }
 558              		.loc 1 179 31 is_stmt 0 view .LVU248
 559 01e6 DCBF     		itt	le
 560 01e8 A566     		strle	r5, [r4, #104]
 561 01ea 2F46     		movle	r7, r5
 562 01ec 1EE7     		b	.L6
 563              	.LBE23:
 564              		.cfi_endproc
 565              	.LFE1092:
 567 01ee 00BF     		.section	.text.STO_PLL_CalcAvrgMecSpeedUnit,"ax",%progbits
 568              		.align	1
 569              		.p2align 2,,3
 570              		.weak	STO_PLL_CalcAvrgMecSpeedUnit
 571              		.syntax unified
 572              		.thumb
 573              		.thumb_func
 575              	STO_PLL_CalcAvrgMecSpeedUnit:
 576              	.LVL39:
 577              	.LFB1093:
 396:MCSDK_v6.2.1-Full/MotorControl/MCSDK/MCLib/Any/Src/sto_pll_speed_pos_fdbk.c ****   bool bAux;
 578              		.loc 1 396 1 is_stmt 1 view -0
 579              		.cfi_startproc
 580              		@ args = 0, pretend = 0, frame = 0
 581              		@ frame_needed = 0, uses_anonymous_args = 0
 397:MCSDK_v6.2.1-Full/MotorControl/MCSDK/MCLib/Any/Src/sto_pll_speed_pos_fdbk.c **** #ifdef NULL_PTR_CHECK_STO_PLL_SPD_POS_FDB
 582              		.loc 1 397 3 view .LVU250
 406:MCSDK_v6.2.1-Full/MotorControl/MCSDK/MCLib/Any/Src/sto_pll_speed_pos_fdbk.c ****     int32_t wError;
 583              		.loc 1 406 5 view .LVU251
 407:MCSDK_v6.2.1-Full/MotorControl/MCSDK/MCLib/Any/Src/sto_pll_speed_pos_fdbk.c ****     int32_t wAux;
 584              		.loc 1 407 5 view .LVU252
 408:MCSDK_v6.2.1-Full/MotorControl/MCSDK/MCLib/Any/Src/sto_pll_speed_pos_fdbk.c ****     int32_t wAvrSquareSpeed;
 585              		.loc 1 408 5 view .LVU253
 409:MCSDK_v6.2.1-Full/MotorControl/MCSDK/MCLib/Any/Src/sto_pll_speed_pos_fdbk.c ****     int32_t wAvrQuadraticError = 0;
 586              		.loc 1 409 5 view .LVU254
 410:MCSDK_v6.2.1-Full/MotorControl/MCSDK/MCLib/Any/Src/sto_pll_speed_pos_fdbk.c ****     int32_t wObsBemf, wEstBemf;
 587              		.loc 1 410 5 view .LVU255
 411:MCSDK_v6.2.1-Full/MotorControl/MCSDK/MCLib/Any/Src/sto_pll_speed_pos_fdbk.c ****     int32_t wObsBemfSq = 0;
 588              		.loc 1 411 5 view .LVU256
 412:MCSDK_v6.2.1-Full/MotorControl/MCSDK/MCLib/Any/Src/sto_pll_speed_pos_fdbk.c ****     int32_t wEstBemfSq = 0;
 589              		.loc 1 412 5 view .LVU257
 413:MCSDK_v6.2.1-Full/MotorControl/MCSDK/MCLib/Any/Src/sto_pll_speed_pos_fdbk.c ****     int32_t wEstBemfSqLo;
 590              		.loc 1 413 5 view .LVU258
 414:MCSDK_v6.2.1-Full/MotorControl/MCSDK/MCLib/Any/Src/sto_pll_speed_pos_fdbk.c ****     bool bIs_Speed_Reliable = false;
 591              		.loc 1 414 5 view .LVU259
 415:MCSDK_v6.2.1-Full/MotorControl/MCSDK/MCLib/Any/Src/sto_pll_speed_pos_fdbk.c ****     bool bIs_Bemf_Consistent = false;
 592              		.loc 1 415 5 view .LVU260
 416:MCSDK_v6.2.1-Full/MotorControl/MCSDK/MCLib/Any/Src/sto_pll_speed_pos_fdbk.c ****     uint8_t i, bSpeedBufferSizeUnit = pHandle->SpeedBufferSizeUnit;
 593              		.loc 1 416 5 view .LVU261
 417:MCSDK_v6.2.1-Full/MotorControl/MCSDK/MCLib/Any/Src/sto_pll_speed_pos_fdbk.c **** 
 594              		.loc 1 417 5 view .LVU262
 396:MCSDK_v6.2.1-Full/MotorControl/MCSDK/MCLib/Any/Src/sto_pll_speed_pos_fdbk.c ****   bool bAux;
 595              		.loc 1 396 1 is_stmt 0 view .LVU263
 596 0000 70B5     		push	{r4, r5, r6, lr}
 597              	.LCFI6:
 598              		.cfi_def_cfa_offset 16
 599              		.cfi_offset 4, -16
ARM GAS  C:\Users\ep_ygh\AppData\Local\Temp\cc16k1Ab.s 			page 27


 600              		.cfi_offset 5, -12
 601              		.cfi_offset 6, -8
 602              		.cfi_offset 14, -4
 417:MCSDK_v6.2.1-Full/MotorControl/MCSDK/MCLib/Any/Src/sto_pll_speed_pos_fdbk.c **** 
 603              		.loc 1 417 16 view .LVU264
 604 0002 90F80E51 		ldrb	r5, [r0, #270]	@ zero_extendqisi2
 605              	.LVL40:
 419:MCSDK_v6.2.1-Full/MotorControl/MCSDK/MCLib/Any/Src/sto_pll_speed_pos_fdbk.c ****     {
 606              		.loc 1 419 5 is_stmt 1 view .LVU265
 419:MCSDK_v6.2.1-Full/MotorControl/MCSDK/MCLib/Any/Src/sto_pll_speed_pos_fdbk.c ****     {
 607              		.loc 1 419 18 view .LVU266
 419:MCSDK_v6.2.1-Full/MotorControl/MCSDK/MCLib/Any/Src/sto_pll_speed_pos_fdbk.c ****     {
 608              		.loc 1 419 5 is_stmt 0 view .LVU267
 609 0006 002D     		cmp	r5, #0
 610 0008 00F09E80 		beq	.L37
 611 000c 05F1FF3C 		add	ip, r5, #-1
 612 0010 5FFA8CF3 		uxtb	r3, ip
 613 0014 00F17204 		add	r4, r0, #114
 614 0018 00F1740C 		add	ip, r0, #116
 615 001c 0CEB430C 		add	ip, ip, r3, lsl #1
 406:MCSDK_v6.2.1-Full/MotorControl/MCSDK/MCLib/Any/Src/sto_pll_speed_pos_fdbk.c ****     int32_t wError;
 616              		.loc 1 406 13 view .LVU268
 617 0020 0022     		movs	r2, #0
 419:MCSDK_v6.2.1-Full/MotorControl/MCSDK/MCLib/Any/Src/sto_pll_speed_pos_fdbk.c ****     {
 618              		.loc 1 419 5 view .LVU269
 619 0022 2346     		mov	r3, r4
 620              	.LVL41:
 621              	.L23:
 421:MCSDK_v6.2.1-Full/MotorControl/MCSDK/MCLib/Any/Src/sto_pll_speed_pos_fdbk.c ****     }
 622              		.loc 1 421 7 is_stmt 1 discriminator 3 view .LVU270
 421:MCSDK_v6.2.1-Full/MotorControl/MCSDK/MCLib/Any/Src/sto_pll_speed_pos_fdbk.c ****     }
 623              		.loc 1 421 24 is_stmt 0 discriminator 3 view .LVU271
 624 0024 33F902EF 		ldrsh	lr, [r3, #2]!
 419:MCSDK_v6.2.1-Full/MotorControl/MCSDK/MCLib/Any/Src/sto_pll_speed_pos_fdbk.c ****     {
 625              		.loc 1 419 5 discriminator 3 view .LVU272
 626 0028 9C45     		cmp	ip, r3
 421:MCSDK_v6.2.1-Full/MotorControl/MCSDK/MCLib/Any/Src/sto_pll_speed_pos_fdbk.c ****     }
 627              		.loc 1 421 21 discriminator 3 view .LVU273
 628 002a 7244     		add	r2, r2, lr
 629              	.LVL42:
 419:MCSDK_v6.2.1-Full/MotorControl/MCSDK/MCLib/Any/Src/sto_pll_speed_pos_fdbk.c ****     {
 630              		.loc 1 419 44 is_stmt 1 discriminator 3 view .LVU274
 419:MCSDK_v6.2.1-Full/MotorControl/MCSDK/MCLib/Any/Src/sto_pll_speed_pos_fdbk.c ****     {
 631              		.loc 1 419 18 discriminator 3 view .LVU275
 419:MCSDK_v6.2.1-Full/MotorControl/MCSDK/MCLib/Any/Src/sto_pll_speed_pos_fdbk.c ****     {
 632              		.loc 1 419 5 is_stmt 0 discriminator 3 view .LVU276
 633 002c FAD1     		bne	.L23
 424:MCSDK_v6.2.1-Full/MotorControl/MCSDK/MCLib/Any/Src/sto_pll_speed_pos_fdbk.c ****     {
 634              		.loc 1 424 5 is_stmt 1 view .LVU277
 430:MCSDK_v6.2.1-Full/MotorControl/MCSDK/MCLib/Any/Src/sto_pll_speed_pos_fdbk.c ****     }
 635              		.loc 1 430 7 view .LVU278
 430:MCSDK_v6.2.1-Full/MotorControl/MCSDK/MCLib/Any/Src/sto_pll_speed_pos_fdbk.c ****     }
 636              		.loc 1 430 21 is_stmt 0 view .LVU279
 637 002e 92FBF5FE 		sdiv	lr, r2, r5
 638              	.LVL43:
 433:MCSDK_v6.2.1-Full/MotorControl/MCSDK/MCLib/Any/Src/sto_pll_speed_pos_fdbk.c ****     {
 639              		.loc 1 433 5 is_stmt 1 view .LVU280
ARM GAS  C:\Users\ep_ygh\AppData\Local\Temp\cc16k1Ab.s 			page 28


 433:MCSDK_v6.2.1-Full/MotorControl/MCSDK/MCLib/Any/Src/sto_pll_speed_pos_fdbk.c ****     {
 640              		.loc 1 433 18 view .LVU281
 430:MCSDK_v6.2.1-Full/MotorControl/MCSDK/MCLib/Any/Src/sto_pll_speed_pos_fdbk.c ****     }
 641              		.loc 1 430 21 is_stmt 0 view .LVU282
 642 0032 0022     		movs	r2, #0
 643              	.LVL44:
 644              	.L25:
 435:MCSDK_v6.2.1-Full/MotorControl/MCSDK/MCLib/Any/Src/sto_pll_speed_pos_fdbk.c ****       wError = (wError * wError);
 645              		.loc 1 435 7 is_stmt 1 discriminator 3 view .LVU283
 435:MCSDK_v6.2.1-Full/MotorControl/MCSDK/MCLib/Any/Src/sto_pll_speed_pos_fdbk.c ****       wError = (wError * wError);
 646              		.loc 1 435 17 is_stmt 0 discriminator 3 view .LVU284
 647 0034 34F9023F 		ldrsh	r3, [r4, #2]!
 435:MCSDK_v6.2.1-Full/MotorControl/MCSDK/MCLib/Any/Src/sto_pll_speed_pos_fdbk.c ****       wError = (wError * wError);
 648              		.loc 1 435 14 discriminator 3 view .LVU285
 649 0038 A3EB0E03 		sub	r3, r3, lr
 650              	.LVL45:
 436:MCSDK_v6.2.1-Full/MotorControl/MCSDK/MCLib/Any/Src/sto_pll_speed_pos_fdbk.c ****       wAvrQuadraticError += wError;
 651              		.loc 1 436 7 is_stmt 1 discriminator 3 view .LVU286
 437:MCSDK_v6.2.1-Full/MotorControl/MCSDK/MCLib/Any/Src/sto_pll_speed_pos_fdbk.c ****     }
 652              		.loc 1 437 7 discriminator 3 view .LVU287
 433:MCSDK_v6.2.1-Full/MotorControl/MCSDK/MCLib/Any/Src/sto_pll_speed_pos_fdbk.c ****     {
 653              		.loc 1 433 5 is_stmt 0 discriminator 3 view .LVU288
 654 003c 6445     		cmp	r4, ip
 437:MCSDK_v6.2.1-Full/MotorControl/MCSDK/MCLib/Any/Src/sto_pll_speed_pos_fdbk.c ****     }
 655              		.loc 1 437 26 discriminator 3 view .LVU289
 656 003e 03FB0322 		mla	r2, r3, r3, r2
 657              	.LVL46:
 433:MCSDK_v6.2.1-Full/MotorControl/MCSDK/MCLib/Any/Src/sto_pll_speed_pos_fdbk.c ****     {
 658              		.loc 1 433 44 is_stmt 1 discriminator 3 view .LVU290
 433:MCSDK_v6.2.1-Full/MotorControl/MCSDK/MCLib/Any/Src/sto_pll_speed_pos_fdbk.c ****     {
 659              		.loc 1 433 18 discriminator 3 view .LVU291
 433:MCSDK_v6.2.1-Full/MotorControl/MCSDK/MCLib/Any/Src/sto_pll_speed_pos_fdbk.c ****     {
 660              		.loc 1 433 5 is_stmt 0 discriminator 3 view .LVU292
 661 0042 F7D1     		bne	.L25
 441:MCSDK_v6.2.1-Full/MotorControl/MCSDK/MCLib/Any/Src/sto_pll_speed_pos_fdbk.c **** 
 662              		.loc 1 441 24 view .LVU293
 663 0044 B2FBF5F2 		udiv	r2, r2, r5
 664              	.LVL47:
 444:MCSDK_v6.2.1-Full/MotorControl/MCSDK/MCLib/Any/Src/sto_pll_speed_pos_fdbk.c ****     int64_t lAvrSquareSpeed = (int64_t)(wAvrSquareSpeed) * (int64_t)pHandle->VariancePercentage;
 665              		.loc 1 444 21 view .LVU294
 666 0048 0EFB0EF4 		mul	r4, lr, lr
 445:MCSDK_v6.2.1-Full/MotorControl/MCSDK/MCLib/Any/Src/sto_pll_speed_pos_fdbk.c ****     wAvrSquareSpeed = (int32_t)(lAvrSquareSpeed / (int64_t)128);
 667              		.loc 1 445 31 view .LVU295
 668 004c E617     		asrs	r6, r4, #31
 669              	.LVL48:
 670              	.L22:
 441:MCSDK_v6.2.1-Full/MotorControl/MCSDK/MCLib/Any/Src/sto_pll_speed_pos_fdbk.c **** 
 671              		.loc 1 441 5 is_stmt 1 view .LVU296
 444:MCSDK_v6.2.1-Full/MotorControl/MCSDK/MCLib/Any/Src/sto_pll_speed_pos_fdbk.c ****     int64_t lAvrSquareSpeed = (int64_t)(wAvrSquareSpeed) * (int64_t)pHandle->VariancePercentage;
 672              		.loc 1 444 5 view .LVU297
 445:MCSDK_v6.2.1-Full/MotorControl/MCSDK/MCLib/Any/Src/sto_pll_speed_pos_fdbk.c ****     wAvrSquareSpeed = (int32_t)(lAvrSquareSpeed / (int64_t)128);
 673              		.loc 1 445 5 view .LVU298
 446:MCSDK_v6.2.1-Full/MotorControl/MCSDK/MCLib/Any/Src/sto_pll_speed_pos_fdbk.c ****     
 674              		.loc 1 446 5 view .LVU299
 445:MCSDK_v6.2.1-Full/MotorControl/MCSDK/MCLib/Any/Src/sto_pll_speed_pos_fdbk.c ****     wAvrSquareSpeed = (int32_t)(lAvrSquareSpeed / (int64_t)128);
 675              		.loc 1 445 60 is_stmt 0 view .LVU300
 676 004e B0F81051 		ldrh	r5, [r0, #272]
ARM GAS  C:\Users\ep_ygh\AppData\Local\Temp\cc16k1Ab.s 			page 29


 454:MCSDK_v6.2.1-Full/MotorControl/MCSDK/MCLib/Any/Src/sto_pll_speed_pos_fdbk.c ****     wAux = wAux * ((int32_t)pHandle->_Super.SpeedUnit);
 677              		.loc 1 454 29 view .LVU301
 678 0052 438B     		ldrh	r3, [r0, #26]
 454:MCSDK_v6.2.1-Full/MotorControl/MCSDK/MCLib/Any/Src/sto_pll_speed_pos_fdbk.c ****     wAux = wAux * ((int32_t)pHandle->_Super.SpeedUnit);
 679              		.loc 1 454 10 view .LVU302
 680 0054 0EFB03FE 		mul	lr, lr, r3
 681              	.LVL49:
 445:MCSDK_v6.2.1-Full/MotorControl/MCSDK/MCLib/Any/Src/sto_pll_speed_pos_fdbk.c ****     wAvrSquareSpeed = (int32_t)(lAvrSquareSpeed / (int64_t)128);
 682              		.loc 1 445 13 view .LVU303
 683 0058 A5FB0443 		umull	r4, r3, r5, r4
 684              	.LVL50:
 445:MCSDK_v6.2.1-Full/MotorControl/MCSDK/MCLib/Any/Src/sto_pll_speed_pos_fdbk.c ****     wAvrSquareSpeed = (int32_t)(lAvrSquareSpeed / (int64_t)128);
 685              		.loc 1 445 13 view .LVU304
 686 005c 05FB0633 		mla	r3, r5, r6, r3
 446:MCSDK_v6.2.1-Full/MotorControl/MCSDK/MCLib/Any/Src/sto_pll_speed_pos_fdbk.c ****     
 687              		.loc 1 446 49 view .LVU305
 688 0060 E409     		lsrs	r4, r4, #7
 689 0062 44EA4364 		orr	r4, r4, r3, lsl #25
 690              	.LVL51:
 448:MCSDK_v6.2.1-Full/MotorControl/MCSDK/MCLib/Any/Src/sto_pll_speed_pos_fdbk.c ****     {
 691              		.loc 1 448 5 is_stmt 1 view .LVU306
 454:MCSDK_v6.2.1-Full/MotorControl/MCSDK/MCLib/Any/Src/sto_pll_speed_pos_fdbk.c ****     wAux = wAux * ((int32_t)pHandle->_Super.SpeedUnit);
 692              		.loc 1 454 5 view .LVU307
 455:MCSDK_v6.2.1-Full/MotorControl/MCSDK/MCLib/Any/Src/sto_pll_speed_pos_fdbk.c ****     wAux = wAux / ((int32_t)pHandle->_Super.DPPConvFactor);
 693              		.loc 1 455 5 view .LVU308
 455:MCSDK_v6.2.1-Full/MotorControl/MCSDK/MCLib/Any/Src/sto_pll_speed_pos_fdbk.c ****     wAux = wAux / ((int32_t)pHandle->_Super.DPPConvFactor);
 694              		.loc 1 455 20 is_stmt 0 view .LVU309
 695 0066 8378     		ldrb	r3, [r0, #2]	@ zero_extendqisi2
 465:MCSDK_v6.2.1-Full/MotorControl/MCSDK/MCLib/Any/Src/sto_pll_speed_pos_fdbk.c ****     {
 696              		.loc 1 465 8 view .LVU310
 697 0068 90F80461 		ldrb	r6, [r0, #260]	@ zero_extendqisi2
 456:MCSDK_v6.2.1-Full/MotorControl/MCSDK/MCLib/Any/Src/sto_pll_speed_pos_fdbk.c ****     wAux = wAux / ((int16_t)pHandle->_Super.bElToMecRatio);
 698              		.loc 1 456 10 view .LVU311
 699 006c C569     		ldr	r5, [r0, #28]
 448:MCSDK_v6.2.1-Full/MotorControl/MCSDK/MCLib/Any/Src/sto_pll_speed_pos_fdbk.c ****     {
 700              		.loc 1 448 8 view .LVU312
 701 006e 9442     		cmp	r4, r2
 455:MCSDK_v6.2.1-Full/MotorControl/MCSDK/MCLib/Any/Src/sto_pll_speed_pos_fdbk.c ****     wAux = wAux / ((int32_t)pHandle->_Super.DPPConvFactor);
 702              		.loc 1 455 10 view .LVU313
 703 0070 0EFB03F3 		mul	r3, lr, r3
 704              	.LVL52:
 456:MCSDK_v6.2.1-Full/MotorControl/MCSDK/MCLib/Any/Src/sto_pll_speed_pos_fdbk.c ****     wAux = wAux / ((int16_t)pHandle->_Super.bElToMecRatio);
 705              		.loc 1 456 5 is_stmt 1 view .LVU314
 448:MCSDK_v6.2.1-Full/MotorControl/MCSDK/MCLib/Any/Src/sto_pll_speed_pos_fdbk.c ****     {
 706              		.loc 1 448 8 is_stmt 0 view .LVU315
 707 0074 D8BF     		it	le
 708 0076 4FF0000C 		movle	ip, #0
 456:MCSDK_v6.2.1-Full/MotorControl/MCSDK/MCLib/Any/Src/sto_pll_speed_pos_fdbk.c ****     wAux = wAux / ((int16_t)pHandle->_Super.bElToMecRatio);
 709              		.loc 1 456 10 view .LVU316
 710 007a 93FBF5F3 		sdiv	r3, r3, r5
 711              	.LVL53:
 457:MCSDK_v6.2.1-Full/MotorControl/MCSDK/MCLib/Any/Src/sto_pll_speed_pos_fdbk.c **** 
 712              		.loc 1 457 5 is_stmt 1 view .LVU317
 448:MCSDK_v6.2.1-Full/MotorControl/MCSDK/MCLib/Any/Src/sto_pll_speed_pos_fdbk.c ****     {
 713              		.loc 1 448 8 is_stmt 0 view .LVU318
 714 007e C8BF     		it	gt
 715 0080 4FF0010C 		movgt	ip, #1
ARM GAS  C:\Users\ep_ygh\AppData\Local\Temp\cc16k1Ab.s 			page 30


 457:MCSDK_v6.2.1-Full/MotorControl/MCSDK/MCLib/Any/Src/sto_pll_speed_pos_fdbk.c **** 
 716              		.loc 1 457 20 view .LVU319
 717 0084 4578     		ldrb	r5, [r0, #1]	@ zero_extendqisi2
 457:MCSDK_v6.2.1-Full/MotorControl/MCSDK/MCLib/Any/Src/sto_pll_speed_pos_fdbk.c **** 
 718              		.loc 1 457 10 view .LVU320
 719 0086 93FBF5F3 		sdiv	r3, r3, r5
 720              	.LVL54:
 459:MCSDK_v6.2.1-Full/MotorControl/MCSDK/MCLib/Any/Src/sto_pll_speed_pos_fdbk.c ****     pHandle->_Super.hAvrMecSpeedUnit = (int16_t)wAux;
 721              		.loc 1 459 5 is_stmt 1 view .LVU321
 459:MCSDK_v6.2.1-Full/MotorControl/MCSDK/MCLib/Any/Src/sto_pll_speed_pos_fdbk.c ****     pHandle->_Super.hAvrMecSpeedUnit = (int16_t)wAux;
 722              		.loc 1 459 22 is_stmt 0 view .LVU322
 723 008a 1DB2     		sxth	r5, r3
 459:MCSDK_v6.2.1-Full/MotorControl/MCSDK/MCLib/Any/Src/sto_pll_speed_pos_fdbk.c ****     pHandle->_Super.hAvrMecSpeedUnit = (int16_t)wAux;
 724              		.loc 1 459 20 view .LVU323
 725 008c 0D80     		strh	r5, [r1]	@ movhi
 726              	.LVL55:
 460:MCSDK_v6.2.1-Full/MotorControl/MCSDK/MCLib/Any/Src/sto_pll_speed_pos_fdbk.c **** 
 727              		.loc 1 460 5 is_stmt 1 view .LVU324
 460:MCSDK_v6.2.1-Full/MotorControl/MCSDK/MCLib/Any/Src/sto_pll_speed_pos_fdbk.c **** 
 728              		.loc 1 460 38 is_stmt 0 view .LVU325
 729 008e 8581     		strh	r5, [r0, #12]	@ movhi
 462:MCSDK_v6.2.1-Full/MotorControl/MCSDK/MCLib/Any/Src/sto_pll_speed_pos_fdbk.c **** 
 730              		.loc 1 462 5 is_stmt 1 view .LVU326
 448:MCSDK_v6.2.1-Full/MotorControl/MCSDK/MCLib/Any/Src/sto_pll_speed_pos_fdbk.c ****     {
 731              		.loc 1 448 8 is_stmt 0 view .LVU327
 732 0090 80F8F5C0 		strb	ip, [r0, #245]
 465:MCSDK_v6.2.1-Full/MotorControl/MCSDK/MCLib/Any/Src/sto_pll_speed_pos_fdbk.c ****     {
 733              		.loc 1 465 5 is_stmt 1 view .LVU328
 465:MCSDK_v6.2.1-Full/MotorControl/MCSDK/MCLib/Any/Src/sto_pll_speed_pos_fdbk.c ****     {
 734              		.loc 1 465 8 is_stmt 0 view .LVU329
 735 0094 AEB9     		cbnz	r6, .L26
 736              	.LVL56:
 507:MCSDK_v6.2.1-Full/MotorControl/MCSDK/MCLib/Any/Src/sto_pll_speed_pos_fdbk.c ****     {
 737              		.loc 1 507 5 is_stmt 1 view .LVU330
 507:MCSDK_v6.2.1-Full/MotorControl/MCSDK/MCLib/Any/Src/sto_pll_speed_pos_fdbk.c ****     {
 738              		.loc 1 507 8 is_stmt 0 view .LVU331
 739 0096 90F8F830 		ldrb	r3, [r0, #248]	@ zero_extendqisi2
 740              	.LVL57:
 507:MCSDK_v6.2.1-Full/MotorControl/MCSDK/MCLib/Any/Src/sto_pll_speed_pos_fdbk.c ****     {
 741              		.loc 1 507 8 view .LVU332
 742 009a 53B3     		cbz	r3, .L48
 513:MCSDK_v6.2.1-Full/MotorControl/MCSDK/MCLib/Any/Src/sto_pll_speed_pos_fdbk.c ****       {
 743              		.loc 1 513 7 is_stmt 1 view .LVU333
 513:MCSDK_v6.2.1-Full/MotorControl/MCSDK/MCLib/Any/Src/sto_pll_speed_pos_fdbk.c ****       {
 744              		.loc 1 513 10 is_stmt 0 view .LVU334
 745 009c 9442     		cmp	r4, r2
 746 009e 25DC     		bgt	.L28
 747              	.LVL58:
 748              	.L35:
 515:MCSDK_v6.2.1-Full/MotorControl/MCSDK/MCLib/Any/Src/sto_pll_speed_pos_fdbk.c ****         if (pHandle->ReliabilityCounter >= pHandle->Reliability_hysteresys)
 749              		.loc 1 515 9 is_stmt 1 view .LVU335
 515:MCSDK_v6.2.1-Full/MotorControl/MCSDK/MCLib/Any/Src/sto_pll_speed_pos_fdbk.c ****         if (pHandle->ReliabilityCounter >= pHandle->Reliability_hysteresys)
 750              		.loc 1 515 36 is_stmt 0 view .LVU336
 751 00a0 90F8F730 		ldrb	r3, [r0, #247]	@ zero_extendqisi2
 516:MCSDK_v6.2.1-Full/MotorControl/MCSDK/MCLib/Any/Src/sto_pll_speed_pos_fdbk.c ****         {
 752              		.loc 1 516 12 view .LVU337
 753 00a4 90F81721 		ldrb	r2, [r0, #279]	@ zero_extendqisi2
ARM GAS  C:\Users\ep_ygh\AppData\Local\Temp\cc16k1Ab.s 			page 31


 754              	.LVL59:
 515:MCSDK_v6.2.1-Full/MotorControl/MCSDK/MCLib/Any/Src/sto_pll_speed_pos_fdbk.c ****         if (pHandle->ReliabilityCounter >= pHandle->Reliability_hysteresys)
 755              		.loc 1 515 36 view .LVU338
 756 00a8 0133     		adds	r3, r3, #1
 757 00aa DBB2     		uxtb	r3, r3
 516:MCSDK_v6.2.1-Full/MotorControl/MCSDK/MCLib/Any/Src/sto_pll_speed_pos_fdbk.c ****         {
 758              		.loc 1 516 12 view .LVU339
 759 00ac 9A42     		cmp	r2, r3
 515:MCSDK_v6.2.1-Full/MotorControl/MCSDK/MCLib/Any/Src/sto_pll_speed_pos_fdbk.c ****         if (pHandle->ReliabilityCounter >= pHandle->Reliability_hysteresys)
 760              		.loc 1 515 36 view .LVU340
 761 00ae 80F8F730 		strb	r3, [r0, #247]
 516:MCSDK_v6.2.1-Full/MotorControl/MCSDK/MCLib/Any/Src/sto_pll_speed_pos_fdbk.c ****         {
 762              		.loc 1 516 9 is_stmt 1 view .LVU341
 516:MCSDK_v6.2.1-Full/MotorControl/MCSDK/MCLib/Any/Src/sto_pll_speed_pos_fdbk.c ****         {
 763              		.loc 1 516 12 is_stmt 0 view .LVU342
 764 00b2 1ED8     		bhi	.L48
 518:MCSDK_v6.2.1-Full/MotorControl/MCSDK/MCLib/Any/Src/sto_pll_speed_pos_fdbk.c ****           pHandle->_Super.bSpeedErrorNumber = pHandle->_Super.bMaximumSpeedErrorsNumber;
 765              		.loc 1 518 11 is_stmt 1 view .LVU343
 519:MCSDK_v6.2.1-Full/MotorControl/MCSDK/MCLib/Any/Src/sto_pll_speed_pos_fdbk.c ****           bAux = false;
 766              		.loc 1 519 45 is_stmt 0 view .LVU344
 767 00b4 C278     		ldrb	r2, [r0, #3]	@ zero_extendqisi2
 768 00b6 0270     		strb	r2, [r0]
 518:MCSDK_v6.2.1-Full/MotorControl/MCSDK/MCLib/Any/Src/sto_pll_speed_pos_fdbk.c ****           pHandle->_Super.bSpeedErrorNumber = pHandle->_Super.bMaximumSpeedErrorsNumber;
 769              		.loc 1 518 39 view .LVU345
 770 00b8 0023     		movs	r3, #0
 771 00ba 80F8F730 		strb	r3, [r0, #247]
 519:MCSDK_v6.2.1-Full/MotorControl/MCSDK/MCLib/Any/Src/sto_pll_speed_pos_fdbk.c ****           bAux = false;
 772              		.loc 1 519 11 is_stmt 1 view .LVU346
 520:MCSDK_v6.2.1-Full/MotorControl/MCSDK/MCLib/Any/Src/sto_pll_speed_pos_fdbk.c ****         }
 773              		.loc 1 520 11 view .LVU347
 774              	.LVL60:
 536:MCSDK_v6.2.1-Full/MotorControl/MCSDK/MCLib/Any/Src/sto_pll_speed_pos_fdbk.c **** }
 775              		.loc 1 536 3 view .LVU348
 537:MCSDK_v6.2.1-Full/MotorControl/MCSDK/MCLib/Any/Src/sto_pll_speed_pos_fdbk.c **** 
 776              		.loc 1 537 1 is_stmt 0 view .LVU349
 777 00be 1846     		mov	r0, r3
 778              	.LVL61:
 537:MCSDK_v6.2.1-Full/MotorControl/MCSDK/MCLib/Any/Src/sto_pll_speed_pos_fdbk.c **** 
 779              		.loc 1 537 1 view .LVU350
 780 00c0 70BD     		pop	{r4, r5, r6, pc}
 781              	.LVL62:
 782              	.L26:
 469:MCSDK_v6.2.1-Full/MotorControl/MCSDK/MCLib/Any/Src/sto_pll_speed_pos_fdbk.c ****       if (wAux < (int32_t)(pHandle->MaxAppPositiveMecSpeedUnit))
 783              		.loc 1 469 7 is_stmt 1 view .LVU351
 469:MCSDK_v6.2.1-Full/MotorControl/MCSDK/MCLib/Any/Src/sto_pll_speed_pos_fdbk.c ****       if (wAux < (int32_t)(pHandle->MaxAppPositiveMecSpeedUnit))
 784              		.loc 1 469 12 is_stmt 0 view .LVU352
 785 00c2 002B     		cmp	r3, #0
 470:MCSDK_v6.2.1-Full/MotorControl/MCSDK/MCLib/Any/Src/sto_pll_speed_pos_fdbk.c ****       {
 786              		.loc 1 470 18 view .LVU353
 787 00c4 B0F81A51 		ldrh	r5, [r0, #282]
 469:MCSDK_v6.2.1-Full/MotorControl/MCSDK/MCLib/Any/Src/sto_pll_speed_pos_fdbk.c ****       if (wAux < (int32_t)(pHandle->MaxAppPositiveMecSpeedUnit))
 788              		.loc 1 469 12 view .LVU354
 789 00c8 B8BF     		it	lt
 790 00ca 5B42     		rsblt	r3, r3, #0
 791              	.LVL63:
 470:MCSDK_v6.2.1-Full/MotorControl/MCSDK/MCLib/Any/Src/sto_pll_speed_pos_fdbk.c ****       {
 792              		.loc 1 470 7 is_stmt 1 view .LVU355
ARM GAS  C:\Users\ep_ygh\AppData\Local\Temp\cc16k1Ab.s 			page 32


 470:MCSDK_v6.2.1-Full/MotorControl/MCSDK/MCLib/Any/Src/sto_pll_speed_pos_fdbk.c ****       {
 793              		.loc 1 470 10 is_stmt 0 view .LVU356
 794 00cc 9D42     		cmp	r5, r3
 795 00ce 14DC     		bgt	.L49
 416:MCSDK_v6.2.1-Full/MotorControl/MCSDK/MCLib/Any/Src/sto_pll_speed_pos_fdbk.c ****     uint8_t i, bSpeedBufferSizeUnit = pHandle->SpeedBufferSizeUnit;
 796              		.loc 1 416 10 view .LVU357
 797 00d0 0025     		movs	r5, #0
 413:MCSDK_v6.2.1-Full/MotorControl/MCSDK/MCLib/Any/Src/sto_pll_speed_pos_fdbk.c ****     int32_t wEstBemfSqLo;
 798              		.loc 1 413 13 view .LVU358
 799 00d2 2B46     		mov	r3, r5
 800              	.LVL64:
 412:MCSDK_v6.2.1-Full/MotorControl/MCSDK/MCLib/Any/Src/sto_pll_speed_pos_fdbk.c ****     int32_t wEstBemfSq = 0;
 801              		.loc 1 412 13 view .LVU359
 802 00d4 2E46     		mov	r6, r5
 803              	.LVL65:
 804              	.L31:
 494:MCSDK_v6.2.1-Full/MotorControl/MCSDK/MCLib/Any/Src/sto_pll_speed_pos_fdbk.c ****       }
 805              		.loc 1 494 9 is_stmt 1 view .LVU360
 497:MCSDK_v6.2.1-Full/MotorControl/MCSDK/MCLib/Any/Src/sto_pll_speed_pos_fdbk.c ****       pHandle->Obs_Bemf_Level = wObsBemfSq;
 806              		.loc 1 497 7 view .LVU361
 499:MCSDK_v6.2.1-Full/MotorControl/MCSDK/MCLib/Any/Src/sto_pll_speed_pos_fdbk.c ****     }
 807              		.loc 1 499 31 is_stmt 0 view .LVU362
 808 00d6 C0E93F63 		strd	r6, r3, [r0, #252]
 507:MCSDK_v6.2.1-Full/MotorControl/MCSDK/MCLib/Any/Src/sto_pll_speed_pos_fdbk.c ****     {
 809              		.loc 1 507 8 view .LVU363
 810 00da 90F8F830 		ldrb	r3, [r0, #248]	@ zero_extendqisi2
 811              	.LVL66:
 497:MCSDK_v6.2.1-Full/MotorControl/MCSDK/MCLib/Any/Src/sto_pll_speed_pos_fdbk.c ****       pHandle->Obs_Bemf_Level = wObsBemfSq;
 812              		.loc 1 497 33 view .LVU364
 813 00de 80F8F950 		strb	r5, [r0, #249]
 498:MCSDK_v6.2.1-Full/MotorControl/MCSDK/MCLib/Any/Src/sto_pll_speed_pos_fdbk.c ****       pHandle->Est_Bemf_Level = wEstBemfSq;
 814              		.loc 1 498 7 is_stmt 1 view .LVU365
 499:MCSDK_v6.2.1-Full/MotorControl/MCSDK/MCLib/Any/Src/sto_pll_speed_pos_fdbk.c ****     }
 815              		.loc 1 499 7 view .LVU366
 507:MCSDK_v6.2.1-Full/MotorControl/MCSDK/MCLib/Any/Src/sto_pll_speed_pos_fdbk.c ****     {
 816              		.loc 1 507 5 view .LVU367
 507:MCSDK_v6.2.1-Full/MotorControl/MCSDK/MCLib/Any/Src/sto_pll_speed_pos_fdbk.c ****     {
 817              		.loc 1 507 8 is_stmt 0 view .LVU368
 818 00e2 33B1     		cbz	r3, .L48
 513:MCSDK_v6.2.1-Full/MotorControl/MCSDK/MCLib/Any/Src/sto_pll_speed_pos_fdbk.c ****       {
 819              		.loc 1 513 7 is_stmt 1 view .LVU369
 513:MCSDK_v6.2.1-Full/MotorControl/MCSDK/MCLib/Any/Src/sto_pll_speed_pos_fdbk.c ****       {
 820              		.loc 1 513 10 is_stmt 0 view .LVU370
 821 00e4 9442     		cmp	r4, r2
 822 00e6 DBDD     		ble	.L35
 513:MCSDK_v6.2.1-Full/MotorControl/MCSDK/MCLib/Any/Src/sto_pll_speed_pos_fdbk.c ****       {
 823              		.loc 1 513 47 discriminator 1 view .LVU371
 824 00e8 002D     		cmp	r5, #0
 825 00ea D9D0     		beq	.L35
 826              	.LVL67:
 827              	.L28:
 529:MCSDK_v6.2.1-Full/MotorControl/MCSDK/MCLib/Any/Src/sto_pll_speed_pos_fdbk.c ****         bAux = SPD_IsMecSpeedReliable (&pHandle->_Super, pMecSpeedUnit);
 828              		.loc 1 529 9 is_stmt 1 view .LVU372
 529:MCSDK_v6.2.1-Full/MotorControl/MCSDK/MCLib/Any/Src/sto_pll_speed_pos_fdbk.c ****         bAux = SPD_IsMecSpeedReliable (&pHandle->_Super, pMecSpeedUnit);
 829              		.loc 1 529 37 is_stmt 0 view .LVU373
 830 00ec 0023     		movs	r3, #0
 831 00ee 80F8F730 		strb	r3, [r0, #247]
ARM GAS  C:\Users\ep_ygh\AppData\Local\Temp\cc16k1Ab.s 			page 33


 832              	.LVL68:
 833              	.L48:
 530:MCSDK_v6.2.1-Full/MotorControl/MCSDK/MCLib/Any/Src/sto_pll_speed_pos_fdbk.c ****       }
 834              		.loc 1 530 9 is_stmt 1 view .LVU374
 537:MCSDK_v6.2.1-Full/MotorControl/MCSDK/MCLib/Any/Src/sto_pll_speed_pos_fdbk.c **** 
 835              		.loc 1 537 1 is_stmt 0 view .LVU375
 836 00f2 BDE87040 		pop	{r4, r5, r6, lr}
 837              	.LCFI7:
 838              		.cfi_remember_state
 839              		.cfi_restore 14
 840              		.cfi_restore 6
 841              		.cfi_restore 5
 842              		.cfi_restore 4
 843              		.cfi_def_cfa_offset 0
 844              	.LVL69:
 530:MCSDK_v6.2.1-Full/MotorControl/MCSDK/MCLib/Any/Src/sto_pll_speed_pos_fdbk.c ****       }
 845              		.loc 1 530 16 view .LVU376
 846 00f6 FFF7FEBF 		b	SPD_IsMecSpeedReliable
 847              	.LVL70:
 848              	.L49:
 849              	.LCFI8:
 850              		.cfi_restore_state
 473:MCSDK_v6.2.1-Full/MotorControl/MCSDK/MCLib/Any/Src/sto_pll_speed_pos_fdbk.c ****         wObsBemfSq = wObsBemf * wObsBemf;
 851              		.loc 1 473 9 is_stmt 1 view .LVU377
 473:MCSDK_v6.2.1-Full/MotorControl/MCSDK/MCLib/Any/Src/sto_pll_speed_pos_fdbk.c ****         wObsBemfSq = wObsBemf * wObsBemf;
 852              		.loc 1 473 36 is_stmt 0 view .LVU378
 853 00fa B0F97060 		ldrsh	r6, [r0, #112]
 854              	.LVL71:
 474:MCSDK_v6.2.1-Full/MotorControl/MCSDK/MCLib/Any/Src/sto_pll_speed_pos_fdbk.c ****         wObsBemf = (int32_t)pHandle->hBemf_beta_est;
 855              		.loc 1 474 9 is_stmt 1 view .LVU379
 475:MCSDK_v6.2.1-Full/MotorControl/MCSDK/MCLib/Any/Src/sto_pll_speed_pos_fdbk.c ****         wObsBemfSq += wObsBemf * wObsBemf;
 856              		.loc 1 475 36 is_stmt 0 view .LVU380
 857 00fe B0F972C0 		ldrsh	ip, [r0, #114]
 480:MCSDK_v6.2.1-Full/MotorControl/MCSDK/MCLib/Any/Src/sto_pll_speed_pos_fdbk.c ****         wEstBemfSq *= wEstBemf;
 858              		.loc 1 480 35 view .LVU381
 859 0102 90F81951 		ldrb	r5, [r0, #281]	@ zero_extendqisi2
 474:MCSDK_v6.2.1-Full/MotorControl/MCSDK/MCLib/Any/Src/sto_pll_speed_pos_fdbk.c ****         wObsBemf = (int32_t)pHandle->hBemf_beta_est;
 860              		.loc 1 474 20 view .LVU382
 861 0106 06FB06F6 		mul	r6, r6, r6
 862              	.LVL72:
 475:MCSDK_v6.2.1-Full/MotorControl/MCSDK/MCLib/Any/Src/sto_pll_speed_pos_fdbk.c ****         wObsBemfSq += wObsBemf * wObsBemf;
 863              		.loc 1 475 9 is_stmt 1 view .LVU383
 476:MCSDK_v6.2.1-Full/MotorControl/MCSDK/MCLib/Any/Src/sto_pll_speed_pos_fdbk.c **** 
 864              		.loc 1 476 9 view .LVU384
 476:MCSDK_v6.2.1-Full/MotorControl/MCSDK/MCLib/Any/Src/sto_pll_speed_pos_fdbk.c **** 
 865              		.loc 1 476 20 is_stmt 0 view .LVU385
 866 010a 0CFB0C66 		mla	r6, ip, ip, r6
 867              	.LVL73:
 479:MCSDK_v6.2.1-Full/MotorControl/MCSDK/MCLib/Any/Src/sto_pll_speed_pos_fdbk.c ****         wEstBemfSq = (wEstBemf * ((int32_t)pHandle->BemfConsistencyGain)) / 64;
 868              		.loc 1 479 9 is_stmt 1 view .LVU386
 479:MCSDK_v6.2.1-Full/MotorControl/MCSDK/MCLib/Any/Src/sto_pll_speed_pos_fdbk.c ****         wEstBemfSq = (wEstBemf * ((int32_t)pHandle->BemfConsistencyGain)) / 64;
 869              		.loc 1 479 26 is_stmt 0 view .LVU387
 870 010e C3EBC333 		rsb	r3, r3, r3, lsl #15
 871              	.LVL74:
 479:MCSDK_v6.2.1-Full/MotorControl/MCSDK/MCLib/Any/Src/sto_pll_speed_pos_fdbk.c ****         wEstBemfSq = (wEstBemf * ((int32_t)pHandle->BemfConsistencyGain)) / 64;
 872              		.loc 1 479 38 view .LVU388
 873 0112 B0F914C0 		ldrsh	ip, [r0, #20]
ARM GAS  C:\Users\ep_ygh\AppData\Local\Temp\cc16k1Ab.s 			page 34


 874              	.LVL75:
 479:MCSDK_v6.2.1-Full/MotorControl/MCSDK/MCLib/Any/Src/sto_pll_speed_pos_fdbk.c ****         wEstBemfSq = (wEstBemf * ((int32_t)pHandle->BemfConsistencyGain)) / 64;
 875              		.loc 1 479 18 view .LVU389
 876 0116 93FBFCF3 		sdiv	r3, r3, ip
 877              	.LVL76:
 480:MCSDK_v6.2.1-Full/MotorControl/MCSDK/MCLib/Any/Src/sto_pll_speed_pos_fdbk.c ****         wEstBemfSq *= wEstBemf;
 878              		.loc 1 480 9 is_stmt 1 view .LVU390
 480:MCSDK_v6.2.1-Full/MotorControl/MCSDK/MCLib/Any/Src/sto_pll_speed_pos_fdbk.c ****         wEstBemfSq *= wEstBemf;
 879              		.loc 1 480 32 is_stmt 0 view .LVU391
 880 011a 03FB05F5 		mul	r5, r3, r5
 480:MCSDK_v6.2.1-Full/MotorControl/MCSDK/MCLib/Any/Src/sto_pll_speed_pos_fdbk.c ****         wEstBemfSq *= wEstBemf;
 881              		.loc 1 480 20 view .LVU392
 882 011e 002D     		cmp	r5, #0
 883 0120 B8BF     		it	lt
 884 0122 3F35     		addlt	r5, r5, #63
 885 0124 AD11     		asrs	r5, r5, #6
 886              	.LVL77:
 481:MCSDK_v6.2.1-Full/MotorControl/MCSDK/MCLib/Any/Src/sto_pll_speed_pos_fdbk.c **** 
 887              		.loc 1 481 9 is_stmt 1 view .LVU393
 481:MCSDK_v6.2.1-Full/MotorControl/MCSDK/MCLib/Any/Src/sto_pll_speed_pos_fdbk.c **** 
 888              		.loc 1 481 20 is_stmt 0 view .LVU394
 889 0126 05FB03F3 		mul	r3, r5, r3
 890              	.LVL78:
 484:MCSDK_v6.2.1-Full/MotorControl/MCSDK/MCLib/Any/Src/sto_pll_speed_pos_fdbk.c **** 
 891              		.loc 1 484 9 is_stmt 1 view .LVU395
 487:MCSDK_v6.2.1-Full/MotorControl/MCSDK/MCLib/Any/Src/sto_pll_speed_pos_fdbk.c ****         {
 892              		.loc 1 487 9 view .LVU396
 484:MCSDK_v6.2.1-Full/MotorControl/MCSDK/MCLib/Any/Src/sto_pll_speed_pos_fdbk.c **** 
 893              		.loc 1 484 50 is_stmt 0 view .LVU397
 894 012a 002B     		cmp	r3, #0
 895 012c 1D46     		mov	r5, r3
 484:MCSDK_v6.2.1-Full/MotorControl/MCSDK/MCLib/Any/Src/sto_pll_speed_pos_fdbk.c **** 
 896              		.loc 1 484 59 view .LVU398
 897 012e 90F818C1 		ldrb	ip, [r0, #280]	@ zero_extendqisi2
 484:MCSDK_v6.2.1-Full/MotorControl/MCSDK/MCLib/Any/Src/sto_pll_speed_pos_fdbk.c **** 
 898              		.loc 1 484 50 view .LVU399
 899 0132 B8BF     		it	lt
 900 0134 03F13F05 		addlt	r5, r3, #63
 901 0138 AD11     		asrs	r5, r5, #6
 484:MCSDK_v6.2.1-Full/MotorControl/MCSDK/MCLib/Any/Src/sto_pll_speed_pos_fdbk.c **** 
 902              		.loc 1 484 22 view .LVU400
 903 013a 0CFB1535 		mls	r5, ip, r5, r3
 487:MCSDK_v6.2.1-Full/MotorControl/MCSDK/MCLib/Any/Src/sto_pll_speed_pos_fdbk.c ****         {
 904              		.loc 1 487 12 view .LVU401
 905 013e AE42     		cmp	r6, r5
 906 0140 D4BF     		ite	le
 907 0142 0025     		movle	r5, #0
 908 0144 0125     		movgt	r5, #1
 909 0146 C6E7     		b	.L31
 910              	.LVL79:
 911              	.L37:
 419:MCSDK_v6.2.1-Full/MotorControl/MCSDK/MCLib/Any/Src/sto_pll_speed_pos_fdbk.c ****     {
 912              		.loc 1 419 5 view .LVU402
 913 0148 2A46     		mov	r2, r5
 914 014a 2C46     		mov	r4, r5
 915 014c 2E46     		mov	r6, r5
 406:MCSDK_v6.2.1-Full/MotorControl/MCSDK/MCLib/Any/Src/sto_pll_speed_pos_fdbk.c ****     int32_t wError;
ARM GAS  C:\Users\ep_ygh\AppData\Local\Temp\cc16k1Ab.s 			page 35


 916              		.loc 1 406 13 view .LVU403
 917 014e AE46     		mov	lr, r5
 918 0150 7DE7     		b	.L22
 919              		.cfi_endproc
 920              	.LFE1093:
 922 0152 00BF     		.section	.text.STO_PLL_CalcAvrgElSpeedDpp,"ax",%progbits
 923              		.align	1
 924              		.p2align 2,,3
 925              		.weak	STO_PLL_CalcAvrgElSpeedDpp
 926              		.syntax unified
 927              		.thumb
 928              		.thumb_func
 930              	STO_PLL_CalcAvrgElSpeedDpp:
 931              	.LVL80:
 932              	.LFB1094:
 559:MCSDK_v6.2.1-Full/MotorControl/MCSDK/MCLib/Any/Src/sto_pll_speed_pos_fdbk.c **** #ifdef NULL_PTR_CHECK_STO_PLL_SPD_POS_FDB
 933              		.loc 1 559 1 is_stmt 1 view -0
 934              		.cfi_startproc
 935              		@ args = 0, pretend = 0, frame = 0
 936              		@ frame_needed = 0, uses_anonymous_args = 0
 568:MCSDK_v6.2.1-Full/MotorControl/MCSDK/MCLib/Any/Src/sto_pll_speed_pos_fdbk.c ****     int32_t wAvrSpeed_dpp;
 937              		.loc 1 568 5 view .LVU405
 571:MCSDK_v6.2.1-Full/MotorControl/MCSDK/MCLib/Any/Src/sto_pll_speed_pos_fdbk.c ****     int16_t hBufferSizeDiff;
 938              		.loc 1 571 52 is_stmt 0 view .LVU406
 939 0000 90F80E11 		ldrb	r1, [r0, #270]	@ zero_extendqisi2
 577:MCSDK_v6.2.1-Full/MotorControl/MCSDK/MCLib/Any/Src/sto_pll_speed_pos_fdbk.c **** 
 940              		.loc 1 577 44 view .LVU407
 941 0004 90F80F31 		ldrb	r3, [r0, #271]	@ zero_extendqisi2
 573:MCSDK_v6.2.1-Full/MotorControl/MCSDK/MCLib/Any/Src/sto_pll_speed_pos_fdbk.c ****     int16_t hIndexOld;
 942              		.loc 1 573 41 view .LVU408
 943 0008 90F8F420 		ldrb	r2, [r0, #244]	@ zero_extendqisi2
 577:MCSDK_v6.2.1-Full/MotorControl/MCSDK/MCLib/Any/Src/sto_pll_speed_pos_fdbk.c **** 
 944              		.loc 1 577 44 view .LVU409
 945 000c CB1A     		subs	r3, r1, r3
 946 000e 9BB2     		uxth	r3, r3
 559:MCSDK_v6.2.1-Full/MotorControl/MCSDK/MCLib/Any/Src/sto_pll_speed_pos_fdbk.c **** #ifdef NULL_PTR_CHECK_STO_PLL_SPD_POS_FDB
 947              		.loc 1 559 1 view .LVU410
 948 0010 10B5     		push	{r4, lr}
 949              	.LCFI9:
 950              		.cfi_def_cfa_offset 8
 951              		.cfi_offset 4, -8
 952              		.cfi_offset 14, -4
 568:MCSDK_v6.2.1-Full/MotorControl/MCSDK/MCLib/Any/Src/sto_pll_speed_pos_fdbk.c ****     int32_t wAvrSpeed_dpp;
 953              		.loc 1 568 13 view .LVU411
 954 0012 D0F80841 		ldr	r4, [r0, #264]
 955              	.LVL81:
 569:MCSDK_v6.2.1-Full/MotorControl/MCSDK/MCLib/Any/Src/sto_pll_speed_pos_fdbk.c ****     int16_t hSpeedBufferSizedpp = (int16_t)pHandle->SpeedBufferSizeDpp;
 956              		.loc 1 569 5 is_stmt 1 view .LVU412
 570:MCSDK_v6.2.1-Full/MotorControl/MCSDK/MCLib/Any/Src/sto_pll_speed_pos_fdbk.c ****     int16_t hSpeedBufferSizeUnit = (int16_t)pHandle->SpeedBufferSizeUnit;
 957              		.loc 1 570 5 view .LVU413
 571:MCSDK_v6.2.1-Full/MotorControl/MCSDK/MCLib/Any/Src/sto_pll_speed_pos_fdbk.c ****     int16_t hBufferSizeDiff;
 958              		.loc 1 571 5 view .LVU414
 572:MCSDK_v6.2.1-Full/MotorControl/MCSDK/MCLib/Any/Src/sto_pll_speed_pos_fdbk.c ****     int16_t hIndexNew = (int16_t)pHandle->Speed_Buffer_Index;
 959              		.loc 1 572 5 view .LVU415
 573:MCSDK_v6.2.1-Full/MotorControl/MCSDK/MCLib/Any/Src/sto_pll_speed_pos_fdbk.c ****     int16_t hIndexOld;
 960              		.loc 1 573 5 view .LVU416
 574:MCSDK_v6.2.1-Full/MotorControl/MCSDK/MCLib/Any/Src/sto_pll_speed_pos_fdbk.c ****     int16_t hIndexOldTemp;
ARM GAS  C:\Users\ep_ygh\AppData\Local\Temp\cc16k1Ab.s 			page 36


 961              		.loc 1 574 5 view .LVU417
 575:MCSDK_v6.2.1-Full/MotorControl/MCSDK/MCLib/Any/Src/sto_pll_speed_pos_fdbk.c **** 
 962              		.loc 1 575 5 view .LVU418
 577:MCSDK_v6.2.1-Full/MotorControl/MCSDK/MCLib/Any/Src/sto_pll_speed_pos_fdbk.c **** 
 963              		.loc 1 577 5 view .LVU419
 579:MCSDK_v6.2.1-Full/MotorControl/MCSDK/MCLib/Any/Src/sto_pll_speed_pos_fdbk.c ****     {
 964              		.loc 1 579 5 view .LVU420
 579:MCSDK_v6.2.1-Full/MotorControl/MCSDK/MCLib/Any/Src/sto_pll_speed_pos_fdbk.c ****     {
 965              		.loc 1 579 8 is_stmt 0 view .LVU421
 966 0016 73B9     		cbnz	r3, .L51
 581:MCSDK_v6.2.1-Full/MotorControl/MCSDK/MCLib/Any/Src/sto_pll_speed_pos_fdbk.c ****     }
 967              		.loc 1 581 7 is_stmt 1 view .LVU422
 581:MCSDK_v6.2.1-Full/MotorControl/MCSDK/MCLib/Any/Src/sto_pll_speed_pos_fdbk.c ****     }
 968              		.loc 1 581 42 is_stmt 0 view .LVU423
 969 0018 00EB4202 		add	r2, r0, r2, lsl #1
 970              	.LVL82:
 581:MCSDK_v6.2.1-Full/MotorControl/MCSDK/MCLib/Any/Src/sto_pll_speed_pos_fdbk.c ****     }
 971              		.loc 1 581 63 view .LVU424
 972 001c B0F90C11 		ldrsh	r1, [r0, #268]
 973              	.LVL83:
 581:MCSDK_v6.2.1-Full/MotorControl/MCSDK/MCLib/Any/Src/sto_pll_speed_pos_fdbk.c ****     }
 974              		.loc 1 581 42 view .LVU425
 975 0020 B2F97430 		ldrsh	r3, [r2, #116]
 976              	.LVL84:
 581:MCSDK_v6.2.1-Full/MotorControl/MCSDK/MCLib/Any/Src/sto_pll_speed_pos_fdbk.c ****     }
 977              		.loc 1 581 19 view .LVU426
 978 0024 2344     		add	r3, r3, r4
 581:MCSDK_v6.2.1-Full/MotorControl/MCSDK/MCLib/Any/Src/sto_pll_speed_pos_fdbk.c ****     }
 979              		.loc 1 581 12 view .LVU427
 980 0026 5B1A     		subs	r3, r3, r1
 981              	.LVL85:
 982              	.L52:
 601:MCSDK_v6.2.1-Full/MotorControl/MCSDK/MCLib/Any/Src/sto_pll_speed_pos_fdbk.c **** #else
 983              		.loc 1 601 3 is_stmt 1 view .LVU428
 613:MCSDK_v6.2.1-Full/MotorControl/MCSDK/MCLib/Any/Src/sto_pll_speed_pos_fdbk.c ****     pHandle->DppBufferSum = wSum;
 984              		.loc 1 613 5 view .LVU429
 601:MCSDK_v6.2.1-Full/MotorControl/MCSDK/MCLib/Any/Src/sto_pll_speed_pos_fdbk.c **** #else
 985              		.loc 1 601 34 is_stmt 0 view .LVU430
 986 0028 B0F82021 		ldrh	r2, [r0, #288]
 614:MCSDK_v6.2.1-Full/MotorControl/MCSDK/MCLib/Any/Src/sto_pll_speed_pos_fdbk.c **** #ifdef NULL_PTR_CHECK_STO_PLL_SPD_POS_FDB
 987              		.loc 1 614 27 view .LVU431
 988 002c C0F80831 		str	r3, [r0, #264]
 601:MCSDK_v6.2.1-Full/MotorControl/MCSDK/MCLib/Any/Src/sto_pll_speed_pos_fdbk.c **** #else
 989              		.loc 1 601 17 view .LVU432
 990 0030 1341     		asrs	r3, r3, r2
 991              	.LVL86:
 613:MCSDK_v6.2.1-Full/MotorControl/MCSDK/MCLib/Any/Src/sto_pll_speed_pos_fdbk.c ****     pHandle->DppBufferSum = wSum;
 992              		.loc 1 613 35 view .LVU433
 993 0032 C381     		strh	r3, [r0, #14]	@ movhi
 614:MCSDK_v6.2.1-Full/MotorControl/MCSDK/MCLib/Any/Src/sto_pll_speed_pos_fdbk.c **** #ifdef NULL_PTR_CHECK_STO_PLL_SPD_POS_FDB
 994              		.loc 1 614 5 is_stmt 1 view .LVU434
 618:MCSDK_v6.2.1-Full/MotorControl/MCSDK/MCLib/Any/Src/sto_pll_speed_pos_fdbk.c **** 
 995              		.loc 1 618 1 is_stmt 0 view .LVU435
 996 0034 10BD     		pop	{r4, pc}
 997              	.LVL87:
 998              	.L51:
 585:MCSDK_v6.2.1-Full/MotorControl/MCSDK/MCLib/Any/Src/sto_pll_speed_pos_fdbk.c **** 
ARM GAS  C:\Users\ep_ygh\AppData\Local\Temp\cc16k1Ab.s 			page 37


 999              		.loc 1 585 7 is_stmt 1 view .LVU436
 585:MCSDK_v6.2.1-Full/MotorControl/MCSDK/MCLib/Any/Src/sto_pll_speed_pos_fdbk.c **** 
 1000              		.loc 1 585 33 is_stmt 0 view .LVU437
 1001 0036 1344     		add	r3, r3, r2
 1002              	.LVL88:
 585:MCSDK_v6.2.1-Full/MotorControl/MCSDK/MCLib/Any/Src/sto_pll_speed_pos_fdbk.c **** 
 1003              		.loc 1 585 21 view .LVU438
 1004 0038 0FFA83FC 		sxth	ip, r3
 1005              	.LVL89:
 587:MCSDK_v6.2.1-Full/MotorControl/MCSDK/MCLib/Any/Src/sto_pll_speed_pos_fdbk.c ****       {
 1006              		.loc 1 587 7 is_stmt 1 view .LVU439
 587:MCSDK_v6.2.1-Full/MotorControl/MCSDK/MCLib/Any/Src/sto_pll_speed_pos_fdbk.c ****       {
 1007              		.loc 1 587 10 is_stmt 0 view .LVU440
 1008 003c 6145     		cmp	r1, ip
 585:MCSDK_v6.2.1-Full/MotorControl/MCSDK/MCLib/Any/Src/sto_pll_speed_pos_fdbk.c **** 
 1009              		.loc 1 585 33 view .LVU441
 1010 003e 9BB2     		uxth	r3, r3
 587:MCSDK_v6.2.1-Full/MotorControl/MCSDK/MCLib/Any/Src/sto_pll_speed_pos_fdbk.c ****       {
 1011              		.loc 1 587 10 view .LVU442
 1012 0040 05DC     		bgt	.L53
 1013 0042 1FFA81FE 		uxth	lr, r1
 589:MCSDK_v6.2.1-Full/MotorControl/MCSDK/MCLib/Any/Src/sto_pll_speed_pos_fdbk.c ****       }
 1014              		.loc 1 589 9 is_stmt 1 view .LVU443
 589:MCSDK_v6.2.1-Full/MotorControl/MCSDK/MCLib/Any/Src/sto_pll_speed_pos_fdbk.c ****       }
 1015              		.loc 1 589 35 is_stmt 0 view .LVU444
 1016 0046 A3EB0E03 		sub	r3, r3, lr
 589:MCSDK_v6.2.1-Full/MotorControl/MCSDK/MCLib/Any/Src/sto_pll_speed_pos_fdbk.c ****       }
 1017              		.loc 1 589 19 view .LVU445
 1018 004a 0FFA83FC 		sxth	ip, r3
 1019              	.LVL90:
 1020              	.L53:
 596:MCSDK_v6.2.1-Full/MotorControl/MCSDK/MCLib/Any/Src/sto_pll_speed_pos_fdbk.c ****     }
 1021              		.loc 1 596 7 is_stmt 1 view .LVU446
 596:MCSDK_v6.2.1-Full/MotorControl/MCSDK/MCLib/Any/Src/sto_pll_speed_pos_fdbk.c ****     }
 1022              		.loc 1 596 42 is_stmt 0 view .LVU447
 1023 004e 00EB4202 		add	r2, r0, r2, lsl #1
 1024              	.LVL91:
 596:MCSDK_v6.2.1-Full/MotorControl/MCSDK/MCLib/Any/Src/sto_pll_speed_pos_fdbk.c ****     }
 1025              		.loc 1 596 77 view .LVU448
 1026 0052 00EB4C0C 		add	ip, r0, ip, lsl #1
 1027              	.LVL92:
 596:MCSDK_v6.2.1-Full/MotorControl/MCSDK/MCLib/Any/Src/sto_pll_speed_pos_fdbk.c ****     }
 1028              		.loc 1 596 42 view .LVU449
 1029 0056 B2F97430 		ldrsh	r3, [r2, #116]
 596:MCSDK_v6.2.1-Full/MotorControl/MCSDK/MCLib/Any/Src/sto_pll_speed_pos_fdbk.c ****     }
 1030              		.loc 1 596 77 view .LVU450
 1031 005a BCF97420 		ldrsh	r2, [ip, #116]
 596:MCSDK_v6.2.1-Full/MotorControl/MCSDK/MCLib/Any/Src/sto_pll_speed_pos_fdbk.c ****     }
 1032              		.loc 1 596 19 view .LVU451
 1033 005e 2344     		add	r3, r3, r4
 596:MCSDK_v6.2.1-Full/MotorControl/MCSDK/MCLib/Any/Src/sto_pll_speed_pos_fdbk.c ****     }
 1034              		.loc 1 596 12 view .LVU452
 1035 0060 9B1A     		subs	r3, r3, r2
 1036              	.LVL93:
 596:MCSDK_v6.2.1-Full/MotorControl/MCSDK/MCLib/Any/Src/sto_pll_speed_pos_fdbk.c ****     }
 1037              		.loc 1 596 12 view .LVU453
 1038 0062 E1E7     		b	.L52
ARM GAS  C:\Users\ep_ygh\AppData\Local\Temp\cc16k1Ab.s 			page 38


 1039              		.cfi_endproc
 1040              	.LFE1094:
 1042              		.section	.text.STO_PLL_Clear,"ax",%progbits
 1043              		.align	1
 1044              		.p2align 2,,3
 1045              		.weak	STO_PLL_Clear
 1046              		.syntax unified
 1047              		.thumb
 1048              		.thumb_func
 1050              	STO_PLL_Clear:
 1051              	.LVL94:
 1052              	.LFB1095:
 625:MCSDK_v6.2.1-Full/MotorControl/MCSDK/MCLib/Any/Src/sto_pll_speed_pos_fdbk.c **** #ifdef NULL_PTR_CHECK_STO_PLL_SPD_POS_FDB
 1053              		.loc 1 625 1 is_stmt 1 view -0
 1054              		.cfi_startproc
 1055              		@ args = 0, pretend = 0, frame = 0
 1056              		@ frame_needed = 0, uses_anonymous_args = 0
 634:MCSDK_v6.2.1-Full/MotorControl/MCSDK/MCLib/Any/Src/sto_pll_speed_pos_fdbk.c ****     pHandle->Ibeta_est = (int32_t)0;
 1057              		.loc 1 634 5 view .LVU455
 625:MCSDK_v6.2.1-Full/MotorControl/MCSDK/MCLib/Any/Src/sto_pll_speed_pos_fdbk.c **** #ifdef NULL_PTR_CHECK_STO_PLL_SPD_POS_FDB
 1058              		.loc 1 625 1 is_stmt 0 view .LVU456
 1059 0000 10B5     		push	{r4, lr}
 1060              	.LCFI10:
 1061              		.cfi_def_cfa_offset 8
 1062              		.cfi_offset 4, -8
 1063              		.cfi_offset 14, -4
 1064              	.LBB24:
 1065              	.LBB25:
 718:MCSDK_v6.2.1-Full/MotorControl/MCSDK/MCLib/Any/Src/sto_pll_speed_pos_fdbk.c **** }
 719:MCSDK_v6.2.1-Full/MotorControl/MCSDK/MCLib/Any/Src/sto_pll_speed_pos_fdbk.c **** 
 720:MCSDK_v6.2.1-Full/MotorControl/MCSDK/MCLib/Any/Src/sto_pll_speed_pos_fdbk.c **** /**
 721:MCSDK_v6.2.1-Full/MotorControl/MCSDK/MCLib/Any/Src/sto_pll_speed_pos_fdbk.c ****   * @brief  Clears the estimated speed buffer in @p pHandle.
 722:MCSDK_v6.2.1-Full/MotorControl/MCSDK/MCLib/Any/Src/sto_pll_speed_pos_fdbk.c ****   *
 723:MCSDK_v6.2.1-Full/MotorControl/MCSDK/MCLib/Any/Src/sto_pll_speed_pos_fdbk.c ****   */
 724:MCSDK_v6.2.1-Full/MotorControl/MCSDK/MCLib/Any/Src/sto_pll_speed_pos_fdbk.c **** static void STO_InitSpeedBuffer(STO_PLL_Handle_t * pHandle)
 725:MCSDK_v6.2.1-Full/MotorControl/MCSDK/MCLib/Any/Src/sto_pll_speed_pos_fdbk.c **** {
 726:MCSDK_v6.2.1-Full/MotorControl/MCSDK/MCLib/Any/Src/sto_pll_speed_pos_fdbk.c ****   uint8_t b_i;
 727:MCSDK_v6.2.1-Full/MotorControl/MCSDK/MCLib/Any/Src/sto_pll_speed_pos_fdbk.c ****   uint8_t bSpeedBufferSize = pHandle->SpeedBufferSizeUnit;
 1066              		.loc 1 727 11 view .LVU457
 1067 0002 90F80E21 		ldrb	r2, [r0, #270]	@ zero_extendqisi2
 1068              	.LBE25:
 1069              	.LBE24:
 634:MCSDK_v6.2.1-Full/MotorControl/MCSDK/MCLib/Any/Src/sto_pll_speed_pos_fdbk.c ****     pHandle->Ibeta_est = (int32_t)0;
 1070              		.loc 1 634 24 view .LVU458
 1071 0006 0021     		movs	r1, #0
 635:MCSDK_v6.2.1-Full/MotorControl/MCSDK/MCLib/Any/Src/sto_pll_speed_pos_fdbk.c ****     pHandle->wBemf_alfa_est = (int32_t)0;
 1072              		.loc 1 635 24 view .LVU459
 1073 0008 C0E91811 		strd	r1, r1, [r0, #96]
 636:MCSDK_v6.2.1-Full/MotorControl/MCSDK/MCLib/Any/Src/sto_pll_speed_pos_fdbk.c ****     pHandle->wBemf_beta_est = (int32_t)0;
 1074              		.loc 1 636 5 is_stmt 1 view .LVU460
 637:MCSDK_v6.2.1-Full/MotorControl/MCSDK/MCLib/Any/Src/sto_pll_speed_pos_fdbk.c ****     pHandle->_Super.hElAngle = (int16_t)0;
 1075              		.loc 1 637 29 is_stmt 0 view .LVU461
 1076 000c C0E91A11 		strd	r1, r1, [r0, #104]
 638:MCSDK_v6.2.1-Full/MotorControl/MCSDK/MCLib/Any/Src/sto_pll_speed_pos_fdbk.c ****     pHandle->_Super.hElSpeedDpp = (int16_t)0;
 1077              		.loc 1 638 5 is_stmt 1 view .LVU462
 645:MCSDK_v6.2.1-Full/MotorControl/MCSDK/MCLib/Any/Src/sto_pll_speed_pos_fdbk.c ****     pHandle->DppBufferSum = (int32_t)0;
 1078              		.loc 1 645 29 is_stmt 0 view .LVU463
ARM GAS  C:\Users\ep_ygh\AppData\Local\Temp\cc16k1Ab.s 			page 39


 1079 0010 C0E93F11 		strd	r1, r1, [r0, #252]
 625:MCSDK_v6.2.1-Full/MotorControl/MCSDK/MCLib/Any/Src/sto_pll_speed_pos_fdbk.c **** #ifdef NULL_PTR_CHECK_STO_PLL_SPD_POS_FDB
 1080              		.loc 1 625 1 view .LVU464
 1081 0014 0446     		mov	r4, r0
 638:MCSDK_v6.2.1-Full/MotorControl/MCSDK/MCLib/Any/Src/sto_pll_speed_pos_fdbk.c ****     pHandle->_Super.hElSpeedDpp = (int16_t)0;
 1082              		.loc 1 638 30 view .LVU465
 1083 0016 8180     		strh	r1, [r0, #4]	@ movhi
 639:MCSDK_v6.2.1-Full/MotorControl/MCSDK/MCLib/Any/Src/sto_pll_speed_pos_fdbk.c ****     pHandle->ConsistencyCounter = 0u;
 1084              		.loc 1 639 5 is_stmt 1 view .LVU466
 639:MCSDK_v6.2.1-Full/MotorControl/MCSDK/MCLib/Any/Src/sto_pll_speed_pos_fdbk.c ****     pHandle->ConsistencyCounter = 0u;
 1085              		.loc 1 639 33 is_stmt 0 view .LVU467
 1086 0018 C181     		strh	r1, [r0, #14]	@ movhi
 640:MCSDK_v6.2.1-Full/MotorControl/MCSDK/MCLib/Any/Src/sto_pll_speed_pos_fdbk.c ****     pHandle->ReliabilityCounter = 0u;
 1087              		.loc 1 640 5 is_stmt 1 view .LVU468
 641:MCSDK_v6.2.1-Full/MotorControl/MCSDK/MCLib/Any/Src/sto_pll_speed_pos_fdbk.c ****     pHandle->IsAlgorithmConverged = false;
 1088              		.loc 1 641 5 view .LVU469
 640:MCSDK_v6.2.1-Full/MotorControl/MCSDK/MCLib/Any/Src/sto_pll_speed_pos_fdbk.c ****     pHandle->ReliabilityCounter = 0u;
 1089              		.loc 1 640 33 is_stmt 0 view .LVU470
 1090 001a A0F8F610 		strh	r1, [r0, #246]	@ movhi
 642:MCSDK_v6.2.1-Full/MotorControl/MCSDK/MCLib/Any/Src/sto_pll_speed_pos_fdbk.c ****     pHandle->IsBemfConsistent = false;
 1091              		.loc 1 642 5 is_stmt 1 view .LVU471
 643:MCSDK_v6.2.1-Full/MotorControl/MCSDK/MCLib/Any/Src/sto_pll_speed_pos_fdbk.c ****     pHandle->Obs_Bemf_Level = (int32_t)0;
 1092              		.loc 1 643 5 view .LVU472
 642:MCSDK_v6.2.1-Full/MotorControl/MCSDK/MCLib/Any/Src/sto_pll_speed_pos_fdbk.c ****     pHandle->IsBemfConsistent = false;
 1093              		.loc 1 642 35 is_stmt 0 view .LVU473
 1094 001e A0F8F810 		strh	r1, [r0, #248]	@ movhi
 644:MCSDK_v6.2.1-Full/MotorControl/MCSDK/MCLib/Any/Src/sto_pll_speed_pos_fdbk.c ****     pHandle->Est_Bemf_Level = (int32_t)0;
 1095              		.loc 1 644 5 is_stmt 1 view .LVU474
 646:MCSDK_v6.2.1-Full/MotorControl/MCSDK/MCLib/Any/Src/sto_pll_speed_pos_fdbk.c ****     pHandle->ForceConvergency = false;
 1096              		.loc 1 646 5 view .LVU475
 646:MCSDK_v6.2.1-Full/MotorControl/MCSDK/MCLib/Any/Src/sto_pll_speed_pos_fdbk.c ****     pHandle->ForceConvergency = false;
 1097              		.loc 1 646 27 is_stmt 0 view .LVU476
 1098 0022 C0F80811 		str	r1, [r0, #264]
 647:MCSDK_v6.2.1-Full/MotorControl/MCSDK/MCLib/Any/Src/sto_pll_speed_pos_fdbk.c ****     pHandle->ForceConvergency2 = false;
 1099              		.loc 1 647 5 is_stmt 1 view .LVU477
 648:MCSDK_v6.2.1-Full/MotorControl/MCSDK/MCLib/Any/Src/sto_pll_speed_pos_fdbk.c **** 
 1100              		.loc 1 648 5 view .LVU478
 647:MCSDK_v6.2.1-Full/MotorControl/MCSDK/MCLib/Any/Src/sto_pll_speed_pos_fdbk.c ****     pHandle->ForceConvergency2 = false;
 1101              		.loc 1 647 31 is_stmt 0 view .LVU479
 1102 0026 A0F82211 		strh	r1, [r0, #290]	@ movhi
 650:MCSDK_v6.2.1-Full/MotorControl/MCSDK/MCLib/Any/Src/sto_pll_speed_pos_fdbk.c ****     PID_SetIntegralTerm(& pHandle->PIRegulator, (int32_t)0);
 1103              		.loc 1 650 5 is_stmt 1 view .LVU480
 1104              	.LVL95:
 1105              	.LBB27:
 1106              	.LBI24:
 724:MCSDK_v6.2.1-Full/MotorControl/MCSDK/MCLib/Any/Src/sto_pll_speed_pos_fdbk.c **** {
 1107              		.loc 1 724 13 view .LVU481
 1108              	.LBB26:
 726:MCSDK_v6.2.1-Full/MotorControl/MCSDK/MCLib/Any/Src/sto_pll_speed_pos_fdbk.c ****   uint8_t bSpeedBufferSize = pHandle->SpeedBufferSizeUnit;
 1109              		.loc 1 726 3 view .LVU482
 1110              		.loc 1 727 3 view .LVU483
 728:MCSDK_v6.2.1-Full/MotorControl/MCSDK/MCLib/Any/Src/sto_pll_speed_pos_fdbk.c **** 
 729:MCSDK_v6.2.1-Full/MotorControl/MCSDK/MCLib/Any/Src/sto_pll_speed_pos_fdbk.c ****   /* Init speed buffer */
 730:MCSDK_v6.2.1-Full/MotorControl/MCSDK/MCLib/Any/Src/sto_pll_speed_pos_fdbk.c ****   for (b_i = 0U; b_i < bSpeedBufferSize; b_i++)
 1111              		.loc 1 730 3 view .LVU484
 1112              		.loc 1 730 18 view .LVU485
 1113              		.loc 1 730 3 is_stmt 0 view .LVU486
ARM GAS  C:\Users\ep_ygh\AppData\Local\Temp\cc16k1Ab.s 			page 40


 1114 002a 1AB1     		cbz	r2, .L56
 731:MCSDK_v6.2.1-Full/MotorControl/MCSDK/MCLib/Any/Src/sto_pll_speed_pos_fdbk.c ****   {
 732:MCSDK_v6.2.1-Full/MotorControl/MCSDK/MCLib/Any/Src/sto_pll_speed_pos_fdbk.c ****     pHandle->Speed_Buffer[b_i] = (int16_t)0;
 1115              		.loc 1 732 32 view .LVU487
 1116 002c 5200     		lsls	r2, r2, #1
 1117              	.LVL96:
 1118              		.loc 1 732 32 view .LVU488
 1119 002e 7430     		adds	r0, r0, #116
 1120              	.LVL97:
 1121              		.loc 1 732 32 view .LVU489
 1122 0030 FFF7FEFF 		bl	memset
 1123              	.LVL98:
 1124              	.L56:
 733:MCSDK_v6.2.1-Full/MotorControl/MCSDK/MCLib/Any/Src/sto_pll_speed_pos_fdbk.c ****   }
 734:MCSDK_v6.2.1-Full/MotorControl/MCSDK/MCLib/Any/Src/sto_pll_speed_pos_fdbk.c ****   pHandle->Speed_Buffer_Index = 0U;
 1125              		.loc 1 734 3 is_stmt 1 view .LVU490
 1126              		.loc 1 734 31 is_stmt 0 view .LVU491
 1127 0034 0021     		movs	r1, #0
 1128 0036 84F8F410 		strb	r1, [r4, #244]
 735:MCSDK_v6.2.1-Full/MotorControl/MCSDK/MCLib/Any/Src/sto_pll_speed_pos_fdbk.c ****   pHandle->SpeedBufferOldestEl = (int16_t)0;
 1129              		.loc 1 735 3 is_stmt 1 view .LVU492
 1130              		.loc 1 735 32 is_stmt 0 view .LVU493
 1131 003a A4F80C11 		strh	r1, [r4, #268]	@ movhi
 1132              	.LVL99:
 1133              		.loc 1 735 32 view .LVU494
 1134              	.LBE26:
 1135              	.LBE27:
 651:MCSDK_v6.2.1-Full/MotorControl/MCSDK/MCLib/Any/Src/sto_pll_speed_pos_fdbk.c **** #ifdef NULL_PTR_CHECK_STO_PLL_SPD_POS_FDB
 1136              		.loc 1 651 5 is_stmt 1 view .LVU495
 1137 003e 04F13400 		add	r0, r4, #52
 655:MCSDK_v6.2.1-Full/MotorControl/MCSDK/MCLib/Any/Src/sto_pll_speed_pos_fdbk.c **** 
 1138              		.loc 1 655 1 is_stmt 0 view .LVU496
 1139 0042 BDE81040 		pop	{r4, lr}
 1140              	.LCFI11:
 1141              		.cfi_restore 14
 1142              		.cfi_restore 4
 1143              		.cfi_def_cfa_offset 0
 1144              	.LVL100:
 651:MCSDK_v6.2.1-Full/MotorControl/MCSDK/MCLib/Any/Src/sto_pll_speed_pos_fdbk.c **** #ifdef NULL_PTR_CHECK_STO_PLL_SPD_POS_FDB
 1145              		.loc 1 651 5 view .LVU497
 1146 0046 FFF7FEBF 		b	PID_SetIntegralTerm
 1147              	.LVL101:
 651:MCSDK_v6.2.1-Full/MotorControl/MCSDK/MCLib/Any/Src/sto_pll_speed_pos_fdbk.c **** #ifdef NULL_PTR_CHECK_STO_PLL_SPD_POS_FDB
 1148              		.loc 1 651 5 view .LVU498
 1149              		.cfi_endproc
 1150              	.LFE1095:
 1152 004a 00BF     		.section	.text.STO_PLL_Init,"ax",%progbits
 1153              		.align	1
 1154              		.p2align 2,,3
 1155              		.weak	STO_PLL_Init
 1156              		.syntax unified
 1157              		.thumb
 1158              		.thumb_func
 1160              	STO_PLL_Init:
 1161              	.LVL102:
 1162              	.LFB1090:
  64:MCSDK_v6.2.1-Full/MotorControl/MCSDK/MCLib/Any/Src/sto_pll_speed_pos_fdbk.c **** #ifdef NULL_PTR_CHECK_STO_PLL_SPD_POS_FDB
ARM GAS  C:\Users\ep_ygh\AppData\Local\Temp\cc16k1Ab.s 			page 41


 1163              		.loc 1 64 1 is_stmt 1 view -0
 1164              		.cfi_startproc
 1165              		@ args = 0, pretend = 0, frame = 0
 1166              		@ frame_needed = 0, uses_anonymous_args = 0
  73:MCSDK_v6.2.1-Full/MotorControl/MCSDK/MCLib/Any/Src/sto_pll_speed_pos_fdbk.c ****     int32_t wAux;
 1167              		.loc 1 73 5 view .LVU500
  74:MCSDK_v6.2.1-Full/MotorControl/MCSDK/MCLib/Any/Src/sto_pll_speed_pos_fdbk.c **** 
 1168              		.loc 1 74 5 view .LVU501
  76:MCSDK_v6.2.1-Full/MotorControl/MCSDK/MCLib/Any/Src/sto_pll_speed_pos_fdbk.c ****     pHandle->EnableDualCheck = true;
 1169              		.loc 1 76 5 view .LVU502
  64:MCSDK_v6.2.1-Full/MotorControl/MCSDK/MCLib/Any/Src/sto_pll_speed_pos_fdbk.c **** #ifdef NULL_PTR_CHECK_STO_PLL_SPD_POS_FDB
 1170              		.loc 1 64 1 is_stmt 0 view .LVU503
 1171 0000 10B5     		push	{r4, lr}
 1172              	.LCFI12:
 1173              		.cfi_def_cfa_offset 8
 1174              		.cfi_offset 4, -8
 1175              		.cfi_offset 14, -4
  76:MCSDK_v6.2.1-Full/MotorControl/MCSDK/MCLib/Any/Src/sto_pll_speed_pos_fdbk.c ****     pHandle->EnableDualCheck = true;
 1176              		.loc 1 76 33 view .LVU504
 1177 0002 90F81611 		ldrb	r1, [r0, #278]	@ zero_extendqisi2
  82:MCSDK_v6.2.1-Full/MotorControl/MCSDK/MCLib/Any/Src/sto_pll_speed_pos_fdbk.c **** 
 1178              		.loc 1 82 39 view .LVU505
 1179 0006 194B     		ldr	r3, .L68
  82:MCSDK_v6.2.1-Full/MotorControl/MCSDK/MCLib/Any/Src/sto_pll_speed_pos_fdbk.c **** 
 1180              		.loc 1 82 48 view .LVU506
 1181 0008 B0F92EE0 		ldrsh	lr, [r0, #46]
  76:MCSDK_v6.2.1-Full/MotorControl/MCSDK/MCLib/Any/Src/sto_pll_speed_pos_fdbk.c ****     pHandle->EnableDualCheck = true;
 1182              		.loc 1 76 33 view .LVU507
 1183 000c 80F8F610 		strb	r1, [r0, #246]
  77:MCSDK_v6.2.1-Full/MotorControl/MCSDK/MCLib/Any/Src/sto_pll_speed_pos_fdbk.c **** 
 1184              		.loc 1 77 5 is_stmt 1 view .LVU508
  77:MCSDK_v6.2.1-Full/MotorControl/MCSDK/MCLib/Any/Src/sto_pll_speed_pos_fdbk.c **** 
 1185              		.loc 1 77 30 is_stmt 0 view .LVU509
 1186 0010 0122     		movs	r2, #1
  80:MCSDK_v6.2.1-Full/MotorControl/MCSDK/MCLib/Any/Src/sto_pll_speed_pos_fdbk.c **** 
 1187              		.loc 1 80 21 view .LVU510
 1188 0012 0021     		movs	r1, #0
  82:MCSDK_v6.2.1-Full/MotorControl/MCSDK/MCLib/Any/Src/sto_pll_speed_pos_fdbk.c **** 
 1189              		.loc 1 82 39 view .LVU511
 1190 0014 93FBFEF3 		sdiv	r3, r3, lr
  82:MCSDK_v6.2.1-Full/MotorControl/MCSDK/MCLib/Any/Src/sto_pll_speed_pos_fdbk.c **** 
 1191              		.loc 1 82 12 view .LVU512
 1192 0018 1BB2     		sxth	r3, r3
  64:MCSDK_v6.2.1-Full/MotorControl/MCSDK/MCLib/Any/Src/sto_pll_speed_pos_fdbk.c **** #ifdef NULL_PTR_CHECK_STO_PLL_SPD_POS_FDB
 1193              		.loc 1 64 1 view .LVU513
 1194 001a 0446     		mov	r4, r0
  77:MCSDK_v6.2.1-Full/MotorControl/MCSDK/MCLib/Any/Src/sto_pll_speed_pos_fdbk.c **** 
 1195              		.loc 1 77 30 view .LVU514
 1196 001c 80F80421 		strb	r2, [r0, #260]
  79:MCSDK_v6.2.1-Full/MotorControl/MCSDK/MCLib/Any/Src/sto_pll_speed_pos_fdbk.c ****     pHandle->F3POW2 = 0U;
 1197              		.loc 1 79 5 is_stmt 1 view .LVU515
 1198              	.LVL103:
  80:MCSDK_v6.2.1-Full/MotorControl/MCSDK/MCLib/Any/Src/sto_pll_speed_pos_fdbk.c **** 
 1199              		.loc 1 80 5 view .LVU516
  80:MCSDK_v6.2.1-Full/MotorControl/MCSDK/MCLib/Any/Src/sto_pll_speed_pos_fdbk.c **** 
 1200              		.loc 1 80 21 is_stmt 0 view .LVU517
 1201 0020 4186     		strh	r1, [r0, #50]	@ movhi
ARM GAS  C:\Users\ep_ygh\AppData\Local\Temp\cc16k1Ab.s 			page 42


  82:MCSDK_v6.2.1-Full/MotorControl/MCSDK/MCLib/Any/Src/sto_pll_speed_pos_fdbk.c **** 
 1202              		.loc 1 82 5 is_stmt 1 view .LVU518
 1203              	.LVL104:
  84:MCSDK_v6.2.1-Full/MotorControl/MCSDK/MCLib/Any/Src/sto_pll_speed_pos_fdbk.c ****     {
 1204              		.loc 1 84 5 view .LVU519
  84:MCSDK_v6.2.1-Full/MotorControl/MCSDK/MCLib/Any/Src/sto_pll_speed_pos_fdbk.c ****     {
 1205              		.loc 1 84 11 view .LVU520
 1206 0022 0BB3     		cbz	r3, .L66
  79:MCSDK_v6.2.1-Full/MotorControl/MCSDK/MCLib/Any/Src/sto_pll_speed_pos_fdbk.c ****     pHandle->F3POW2 = 0U;
 1207              		.loc 1 79 10 is_stmt 0 view .LVU521
 1208 0024 1146     		mov	r1, r2
 1209              	.LVL105:
 1210              	.L63:
  86:MCSDK_v6.2.1-Full/MotorControl/MCSDK/MCLib/Any/Src/sto_pll_speed_pos_fdbk.c ****       wAux *= ((int32_t)2);
 1211              		.loc 1 86 7 is_stmt 1 view .LVU522
  86:MCSDK_v6.2.1-Full/MotorControl/MCSDK/MCLib/Any/Src/sto_pll_speed_pos_fdbk.c ****       wAux *= ((int32_t)2);
 1212              		.loc 1 86 14 is_stmt 0 view .LVU523
 1213 0026 03EBD373 		add	r3, r3, r3, lsr #31
 1214              	.LVL106:
  87:MCSDK_v6.2.1-Full/MotorControl/MCSDK/MCLib/Any/Src/sto_pll_speed_pos_fdbk.c ****       pHandle->F3POW2++;
 1215              		.loc 1 87 7 is_stmt 1 view .LVU524
  84:MCSDK_v6.2.1-Full/MotorControl/MCSDK/MCLib/Any/Src/sto_pll_speed_pos_fdbk.c ****     {
 1216              		.loc 1 84 11 is_stmt 0 view .LVU525
 1217 002a 02F1010C 		add	ip, r2, #1
 1218 002e 5B10     		asrs	r3, r3, #1
 1219              	.LVL107:
  84:MCSDK_v6.2.1-Full/MotorControl/MCSDK/MCLib/Any/Src/sto_pll_speed_pos_fdbk.c ****     {
 1220              		.loc 1 84 11 view .LVU526
 1221 0030 1046     		mov	r0, r2
  87:MCSDK_v6.2.1-Full/MotorControl/MCSDK/MCLib/Any/Src/sto_pll_speed_pos_fdbk.c ****       pHandle->F3POW2++;
 1222              		.loc 1 87 12 view .LVU527
 1223 0032 4FEA4101 		lsl	r1, r1, #1
 1224              	.LVL108:
  88:MCSDK_v6.2.1-Full/MotorControl/MCSDK/MCLib/Any/Src/sto_pll_speed_pos_fdbk.c ****     }
 1225              		.loc 1 88 7 is_stmt 1 view .LVU528
  84:MCSDK_v6.2.1-Full/MotorControl/MCSDK/MCLib/Any/Src/sto_pll_speed_pos_fdbk.c ****     {
 1226              		.loc 1 84 11 view .LVU529
 1227 0036 1FFA8CF2 		uxth	r2, ip
 1228 003a F4D1     		bne	.L63
  91:MCSDK_v6.2.1-Full/MotorControl/MCSDK/MCLib/Any/Src/sto_pll_speed_pos_fdbk.c ****     wAux = ((int32_t)(pHandle->hF2)) * pHandle->hF3;
 1229              		.loc 1 91 20 is_stmt 0 view .LVU530
 1230 003c 0AB2     		sxth	r2, r1
 1231 003e 6086     		strh	r0, [r4, #50]	@ movhi
  92:MCSDK_v6.2.1-Full/MotorControl/MCSDK/MCLib/Any/Src/sto_pll_speed_pos_fdbk.c ****     pHandle->hC6 = (int16_t)(wAux / C6_COMP_CONST2);
 1232              		.loc 1 92 10 view .LVU531
 1233 0040 0EFB02F1 		mul	r1, lr, r2
 1234              	.LVL109:
 1235              	.L62:
  91:MCSDK_v6.2.1-Full/MotorControl/MCSDK/MCLib/Any/Src/sto_pll_speed_pos_fdbk.c ****     wAux = ((int32_t)(pHandle->hF2)) * pHandle->hF3;
 1236              		.loc 1 91 5 is_stmt 1 view .LVU532
  93:MCSDK_v6.2.1-Full/MotorControl/MCSDK/MCLib/Any/Src/sto_pll_speed_pos_fdbk.c **** 
 1237              		.loc 1 93 35 is_stmt 0 view .LVU533
 1238 0044 0A48     		ldr	r0, .L68+4
  91:MCSDK_v6.2.1-Full/MotorControl/MCSDK/MCLib/Any/Src/sto_pll_speed_pos_fdbk.c ****     wAux = ((int32_t)(pHandle->hF2)) * pHandle->hF3;
 1239              		.loc 1 91 18 view .LVU534
 1240 0046 2286     		strh	r2, [r4, #48]	@ movhi
  93:MCSDK_v6.2.1-Full/MotorControl/MCSDK/MCLib/Any/Src/sto_pll_speed_pos_fdbk.c **** 
ARM GAS  C:\Users\ep_ygh\AppData\Local\Temp\cc16k1Ab.s 			page 43


 1241              		.loc 1 93 35 view .LVU535
 1242 0048 CB17     		asrs	r3, r1, #31
  92:MCSDK_v6.2.1-Full/MotorControl/MCSDK/MCLib/Any/Src/sto_pll_speed_pos_fdbk.c ****     pHandle->hC6 = (int16_t)(wAux / C6_COMP_CONST2);
 1243              		.loc 1 92 5 is_stmt 1 view .LVU536
  93:MCSDK_v6.2.1-Full/MotorControl/MCSDK/MCLib/Any/Src/sto_pll_speed_pos_fdbk.c **** 
 1244              		.loc 1 93 5 view .LVU537
  93:MCSDK_v6.2.1-Full/MotorControl/MCSDK/MCLib/Any/Src/sto_pll_speed_pos_fdbk.c **** 
 1245              		.loc 1 93 35 is_stmt 0 view .LVU538
 1246 004a 80FB0101 		smull	r0, r1, r0, r1
  93:MCSDK_v6.2.1-Full/MotorControl/MCSDK/MCLib/Any/Src/sto_pll_speed_pos_fdbk.c **** 
 1247              		.loc 1 93 35 view .LVU539
 1248 004e C3EB2121 		rsb	r1, r3, r1, asr #8
  95:MCSDK_v6.2.1-Full/MotorControl/MCSDK/MCLib/Any/Src/sto_pll_speed_pos_fdbk.c **** 
 1249              		.loc 1 95 5 view .LVU540
 1250 0052 2046     		mov	r0, r4
  93:MCSDK_v6.2.1-Full/MotorControl/MCSDK/MCLib/Any/Src/sto_pll_speed_pos_fdbk.c **** 
 1251              		.loc 1 93 20 view .LVU541
 1252 0054 6185     		strh	r1, [r4, #42]	@ movhi
  95:MCSDK_v6.2.1-Full/MotorControl/MCSDK/MCLib/Any/Src/sto_pll_speed_pos_fdbk.c **** 
 1253              		.loc 1 95 5 is_stmt 1 view .LVU542
 1254 0056 FFF7FEFF 		bl	STO_PLL_Clear
 1255              	.LVL110:
  97:MCSDK_v6.2.1-Full/MotorControl/MCSDK/MCLib/Any/Src/sto_pll_speed_pos_fdbk.c **** 
 1256              		.loc 1 97 5 view .LVU543
 1257 005a 04F13400 		add	r0, r4, #52
 1258 005e FFF7FEFF 		bl	PID_HandleInit
 1259              	.LVL111:
 100:MCSDK_v6.2.1-Full/MotorControl/MCSDK/MCLib/Any/Src/sto_pll_speed_pos_fdbk.c **** #ifdef NULL_PTR_CHECK_STO_PLL_SPD_POS_FDB
 1260              		.loc 1 100 5 view .LVU544
 100:MCSDK_v6.2.1-Full/MotorControl/MCSDK/MCLib/Any/Src/sto_pll_speed_pos_fdbk.c **** #ifdef NULL_PTR_CHECK_STO_PLL_SPD_POS_FDB
 1261              		.loc 1 100 36 is_stmt 0 view .LVU545
 1262 0062 0023     		movs	r3, #0
 1263 0064 6382     		strh	r3, [r4, #18]	@ movhi
 104:MCSDK_v6.2.1-Full/MotorControl/MCSDK/MCLib/Any/Src/sto_pll_speed_pos_fdbk.c **** }
 1264              		.loc 1 104 3 is_stmt 1 view .LVU546
 105:MCSDK_v6.2.1-Full/MotorControl/MCSDK/MCLib/Any/Src/sto_pll_speed_pos_fdbk.c **** 
 1265              		.loc 1 105 1 is_stmt 0 view .LVU547
 1266 0066 10BD     		pop	{r4, pc}
 1267              	.LVL112:
 1268              	.L66:
 105:MCSDK_v6.2.1-Full/MotorControl/MCSDK/MCLib/Any/Src/sto_pll_speed_pos_fdbk.c **** 
 1269              		.loc 1 105 1 view .LVU548
 1270 0068 7146     		mov	r1, lr
 1271 006a EBE7     		b	.L62
 1272              	.L69:
 1273              		.align	2
 1274              	.L68:
 1275 006c 5EEA0F00 		.word	1043038
 1276 0070 C58D4806 		.word	105418181
 1277              		.cfi_endproc
 1278              	.LFE1090:
 1280              		.section	.text.STO_PLL_IsObserverConverged,"ax",%progbits
 1281              		.align	1
 1282              		.p2align 2,,3
 1283              		.weak	STO_PLL_IsObserverConverged
 1284              		.syntax unified
 1285              		.thumb
ARM GAS  C:\Users\ep_ygh\AppData\Local\Temp\cc16k1Ab.s 			page 44


 1286              		.thumb_func
 1288              	STO_PLL_IsObserverConverged:
 1289              	.LVL113:
 1290              	.LFB1099:
 736:MCSDK_v6.2.1-Full/MotorControl/MCSDK/MCLib/Any/Src/sto_pll_speed_pos_fdbk.c **** }
 737:MCSDK_v6.2.1-Full/MotorControl/MCSDK/MCLib/Any/Src/sto_pll_speed_pos_fdbk.c **** 
 738:MCSDK_v6.2.1-Full/MotorControl/MCSDK/MCLib/Any/Src/sto_pll_speed_pos_fdbk.c **** /**
 739:MCSDK_v6.2.1-Full/MotorControl/MCSDK/MCLib/Any/Src/sto_pll_speed_pos_fdbk.c ****   * @brief  Checks if the state observer algorithm converged.
 740:MCSDK_v6.2.1-Full/MotorControl/MCSDK/MCLib/Any/Src/sto_pll_speed_pos_fdbk.c ****   * 
 741:MCSDK_v6.2.1-Full/MotorControl/MCSDK/MCLib/Any/Src/sto_pll_speed_pos_fdbk.c ****   * Internally performs a set of checks necessary to state whether
 742:MCSDK_v6.2.1-Full/MotorControl/MCSDK/MCLib/Any/Src/sto_pll_speed_pos_fdbk.c ****   * the state observer algorithm converged. To be periodically called
 743:MCSDK_v6.2.1-Full/MotorControl/MCSDK/MCLib/Any/Src/sto_pll_speed_pos_fdbk.c ****   * during motor open-loop ramp-up (e.g. at the same frequency of
 744:MCSDK_v6.2.1-Full/MotorControl/MCSDK/MCLib/Any/Src/sto_pll_speed_pos_fdbk.c ****   * SPD_CalcElAngle), it returns true if the estimated angle and speed
 745:MCSDK_v6.2.1-Full/MotorControl/MCSDK/MCLib/Any/Src/sto_pll_speed_pos_fdbk.c ****   * can be considered reliable, false otherwise.
 746:MCSDK_v6.2.1-Full/MotorControl/MCSDK/MCLib/Any/Src/sto_pll_speed_pos_fdbk.c ****   * 
 747:MCSDK_v6.2.1-Full/MotorControl/MCSDK/MCLib/Any/Src/sto_pll_speed_pos_fdbk.c ****   * @param  pHandle: Handler of the current instance of the STO component.
 748:MCSDK_v6.2.1-Full/MotorControl/MCSDK/MCLib/Any/Src/sto_pll_speed_pos_fdbk.c ****   * @param  hForcedMecSpeedUnit: Mechanical speed in 0.1Hz unit as forced by VSS.
 749:MCSDK_v6.2.1-Full/MotorControl/MCSDK/MCLib/Any/Src/sto_pll_speed_pos_fdbk.c ****   * @retval bool True if the estimated angle and speed are reliables, false otherwise.
 750:MCSDK_v6.2.1-Full/MotorControl/MCSDK/MCLib/Any/Src/sto_pll_speed_pos_fdbk.c ****   */
 751:MCSDK_v6.2.1-Full/MotorControl/MCSDK/MCLib/Any/Src/sto_pll_speed_pos_fdbk.c **** __weak bool STO_PLL_IsObserverConverged(STO_PLL_Handle_t *pHandle, int16_t *phForcedMecSpeedUnit)
 752:MCSDK_v6.2.1-Full/MotorControl/MCSDK/MCLib/Any/Src/sto_pll_speed_pos_fdbk.c **** {
 1291              		.loc 1 752 1 is_stmt 1 view -0
 1292              		.cfi_startproc
 1293              		@ args = 0, pretend = 0, frame = 0
 1294              		@ frame_needed = 0, uses_anonymous_args = 0
 753:MCSDK_v6.2.1-Full/MotorControl/MCSDK/MCLib/Any/Src/sto_pll_speed_pos_fdbk.c ****   bool bAux = false;
 1295              		.loc 1 753 3 view .LVU550
 754:MCSDK_v6.2.1-Full/MotorControl/MCSDK/MCLib/Any/Src/sto_pll_speed_pos_fdbk.c **** #ifdef NULL_PTR_CHECK_STO_PLL_SPD_POS_FDB
 755:MCSDK_v6.2.1-Full/MotorControl/MCSDK/MCLib/Any/Src/sto_pll_speed_pos_fdbk.c ****   if ((MC_NULL == pHandle) || (MC_NULL == phForcedMecSpeedUnit))
 756:MCSDK_v6.2.1-Full/MotorControl/MCSDK/MCLib/Any/Src/sto_pll_speed_pos_fdbk.c ****   {
 757:MCSDK_v6.2.1-Full/MotorControl/MCSDK/MCLib/Any/Src/sto_pll_speed_pos_fdbk.c ****     /* Nothing to do */
 758:MCSDK_v6.2.1-Full/MotorControl/MCSDK/MCLib/Any/Src/sto_pll_speed_pos_fdbk.c ****   }
 759:MCSDK_v6.2.1-Full/MotorControl/MCSDK/MCLib/Any/Src/sto_pll_speed_pos_fdbk.c ****   else
 760:MCSDK_v6.2.1-Full/MotorControl/MCSDK/MCLib/Any/Src/sto_pll_speed_pos_fdbk.c ****   {
 761:MCSDK_v6.2.1-Full/MotorControl/MCSDK/MCLib/Any/Src/sto_pll_speed_pos_fdbk.c **** #endif
 762:MCSDK_v6.2.1-Full/MotorControl/MCSDK/MCLib/Any/Src/sto_pll_speed_pos_fdbk.c ****     int32_t wAux;
 1296              		.loc 1 762 5 view .LVU551
 763:MCSDK_v6.2.1-Full/MotorControl/MCSDK/MCLib/Any/Src/sto_pll_speed_pos_fdbk.c ****     int32_t wtemp;
 1297              		.loc 1 763 5 view .LVU552
 764:MCSDK_v6.2.1-Full/MotorControl/MCSDK/MCLib/Any/Src/sto_pll_speed_pos_fdbk.c ****     int16_t hEstimatedSpeedUnit;
 1298              		.loc 1 764 5 view .LVU553
 765:MCSDK_v6.2.1-Full/MotorControl/MCSDK/MCLib/Any/Src/sto_pll_speed_pos_fdbk.c ****     int16_t hUpperThreshold;
 1299              		.loc 1 765 5 view .LVU554
 766:MCSDK_v6.2.1-Full/MotorControl/MCSDK/MCLib/Any/Src/sto_pll_speed_pos_fdbk.c ****     int16_t hLowerThreshold;
 1300              		.loc 1 766 5 view .LVU555
 767:MCSDK_v6.2.1-Full/MotorControl/MCSDK/MCLib/Any/Src/sto_pll_speed_pos_fdbk.c **** 
 768:MCSDK_v6.2.1-Full/MotorControl/MCSDK/MCLib/Any/Src/sto_pll_speed_pos_fdbk.c ****     if (true == pHandle->ForceConvergency2)
 1301              		.loc 1 768 5 view .LVU556
 1302              		.loc 1 768 8 is_stmt 0 view .LVU557
 1303 0000 90F82331 		ldrb	r3, [r0, #291]	@ zero_extendqisi2
 1304 0004 13B1     		cbz	r3, .L71
 769:MCSDK_v6.2.1-Full/MotorControl/MCSDK/MCLib/Any/Src/sto_pll_speed_pos_fdbk.c ****     {
 770:MCSDK_v6.2.1-Full/MotorControl/MCSDK/MCLib/Any/Src/sto_pll_speed_pos_fdbk.c ****       *phForcedMecSpeedUnit = pHandle->_Super.hAvrMecSpeedUnit;
 1305              		.loc 1 770 7 is_stmt 1 view .LVU558
 1306              		.loc 1 770 46 is_stmt 0 view .LVU559
 1307 0006 B0F90C30 		ldrsh	r3, [r0, #12]
 1308              		.loc 1 770 29 view .LVU560
ARM GAS  C:\Users\ep_ygh\AppData\Local\Temp\cc16k1Ab.s 			page 45


 1309 000a 0B80     		strh	r3, [r1]	@ movhi
 1310              	.L71:
 771:MCSDK_v6.2.1-Full/MotorControl/MCSDK/MCLib/Any/Src/sto_pll_speed_pos_fdbk.c ****     }
 772:MCSDK_v6.2.1-Full/MotorControl/MCSDK/MCLib/Any/Src/sto_pll_speed_pos_fdbk.c ****     else
 773:MCSDK_v6.2.1-Full/MotorControl/MCSDK/MCLib/Any/Src/sto_pll_speed_pos_fdbk.c ****     {
 774:MCSDK_v6.2.1-Full/MotorControl/MCSDK/MCLib/Any/Src/sto_pll_speed_pos_fdbk.c ****       /* Nothing to do */
 775:MCSDK_v6.2.1-Full/MotorControl/MCSDK/MCLib/Any/Src/sto_pll_speed_pos_fdbk.c ****     }
 1311              		.loc 1 775 5 is_stmt 1 view .LVU561
 776:MCSDK_v6.2.1-Full/MotorControl/MCSDK/MCLib/Any/Src/sto_pll_speed_pos_fdbk.c **** 
 777:MCSDK_v6.2.1-Full/MotorControl/MCSDK/MCLib/Any/Src/sto_pll_speed_pos_fdbk.c ****     if (true == pHandle->ForceConvergency)
 1312              		.loc 1 777 5 view .LVU562
 1313              		.loc 1 777 24 is_stmt 0 view .LVU563
 1314 000c 90F82231 		ldrb	r3, [r0, #290]	@ zero_extendqisi2
 1315              		.loc 1 777 8 view .LVU564
 1316 0010 33B1     		cbz	r3, .L72
 778:MCSDK_v6.2.1-Full/MotorControl/MCSDK/MCLib/Any/Src/sto_pll_speed_pos_fdbk.c ****     {
 779:MCSDK_v6.2.1-Full/MotorControl/MCSDK/MCLib/Any/Src/sto_pll_speed_pos_fdbk.c ****       bAux = true;
 1317              		.loc 1 779 7 is_stmt 1 view .LVU565
 1318              	.LVL114:
 780:MCSDK_v6.2.1-Full/MotorControl/MCSDK/MCLib/Any/Src/sto_pll_speed_pos_fdbk.c ****       pHandle->IsAlgorithmConverged = true;
 1319              		.loc 1 780 7 view .LVU566
 1320              		.loc 1 780 37 is_stmt 0 view .LVU567
 1321 0012 0123     		movs	r3, #1
 781:MCSDK_v6.2.1-Full/MotorControl/MCSDK/MCLib/Any/Src/sto_pll_speed_pos_fdbk.c ****       pHandle->_Super.bSpeedErrorNumber = 0U;
 1322              		.loc 1 781 41 view .LVU568
 1323 0014 0022     		movs	r2, #0
 780:MCSDK_v6.2.1-Full/MotorControl/MCSDK/MCLib/Any/Src/sto_pll_speed_pos_fdbk.c ****       pHandle->IsAlgorithmConverged = true;
 1324              		.loc 1 780 37 view .LVU569
 1325 0016 80F8F830 		strb	r3, [r0, #248]
 1326              		.loc 1 781 7 is_stmt 1 view .LVU570
 1327              		.loc 1 781 41 is_stmt 0 view .LVU571
 1328 001a 0270     		strb	r2, [r0]
 1329              	.LVL115:
 782:MCSDK_v6.2.1-Full/MotorControl/MCSDK/MCLib/Any/Src/sto_pll_speed_pos_fdbk.c ****     }
 783:MCSDK_v6.2.1-Full/MotorControl/MCSDK/MCLib/Any/Src/sto_pll_speed_pos_fdbk.c ****     else
 784:MCSDK_v6.2.1-Full/MotorControl/MCSDK/MCLib/Any/Src/sto_pll_speed_pos_fdbk.c ****     {
 785:MCSDK_v6.2.1-Full/MotorControl/MCSDK/MCLib/Any/Src/sto_pll_speed_pos_fdbk.c ****       hEstimatedSpeedUnit = pHandle->_Super.hAvrMecSpeedUnit;
 786:MCSDK_v6.2.1-Full/MotorControl/MCSDK/MCLib/Any/Src/sto_pll_speed_pos_fdbk.c **** 
 787:MCSDK_v6.2.1-Full/MotorControl/MCSDK/MCLib/Any/Src/sto_pll_speed_pos_fdbk.c ****       wtemp = ((int32_t)hEstimatedSpeedUnit) * ((int32_t)*phForcedMecSpeedUnit);
 788:MCSDK_v6.2.1-Full/MotorControl/MCSDK/MCLib/Any/Src/sto_pll_speed_pos_fdbk.c **** 
 789:MCSDK_v6.2.1-Full/MotorControl/MCSDK/MCLib/Any/Src/sto_pll_speed_pos_fdbk.c ****       if (wtemp > 0)
 790:MCSDK_v6.2.1-Full/MotorControl/MCSDK/MCLib/Any/Src/sto_pll_speed_pos_fdbk.c ****       {
 791:MCSDK_v6.2.1-Full/MotorControl/MCSDK/MCLib/Any/Src/sto_pll_speed_pos_fdbk.c ****         if (hEstimatedSpeedUnit < 0)
 792:MCSDK_v6.2.1-Full/MotorControl/MCSDK/MCLib/Any/Src/sto_pll_speed_pos_fdbk.c ****         {
 793:MCSDK_v6.2.1-Full/MotorControl/MCSDK/MCLib/Any/Src/sto_pll_speed_pos_fdbk.c ****           hEstimatedSpeedUnit = -hEstimatedSpeedUnit;
 794:MCSDK_v6.2.1-Full/MotorControl/MCSDK/MCLib/Any/Src/sto_pll_speed_pos_fdbk.c ****         }
 795:MCSDK_v6.2.1-Full/MotorControl/MCSDK/MCLib/Any/Src/sto_pll_speed_pos_fdbk.c **** 
 796:MCSDK_v6.2.1-Full/MotorControl/MCSDK/MCLib/Any/Src/sto_pll_speed_pos_fdbk.c ****         if (*phForcedMecSpeedUnit < 0)
 797:MCSDK_v6.2.1-Full/MotorControl/MCSDK/MCLib/Any/Src/sto_pll_speed_pos_fdbk.c ****         {
 798:MCSDK_v6.2.1-Full/MotorControl/MCSDK/MCLib/Any/Src/sto_pll_speed_pos_fdbk.c ****           *phForcedMecSpeedUnit = -*phForcedMecSpeedUnit;
 799:MCSDK_v6.2.1-Full/MotorControl/MCSDK/MCLib/Any/Src/sto_pll_speed_pos_fdbk.c ****         }
 800:MCSDK_v6.2.1-Full/MotorControl/MCSDK/MCLib/Any/Src/sto_pll_speed_pos_fdbk.c ****         wAux = ((int32_t)*phForcedMecSpeedUnit) * ((int16_t)pHandle->SpeedValidationBand_H);
 801:MCSDK_v6.2.1-Full/MotorControl/MCSDK/MCLib/Any/Src/sto_pll_speed_pos_fdbk.c ****         hUpperThreshold = (int16_t)(wAux / ((int32_t)16));
 802:MCSDK_v6.2.1-Full/MotorControl/MCSDK/MCLib/Any/Src/sto_pll_speed_pos_fdbk.c **** 
 803:MCSDK_v6.2.1-Full/MotorControl/MCSDK/MCLib/Any/Src/sto_pll_speed_pos_fdbk.c ****         wAux = ((int32_t)*phForcedMecSpeedUnit) * ((int16_t)pHandle->SpeedValidationBand_L);
 804:MCSDK_v6.2.1-Full/MotorControl/MCSDK/MCLib/Any/Src/sto_pll_speed_pos_fdbk.c ****         hLowerThreshold = (int16_t)(wAux / ((int32_t)16));
 805:MCSDK_v6.2.1-Full/MotorControl/MCSDK/MCLib/Any/Src/sto_pll_speed_pos_fdbk.c **** 
ARM GAS  C:\Users\ep_ygh\AppData\Local\Temp\cc16k1Ab.s 			page 46


 806:MCSDK_v6.2.1-Full/MotorControl/MCSDK/MCLib/Any/Src/sto_pll_speed_pos_fdbk.c ****         /* If the variance of the estimated speed is low enough... */
 807:MCSDK_v6.2.1-Full/MotorControl/MCSDK/MCLib/Any/Src/sto_pll_speed_pos_fdbk.c ****         if (true == pHandle->IsSpeedReliable)
 808:MCSDK_v6.2.1-Full/MotorControl/MCSDK/MCLib/Any/Src/sto_pll_speed_pos_fdbk.c ****         {
 809:MCSDK_v6.2.1-Full/MotorControl/MCSDK/MCLib/Any/Src/sto_pll_speed_pos_fdbk.c ****           if ((uint16_t)hEstimatedSpeedUnit > pHandle->MinStartUpValidSpeed)
 810:MCSDK_v6.2.1-Full/MotorControl/MCSDK/MCLib/Any/Src/sto_pll_speed_pos_fdbk.c ****           {
 811:MCSDK_v6.2.1-Full/MotorControl/MCSDK/MCLib/Any/Src/sto_pll_speed_pos_fdbk.c ****             /* ...and the estimated value is quite close to the expected value... */
 812:MCSDK_v6.2.1-Full/MotorControl/MCSDK/MCLib/Any/Src/sto_pll_speed_pos_fdbk.c ****             if (hEstimatedSpeedUnit >= hLowerThreshold)
 813:MCSDK_v6.2.1-Full/MotorControl/MCSDK/MCLib/Any/Src/sto_pll_speed_pos_fdbk.c ****             {
 814:MCSDK_v6.2.1-Full/MotorControl/MCSDK/MCLib/Any/Src/sto_pll_speed_pos_fdbk.c ****               if (hEstimatedSpeedUnit <= hUpperThreshold)
 815:MCSDK_v6.2.1-Full/MotorControl/MCSDK/MCLib/Any/Src/sto_pll_speed_pos_fdbk.c ****               {
 816:MCSDK_v6.2.1-Full/MotorControl/MCSDK/MCLib/Any/Src/sto_pll_speed_pos_fdbk.c ****                 pHandle->ConsistencyCounter++;
 817:MCSDK_v6.2.1-Full/MotorControl/MCSDK/MCLib/Any/Src/sto_pll_speed_pos_fdbk.c **** 
 818:MCSDK_v6.2.1-Full/MotorControl/MCSDK/MCLib/Any/Src/sto_pll_speed_pos_fdbk.c ****                 /* ...for hConsistencyThreshold consecutive times... */
 819:MCSDK_v6.2.1-Full/MotorControl/MCSDK/MCLib/Any/Src/sto_pll_speed_pos_fdbk.c ****                 if (pHandle->ConsistencyCounter >= pHandle->StartUpConsistThreshold)
 820:MCSDK_v6.2.1-Full/MotorControl/MCSDK/MCLib/Any/Src/sto_pll_speed_pos_fdbk.c ****                 {
 821:MCSDK_v6.2.1-Full/MotorControl/MCSDK/MCLib/Any/Src/sto_pll_speed_pos_fdbk.c **** 
 822:MCSDK_v6.2.1-Full/MotorControl/MCSDK/MCLib/Any/Src/sto_pll_speed_pos_fdbk.c ****                   /* The algorithm converged */
 823:MCSDK_v6.2.1-Full/MotorControl/MCSDK/MCLib/Any/Src/sto_pll_speed_pos_fdbk.c ****                   bAux = true;
 824:MCSDK_v6.2.1-Full/MotorControl/MCSDK/MCLib/Any/Src/sto_pll_speed_pos_fdbk.c ****                   pHandle->IsAlgorithmConverged = true;
 825:MCSDK_v6.2.1-Full/MotorControl/MCSDK/MCLib/Any/Src/sto_pll_speed_pos_fdbk.c ****                   pHandle->_Super.bSpeedErrorNumber = 0U;
 826:MCSDK_v6.2.1-Full/MotorControl/MCSDK/MCLib/Any/Src/sto_pll_speed_pos_fdbk.c ****                 }
 827:MCSDK_v6.2.1-Full/MotorControl/MCSDK/MCLib/Any/Src/sto_pll_speed_pos_fdbk.c ****               }
 828:MCSDK_v6.2.1-Full/MotorControl/MCSDK/MCLib/Any/Src/sto_pll_speed_pos_fdbk.c ****               else
 829:MCSDK_v6.2.1-Full/MotorControl/MCSDK/MCLib/Any/Src/sto_pll_speed_pos_fdbk.c ****               {
 830:MCSDK_v6.2.1-Full/MotorControl/MCSDK/MCLib/Any/Src/sto_pll_speed_pos_fdbk.c ****                 pHandle->ConsistencyCounter = 0U;
 831:MCSDK_v6.2.1-Full/MotorControl/MCSDK/MCLib/Any/Src/sto_pll_speed_pos_fdbk.c ****               }
 832:MCSDK_v6.2.1-Full/MotorControl/MCSDK/MCLib/Any/Src/sto_pll_speed_pos_fdbk.c ****             }
 833:MCSDK_v6.2.1-Full/MotorControl/MCSDK/MCLib/Any/Src/sto_pll_speed_pos_fdbk.c ****             else
 834:MCSDK_v6.2.1-Full/MotorControl/MCSDK/MCLib/Any/Src/sto_pll_speed_pos_fdbk.c ****             {
 835:MCSDK_v6.2.1-Full/MotorControl/MCSDK/MCLib/Any/Src/sto_pll_speed_pos_fdbk.c ****               pHandle->ConsistencyCounter = 0U;
 836:MCSDK_v6.2.1-Full/MotorControl/MCSDK/MCLib/Any/Src/sto_pll_speed_pos_fdbk.c ****             }
 837:MCSDK_v6.2.1-Full/MotorControl/MCSDK/MCLib/Any/Src/sto_pll_speed_pos_fdbk.c ****           }
 838:MCSDK_v6.2.1-Full/MotorControl/MCSDK/MCLib/Any/Src/sto_pll_speed_pos_fdbk.c ****           else
 839:MCSDK_v6.2.1-Full/MotorControl/MCSDK/MCLib/Any/Src/sto_pll_speed_pos_fdbk.c ****           {
 840:MCSDK_v6.2.1-Full/MotorControl/MCSDK/MCLib/Any/Src/sto_pll_speed_pos_fdbk.c ****             pHandle->ConsistencyCounter = 0U;
 841:MCSDK_v6.2.1-Full/MotorControl/MCSDK/MCLib/Any/Src/sto_pll_speed_pos_fdbk.c ****           }
 842:MCSDK_v6.2.1-Full/MotorControl/MCSDK/MCLib/Any/Src/sto_pll_speed_pos_fdbk.c ****         }
 843:MCSDK_v6.2.1-Full/MotorControl/MCSDK/MCLib/Any/Src/sto_pll_speed_pos_fdbk.c ****         else
 844:MCSDK_v6.2.1-Full/MotorControl/MCSDK/MCLib/Any/Src/sto_pll_speed_pos_fdbk.c ****         {
 845:MCSDK_v6.2.1-Full/MotorControl/MCSDK/MCLib/Any/Src/sto_pll_speed_pos_fdbk.c ****           pHandle->ConsistencyCounter = 0U;
 846:MCSDK_v6.2.1-Full/MotorControl/MCSDK/MCLib/Any/Src/sto_pll_speed_pos_fdbk.c ****         }
 847:MCSDK_v6.2.1-Full/MotorControl/MCSDK/MCLib/Any/Src/sto_pll_speed_pos_fdbk.c ****       }
 848:MCSDK_v6.2.1-Full/MotorControl/MCSDK/MCLib/Any/Src/sto_pll_speed_pos_fdbk.c ****       else
 849:MCSDK_v6.2.1-Full/MotorControl/MCSDK/MCLib/Any/Src/sto_pll_speed_pos_fdbk.c ****       {
 850:MCSDK_v6.2.1-Full/MotorControl/MCSDK/MCLib/Any/Src/sto_pll_speed_pos_fdbk.c ****         /* Nothing to do */
 851:MCSDK_v6.2.1-Full/MotorControl/MCSDK/MCLib/Any/Src/sto_pll_speed_pos_fdbk.c ****       }
 1330              		.loc 1 851 7 is_stmt 1 view .LVU572
 852:MCSDK_v6.2.1-Full/MotorControl/MCSDK/MCLib/Any/Src/sto_pll_speed_pos_fdbk.c ****     }
 853:MCSDK_v6.2.1-Full/MotorControl/MCSDK/MCLib/Any/Src/sto_pll_speed_pos_fdbk.c **** #ifdef NULL_PTR_CHECK_STO_PLL_SPD_POS_FDB
 854:MCSDK_v6.2.1-Full/MotorControl/MCSDK/MCLib/Any/Src/sto_pll_speed_pos_fdbk.c ****   }
 855:MCSDK_v6.2.1-Full/MotorControl/MCSDK/MCLib/Any/Src/sto_pll_speed_pos_fdbk.c **** #endif
 856:MCSDK_v6.2.1-Full/MotorControl/MCSDK/MCLib/Any/Src/sto_pll_speed_pos_fdbk.c ****   return (bAux);
 1331              		.loc 1 856 3 view .LVU573
 857:MCSDK_v6.2.1-Full/MotorControl/MCSDK/MCLib/Any/Src/sto_pll_speed_pos_fdbk.c **** }
 1332              		.loc 1 857 1 is_stmt 0 view .LVU574
 1333 001c 1846     		mov	r0, r3
 1334              	.LVL116:
ARM GAS  C:\Users\ep_ygh\AppData\Local\Temp\cc16k1Ab.s 			page 47


 1335              		.loc 1 857 1 view .LVU575
 1336 001e 7047     		bx	lr
 1337              	.LVL117:
 1338              	.L72:
 785:MCSDK_v6.2.1-Full/MotorControl/MCSDK/MCLib/Any/Src/sto_pll_speed_pos_fdbk.c **** 
 1339              		.loc 1 785 7 is_stmt 1 view .LVU576
 787:MCSDK_v6.2.1-Full/MotorControl/MCSDK/MCLib/Any/Src/sto_pll_speed_pos_fdbk.c **** 
 1340              		.loc 1 787 58 is_stmt 0 view .LVU577
 1341 0020 B1F90020 		ldrsh	r2, [r1]
 785:MCSDK_v6.2.1-Full/MotorControl/MCSDK/MCLib/Any/Src/sto_pll_speed_pos_fdbk.c **** 
 1342              		.loc 1 785 27 view .LVU578
 1343 0024 B0F90CC0 		ldrsh	ip, [r0, #12]
 1344              	.LVL118:
 787:MCSDK_v6.2.1-Full/MotorControl/MCSDK/MCLib/Any/Src/sto_pll_speed_pos_fdbk.c **** 
 1345              		.loc 1 787 7 is_stmt 1 view .LVU579
 752:MCSDK_v6.2.1-Full/MotorControl/MCSDK/MCLib/Any/Src/sto_pll_speed_pos_fdbk.c ****   bool bAux = false;
 1346              		.loc 1 752 1 is_stmt 0 view .LVU580
 1347 0028 10B5     		push	{r4, lr}
 1348              	.LCFI13:
 1349              		.cfi_def_cfa_offset 8
 1350              		.cfi_offset 4, -8
 1351              		.cfi_offset 14, -4
 787:MCSDK_v6.2.1-Full/MotorControl/MCSDK/MCLib/Any/Src/sto_pll_speed_pos_fdbk.c **** 
 1352              		.loc 1 787 13 view .LVU581
 1353 002a 0CFB02FE 		mul	lr, ip, r2
 789:MCSDK_v6.2.1-Full/MotorControl/MCSDK/MCLib/Any/Src/sto_pll_speed_pos_fdbk.c ****       {
 1354              		.loc 1 789 10 view .LVU582
 1355 002e BEF1000F 		cmp	lr, #0
 787:MCSDK_v6.2.1-Full/MotorControl/MCSDK/MCLib/Any/Src/sto_pll_speed_pos_fdbk.c **** 
 1356              		.loc 1 787 49 view .LVU583
 1357 0032 1446     		mov	r4, r2
 1358              	.LVL119:
 789:MCSDK_v6.2.1-Full/MotorControl/MCSDK/MCLib/Any/Src/sto_pll_speed_pos_fdbk.c ****       {
 1359              		.loc 1 789 7 is_stmt 1 view .LVU584
 789:MCSDK_v6.2.1-Full/MotorControl/MCSDK/MCLib/Any/Src/sto_pll_speed_pos_fdbk.c ****       {
 1360              		.loc 1 789 10 is_stmt 0 view .LVU585
 1361 0034 3BDD     		ble	.L73
 791:MCSDK_v6.2.1-Full/MotorControl/MCSDK/MCLib/Any/Src/sto_pll_speed_pos_fdbk.c ****         {
 1362              		.loc 1 791 9 is_stmt 1 view .LVU586
 793:MCSDK_v6.2.1-Full/MotorControl/MCSDK/MCLib/Any/Src/sto_pll_speed_pos_fdbk.c ****         }
 1363              		.loc 1 793 11 view .LVU587
 791:MCSDK_v6.2.1-Full/MotorControl/MCSDK/MCLib/Any/Src/sto_pll_speed_pos_fdbk.c ****         {
 1364              		.loc 1 791 12 is_stmt 0 view .LVU588
 1365 0036 BCF1000F 		cmp	ip, #0
 793:MCSDK_v6.2.1-Full/MotorControl/MCSDK/MCLib/Any/Src/sto_pll_speed_pos_fdbk.c ****         }
 1366              		.loc 1 793 31 view .LVU589
 1367 003a BCBF     		itt	lt
 1368 003c CCF1000C 		rsblt	ip, ip, #0
 1369              	.LVL120:
 793:MCSDK_v6.2.1-Full/MotorControl/MCSDK/MCLib/Any/Src/sto_pll_speed_pos_fdbk.c ****         }
 1370              		.loc 1 793 31 view .LVU590
 1371 0040 0FFA8CFC 		sxthlt	ip, ip
 1372              	.LVL121:
 796:MCSDK_v6.2.1-Full/MotorControl/MCSDK/MCLib/Any/Src/sto_pll_speed_pos_fdbk.c ****         {
 1373              		.loc 1 796 9 is_stmt 1 view .LVU591
 796:MCSDK_v6.2.1-Full/MotorControl/MCSDK/MCLib/Any/Src/sto_pll_speed_pos_fdbk.c ****         {
 1374              		.loc 1 796 12 is_stmt 0 view .LVU592
ARM GAS  C:\Users\ep_ygh\AppData\Local\Temp\cc16k1Ab.s 			page 48


 1375 0044 002A     		cmp	r2, #0
 1376 0046 34DB     		blt	.L91
 800:MCSDK_v6.2.1-Full/MotorControl/MCSDK/MCLib/Any/Src/sto_pll_speed_pos_fdbk.c ****         hUpperThreshold = (int16_t)(wAux / ((int32_t)16));
 1377              		.loc 1 800 9 is_stmt 1 view .LVU593
 1378              	.LVL122:
 801:MCSDK_v6.2.1-Full/MotorControl/MCSDK/MCLib/Any/Src/sto_pll_speed_pos_fdbk.c **** 
 1379              		.loc 1 801 9 view .LVU594
 803:MCSDK_v6.2.1-Full/MotorControl/MCSDK/MCLib/Any/Src/sto_pll_speed_pos_fdbk.c ****         hLowerThreshold = (int16_t)(wAux / ((int32_t)16));
 1380              		.loc 1 803 9 view .LVU595
 804:MCSDK_v6.2.1-Full/MotorControl/MCSDK/MCLib/Any/Src/sto_pll_speed_pos_fdbk.c **** 
 1381              		.loc 1 804 9 view .LVU596
 807:MCSDK_v6.2.1-Full/MotorControl/MCSDK/MCLib/Any/Src/sto_pll_speed_pos_fdbk.c ****         {
 1382              		.loc 1 807 9 view .LVU597
 807:MCSDK_v6.2.1-Full/MotorControl/MCSDK/MCLib/Any/Src/sto_pll_speed_pos_fdbk.c ****         {
 1383              		.loc 1 807 12 is_stmt 0 view .LVU598
 1384 0048 90F8F520 		ldrb	r2, [r0, #245]	@ zero_extendqisi2
 1385              	.LVL123:
 807:MCSDK_v6.2.1-Full/MotorControl/MCSDK/MCLib/Any/Src/sto_pll_speed_pos_fdbk.c ****         {
 1386              		.loc 1 807 12 view .LVU599
 1387 004c 62B3     		cbz	r2, .L77
 1388              	.LVL124:
 1389              	.L92:
 809:MCSDK_v6.2.1-Full/MotorControl/MCSDK/MCLib/Any/Src/sto_pll_speed_pos_fdbk.c ****           {
 1390              		.loc 1 809 11 is_stmt 1 view .LVU600
 809:MCSDK_v6.2.1-Full/MotorControl/MCSDK/MCLib/Any/Src/sto_pll_speed_pos_fdbk.c ****           {
 1391              		.loc 1 809 14 is_stmt 0 view .LVU601
 1392 004e B0F81411 		ldrh	r1, [r0, #276]
 1393              	.LVL125:
 809:MCSDK_v6.2.1-Full/MotorControl/MCSDK/MCLib/Any/Src/sto_pll_speed_pos_fdbk.c ****           {
 1394              		.loc 1 809 14 view .LVU602
 1395 0052 1FFA8CF2 		uxth	r2, ip
 1396 0056 9142     		cmp	r1, r2
 1397 0058 26D2     		bcs	.L77
 812:MCSDK_v6.2.1-Full/MotorControl/MCSDK/MCLib/Any/Src/sto_pll_speed_pos_fdbk.c ****             {
 1398              		.loc 1 812 13 is_stmt 1 view .LVU603
 803:MCSDK_v6.2.1-Full/MotorControl/MCSDK/MCLib/Any/Src/sto_pll_speed_pos_fdbk.c ****         hLowerThreshold = (int16_t)(wAux / ((int32_t)16));
 1399              		.loc 1 803 52 is_stmt 0 view .LVU604
 1400 005a 90F81321 		ldrb	r2, [r0, #275]	@ zero_extendqisi2
 803:MCSDK_v6.2.1-Full/MotorControl/MCSDK/MCLib/Any/Src/sto_pll_speed_pos_fdbk.c ****         hLowerThreshold = (int16_t)(wAux / ((int32_t)16));
 1401              		.loc 1 803 14 view .LVU605
 1402 005e 04FB02F2 		mul	r2, r4, r2
 804:MCSDK_v6.2.1-Full/MotorControl/MCSDK/MCLib/Any/Src/sto_pll_speed_pos_fdbk.c **** 
 1403              		.loc 1 804 42 view .LVU606
 1404 0062 002A     		cmp	r2, #0
 1405 0064 B8BF     		it	lt
 1406 0066 0F32     		addlt	r2, r2, #15
 812:MCSDK_v6.2.1-Full/MotorControl/MCSDK/MCLib/Any/Src/sto_pll_speed_pos_fdbk.c ****             {
 1407              		.loc 1 812 16 view .LVU607
 1408 0068 42F30F12 		sbfx	r2, r2, #4, #16
 1409 006c 9445     		cmp	ip, r2
 1410 006e 1BDB     		blt	.L77
 814:MCSDK_v6.2.1-Full/MotorControl/MCSDK/MCLib/Any/Src/sto_pll_speed_pos_fdbk.c ****               {
 1411              		.loc 1 814 15 is_stmt 1 view .LVU608
 800:MCSDK_v6.2.1-Full/MotorControl/MCSDK/MCLib/Any/Src/sto_pll_speed_pos_fdbk.c ****         hUpperThreshold = (int16_t)(wAux / ((int32_t)16));
 1412              		.loc 1 800 52 is_stmt 0 view .LVU609
 1413 0070 90F81221 		ldrb	r2, [r0, #274]	@ zero_extendqisi2
 800:MCSDK_v6.2.1-Full/MotorControl/MCSDK/MCLib/Any/Src/sto_pll_speed_pos_fdbk.c ****         hUpperThreshold = (int16_t)(wAux / ((int32_t)16));
ARM GAS  C:\Users\ep_ygh\AppData\Local\Temp\cc16k1Ab.s 			page 49


 1414              		.loc 1 800 14 view .LVU610
 1415 0074 04FB02F2 		mul	r2, r4, r2
 801:MCSDK_v6.2.1-Full/MotorControl/MCSDK/MCLib/Any/Src/sto_pll_speed_pos_fdbk.c **** 
 1416              		.loc 1 801 42 view .LVU611
 1417 0078 002A     		cmp	r2, #0
 1418 007a B8BF     		it	lt
 1419 007c 0F32     		addlt	r2, r2, #15
 814:MCSDK_v6.2.1-Full/MotorControl/MCSDK/MCLib/Any/Src/sto_pll_speed_pos_fdbk.c ****               {
 1420              		.loc 1 814 18 view .LVU612
 1421 007e 42F30F12 		sbfx	r2, r2, #4, #16
 1422 0082 9445     		cmp	ip, r2
 1423 0084 10DC     		bgt	.L77
 816:MCSDK_v6.2.1-Full/MotorControl/MCSDK/MCLib/Any/Src/sto_pll_speed_pos_fdbk.c **** 
 1424              		.loc 1 816 17 is_stmt 1 view .LVU613
 816:MCSDK_v6.2.1-Full/MotorControl/MCSDK/MCLib/Any/Src/sto_pll_speed_pos_fdbk.c **** 
 1425              		.loc 1 816 44 is_stmt 0 view .LVU614
 1426 0086 90F8F620 		ldrb	r2, [r0, #246]	@ zero_extendqisi2
 819:MCSDK_v6.2.1-Full/MotorControl/MCSDK/MCLib/Any/Src/sto_pll_speed_pos_fdbk.c ****                 {
 1427              		.loc 1 819 20 view .LVU615
 1428 008a 90F81611 		ldrb	r1, [r0, #278]	@ zero_extendqisi2
 816:MCSDK_v6.2.1-Full/MotorControl/MCSDK/MCLib/Any/Src/sto_pll_speed_pos_fdbk.c **** 
 1429              		.loc 1 816 44 view .LVU616
 1430 008e 0132     		adds	r2, r2, #1
 1431 0090 D2B2     		uxtb	r2, r2
 819:MCSDK_v6.2.1-Full/MotorControl/MCSDK/MCLib/Any/Src/sto_pll_speed_pos_fdbk.c ****                 {
 1432              		.loc 1 819 20 view .LVU617
 1433 0092 9142     		cmp	r1, r2
 816:MCSDK_v6.2.1-Full/MotorControl/MCSDK/MCLib/Any/Src/sto_pll_speed_pos_fdbk.c **** 
 1434              		.loc 1 816 44 view .LVU618
 1435 0094 80F8F620 		strb	r2, [r0, #246]
 819:MCSDK_v6.2.1-Full/MotorControl/MCSDK/MCLib/Any/Src/sto_pll_speed_pos_fdbk.c ****                 {
 1436              		.loc 1 819 17 is_stmt 1 view .LVU619
 819:MCSDK_v6.2.1-Full/MotorControl/MCSDK/MCLib/Any/Src/sto_pll_speed_pos_fdbk.c ****                 {
 1437              		.loc 1 819 20 is_stmt 0 view .LVU620
 1438 0098 09D8     		bhi	.L73
 779:MCSDK_v6.2.1-Full/MotorControl/MCSDK/MCLib/Any/Src/sto_pll_speed_pos_fdbk.c ****       pHandle->IsAlgorithmConverged = true;
 1439              		.loc 1 779 7 is_stmt 1 view .LVU621
 1440              	.LVL126:
 780:MCSDK_v6.2.1-Full/MotorControl/MCSDK/MCLib/Any/Src/sto_pll_speed_pos_fdbk.c ****       pHandle->_Super.bSpeedErrorNumber = 0U;
 1441              		.loc 1 780 7 view .LVU622
 781:MCSDK_v6.2.1-Full/MotorControl/MCSDK/MCLib/Any/Src/sto_pll_speed_pos_fdbk.c ****     }
 1442              		.loc 1 781 41 is_stmt 0 view .LVU623
 1443 009a 0022     		movs	r2, #0
 780:MCSDK_v6.2.1-Full/MotorControl/MCSDK/MCLib/Any/Src/sto_pll_speed_pos_fdbk.c ****       pHandle->_Super.bSpeedErrorNumber = 0U;
 1444              		.loc 1 780 37 view .LVU624
 1445 009c 0123     		movs	r3, #1
 781:MCSDK_v6.2.1-Full/MotorControl/MCSDK/MCLib/Any/Src/sto_pll_speed_pos_fdbk.c ****     }
 1446              		.loc 1 781 41 view .LVU625
 1447 009e 0270     		strb	r2, [r0]
 780:MCSDK_v6.2.1-Full/MotorControl/MCSDK/MCLib/Any/Src/sto_pll_speed_pos_fdbk.c ****       pHandle->_Super.bSpeedErrorNumber = 0U;
 1448              		.loc 1 780 37 view .LVU626
 1449 00a0 80F8F830 		strb	r3, [r0, #248]
 781:MCSDK_v6.2.1-Full/MotorControl/MCSDK/MCLib/Any/Src/sto_pll_speed_pos_fdbk.c ****     }
 1450              		.loc 1 781 7 is_stmt 1 view .LVU627
 1451              	.LVL127:
 851:MCSDK_v6.2.1-Full/MotorControl/MCSDK/MCLib/Any/Src/sto_pll_speed_pos_fdbk.c ****     }
 1452              		.loc 1 851 7 view .LVU628
ARM GAS  C:\Users\ep_ygh\AppData\Local\Temp\cc16k1Ab.s 			page 50


 856:MCSDK_v6.2.1-Full/MotorControl/MCSDK/MCLib/Any/Src/sto_pll_speed_pos_fdbk.c **** }
 1453              		.loc 1 856 3 view .LVU629
 1454              		.loc 1 857 1 is_stmt 0 view .LVU630
 1455 00a4 1846     		mov	r0, r3
 1456              	.LVL128:
 1457              		.loc 1 857 1 view .LVU631
 1458 00a6 10BD     		pop	{r4, pc}
 1459              	.LVL129:
 1460              	.L77:
 830:MCSDK_v6.2.1-Full/MotorControl/MCSDK/MCLib/Any/Src/sto_pll_speed_pos_fdbk.c ****               }
 1461              		.loc 1 830 17 is_stmt 1 view .LVU632
 830:MCSDK_v6.2.1-Full/MotorControl/MCSDK/MCLib/Any/Src/sto_pll_speed_pos_fdbk.c ****               }
 1462              		.loc 1 830 45 is_stmt 0 view .LVU633
 1463 00a8 0022     		movs	r2, #0
 1464 00aa 80F8F620 		strb	r2, [r0, #246]
 1465              	.L73:
 1466              	.LVL130:
 851:MCSDK_v6.2.1-Full/MotorControl/MCSDK/MCLib/Any/Src/sto_pll_speed_pos_fdbk.c ****     }
 1467              		.loc 1 851 7 is_stmt 1 view .LVU634
 856:MCSDK_v6.2.1-Full/MotorControl/MCSDK/MCLib/Any/Src/sto_pll_speed_pos_fdbk.c **** }
 1468              		.loc 1 856 3 view .LVU635
 1469              		.loc 1 857 1 is_stmt 0 view .LVU636
 1470 00ae 1846     		mov	r0, r3
 1471              	.LVL131:
 1472              		.loc 1 857 1 view .LVU637
 1473 00b0 10BD     		pop	{r4, pc}
 1474              	.LVL132:
 1475              	.L91:
 798:MCSDK_v6.2.1-Full/MotorControl/MCSDK/MCLib/Any/Src/sto_pll_speed_pos_fdbk.c ****         }
 1476              		.loc 1 798 11 is_stmt 1 view .LVU638
 798:MCSDK_v6.2.1-Full/MotorControl/MCSDK/MCLib/Any/Src/sto_pll_speed_pos_fdbk.c ****         }
 1477              		.loc 1 798 33 is_stmt 0 view .LVU639
 1478 00b2 5242     		rsbs	r2, r2, #0
 1479              	.LVL133:
 798:MCSDK_v6.2.1-Full/MotorControl/MCSDK/MCLib/Any/Src/sto_pll_speed_pos_fdbk.c ****         }
 1480              		.loc 1 798 33 view .LVU640
 1481 00b4 12B2     		sxth	r2, r2
 1482 00b6 0A80     		strh	r2, [r1]	@ movhi
 1483              	.LVL134:
 800:MCSDK_v6.2.1-Full/MotorControl/MCSDK/MCLib/Any/Src/sto_pll_speed_pos_fdbk.c ****         hUpperThreshold = (int16_t)(wAux / ((int32_t)16));
 1484              		.loc 1 800 17 view .LVU641
 1485 00b8 1446     		mov	r4, r2
 800:MCSDK_v6.2.1-Full/MotorControl/MCSDK/MCLib/Any/Src/sto_pll_speed_pos_fdbk.c ****         hUpperThreshold = (int16_t)(wAux / ((int32_t)16));
 1486              		.loc 1 800 9 is_stmt 1 view .LVU642
 1487              	.LVL135:
 801:MCSDK_v6.2.1-Full/MotorControl/MCSDK/MCLib/Any/Src/sto_pll_speed_pos_fdbk.c **** 
 1488              		.loc 1 801 9 view .LVU643
 803:MCSDK_v6.2.1-Full/MotorControl/MCSDK/MCLib/Any/Src/sto_pll_speed_pos_fdbk.c ****         hLowerThreshold = (int16_t)(wAux / ((int32_t)16));
 1489              		.loc 1 803 9 view .LVU644
 804:MCSDK_v6.2.1-Full/MotorControl/MCSDK/MCLib/Any/Src/sto_pll_speed_pos_fdbk.c **** 
 1490              		.loc 1 804 9 view .LVU645
 807:MCSDK_v6.2.1-Full/MotorControl/MCSDK/MCLib/Any/Src/sto_pll_speed_pos_fdbk.c ****         {
 1491              		.loc 1 807 9 view .LVU646
 807:MCSDK_v6.2.1-Full/MotorControl/MCSDK/MCLib/Any/Src/sto_pll_speed_pos_fdbk.c ****         {
 1492              		.loc 1 807 12 is_stmt 0 view .LVU647
 1493 00ba 90F8F520 		ldrb	r2, [r0, #245]	@ zero_extendqisi2
 1494              	.LVL136:
ARM GAS  C:\Users\ep_ygh\AppData\Local\Temp\cc16k1Ab.s 			page 51


 807:MCSDK_v6.2.1-Full/MotorControl/MCSDK/MCLib/Any/Src/sto_pll_speed_pos_fdbk.c ****         {
 1495              		.loc 1 807 12 view .LVU648
 1496 00be 002A     		cmp	r2, #0
 1497 00c0 F2D0     		beq	.L77
 1498 00c2 C4E7     		b	.L92
 1499              		.cfi_endproc
 1500              	.LFE1099:
 1502              		.section	.text.STO_PLL_GetEstimatedBemf,"ax",%progbits
 1503              		.align	1
 1504              		.p2align 2,,3
 1505              		.weak	STO_PLL_GetEstimatedBemf
 1506              		.syntax unified
 1507              		.thumb
 1508              		.thumb_func
 1510              	STO_PLL_GetEstimatedBemf:
 1511              	.LVL137:
 1512              	.LFB1100:
 858:MCSDK_v6.2.1-Full/MotorControl/MCSDK/MCLib/Any/Src/sto_pll_speed_pos_fdbk.c **** 
 859:MCSDK_v6.2.1-Full/MotorControl/MCSDK/MCLib/Any/Src/sto_pll_speed_pos_fdbk.c **** /**
 860:MCSDK_v6.2.1-Full/MotorControl/MCSDK/MCLib/Any/Src/sto_pll_speed_pos_fdbk.c ****   * @brief  Exports estimated Bemf alpha-beta from @p pHandle.
 861:MCSDK_v6.2.1-Full/MotorControl/MCSDK/MCLib/Any/Src/sto_pll_speed_pos_fdbk.c ****   * 
 862:MCSDK_v6.2.1-Full/MotorControl/MCSDK/MCLib/Any/Src/sto_pll_speed_pos_fdbk.c ****   * @retval alphabeta_t Bemf alpha-beta.
 863:MCSDK_v6.2.1-Full/MotorControl/MCSDK/MCLib/Any/Src/sto_pll_speed_pos_fdbk.c ****   */
 864:MCSDK_v6.2.1-Full/MotorControl/MCSDK/MCLib/Any/Src/sto_pll_speed_pos_fdbk.c **** //cstat !MISRAC2012-Rule-8.13
 865:MCSDK_v6.2.1-Full/MotorControl/MCSDK/MCLib/Any/Src/sto_pll_speed_pos_fdbk.c **** __weak alphabeta_t STO_PLL_GetEstimatedBemf(STO_PLL_Handle_t *pHandle)
 866:MCSDK_v6.2.1-Full/MotorControl/MCSDK/MCLib/Any/Src/sto_pll_speed_pos_fdbk.c **** {
 1513              		.loc 1 866 1 is_stmt 1 view -0
 1514              		.cfi_startproc
 1515              		@ args = 0, pretend = 0, frame = 8
 1516              		@ frame_needed = 0, uses_anonymous_args = 0
 1517              		@ link register save eliminated.
 867:MCSDK_v6.2.1-Full/MotorControl/MCSDK/MCLib/Any/Src/sto_pll_speed_pos_fdbk.c ****   alphabeta_t vaux;
 1518              		.loc 1 867 3 view .LVU650
 868:MCSDK_v6.2.1-Full/MotorControl/MCSDK/MCLib/Any/Src/sto_pll_speed_pos_fdbk.c **** #ifdef NULL_PTR_CHECK_STO_PLL_SPD_POS_FDB
 869:MCSDK_v6.2.1-Full/MotorControl/MCSDK/MCLib/Any/Src/sto_pll_speed_pos_fdbk.c ****   if (MC_NULL == pHandle)
 870:MCSDK_v6.2.1-Full/MotorControl/MCSDK/MCLib/Any/Src/sto_pll_speed_pos_fdbk.c ****   {
 871:MCSDK_v6.2.1-Full/MotorControl/MCSDK/MCLib/Any/Src/sto_pll_speed_pos_fdbk.c ****     vaux.alpha = 0;
 872:MCSDK_v6.2.1-Full/MotorControl/MCSDK/MCLib/Any/Src/sto_pll_speed_pos_fdbk.c ****     vaux.beta = 0;
 873:MCSDK_v6.2.1-Full/MotorControl/MCSDK/MCLib/Any/Src/sto_pll_speed_pos_fdbk.c ****   }
 874:MCSDK_v6.2.1-Full/MotorControl/MCSDK/MCLib/Any/Src/sto_pll_speed_pos_fdbk.c ****   else
 875:MCSDK_v6.2.1-Full/MotorControl/MCSDK/MCLib/Any/Src/sto_pll_speed_pos_fdbk.c ****   {
 876:MCSDK_v6.2.1-Full/MotorControl/MCSDK/MCLib/Any/Src/sto_pll_speed_pos_fdbk.c **** #endif
 877:MCSDK_v6.2.1-Full/MotorControl/MCSDK/MCLib/Any/Src/sto_pll_speed_pos_fdbk.c ****     vaux.alpha = pHandle->hBemf_alfa_est;
 1519              		.loc 1 877 5 view .LVU651
 878:MCSDK_v6.2.1-Full/MotorControl/MCSDK/MCLib/Any/Src/sto_pll_speed_pos_fdbk.c ****     vaux.beta = pHandle->hBemf_beta_est;
 1520              		.loc 1 878 5 view .LVU652
 879:MCSDK_v6.2.1-Full/MotorControl/MCSDK/MCLib/Any/Src/sto_pll_speed_pos_fdbk.c **** #ifdef NULL_PTR_CHECK_STO_PLL_SPD_POS_FDB
 880:MCSDK_v6.2.1-Full/MotorControl/MCSDK/MCLib/Any/Src/sto_pll_speed_pos_fdbk.c ****   }
 881:MCSDK_v6.2.1-Full/MotorControl/MCSDK/MCLib/Any/Src/sto_pll_speed_pos_fdbk.c **** #endif
 882:MCSDK_v6.2.1-Full/MotorControl/MCSDK/MCLib/Any/Src/sto_pll_speed_pos_fdbk.c ****   return (vaux);
 1521              		.loc 1 882 3 view .LVU653
 1522              		.loc 1 882 10 is_stmt 0 view .LVU654
 1523 0000 036F     		ldr	r3, [r0, #112]
 1524 0002 0022     		movs	r2, #0
 1525 0004 99B2     		uxth	r1, r3
 1526 0006 61F30F02 		bfi	r2, r1, #0, #16
 1527 000a 1B0C     		lsrs	r3, r3, #16
ARM GAS  C:\Users\ep_ygh\AppData\Local\Temp\cc16k1Ab.s 			page 52


 1528 000c 63F31F42 		bfi	r2, r3, #16, #16
 866:MCSDK_v6.2.1-Full/MotorControl/MCSDK/MCLib/Any/Src/sto_pll_speed_pos_fdbk.c ****   alphabeta_t vaux;
 1529              		.loc 1 866 1 view .LVU655
 1530 0010 82B0     		sub	sp, sp, #8
 1531              	.LCFI14:
 1532              		.cfi_def_cfa_offset 8
 883:MCSDK_v6.2.1-Full/MotorControl/MCSDK/MCLib/Any/Src/sto_pll_speed_pos_fdbk.c **** }
 1533              		.loc 1 883 1 view .LVU656
 1534 0012 1046     		mov	r0, r2
 1535              	.LVL138:
 1536              		.loc 1 883 1 view .LVU657
 1537 0014 02B0     		add	sp, sp, #8
 1538              	.LCFI15:
 1539              		.cfi_def_cfa_offset 0
 1540              		@ sp needed
 1541 0016 7047     		bx	lr
 1542              		.cfi_endproc
 1543              	.LFE1100:
 1545              		.section	.text.STO_PLL_GetEstimatedCurrent,"ax",%progbits
 1546              		.align	1
 1547              		.p2align 2,,3
 1548              		.weak	STO_PLL_GetEstimatedCurrent
 1549              		.syntax unified
 1550              		.thumb
 1551              		.thumb_func
 1553              	STO_PLL_GetEstimatedCurrent:
 1554              	.LVL139:
 1555              	.LFB1101:
 884:MCSDK_v6.2.1-Full/MotorControl/MCSDK/MCLib/Any/Src/sto_pll_speed_pos_fdbk.c **** 
 885:MCSDK_v6.2.1-Full/MotorControl/MCSDK/MCLib/Any/Src/sto_pll_speed_pos_fdbk.c **** 
 886:MCSDK_v6.2.1-Full/MotorControl/MCSDK/MCLib/Any/Src/sto_pll_speed_pos_fdbk.c **** /**
 887:MCSDK_v6.2.1-Full/MotorControl/MCSDK/MCLib/Any/Src/sto_pll_speed_pos_fdbk.c ****   * @brief  Exports from @p pHandle the stator current alpha-beta as estimated by state observer.
 888:MCSDK_v6.2.1-Full/MotorControl/MCSDK/MCLib/Any/Src/sto_pll_speed_pos_fdbk.c ****   * 
 889:MCSDK_v6.2.1-Full/MotorControl/MCSDK/MCLib/Any/Src/sto_pll_speed_pos_fdbk.c ****   * @retval alphabeta_t State observer estimated stator current Ialpha-beta.
 890:MCSDK_v6.2.1-Full/MotorControl/MCSDK/MCLib/Any/Src/sto_pll_speed_pos_fdbk.c ****   */
 891:MCSDK_v6.2.1-Full/MotorControl/MCSDK/MCLib/Any/Src/sto_pll_speed_pos_fdbk.c **** //cstat !MISRAC2012-Rule-8.13
 892:MCSDK_v6.2.1-Full/MotorControl/MCSDK/MCLib/Any/Src/sto_pll_speed_pos_fdbk.c **** __weak alphabeta_t STO_PLL_GetEstimatedCurrent(STO_PLL_Handle_t *pHandle)
 893:MCSDK_v6.2.1-Full/MotorControl/MCSDK/MCLib/Any/Src/sto_pll_speed_pos_fdbk.c **** {
 1556              		.loc 1 893 1 is_stmt 1 view -0
 1557              		.cfi_startproc
 1558              		@ args = 0, pretend = 0, frame = 8
 1559              		@ frame_needed = 0, uses_anonymous_args = 0
 1560              		@ link register save eliminated.
 894:MCSDK_v6.2.1-Full/MotorControl/MCSDK/MCLib/Any/Src/sto_pll_speed_pos_fdbk.c ****   alphabeta_t iaux;
 1561              		.loc 1 894 3 view .LVU659
 895:MCSDK_v6.2.1-Full/MotorControl/MCSDK/MCLib/Any/Src/sto_pll_speed_pos_fdbk.c **** #ifdef NULL_PTR_CHECK_STO_PLL_SPD_POS_FDB
 896:MCSDK_v6.2.1-Full/MotorControl/MCSDK/MCLib/Any/Src/sto_pll_speed_pos_fdbk.c ****   if (MC_NULL == pHandle)
 897:MCSDK_v6.2.1-Full/MotorControl/MCSDK/MCLib/Any/Src/sto_pll_speed_pos_fdbk.c ****   {
 898:MCSDK_v6.2.1-Full/MotorControl/MCSDK/MCLib/Any/Src/sto_pll_speed_pos_fdbk.c ****     iaux.alpha = 0;
 899:MCSDK_v6.2.1-Full/MotorControl/MCSDK/MCLib/Any/Src/sto_pll_speed_pos_fdbk.c ****     iaux.beta = 0;
 900:MCSDK_v6.2.1-Full/MotorControl/MCSDK/MCLib/Any/Src/sto_pll_speed_pos_fdbk.c ****   }
 901:MCSDK_v6.2.1-Full/MotorControl/MCSDK/MCLib/Any/Src/sto_pll_speed_pos_fdbk.c ****   else
 902:MCSDK_v6.2.1-Full/MotorControl/MCSDK/MCLib/Any/Src/sto_pll_speed_pos_fdbk.c ****   {
 903:MCSDK_v6.2.1-Full/MotorControl/MCSDK/MCLib/Any/Src/sto_pll_speed_pos_fdbk.c **** #endif
 904:MCSDK_v6.2.1-Full/MotorControl/MCSDK/MCLib/Any/Src/sto_pll_speed_pos_fdbk.c **** #ifndef FULL_MISRA_C_COMPLIANCY_STO_PLL
 905:MCSDK_v6.2.1-Full/MotorControl/MCSDK/MCLib/Any/Src/sto_pll_speed_pos_fdbk.c ****   //cstat !MISRAC2012-Rule-1.3_n !ATH-shift-neg !MISRAC2012-Rule-10.1_R6
 906:MCSDK_v6.2.1-Full/MotorControl/MCSDK/MCLib/Any/Src/sto_pll_speed_pos_fdbk.c ****   iaux.alpha = (int16_t)(pHandle->Ialfa_est >> pHandle->F1LOG);
ARM GAS  C:\Users\ep_ygh\AppData\Local\Temp\cc16k1Ab.s 			page 53


 1562              		.loc 1 906 3 view .LVU660
 907:MCSDK_v6.2.1-Full/MotorControl/MCSDK/MCLib/Any/Src/sto_pll_speed_pos_fdbk.c **** #else
 908:MCSDK_v6.2.1-Full/MotorControl/MCSDK/MCLib/Any/Src/sto_pll_speed_pos_fdbk.c ****   iaux.alpha = (int16_t)(pHandle->Ialfa_est / pHandle->hF1);
 909:MCSDK_v6.2.1-Full/MotorControl/MCSDK/MCLib/Any/Src/sto_pll_speed_pos_fdbk.c **** #endif
 910:MCSDK_v6.2.1-Full/MotorControl/MCSDK/MCLib/Any/Src/sto_pll_speed_pos_fdbk.c **** 
 911:MCSDK_v6.2.1-Full/MotorControl/MCSDK/MCLib/Any/Src/sto_pll_speed_pos_fdbk.c **** #ifndef FULL_MISRA_C_COMPLIANCY_STO_PLL
 912:MCSDK_v6.2.1-Full/MotorControl/MCSDK/MCLib/Any/Src/sto_pll_speed_pos_fdbk.c ****   //cstat !MISRAC2012-Rule-1.3_n !ATH-shift-neg !MISRAC2012-Rule-10.1_R6
 913:MCSDK_v6.2.1-Full/MotorControl/MCSDK/MCLib/Any/Src/sto_pll_speed_pos_fdbk.c ****   iaux.beta = (int16_t)(pHandle->Ibeta_est >> pHandle->F1LOG);
 1563              		.loc 1 913 44 is_stmt 0 view .LVU661
 1564 0000 D0E91823 		ldrd	r2, r3, [r0, #96]
 906:MCSDK_v6.2.1-Full/MotorControl/MCSDK/MCLib/Any/Src/sto_pll_speed_pos_fdbk.c **** #else
 1565              		.loc 1 906 55 view .LVU662
 1566 0004 B0F81CC1 		ldrh	ip, [r0, #284]
 1567              	.LVL140:
 1568              		.loc 1 913 3 is_stmt 1 view .LVU663
 914:MCSDK_v6.2.1-Full/MotorControl/MCSDK/MCLib/Any/Src/sto_pll_speed_pos_fdbk.c **** #else
 915:MCSDK_v6.2.1-Full/MotorControl/MCSDK/MCLib/Any/Src/sto_pll_speed_pos_fdbk.c ****   iaux.beta = (int16_t)(pHandle->Ibeta_est / pHandle->hF1);
 916:MCSDK_v6.2.1-Full/MotorControl/MCSDK/MCLib/Any/Src/sto_pll_speed_pos_fdbk.c **** #endif
 917:MCSDK_v6.2.1-Full/MotorControl/MCSDK/MCLib/Any/Src/sto_pll_speed_pos_fdbk.c **** #ifdef NULL_PTR_CHECK_STO_PLL_SPD_POS_FDB
 918:MCSDK_v6.2.1-Full/MotorControl/MCSDK/MCLib/Any/Src/sto_pll_speed_pos_fdbk.c ****   }
 919:MCSDK_v6.2.1-Full/MotorControl/MCSDK/MCLib/Any/Src/sto_pll_speed_pos_fdbk.c **** #endif
 920:MCSDK_v6.2.1-Full/MotorControl/MCSDK/MCLib/Any/Src/sto_pll_speed_pos_fdbk.c ****   return (iaux);
 1569              		.loc 1 920 3 view .LVU664
 906:MCSDK_v6.2.1-Full/MotorControl/MCSDK/MCLib/Any/Src/sto_pll_speed_pos_fdbk.c **** #else
 1570              		.loc 1 906 16 is_stmt 0 view .LVU665
 1571 0008 42FA0CF2 		asr	r2, r2, ip
 1572              	.LVL141:
 1573              		.loc 1 920 10 view .LVU666
 1574 000c 43FA0CF3 		asr	r3, r3, ip
 1575              	.LVL142:
 1576              		.loc 1 920 10 view .LVU667
 1577 0010 92B2     		uxth	r2, r2
 1578 0012 0021     		movs	r1, #0
 1579 0014 62F30F01 		bfi	r1, r2, #0, #16
 1580 0018 9BB2     		uxth	r3, r3
 1581 001a 63F31F41 		bfi	r1, r3, #16, #16
 893:MCSDK_v6.2.1-Full/MotorControl/MCSDK/MCLib/Any/Src/sto_pll_speed_pos_fdbk.c ****   alphabeta_t iaux;
 1582              		.loc 1 893 1 view .LVU668
 1583 001e 82B0     		sub	sp, sp, #8
 1584              	.LCFI16:
 1585              		.cfi_def_cfa_offset 8
 921:MCSDK_v6.2.1-Full/MotorControl/MCSDK/MCLib/Any/Src/sto_pll_speed_pos_fdbk.c **** }
 1586              		.loc 1 921 1 view .LVU669
 1587 0020 0846     		mov	r0, r1
 1588              	.LVL143:
 1589              		.loc 1 921 1 view .LVU670
 1590 0022 02B0     		add	sp, sp, #8
 1591              	.LCFI17:
 1592              		.cfi_def_cfa_offset 0
 1593              		@ sp needed
 1594 0024 7047     		bx	lr
 1595              		.cfi_endproc
 1596              	.LFE1101:
 1598 0026 00BF     		.section	.text.STO_PLL_GetObserverGains,"ax",%progbits
 1599              		.align	1
 1600              		.p2align 2,,3
 1601              		.weak	STO_PLL_GetObserverGains
ARM GAS  C:\Users\ep_ygh\AppData\Local\Temp\cc16k1Ab.s 			page 54


 1602              		.syntax unified
 1603              		.thumb
 1604              		.thumb_func
 1606              	STO_PLL_GetObserverGains:
 1607              	.LVL144:
 1608              	.LFB1102:
 922:MCSDK_v6.2.1-Full/MotorControl/MCSDK/MCLib/Any/Src/sto_pll_speed_pos_fdbk.c **** 
 923:MCSDK_v6.2.1-Full/MotorControl/MCSDK/MCLib/Any/Src/sto_pll_speed_pos_fdbk.c **** /**
 924:MCSDK_v6.2.1-Full/MotorControl/MCSDK/MCLib/Any/Src/sto_pll_speed_pos_fdbk.c ****   * @brief  Exports current observer gains from @p pHandle and to parameters @p phC2 and @p phC4.
 925:MCSDK_v6.2.1-Full/MotorControl/MCSDK/MCLib/Any/Src/sto_pll_speed_pos_fdbk.c ****   * 
 926:MCSDK_v6.2.1-Full/MotorControl/MCSDK/MCLib/Any/Src/sto_pll_speed_pos_fdbk.c ****   */
 927:MCSDK_v6.2.1-Full/MotorControl/MCSDK/MCLib/Any/Src/sto_pll_speed_pos_fdbk.c **** //cstat !MISRAC2012-Rule-8.13
 928:MCSDK_v6.2.1-Full/MotorControl/MCSDK/MCLib/Any/Src/sto_pll_speed_pos_fdbk.c **** __weak void STO_PLL_GetObserverGains(STO_PLL_Handle_t *pHandle, int16_t *phC2, int16_t *phC4)
 929:MCSDK_v6.2.1-Full/MotorControl/MCSDK/MCLib/Any/Src/sto_pll_speed_pos_fdbk.c **** {
 1609              		.loc 1 929 1 is_stmt 1 view -0
 1610              		.cfi_startproc
 1611              		@ args = 0, pretend = 0, frame = 0
 1612              		@ frame_needed = 0, uses_anonymous_args = 0
 1613              		@ link register save eliminated.
 930:MCSDK_v6.2.1-Full/MotorControl/MCSDK/MCLib/Any/Src/sto_pll_speed_pos_fdbk.c **** #ifdef NULL_PTR_CHECK_STO_PLL_SPD_POS_FDB
 931:MCSDK_v6.2.1-Full/MotorControl/MCSDK/MCLib/Any/Src/sto_pll_speed_pos_fdbk.c ****   if ((MC_NULL == pHandle) || (MC_NULL == phC2) || (MC_NULL == phC4))
 932:MCSDK_v6.2.1-Full/MotorControl/MCSDK/MCLib/Any/Src/sto_pll_speed_pos_fdbk.c ****   {
 933:MCSDK_v6.2.1-Full/MotorControl/MCSDK/MCLib/Any/Src/sto_pll_speed_pos_fdbk.c ****     /* Nothing to do */
 934:MCSDK_v6.2.1-Full/MotorControl/MCSDK/MCLib/Any/Src/sto_pll_speed_pos_fdbk.c ****   }
 935:MCSDK_v6.2.1-Full/MotorControl/MCSDK/MCLib/Any/Src/sto_pll_speed_pos_fdbk.c ****   else
 936:MCSDK_v6.2.1-Full/MotorControl/MCSDK/MCLib/Any/Src/sto_pll_speed_pos_fdbk.c ****   {
 937:MCSDK_v6.2.1-Full/MotorControl/MCSDK/MCLib/Any/Src/sto_pll_speed_pos_fdbk.c **** #endif
 938:MCSDK_v6.2.1-Full/MotorControl/MCSDK/MCLib/Any/Src/sto_pll_speed_pos_fdbk.c ****     *phC2 = pHandle->hC2;
 1614              		.loc 1 938 5 view .LVU672
 1615              		.loc 1 938 20 is_stmt 0 view .LVU673
 1616 0000 B0F92230 		ldrsh	r3, [r0, #34]
 1617              		.loc 1 938 11 view .LVU674
 1618 0004 0B80     		strh	r3, [r1]	@ movhi
 939:MCSDK_v6.2.1-Full/MotorControl/MCSDK/MCLib/Any/Src/sto_pll_speed_pos_fdbk.c ****     *phC4 = pHandle->hC4;
 1619              		.loc 1 939 5 is_stmt 1 view .LVU675
 1620              		.loc 1 939 20 is_stmt 0 view .LVU676
 1621 0006 B0F92630 		ldrsh	r3, [r0, #38]
 1622              		.loc 1 939 11 view .LVU677
 1623 000a 1380     		strh	r3, [r2]	@ movhi
 940:MCSDK_v6.2.1-Full/MotorControl/MCSDK/MCLib/Any/Src/sto_pll_speed_pos_fdbk.c **** #ifdef NULL_PTR_CHECK_STO_PLL_SPD_POS_FDB
 941:MCSDK_v6.2.1-Full/MotorControl/MCSDK/MCLib/Any/Src/sto_pll_speed_pos_fdbk.c ****   }
 942:MCSDK_v6.2.1-Full/MotorControl/MCSDK/MCLib/Any/Src/sto_pll_speed_pos_fdbk.c **** #endif
 943:MCSDK_v6.2.1-Full/MotorControl/MCSDK/MCLib/Any/Src/sto_pll_speed_pos_fdbk.c **** }
 1624              		.loc 1 943 1 view .LVU678
 1625 000c 7047     		bx	lr
 1626              		.cfi_endproc
 1627              	.LFE1102:
 1629 000e 00BF     		.section	.text.STO_PLL_SetObserverGains,"ax",%progbits
 1630              		.align	1
 1631              		.p2align 2,,3
 1632              		.weak	STO_PLL_SetObserverGains
 1633              		.syntax unified
 1634              		.thumb
 1635              		.thumb_func
 1637              	STO_PLL_SetObserverGains:
 1638              	.LVL145:
 1639              	.LFB1103:
ARM GAS  C:\Users\ep_ygh\AppData\Local\Temp\cc16k1Ab.s 			page 55


 944:MCSDK_v6.2.1-Full/MotorControl/MCSDK/MCLib/Any/Src/sto_pll_speed_pos_fdbk.c **** 
 945:MCSDK_v6.2.1-Full/MotorControl/MCSDK/MCLib/Any/Src/sto_pll_speed_pos_fdbk.c **** /**
 946:MCSDK_v6.2.1-Full/MotorControl/MCSDK/MCLib/Any/Src/sto_pll_speed_pos_fdbk.c ****   * @brief  Stores in @p pHandle the new values @p hhC1 and @p hhC2 for observer gains.
 947:MCSDK_v6.2.1-Full/MotorControl/MCSDK/MCLib/Any/Src/sto_pll_speed_pos_fdbk.c ****   * 
 948:MCSDK_v6.2.1-Full/MotorControl/MCSDK/MCLib/Any/Src/sto_pll_speed_pos_fdbk.c ****   */
 949:MCSDK_v6.2.1-Full/MotorControl/MCSDK/MCLib/Any/Src/sto_pll_speed_pos_fdbk.c **** //cstat !MISRAC2012-Rule-8.13
 950:MCSDK_v6.2.1-Full/MotorControl/MCSDK/MCLib/Any/Src/sto_pll_speed_pos_fdbk.c **** __weak void STO_PLL_SetObserverGains(STO_PLL_Handle_t *pHandle, int16_t hhC1, int16_t hhC2)
 951:MCSDK_v6.2.1-Full/MotorControl/MCSDK/MCLib/Any/Src/sto_pll_speed_pos_fdbk.c **** {
 1640              		.loc 1 951 1 is_stmt 1 view -0
 1641              		.cfi_startproc
 1642              		@ args = 0, pretend = 0, frame = 0
 1643              		@ frame_needed = 0, uses_anonymous_args = 0
 1644              		@ link register save eliminated.
 952:MCSDK_v6.2.1-Full/MotorControl/MCSDK/MCLib/Any/Src/sto_pll_speed_pos_fdbk.c **** #ifdef NULL_PTR_CHECK_STO_PLL_SPD_POS_FDB
 953:MCSDK_v6.2.1-Full/MotorControl/MCSDK/MCLib/Any/Src/sto_pll_speed_pos_fdbk.c ****   if (MC_NULL == pHandle)
 954:MCSDK_v6.2.1-Full/MotorControl/MCSDK/MCLib/Any/Src/sto_pll_speed_pos_fdbk.c ****   {
 955:MCSDK_v6.2.1-Full/MotorControl/MCSDK/MCLib/Any/Src/sto_pll_speed_pos_fdbk.c ****     /* Nothing to do */
 956:MCSDK_v6.2.1-Full/MotorControl/MCSDK/MCLib/Any/Src/sto_pll_speed_pos_fdbk.c ****   }
 957:MCSDK_v6.2.1-Full/MotorControl/MCSDK/MCLib/Any/Src/sto_pll_speed_pos_fdbk.c ****   else
 958:MCSDK_v6.2.1-Full/MotorControl/MCSDK/MCLib/Any/Src/sto_pll_speed_pos_fdbk.c ****   {
 959:MCSDK_v6.2.1-Full/MotorControl/MCSDK/MCLib/Any/Src/sto_pll_speed_pos_fdbk.c **** #endif
 960:MCSDK_v6.2.1-Full/MotorControl/MCSDK/MCLib/Any/Src/sto_pll_speed_pos_fdbk.c ****     pHandle->hC2 = hhC1;
 1645              		.loc 1 960 5 view .LVU680
 1646              		.loc 1 960 18 is_stmt 0 view .LVU681
 1647 0000 4184     		strh	r1, [r0, #34]	@ movhi
 961:MCSDK_v6.2.1-Full/MotorControl/MCSDK/MCLib/Any/Src/sto_pll_speed_pos_fdbk.c ****     pHandle->hC4 = hhC2;
 1648              		.loc 1 961 5 is_stmt 1 view .LVU682
 1649              		.loc 1 961 18 is_stmt 0 view .LVU683
 1650 0002 C284     		strh	r2, [r0, #38]	@ movhi
 962:MCSDK_v6.2.1-Full/MotorControl/MCSDK/MCLib/Any/Src/sto_pll_speed_pos_fdbk.c **** #ifdef NULL_PTR_CHECK_STO_PLL_SPD_POS_FDB
 963:MCSDK_v6.2.1-Full/MotorControl/MCSDK/MCLib/Any/Src/sto_pll_speed_pos_fdbk.c ****   }
 964:MCSDK_v6.2.1-Full/MotorControl/MCSDK/MCLib/Any/Src/sto_pll_speed_pos_fdbk.c **** #endif
 965:MCSDK_v6.2.1-Full/MotorControl/MCSDK/MCLib/Any/Src/sto_pll_speed_pos_fdbk.c **** }
 1651              		.loc 1 965 1 view .LVU684
 1652 0004 7047     		bx	lr
 1653              		.cfi_endproc
 1654              	.LFE1103:
 1656 0006 00BF     		.section	.text.STO_GetPLLGains,"ax",%progbits
 1657              		.align	1
 1658              		.p2align 2,,3
 1659              		.weak	STO_GetPLLGains
 1660              		.syntax unified
 1661              		.thumb
 1662              		.thumb_func
 1664              	STO_GetPLLGains:
 1665              	.LVL146:
 1666              	.LFB1104:
 966:MCSDK_v6.2.1-Full/MotorControl/MCSDK/MCLib/Any/Src/sto_pll_speed_pos_fdbk.c **** 
 967:MCSDK_v6.2.1-Full/MotorControl/MCSDK/MCLib/Any/Src/sto_pll_speed_pos_fdbk.c **** /**
 968:MCSDK_v6.2.1-Full/MotorControl/MCSDK/MCLib/Any/Src/sto_pll_speed_pos_fdbk.c ****   * @brief  Exports current PLL gains from @p pHandle to @p pPgain and @p pIgain.
 969:MCSDK_v6.2.1-Full/MotorControl/MCSDK/MCLib/Any/Src/sto_pll_speed_pos_fdbk.c ****   * 
 970:MCSDK_v6.2.1-Full/MotorControl/MCSDK/MCLib/Any/Src/sto_pll_speed_pos_fdbk.c ****   */
 971:MCSDK_v6.2.1-Full/MotorControl/MCSDK/MCLib/Any/Src/sto_pll_speed_pos_fdbk.c **** //cstat !MISRAC2012-Rule-8.13
 972:MCSDK_v6.2.1-Full/MotorControl/MCSDK/MCLib/Any/Src/sto_pll_speed_pos_fdbk.c **** __weak void STO_GetPLLGains(STO_PLL_Handle_t *pHandle, int16_t *pPgain, int16_t *pIgain)
 973:MCSDK_v6.2.1-Full/MotorControl/MCSDK/MCLib/Any/Src/sto_pll_speed_pos_fdbk.c **** {
 1667              		.loc 1 973 1 is_stmt 1 view -0
 1668              		.cfi_startproc
ARM GAS  C:\Users\ep_ygh\AppData\Local\Temp\cc16k1Ab.s 			page 56


 1669              		@ args = 0, pretend = 0, frame = 0
 1670              		@ frame_needed = 0, uses_anonymous_args = 0
 974:MCSDK_v6.2.1-Full/MotorControl/MCSDK/MCLib/Any/Src/sto_pll_speed_pos_fdbk.c **** #ifdef NULL_PTR_CHECK_STO_PLL_SPD_POS_FDB
 975:MCSDK_v6.2.1-Full/MotorControl/MCSDK/MCLib/Any/Src/sto_pll_speed_pos_fdbk.c ****   if ((MC_NULL == pHandle) || (MC_NULL == pPgain) || (MC_NULL == pIgain))
 976:MCSDK_v6.2.1-Full/MotorControl/MCSDK/MCLib/Any/Src/sto_pll_speed_pos_fdbk.c ****   {
 977:MCSDK_v6.2.1-Full/MotorControl/MCSDK/MCLib/Any/Src/sto_pll_speed_pos_fdbk.c ****     /* Nothing to do */
 978:MCSDK_v6.2.1-Full/MotorControl/MCSDK/MCLib/Any/Src/sto_pll_speed_pos_fdbk.c ****   }
 979:MCSDK_v6.2.1-Full/MotorControl/MCSDK/MCLib/Any/Src/sto_pll_speed_pos_fdbk.c ****   else
 980:MCSDK_v6.2.1-Full/MotorControl/MCSDK/MCLib/Any/Src/sto_pll_speed_pos_fdbk.c ****   {
 981:MCSDK_v6.2.1-Full/MotorControl/MCSDK/MCLib/Any/Src/sto_pll_speed_pos_fdbk.c **** #endif
 982:MCSDK_v6.2.1-Full/MotorControl/MCSDK/MCLib/Any/Src/sto_pll_speed_pos_fdbk.c ****     *pPgain = PID_GetKP(& pHandle->PIRegulator);
 1671              		.loc 1 982 5 view .LVU686
 973:MCSDK_v6.2.1-Full/MotorControl/MCSDK/MCLib/Any/Src/sto_pll_speed_pos_fdbk.c **** #ifdef NULL_PTR_CHECK_STO_PLL_SPD_POS_FDB
 1672              		.loc 1 973 1 is_stmt 0 view .LVU687
 1673 0000 70B5     		push	{r4, r5, r6, lr}
 1674              	.LCFI18:
 1675              		.cfi_def_cfa_offset 16
 1676              		.cfi_offset 4, -16
 1677              		.cfi_offset 5, -12
 1678              		.cfi_offset 6, -8
 1679              		.cfi_offset 14, -4
 1680              		.loc 1 982 15 view .LVU688
 1681 0002 00F13404 		add	r4, r0, #52
 1682 0006 2046     		mov	r0, r4
 1683              	.LVL147:
 973:MCSDK_v6.2.1-Full/MotorControl/MCSDK/MCLib/Any/Src/sto_pll_speed_pos_fdbk.c **** #ifdef NULL_PTR_CHECK_STO_PLL_SPD_POS_FDB
 1684              		.loc 1 973 1 view .LVU689
 1685 0008 0E46     		mov	r6, r1
 1686 000a 1546     		mov	r5, r2
 1687              		.loc 1 982 15 view .LVU690
 1688 000c FFF7FEFF 		bl	PID_GetKP
 1689              	.LVL148:
 1690              		.loc 1 982 13 view .LVU691
 1691 0010 3080     		strh	r0, [r6]	@ movhi
 983:MCSDK_v6.2.1-Full/MotorControl/MCSDK/MCLib/Any/Src/sto_pll_speed_pos_fdbk.c ****     *pIgain = PID_GetKI(& pHandle->PIRegulator);
 1692              		.loc 1 983 5 is_stmt 1 view .LVU692
 1693              		.loc 1 983 15 is_stmt 0 view .LVU693
 1694 0012 2046     		mov	r0, r4
 1695 0014 FFF7FEFF 		bl	PID_GetKI
 1696              	.LVL149:
 1697              		.loc 1 983 13 view .LVU694
 1698 0018 2880     		strh	r0, [r5]	@ movhi
 984:MCSDK_v6.2.1-Full/MotorControl/MCSDK/MCLib/Any/Src/sto_pll_speed_pos_fdbk.c **** #ifdef NULL_PTR_CHECK_STO_PLL_SPD_POS_FDB
 985:MCSDK_v6.2.1-Full/MotorControl/MCSDK/MCLib/Any/Src/sto_pll_speed_pos_fdbk.c ****   }
 986:MCSDK_v6.2.1-Full/MotorControl/MCSDK/MCLib/Any/Src/sto_pll_speed_pos_fdbk.c **** #endif
 987:MCSDK_v6.2.1-Full/MotorControl/MCSDK/MCLib/Any/Src/sto_pll_speed_pos_fdbk.c **** }
 1699              		.loc 1 987 1 view .LVU695
 1700 001a 70BD     		pop	{r4, r5, r6, pc}
 1701              		.loc 1 987 1 view .LVU696
 1702              		.cfi_endproc
 1703              	.LFE1104:
 1705              		.section	.text.STO_SetPLLGains,"ax",%progbits
 1706              		.align	1
 1707              		.p2align 2,,3
 1708              		.weak	STO_SetPLLGains
 1709              		.syntax unified
 1710              		.thumb
ARM GAS  C:\Users\ep_ygh\AppData\Local\Temp\cc16k1Ab.s 			page 57


 1711              		.thumb_func
 1713              	STO_SetPLLGains:
 1714              	.LVL150:
 1715              	.LFB1105:
 988:MCSDK_v6.2.1-Full/MotorControl/MCSDK/MCLib/Any/Src/sto_pll_speed_pos_fdbk.c **** 
 989:MCSDK_v6.2.1-Full/MotorControl/MCSDK/MCLib/Any/Src/sto_pll_speed_pos_fdbk.c **** 
 990:MCSDK_v6.2.1-Full/MotorControl/MCSDK/MCLib/Any/Src/sto_pll_speed_pos_fdbk.c **** /**
 991:MCSDK_v6.2.1-Full/MotorControl/MCSDK/MCLib/Any/Src/sto_pll_speed_pos_fdbk.c ****   * @brief  Stores in @p pHandle the new values @p hPgain and @p hIgain for PLL gains.
 992:MCSDK_v6.2.1-Full/MotorControl/MCSDK/MCLib/Any/Src/sto_pll_speed_pos_fdbk.c ****   * 
 993:MCSDK_v6.2.1-Full/MotorControl/MCSDK/MCLib/Any/Src/sto_pll_speed_pos_fdbk.c ****   */
 994:MCSDK_v6.2.1-Full/MotorControl/MCSDK/MCLib/Any/Src/sto_pll_speed_pos_fdbk.c **** __weak void STO_SetPLLGains(STO_PLL_Handle_t *pHandle, int16_t hPgain, int16_t hIgain)
 995:MCSDK_v6.2.1-Full/MotorControl/MCSDK/MCLib/Any/Src/sto_pll_speed_pos_fdbk.c **** {
 1716              		.loc 1 995 1 is_stmt 1 view -0
 1717              		.cfi_startproc
 1718              		@ args = 0, pretend = 0, frame = 8
 1719              		@ frame_needed = 0, uses_anonymous_args = 0
 996:MCSDK_v6.2.1-Full/MotorControl/MCSDK/MCLib/Any/Src/sto_pll_speed_pos_fdbk.c **** #ifdef NULL_PTR_CHECK_STO_PLL_SPD_POS_FDB
 997:MCSDK_v6.2.1-Full/MotorControl/MCSDK/MCLib/Any/Src/sto_pll_speed_pos_fdbk.c ****   if (MC_NULL == pHandle)
 998:MCSDK_v6.2.1-Full/MotorControl/MCSDK/MCLib/Any/Src/sto_pll_speed_pos_fdbk.c ****   {
 999:MCSDK_v6.2.1-Full/MotorControl/MCSDK/MCLib/Any/Src/sto_pll_speed_pos_fdbk.c ****     /* Nothing to do */
1000:MCSDK_v6.2.1-Full/MotorControl/MCSDK/MCLib/Any/Src/sto_pll_speed_pos_fdbk.c ****   }
1001:MCSDK_v6.2.1-Full/MotorControl/MCSDK/MCLib/Any/Src/sto_pll_speed_pos_fdbk.c ****   else
1002:MCSDK_v6.2.1-Full/MotorControl/MCSDK/MCLib/Any/Src/sto_pll_speed_pos_fdbk.c ****   {
1003:MCSDK_v6.2.1-Full/MotorControl/MCSDK/MCLib/Any/Src/sto_pll_speed_pos_fdbk.c **** #endif
1004:MCSDK_v6.2.1-Full/MotorControl/MCSDK/MCLib/Any/Src/sto_pll_speed_pos_fdbk.c ****     PID_SetKP(&pHandle->PIRegulator, hPgain);
 1720              		.loc 1 1004 5 view .LVU698
 995:MCSDK_v6.2.1-Full/MotorControl/MCSDK/MCLib/Any/Src/sto_pll_speed_pos_fdbk.c **** #ifdef NULL_PTR_CHECK_STO_PLL_SPD_POS_FDB
 1721              		.loc 1 995 1 is_stmt 0 view .LVU699
 1722 0000 10B5     		push	{r4, lr}
 1723              	.LCFI19:
 1724              		.cfi_def_cfa_offset 8
 1725              		.cfi_offset 4, -8
 1726              		.cfi_offset 14, -4
 1727 0002 82B0     		sub	sp, sp, #8
 1728              	.LCFI20:
 1729              		.cfi_def_cfa_offset 16
 1730              		.loc 1 1004 5 view .LVU700
 1731 0004 3430     		adds	r0, r0, #52
 1732              	.LVL151:
 995:MCSDK_v6.2.1-Full/MotorControl/MCSDK/MCLib/Any/Src/sto_pll_speed_pos_fdbk.c **** #ifdef NULL_PTR_CHECK_STO_PLL_SPD_POS_FDB
 1733              		.loc 1 995 1 view .LVU701
 1734 0006 1446     		mov	r4, r2
 1735              		.loc 1 1004 5 view .LVU702
 1736 0008 0190     		str	r0, [sp, #4]
 1737 000a FFF7FEFF 		bl	PID_SetKP
 1738              	.LVL152:
1005:MCSDK_v6.2.1-Full/MotorControl/MCSDK/MCLib/Any/Src/sto_pll_speed_pos_fdbk.c ****     PID_SetKI(&pHandle->PIRegulator, hIgain);
 1739              		.loc 1 1005 5 is_stmt 1 view .LVU703
 1740 000e 0198     		ldr	r0, [sp, #4]
 1741 0010 2146     		mov	r1, r4
1006:MCSDK_v6.2.1-Full/MotorControl/MCSDK/MCLib/Any/Src/sto_pll_speed_pos_fdbk.c **** #ifdef NULL_PTR_CHECK_STO_PLL_SPD_POS_FDB
1007:MCSDK_v6.2.1-Full/MotorControl/MCSDK/MCLib/Any/Src/sto_pll_speed_pos_fdbk.c ****   }
1008:MCSDK_v6.2.1-Full/MotorControl/MCSDK/MCLib/Any/Src/sto_pll_speed_pos_fdbk.c **** #endif
1009:MCSDK_v6.2.1-Full/MotorControl/MCSDK/MCLib/Any/Src/sto_pll_speed_pos_fdbk.c **** }
 1742              		.loc 1 1009 1 is_stmt 0 view .LVU704
 1743 0012 02B0     		add	sp, sp, #8
 1744              	.LCFI21:
ARM GAS  C:\Users\ep_ygh\AppData\Local\Temp\cc16k1Ab.s 			page 58


 1745              		.cfi_def_cfa_offset 8
 1746              		@ sp needed
 1747 0014 BDE81040 		pop	{r4, lr}
 1748              	.LCFI22:
 1749              		.cfi_restore 14
 1750              		.cfi_restore 4
 1751              		.cfi_def_cfa_offset 0
 1752              	.LVL153:
1005:MCSDK_v6.2.1-Full/MotorControl/MCSDK/MCLib/Any/Src/sto_pll_speed_pos_fdbk.c ****     PID_SetKI(&pHandle->PIRegulator, hIgain);
 1753              		.loc 1 1005 5 view .LVU705
 1754 0018 FFF7FEBF 		b	PID_SetKI
 1755              	.LVL154:
 1756              		.cfi_endproc
 1757              	.LFE1105:
 1759              		.section	.text.STO_PLL_SetMecAngle,"ax",%progbits
 1760              		.align	1
 1761              		.p2align 2,,3
 1762              		.weak	STO_PLL_SetMecAngle
 1763              		.syntax unified
 1764              		.thumb
 1765              		.thumb_func
 1767              	STO_PLL_SetMecAngle:
 1768              	.LVL155:
 1769              	.LFB1106:
1010:MCSDK_v6.2.1-Full/MotorControl/MCSDK/MCLib/Any/Src/sto_pll_speed_pos_fdbk.c **** 
1011:MCSDK_v6.2.1-Full/MotorControl/MCSDK/MCLib/Any/Src/sto_pll_speed_pos_fdbk.c **** 
1012:MCSDK_v6.2.1-Full/MotorControl/MCSDK/MCLib/Any/Src/sto_pll_speed_pos_fdbk.c **** /**
1013:MCSDK_v6.2.1-Full/MotorControl/MCSDK/MCLib/Any/Src/sto_pll_speed_pos_fdbk.c ****   * @brief  Empty function. Could be declared to set instantaneous information on rotor mechanical 
1014:MCSDK_v6.2.1-Full/MotorControl/MCSDK/MCLib/Any/Src/sto_pll_speed_pos_fdbk.c ****   * 
