ARM GAS  C:\Users\ep_ygh\AppData\Local\Temp\ccVk9xPU.s 			page 1


   1              		.cpu cortex-m4
   2              		.arch armv7e-m
   3              		.fpu fpv4-sp-d16
   4              		.eabi_attribute 27, 1
   5              		.eabi_attribute 28, 1
   6              		.eabi_attribute 20, 1
   7              		.eabi_attribute 21, 1
   8              		.eabi_attribute 23, 3
   9              		.eabi_attribute 24, 1
  10              		.eabi_attribute 25, 1
  11              		.eabi_attribute 26, 1
  12              		.eabi_attribute 30, 2
  13              		.eabi_attribute 34, 1
  14              		.eabi_attribute 18, 4
  15              		.file	"trajectory_ctrl.c"
  16              		.text
  17              	.Ltext0:
  18              		.cfi_sections	.debug_frame
  19              		.section	.text.TC_Init,"ax",%progbits
  20              		.align	1
  21              		.p2align 2,,3
  22              		.global	TC_Init
  23              		.syntax unified
  24              		.thumb
  25              		.thumb_func
  27              	TC_Init:
  28              	.LVL0:
  29              	.LFB1088:
  30              		.file 1 "MCSDK_v6.2.1-Full/MotorControl/MCSDK/MCLib/Any/Src/trajectory_ctrl.c"
   1:MCSDK_v6.2.1-Full/MotorControl/MCSDK/MCLib/Any/Src/trajectory_ctrl.c **** /**
   2:MCSDK_v6.2.1-Full/MotorControl/MCSDK/MCLib/Any/Src/trajectory_ctrl.c ****   ******************************************************************************
   3:MCSDK_v6.2.1-Full/MotorControl/MCSDK/MCLib/Any/Src/trajectory_ctrl.c ****   * @file    trajectory_ctrl.c
   4:MCSDK_v6.2.1-Full/MotorControl/MCSDK/MCLib/Any/Src/trajectory_ctrl.c ****   * @author  Motor Control SDK Team, ST Microelectronics
   5:MCSDK_v6.2.1-Full/MotorControl/MCSDK/MCLib/Any/Src/trajectory_ctrl.c ****   * @brief   This file provides firmware functions that implements the Position Control
   6:MCSDK_v6.2.1-Full/MotorControl/MCSDK/MCLib/Any/Src/trajectory_ctrl.c ****   *           component of the Motor Control SDK.
   7:MCSDK_v6.2.1-Full/MotorControl/MCSDK/MCLib/Any/Src/trajectory_ctrl.c ****   *
   8:MCSDK_v6.2.1-Full/MotorControl/MCSDK/MCLib/Any/Src/trajectory_ctrl.c ****   ******************************************************************************
   9:MCSDK_v6.2.1-Full/MotorControl/MCSDK/MCLib/Any/Src/trajectory_ctrl.c ****   * @attention
  10:MCSDK_v6.2.1-Full/MotorControl/MCSDK/MCLib/Any/Src/trajectory_ctrl.c ****   *
  11:MCSDK_v6.2.1-Full/MotorControl/MCSDK/MCLib/Any/Src/trajectory_ctrl.c ****   * <h2><center>&copy; Copyright (c) 2023 STMicroelectronics.
  12:MCSDK_v6.2.1-Full/MotorControl/MCSDK/MCLib/Any/Src/trajectory_ctrl.c ****   * All rights reserved.</center></h2>
  13:MCSDK_v6.2.1-Full/MotorControl/MCSDK/MCLib/Any/Src/trajectory_ctrl.c ****   *
  14:MCSDK_v6.2.1-Full/MotorControl/MCSDK/MCLib/Any/Src/trajectory_ctrl.c ****   * This software component is licensed by ST under Ultimate Liberty license
  15:MCSDK_v6.2.1-Full/MotorControl/MCSDK/MCLib/Any/Src/trajectory_ctrl.c ****   * SLA0044, the "License"; You may not use this file except in compliance with
  16:MCSDK_v6.2.1-Full/MotorControl/MCSDK/MCLib/Any/Src/trajectory_ctrl.c ****   * the License. You may obtain a copy of the License at:
  17:MCSDK_v6.2.1-Full/MotorControl/MCSDK/MCLib/Any/Src/trajectory_ctrl.c ****   *                             www.st.com/SLA0044
  18:MCSDK_v6.2.1-Full/MotorControl/MCSDK/MCLib/Any/Src/trajectory_ctrl.c ****   *
  19:MCSDK_v6.2.1-Full/MotorControl/MCSDK/MCLib/Any/Src/trajectory_ctrl.c ****   ******************************************************************************
  20:MCSDK_v6.2.1-Full/MotorControl/MCSDK/MCLib/Any/Src/trajectory_ctrl.c ****   * @ingroup PositionControl
  21:MCSDK_v6.2.1-Full/MotorControl/MCSDK/MCLib/Any/Src/trajectory_ctrl.c ****   */
  22:MCSDK_v6.2.1-Full/MotorControl/MCSDK/MCLib/Any/Src/trajectory_ctrl.c **** 
  23:MCSDK_v6.2.1-Full/MotorControl/MCSDK/MCLib/Any/Src/trajectory_ctrl.c **** /* Includes ------------------------------------------------------------------*/
  24:MCSDK_v6.2.1-Full/MotorControl/MCSDK/MCLib/Any/Src/trajectory_ctrl.c **** #include "trajectory_ctrl.h"
  25:MCSDK_v6.2.1-Full/MotorControl/MCSDK/MCLib/Any/Src/trajectory_ctrl.c **** #include "speed_pos_fdbk.h"
  26:MCSDK_v6.2.1-Full/MotorControl/MCSDK/MCLib/Any/Src/trajectory_ctrl.c **** 
  27:MCSDK_v6.2.1-Full/MotorControl/MCSDK/MCLib/Any/Src/trajectory_ctrl.c **** /** @addtogroup MCSDK
  28:MCSDK_v6.2.1-Full/MotorControl/MCSDK/MCLib/Any/Src/trajectory_ctrl.c ****   * @{
ARM GAS  C:\Users\ep_ygh\AppData\Local\Temp\ccVk9xPU.s 			page 2


  29:MCSDK_v6.2.1-Full/MotorControl/MCSDK/MCLib/Any/Src/trajectory_ctrl.c ****   */
  30:MCSDK_v6.2.1-Full/MotorControl/MCSDK/MCLib/Any/Src/trajectory_ctrl.c **** 
  31:MCSDK_v6.2.1-Full/MotorControl/MCSDK/MCLib/Any/Src/trajectory_ctrl.c **** /**
  32:MCSDK_v6.2.1-Full/MotorControl/MCSDK/MCLib/Any/Src/trajectory_ctrl.c ****   * @defgroup PositionControl Position Control 
  33:MCSDK_v6.2.1-Full/MotorControl/MCSDK/MCLib/Any/Src/trajectory_ctrl.c ****   * 
  34:MCSDK_v6.2.1-Full/MotorControl/MCSDK/MCLib/Any/Src/trajectory_ctrl.c ****   * @brief Position Control component of the Motor Control SDK
  35:MCSDK_v6.2.1-Full/MotorControl/MCSDK/MCLib/Any/Src/trajectory_ctrl.c **** 
  36:MCSDK_v6.2.1-Full/MotorControl/MCSDK/MCLib/Any/Src/trajectory_ctrl.c ****   * The Position Control component allows to control the movement of the motor in two different way
  37:MCSDK_v6.2.1-Full/MotorControl/MCSDK/MCLib/Any/Src/trajectory_ctrl.c ****   * 
  38:MCSDK_v6.2.1-Full/MotorControl/MCSDK/MCLib/Any/Src/trajectory_ctrl.c ****   * * Trajectory control mode, implemented by the TC_MoveCommand() function: allows to move the mot
  39:MCSDK_v6.2.1-Full/MotorControl/MCSDK/MCLib/Any/Src/trajectory_ctrl.c ****   * target mechanical position in a settled time (duration) following a programmed trajectory compo
  40:MCSDK_v6.2.1-Full/MotorControl/MCSDK/MCLib/Any/Src/trajectory_ctrl.c ****   *  1- acceleration, 2- rotation at constant speed and 3- deceleration.
  41:MCSDK_v6.2.1-Full/MotorControl/MCSDK/MCLib/Any/Src/trajectory_ctrl.c ****   * * Follow mode, implemented by the TC_FollowCommand() function: This mode is for instance useful
  42:MCSDK_v6.2.1-Full/MotorControl/MCSDK/MCLib/Any/Src/trajectory_ctrl.c ****   * computed by an external controller, or by an algorithm defined by the user. 
  43:MCSDK_v6.2.1-Full/MotorControl/MCSDK/MCLib/Any/Src/trajectory_ctrl.c ****   * The user can send at fixed rate, different target positions according to a required trajectory 
  44:MCSDK_v6.2.1-Full/MotorControl/MCSDK/MCLib/Any/Src/trajectory_ctrl.c ****   *  algorithm computes the intermediate points to reach (follow) the target with a smooth movement
  45:MCSDK_v6.2.1-Full/MotorControl/MCSDK/MCLib/Any/Src/trajectory_ctrl.c ****   * 
  46:MCSDK_v6.2.1-Full/MotorControl/MCSDK/MCLib/Any/Src/trajectory_ctrl.c ****   * The position controller uses a PID (with a proportional, integral and derivative action) to reg
  47:MCSDK_v6.2.1-Full/MotorControl/MCSDK/MCLib/Any/Src/trajectory_ctrl.c ****   *
  48:MCSDK_v6.2.1-Full/MotorControl/MCSDK/MCLib/Any/Src/trajectory_ctrl.c ****   * @{
  49:MCSDK_v6.2.1-Full/MotorControl/MCSDK/MCLib/Any/Src/trajectory_ctrl.c ****   */
  50:MCSDK_v6.2.1-Full/MotorControl/MCSDK/MCLib/Any/Src/trajectory_ctrl.c **** 
  51:MCSDK_v6.2.1-Full/MotorControl/MCSDK/MCLib/Any/Src/trajectory_ctrl.c **** /**
  52:MCSDK_v6.2.1-Full/MotorControl/MCSDK/MCLib/Any/Src/trajectory_ctrl.c ****   * @brief  Initializes the handle of position control.
  53:MCSDK_v6.2.1-Full/MotorControl/MCSDK/MCLib/Any/Src/trajectory_ctrl.c ****   * @param  pHandle handler of the current instance of the Position Control component.
  54:MCSDK_v6.2.1-Full/MotorControl/MCSDK/MCLib/Any/Src/trajectory_ctrl.c ****   * @param  pPIDPosReg pointer on the handler of the current instance of PID used for the position 
  55:MCSDK_v6.2.1-Full/MotorControl/MCSDK/MCLib/Any/Src/trajectory_ctrl.c ****   * @param  pSTC pointer on the handler of the current instance of the SpeednTorqCtrl component.
  56:MCSDK_v6.2.1-Full/MotorControl/MCSDK/MCLib/Any/Src/trajectory_ctrl.c ****   * @param  pENC handler of the current instance of the EncAlignCtrl component.
  57:MCSDK_v6.2.1-Full/MotorControl/MCSDK/MCLib/Any/Src/trajectory_ctrl.c ****  
  58:MCSDK_v6.2.1-Full/MotorControl/MCSDK/MCLib/Any/Src/trajectory_ctrl.c ****   */
  59:MCSDK_v6.2.1-Full/MotorControl/MCSDK/MCLib/Any/Src/trajectory_ctrl.c **** void TC_Init(PosCtrl_Handle_t *pHandle, PID_Handle_t *pPIDPosReg, SpeednTorqCtrl_Handle_t *pSTC, EN
  60:MCSDK_v6.2.1-Full/MotorControl/MCSDK/MCLib/Any/Src/trajectory_ctrl.c **** {
  31              		.loc 1 60 1 view -0
  32              		.cfi_startproc
  33              		@ args = 0, pretend = 0, frame = 0
  34              		@ frame_needed = 0, uses_anonymous_args = 0
  35              		@ link register save eliminated.
  61:MCSDK_v6.2.1-Full/MotorControl/MCSDK/MCLib/Any/Src/trajectory_ctrl.c **** 
  62:MCSDK_v6.2.1-Full/MotorControl/MCSDK/MCLib/Any/Src/trajectory_ctrl.c ****   pHandle->MovementDuration = 0.0f;
  36              		.loc 1 62 3 view .LVU1
  37              		.loc 1 62 29 is_stmt 0 view .LVU2
  38 0000 4FF0000C 		mov	ip, #0
  63:MCSDK_v6.2.1-Full/MotorControl/MCSDK/MCLib/Any/Src/trajectory_ctrl.c ****   pHandle->AngleStep = 0.0f;
  64:MCSDK_v6.2.1-Full/MotorControl/MCSDK/MCLib/Any/Src/trajectory_ctrl.c ****   pHandle->SubStep[0] = 0.0f;
  65:MCSDK_v6.2.1-Full/MotorControl/MCSDK/MCLib/Any/Src/trajectory_ctrl.c ****   pHandle->SubStep[1] = 0.0f;
  66:MCSDK_v6.2.1-Full/MotorControl/MCSDK/MCLib/Any/Src/trajectory_ctrl.c ****   pHandle->SubStep[2] = 0.0f;
  67:MCSDK_v6.2.1-Full/MotorControl/MCSDK/MCLib/Any/Src/trajectory_ctrl.c ****   pHandle->SubStep[3] = 0.0f;
  68:MCSDK_v6.2.1-Full/MotorControl/MCSDK/MCLib/Any/Src/trajectory_ctrl.c ****   pHandle->SubStep[4] = 0.0f;
  69:MCSDK_v6.2.1-Full/MotorControl/MCSDK/MCLib/Any/Src/trajectory_ctrl.c ****   pHandle->SubStep[5] = 0.0f;
  70:MCSDK_v6.2.1-Full/MotorControl/MCSDK/MCLib/Any/Src/trajectory_ctrl.c **** 
  71:MCSDK_v6.2.1-Full/MotorControl/MCSDK/MCLib/Any/Src/trajectory_ctrl.c ****   pHandle->SubStepDuration = 0;
  72:MCSDK_v6.2.1-Full/MotorControl/MCSDK/MCLib/Any/Src/trajectory_ctrl.c **** 
  73:MCSDK_v6.2.1-Full/MotorControl/MCSDK/MCLib/Any/Src/trajectory_ctrl.c ****   pHandle->Jerk = 0.0f;
  74:MCSDK_v6.2.1-Full/MotorControl/MCSDK/MCLib/Any/Src/trajectory_ctrl.c ****   pHandle->CruiseSpeed = 0.0f;
  75:MCSDK_v6.2.1-Full/MotorControl/MCSDK/MCLib/Any/Src/trajectory_ctrl.c ****   pHandle->Acceleration = 0.0f;
  76:MCSDK_v6.2.1-Full/MotorControl/MCSDK/MCLib/Any/Src/trajectory_ctrl.c ****   pHandle->Omega = 0.0f;
  77:MCSDK_v6.2.1-Full/MotorControl/MCSDK/MCLib/Any/Src/trajectory_ctrl.c ****   pHandle->OmegaPrev = 0.0f;
ARM GAS  C:\Users\ep_ygh\AppData\Local\Temp\ccVk9xPU.s 			page 3


  78:MCSDK_v6.2.1-Full/MotorControl/MCSDK/MCLib/Any/Src/trajectory_ctrl.c ****   pHandle->Theta = 0.0f;
  79:MCSDK_v6.2.1-Full/MotorControl/MCSDK/MCLib/Any/Src/trajectory_ctrl.c ****   pHandle->ThetaPrev = 0.0f;
  80:MCSDK_v6.2.1-Full/MotorControl/MCSDK/MCLib/Any/Src/trajectory_ctrl.c ****   pHandle->ReceivedTh = 0.0f;
  81:MCSDK_v6.2.1-Full/MotorControl/MCSDK/MCLib/Any/Src/trajectory_ctrl.c ****   pHandle->TcTick = 0;
  82:MCSDK_v6.2.1-Full/MotorControl/MCSDK/MCLib/Any/Src/trajectory_ctrl.c ****   pHandle->ElapseTime = 0.0f;
  83:MCSDK_v6.2.1-Full/MotorControl/MCSDK/MCLib/Any/Src/trajectory_ctrl.c **** 
  84:MCSDK_v6.2.1-Full/MotorControl/MCSDK/MCLib/Any/Src/trajectory_ctrl.c ****   pHandle->PositionControlRegulation = DISABLE;
  85:MCSDK_v6.2.1-Full/MotorControl/MCSDK/MCLib/Any/Src/trajectory_ctrl.c ****   pHandle->PositionCtrlStatus = TC_READY_FOR_COMMAND;
  86:MCSDK_v6.2.1-Full/MotorControl/MCSDK/MCLib/Any/Src/trajectory_ctrl.c **** 
  87:MCSDK_v6.2.1-Full/MotorControl/MCSDK/MCLib/Any/Src/trajectory_ctrl.c ****   pHandle->pENC = pENC;
  39              		.loc 1 87 17 view .LVU3
  40 0004 4366     		str	r3, [r0, #100]
  81:MCSDK_v6.2.1-Full/MotorControl/MCSDK/MCLib/Any/Src/trajectory_ctrl.c ****   pHandle->ElapseTime = 0.0f;
  41              		.loc 1 81 19 view .LVU4
  42 0006 0023     		movs	r3, #0
  43              	.LVL1:
  88:MCSDK_v6.2.1-Full/MotorControl/MCSDK/MCLib/Any/Src/trajectory_ctrl.c ****   pHandle->pSTC = pSTC;
  44              		.loc 1 88 17 view .LVU5
  45 0008 C0E91A21 		strd	r2, r1, [r0, #104]
  62:MCSDK_v6.2.1-Full/MotorControl/MCSDK/MCLib/Any/Src/trajectory_ctrl.c ****   pHandle->AngleStep = 0.0f;
  46              		.loc 1 62 29 view .LVU6
  47 000c C0F800C0 		str	ip, [r0]	@ float
  63:MCSDK_v6.2.1-Full/MotorControl/MCSDK/MCLib/Any/Src/trajectory_ctrl.c ****   pHandle->SubStep[0] = 0.0f;
  48              		.loc 1 63 3 is_stmt 1 view .LVU7
  63:MCSDK_v6.2.1-Full/MotorControl/MCSDK/MCLib/Any/Src/trajectory_ctrl.c ****   pHandle->SubStep[0] = 0.0f;
  49              		.loc 1 63 22 is_stmt 0 view .LVU8
  50 0010 C0F80CC0 		str	ip, [r0, #12]	@ float
  64:MCSDK_v6.2.1-Full/MotorControl/MCSDK/MCLib/Any/Src/trajectory_ctrl.c ****   pHandle->SubStep[1] = 0.0f;
  51              		.loc 1 64 3 is_stmt 1 view .LVU9
  64:MCSDK_v6.2.1-Full/MotorControl/MCSDK/MCLib/Any/Src/trajectory_ctrl.c ****   pHandle->SubStep[1] = 0.0f;
  52              		.loc 1 64 23 is_stmt 0 view .LVU10
  53 0014 C0F810C0 		str	ip, [r0, #16]	@ float
  65:MCSDK_v6.2.1-Full/MotorControl/MCSDK/MCLib/Any/Src/trajectory_ctrl.c ****   pHandle->SubStep[2] = 0.0f;
  54              		.loc 1 65 3 is_stmt 1 view .LVU11
  65:MCSDK_v6.2.1-Full/MotorControl/MCSDK/MCLib/Any/Src/trajectory_ctrl.c ****   pHandle->SubStep[2] = 0.0f;
  55              		.loc 1 65 23 is_stmt 0 view .LVU12
  56 0018 C0F814C0 		str	ip, [r0, #20]	@ float
  66:MCSDK_v6.2.1-Full/MotorControl/MCSDK/MCLib/Any/Src/trajectory_ctrl.c ****   pHandle->SubStep[3] = 0.0f;
  57              		.loc 1 66 3 is_stmt 1 view .LVU13
  66:MCSDK_v6.2.1-Full/MotorControl/MCSDK/MCLib/Any/Src/trajectory_ctrl.c ****   pHandle->SubStep[3] = 0.0f;
  58              		.loc 1 66 23 is_stmt 0 view .LVU14
  59 001c C0F818C0 		str	ip, [r0, #24]	@ float
  67:MCSDK_v6.2.1-Full/MotorControl/MCSDK/MCLib/Any/Src/trajectory_ctrl.c ****   pHandle->SubStep[4] = 0.0f;
  60              		.loc 1 67 3 is_stmt 1 view .LVU15
  67:MCSDK_v6.2.1-Full/MotorControl/MCSDK/MCLib/Any/Src/trajectory_ctrl.c ****   pHandle->SubStep[4] = 0.0f;
  61              		.loc 1 67 23 is_stmt 0 view .LVU16
  62 0020 C0F81CC0 		str	ip, [r0, #28]	@ float
  68:MCSDK_v6.2.1-Full/MotorControl/MCSDK/MCLib/Any/Src/trajectory_ctrl.c ****   pHandle->SubStep[5] = 0.0f;
  63              		.loc 1 68 3 is_stmt 1 view .LVU17
  68:MCSDK_v6.2.1-Full/MotorControl/MCSDK/MCLib/Any/Src/trajectory_ctrl.c ****   pHandle->SubStep[5] = 0.0f;
  64              		.loc 1 68 23 is_stmt 0 view .LVU18
  65 0024 C0F820C0 		str	ip, [r0, #32]	@ float
  69:MCSDK_v6.2.1-Full/MotorControl/MCSDK/MCLib/Any/Src/trajectory_ctrl.c **** 
  66              		.loc 1 69 3 is_stmt 1 view .LVU19
  69:MCSDK_v6.2.1-Full/MotorControl/MCSDK/MCLib/Any/Src/trajectory_ctrl.c **** 
  67              		.loc 1 69 23 is_stmt 0 view .LVU20
  68 0028 C0F824C0 		str	ip, [r0, #36]	@ float
ARM GAS  C:\Users\ep_ygh\AppData\Local\Temp\ccVk9xPU.s 			page 4


  71:MCSDK_v6.2.1-Full/MotorControl/MCSDK/MCLib/Any/Src/trajectory_ctrl.c **** 
  69              		.loc 1 71 3 is_stmt 1 view .LVU21
  71:MCSDK_v6.2.1-Full/MotorControl/MCSDK/MCLib/Any/Src/trajectory_ctrl.c **** 
  70              		.loc 1 71 28 is_stmt 0 view .LVU22
  71 002c C0F828C0 		str	ip, [r0, #40]	@ float
  73:MCSDK_v6.2.1-Full/MotorControl/MCSDK/MCLib/Any/Src/trajectory_ctrl.c ****   pHandle->CruiseSpeed = 0.0f;
  72              		.loc 1 73 3 is_stmt 1 view .LVU23
  74:MCSDK_v6.2.1-Full/MotorControl/MCSDK/MCLib/Any/Src/trajectory_ctrl.c ****   pHandle->Acceleration = 0.0f;
  73              		.loc 1 74 3 view .LVU24
  75:MCSDK_v6.2.1-Full/MotorControl/MCSDK/MCLib/Any/Src/trajectory_ctrl.c ****   pHandle->Omega = 0.0f;
  74              		.loc 1 75 3 view .LVU25
  76:MCSDK_v6.2.1-Full/MotorControl/MCSDK/MCLib/Any/Src/trajectory_ctrl.c ****   pHandle->OmegaPrev = 0.0f;
  75              		.loc 1 76 3 view .LVU26
  77:MCSDK_v6.2.1-Full/MotorControl/MCSDK/MCLib/Any/Src/trajectory_ctrl.c ****   pHandle->Theta = 0.0f;
  76              		.loc 1 77 3 view .LVU27
  78:MCSDK_v6.2.1-Full/MotorControl/MCSDK/MCLib/Any/Src/trajectory_ctrl.c ****   pHandle->ThetaPrev = 0.0f;
  77              		.loc 1 78 3 view .LVU28
  79:MCSDK_v6.2.1-Full/MotorControl/MCSDK/MCLib/Any/Src/trajectory_ctrl.c ****   pHandle->ReceivedTh = 0.0f;
  78              		.loc 1 79 3 view .LVU29
  80:MCSDK_v6.2.1-Full/MotorControl/MCSDK/MCLib/Any/Src/trajectory_ctrl.c ****   pHandle->TcTick = 0;
  79              		.loc 1 80 3 view .LVU30
  81:MCSDK_v6.2.1-Full/MotorControl/MCSDK/MCLib/Any/Src/trajectory_ctrl.c ****   pHandle->ElapseTime = 0.0f;
  80              		.loc 1 81 3 view .LVU31
  82:MCSDK_v6.2.1-Full/MotorControl/MCSDK/MCLib/Any/Src/trajectory_ctrl.c **** 
  81              		.loc 1 82 23 is_stmt 0 view .LVU32
  82 0030 C0F82CC0 		str	ip, [r0, #44]	@ float
  73:MCSDK_v6.2.1-Full/MotorControl/MCSDK/MCLib/Any/Src/trajectory_ctrl.c ****   pHandle->CruiseSpeed = 0.0f;
  83              		.loc 1 73 17 view .LVU33
  84 0034 C0F834C0 		str	ip, [r0, #52]	@ float
  74:MCSDK_v6.2.1-Full/MotorControl/MCSDK/MCLib/Any/Src/trajectory_ctrl.c ****   pHandle->Acceleration = 0.0f;
  85              		.loc 1 74 24 view .LVU34
  86 0038 C0F838C0 		str	ip, [r0, #56]	@ float
  75:MCSDK_v6.2.1-Full/MotorControl/MCSDK/MCLib/Any/Src/trajectory_ctrl.c ****   pHandle->Omega = 0.0f;
  87              		.loc 1 75 25 view .LVU35
  88 003c C0F83CC0 		str	ip, [r0, #60]	@ float
  76:MCSDK_v6.2.1-Full/MotorControl/MCSDK/MCLib/Any/Src/trajectory_ctrl.c ****   pHandle->OmegaPrev = 0.0f;
  89              		.loc 1 76 18 view .LVU36
  90 0040 C0F840C0 		str	ip, [r0, #64]	@ float
  77:MCSDK_v6.2.1-Full/MotorControl/MCSDK/MCLib/Any/Src/trajectory_ctrl.c ****   pHandle->Theta = 0.0f;
  91              		.loc 1 77 22 view .LVU37
  92 0044 C0F844C0 		str	ip, [r0, #68]	@ float
  78:MCSDK_v6.2.1-Full/MotorControl/MCSDK/MCLib/Any/Src/trajectory_ctrl.c ****   pHandle->ThetaPrev = 0.0f;
  93              		.loc 1 78 18 view .LVU38
  94 0048 C0F848C0 		str	ip, [r0, #72]	@ float
  79:MCSDK_v6.2.1-Full/MotorControl/MCSDK/MCLib/Any/Src/trajectory_ctrl.c ****   pHandle->ReceivedTh = 0.0f;
  95              		.loc 1 79 22 view .LVU39
  96 004c C0F84CC0 		str	ip, [r0, #76]	@ float
  81:MCSDK_v6.2.1-Full/MotorControl/MCSDK/MCLib/Any/Src/trajectory_ctrl.c ****   pHandle->ElapseTime = 0.0f;
  97              		.loc 1 81 19 view .LVU40
  98 0050 8365     		str	r3, [r0, #88]
  82:MCSDK_v6.2.1-Full/MotorControl/MCSDK/MCLib/Any/Src/trajectory_ctrl.c **** 
  99              		.loc 1 82 3 is_stmt 1 view .LVU41
  84:MCSDK_v6.2.1-Full/MotorControl/MCSDK/MCLib/Any/Src/trajectory_ctrl.c ****   pHandle->PositionCtrlStatus = TC_READY_FOR_COMMAND;
 100              		.loc 1 84 3 view .LVU42
  80:MCSDK_v6.2.1-Full/MotorControl/MCSDK/MCLib/Any/Src/trajectory_ctrl.c ****   pHandle->TcTick = 0;
 101              		.loc 1 80 23 is_stmt 0 view .LVU43
 102 0052 A0F85030 		strh	r3, [r0, #80]	@ movhi
ARM GAS  C:\Users\ep_ygh\AppData\Local\Temp\ccVk9xPU.s 			page 5


  85:MCSDK_v6.2.1-Full/MotorControl/MCSDK/MCLib/Any/Src/trajectory_ctrl.c **** 
 103              		.loc 1 85 3 is_stmt 1 view .LVU44
  85:MCSDK_v6.2.1-Full/MotorControl/MCSDK/MCLib/Any/Src/trajectory_ctrl.c **** 
 104              		.loc 1 85 31 is_stmt 0 view .LVU45
 105 0056 80F86030 		strb	r3, [r0, #96]
  87:MCSDK_v6.2.1-Full/MotorControl/MCSDK/MCLib/Any/Src/trajectory_ctrl.c ****   pHandle->pSTC = pSTC;
 106              		.loc 1 87 3 is_stmt 1 view .LVU46
 107              		.loc 1 88 3 view .LVU47
  89:MCSDK_v6.2.1-Full/MotorControl/MCSDK/MCLib/Any/Src/trajectory_ctrl.c ****   pHandle->PIDPosRegulator = pPIDPosReg;
 108              		.loc 1 89 3 view .LVU48
  90:MCSDK_v6.2.1-Full/MotorControl/MCSDK/MCLib/Any/Src/trajectory_ctrl.c **** 
  91:MCSDK_v6.2.1-Full/MotorControl/MCSDK/MCLib/Any/Src/trajectory_ctrl.c ****   pHandle->MecAngleOffset = 0;
 109              		.loc 1 91 3 view .LVU49
 110              		.loc 1 91 27 is_stmt 0 view .LVU50
 111 005a A0F85430 		strh	r3, [r0, #84]	@ movhi
  92:MCSDK_v6.2.1-Full/MotorControl/MCSDK/MCLib/Any/Src/trajectory_ctrl.c **** }
 112              		.loc 1 92 1 view .LVU51
 113 005e 7047     		bx	lr
 114              		.cfi_endproc
 115              	.LFE1088:
 117              		.section	.text.TC_MoveCommand,"ax",%progbits
 118              		.align	1
 119              		.p2align 2,,3
 120              		.global	TC_MoveCommand
 121              		.syntax unified
 122              		.thumb
 123              		.thumb_func
 125              	TC_MoveCommand:
 126              	.LVL2:
 127              	.LFB1089:
  93:MCSDK_v6.2.1-Full/MotorControl/MCSDK/MCLib/Any/Src/trajectory_ctrl.c **** 
  94:MCSDK_v6.2.1-Full/MotorControl/MCSDK/MCLib/Any/Src/trajectory_ctrl.c **** /**
  95:MCSDK_v6.2.1-Full/MotorControl/MCSDK/MCLib/Any/Src/trajectory_ctrl.c ****   * @brief  Configures the trapezoidal speed trajectory.
  96:MCSDK_v6.2.1-Full/MotorControl/MCSDK/MCLib/Any/Src/trajectory_ctrl.c ****   * @param  pHandle handler of the current instance of the Position Control component.
  97:MCSDK_v6.2.1-Full/MotorControl/MCSDK/MCLib/Any/Src/trajectory_ctrl.c ****   * @param  startingAngle Current mechanical position.
  98:MCSDK_v6.2.1-Full/MotorControl/MCSDK/MCLib/Any/Src/trajectory_ctrl.c ****   * @param  angleStep Target mechanical position.
  99:MCSDK_v6.2.1-Full/MotorControl/MCSDK/MCLib/Any/Src/trajectory_ctrl.c ****   * @param  movementDuration Duration to reach the final position (in seconds).
 100:MCSDK_v6.2.1-Full/MotorControl/MCSDK/MCLib/Any/Src/trajectory_ctrl.c ****   * @retval ConfigurationStatus set to true when Trajectory command is programmed
 101:MCSDK_v6.2.1-Full/MotorControl/MCSDK/MCLib/Any/Src/trajectory_ctrl.c ****   *                             otherwise not yet ready for a new trajectory configuration.
 102:MCSDK_v6.2.1-Full/MotorControl/MCSDK/MCLib/Any/Src/trajectory_ctrl.c ****   * 
 103:MCSDK_v6.2.1-Full/MotorControl/MCSDK/MCLib/Any/Src/trajectory_ctrl.c ****   * This function implements the Trajectory Control mode. When fDuration is different from 0,
 104:MCSDK_v6.2.1-Full/MotorControl/MCSDK/MCLib/Any/Src/trajectory_ctrl.c ****   * the trajectory of the movement, and therefore its acceleration and speed, are computed. 
 105:MCSDK_v6.2.1-Full/MotorControl/MCSDK/MCLib/Any/Src/trajectory_ctrl.c ****   * 
 106:MCSDK_v6.2.1-Full/MotorControl/MCSDK/MCLib/Any/Src/trajectory_ctrl.c ****   */
 107:MCSDK_v6.2.1-Full/MotorControl/MCSDK/MCLib/Any/Src/trajectory_ctrl.c **** bool TC_MoveCommand(PosCtrl_Handle_t *pHandle, float startingAngle, float angleStep, float movement
 108:MCSDK_v6.2.1-Full/MotorControl/MCSDK/MCLib/Any/Src/trajectory_ctrl.c **** {
 128              		.loc 1 108 1 is_stmt 1 view -0
 129              		.cfi_startproc
 130              		@ args = 0, pretend = 0, frame = 0
 131              		@ frame_needed = 0, uses_anonymous_args = 0
 132              		@ link register save eliminated.
 109:MCSDK_v6.2.1-Full/MotorControl/MCSDK/MCLib/Any/Src/trajectory_ctrl.c **** 
 110:MCSDK_v6.2.1-Full/MotorControl/MCSDK/MCLib/Any/Src/trajectory_ctrl.c ****   bool RetConfigStatus = false;
 133              		.loc 1 110 3 view .LVU53
 111:MCSDK_v6.2.1-Full/MotorControl/MCSDK/MCLib/Any/Src/trajectory_ctrl.c ****   float fMinimumStepDuration;
 134              		.loc 1 111 3 view .LVU54
 112:MCSDK_v6.2.1-Full/MotorControl/MCSDK/MCLib/Any/Src/trajectory_ctrl.c **** 
ARM GAS  C:\Users\ep_ygh\AppData\Local\Temp\ccVk9xPU.s 			page 6


 113:MCSDK_v6.2.1-Full/MotorControl/MCSDK/MCLib/Any/Src/trajectory_ctrl.c ****   if ((pHandle->PositionCtrlStatus == TC_FOLLOWING_ON_GOING) && (movementDuration > 0))
 135              		.loc 1 113 3 view .LVU55
 108:MCSDK_v6.2.1-Full/MotorControl/MCSDK/MCLib/Any/Src/trajectory_ctrl.c **** 
 136              		.loc 1 108 1 is_stmt 0 view .LVU56
 137 0000 0346     		mov	r3, r0
 138              		.loc 1 113 15 view .LVU57
 139 0002 90F86000 		ldrb	r0, [r0, #96]	@ zero_extendqisi2
 140              	.LVL3:
 141              		.loc 1 113 6 view .LVU58
 142 0006 0328     		cmp	r0, #3
 143 0008 61D0     		beq	.L11
 114:MCSDK_v6.2.1-Full/MotorControl/MCSDK/MCLib/Any/Src/trajectory_ctrl.c ****   {
 115:MCSDK_v6.2.1-Full/MotorControl/MCSDK/MCLib/Any/Src/trajectory_ctrl.c ****     /* Back to Move command as the movement duration is different from 0 */
 116:MCSDK_v6.2.1-Full/MotorControl/MCSDK/MCLib/Any/Src/trajectory_ctrl.c ****     pHandle->PositionCtrlStatus = TC_READY_FOR_COMMAND;
 117:MCSDK_v6.2.1-Full/MotorControl/MCSDK/MCLib/Any/Src/trajectory_ctrl.c ****   }
 118:MCSDK_v6.2.1-Full/MotorControl/MCSDK/MCLib/Any/Src/trajectory_ctrl.c ****   else
 119:MCSDK_v6.2.1-Full/MotorControl/MCSDK/MCLib/Any/Src/trajectory_ctrl.c ****   {
 120:MCSDK_v6.2.1-Full/MotorControl/MCSDK/MCLib/Any/Src/trajectory_ctrl.c ****     /* Nothing to do */
 121:MCSDK_v6.2.1-Full/MotorControl/MCSDK/MCLib/Any/Src/trajectory_ctrl.c ****   }
 144              		.loc 1 121 3 is_stmt 1 view .LVU59
 122:MCSDK_v6.2.1-Full/MotorControl/MCSDK/MCLib/Any/Src/trajectory_ctrl.c **** 
 123:MCSDK_v6.2.1-Full/MotorControl/MCSDK/MCLib/Any/Src/trajectory_ctrl.c ****   if ((pHandle->PositionCtrlStatus == TC_READY_FOR_COMMAND) && (movementDuration > 0))
 145              		.loc 1 123 3 view .LVU60
 146              		.loc 1 123 6 is_stmt 0 view .LVU61
 147 000a 08B1     		cbz	r0, .L12
 148              	.L8:
 110:MCSDK_v6.2.1-Full/MotorControl/MCSDK/MCLib/Any/Src/trajectory_ctrl.c ****   float fMinimumStepDuration;
 149              		.loc 1 110 8 view .LVU62
 150 000c 0020     		movs	r0, #0
 151              	.L6:
 152              	.LVL4:
 124:MCSDK_v6.2.1-Full/MotorControl/MCSDK/MCLib/Any/Src/trajectory_ctrl.c ****   {
 125:MCSDK_v6.2.1-Full/MotorControl/MCSDK/MCLib/Any/Src/trajectory_ctrl.c ****     pHandle->PositionControlRegulation = ENABLE;
 126:MCSDK_v6.2.1-Full/MotorControl/MCSDK/MCLib/Any/Src/trajectory_ctrl.c **** 
 127:MCSDK_v6.2.1-Full/MotorControl/MCSDK/MCLib/Any/Src/trajectory_ctrl.c ****     fMinimumStepDuration = (9.0f * pHandle->SamplingTime);
 128:MCSDK_v6.2.1-Full/MotorControl/MCSDK/MCLib/Any/Src/trajectory_ctrl.c **** 
 129:MCSDK_v6.2.1-Full/MotorControl/MCSDK/MCLib/Any/Src/trajectory_ctrl.c ****     /* WARNING: Movement duration value is rounded to the nearest valid value
 130:MCSDK_v6.2.1-Full/MotorControl/MCSDK/MCLib/Any/Src/trajectory_ctrl.c ****        [(DeltaT/9) / SamplingTime]:  shall be an integer value */
 131:MCSDK_v6.2.1-Full/MotorControl/MCSDK/MCLib/Any/Src/trajectory_ctrl.c ****     pHandle->MovementDuration = (float)((int)(movementDuration / fMinimumStepDuration)) * fMinimumS
 132:MCSDK_v6.2.1-Full/MotorControl/MCSDK/MCLib/Any/Src/trajectory_ctrl.c **** 
 133:MCSDK_v6.2.1-Full/MotorControl/MCSDK/MCLib/Any/Src/trajectory_ctrl.c ****     pHandle->StartingAngle = startingAngle;
 134:MCSDK_v6.2.1-Full/MotorControl/MCSDK/MCLib/Any/Src/trajectory_ctrl.c ****     pHandle->AngleStep = angleStep;
 135:MCSDK_v6.2.1-Full/MotorControl/MCSDK/MCLib/Any/Src/trajectory_ctrl.c ****     pHandle->FinalAngle = startingAngle + angleStep;
 136:MCSDK_v6.2.1-Full/MotorControl/MCSDK/MCLib/Any/Src/trajectory_ctrl.c **** 
 137:MCSDK_v6.2.1-Full/MotorControl/MCSDK/MCLib/Any/Src/trajectory_ctrl.c ****     /* SubStep duration = DeltaT/9  (DeltaT represents the total duration of the programmed movemen
 138:MCSDK_v6.2.1-Full/MotorControl/MCSDK/MCLib/Any/Src/trajectory_ctrl.c ****     pHandle->SubStepDuration = pHandle->MovementDuration / 9.0f;
 139:MCSDK_v6.2.1-Full/MotorControl/MCSDK/MCLib/Any/Src/trajectory_ctrl.c **** 
 140:MCSDK_v6.2.1-Full/MotorControl/MCSDK/MCLib/Any/Src/trajectory_ctrl.c ****     /* Sub step of acceleration phase */
 141:MCSDK_v6.2.1-Full/MotorControl/MCSDK/MCLib/Any/Src/trajectory_ctrl.c ****     pHandle->SubStep[0] = 1 * pHandle->SubStepDuration;   /* Sub-step 1 of acceleration phase */
 142:MCSDK_v6.2.1-Full/MotorControl/MCSDK/MCLib/Any/Src/trajectory_ctrl.c ****     pHandle->SubStep[1] = 2 * pHandle->SubStepDuration;   /* Sub-step 2 of acceleration phase */
 143:MCSDK_v6.2.1-Full/MotorControl/MCSDK/MCLib/Any/Src/trajectory_ctrl.c ****     pHandle->SubStep[2] = 3 * pHandle->SubStepDuration;   /* Sub-step 3 of acceleration phase */
 144:MCSDK_v6.2.1-Full/MotorControl/MCSDK/MCLib/Any/Src/trajectory_ctrl.c **** 
 145:MCSDK_v6.2.1-Full/MotorControl/MCSDK/MCLib/Any/Src/trajectory_ctrl.c ****     /* Sub step of  deceleration Phase */
 146:MCSDK_v6.2.1-Full/MotorControl/MCSDK/MCLib/Any/Src/trajectory_ctrl.c ****     pHandle->SubStep[3] = 6 * pHandle->SubStepDuration;   /* Sub-step 1 of deceleration phase */
 147:MCSDK_v6.2.1-Full/MotorControl/MCSDK/MCLib/Any/Src/trajectory_ctrl.c ****     pHandle->SubStep[4] = 7 * pHandle->SubStepDuration;   /* Sub-step 2 of deceleration phase */
 148:MCSDK_v6.2.1-Full/MotorControl/MCSDK/MCLib/Any/Src/trajectory_ctrl.c ****     pHandle->SubStep[5] = 8 * pHandle->SubStepDuration;   /* Sub-step 3 of deceleration phase */
 149:MCSDK_v6.2.1-Full/MotorControl/MCSDK/MCLib/Any/Src/trajectory_ctrl.c **** 
ARM GAS  C:\Users\ep_ygh\AppData\Local\Temp\ccVk9xPU.s 			page 7


 150:MCSDK_v6.2.1-Full/MotorControl/MCSDK/MCLib/Any/Src/trajectory_ctrl.c ****     /* Jerk (J) to be used by the trajectory calculator to integrate (step by step) the target posi
 151:MCSDK_v6.2.1-Full/MotorControl/MCSDK/MCLib/Any/Src/trajectory_ctrl.c ****        J = DeltaTheta/(12 * A * A * A)  => DeltaTheta = final position and A = Sub-Step duration */
 152:MCSDK_v6.2.1-Full/MotorControl/MCSDK/MCLib/Any/Src/trajectory_ctrl.c ****     pHandle->Jerk = pHandle->AngleStep / (12 * pHandle->SubStepDuration * pHandle->SubStepDuration 
 153:MCSDK_v6.2.1-Full/MotorControl/MCSDK/MCLib/Any/Src/trajectory_ctrl.c **** 
 154:MCSDK_v6.2.1-Full/MotorControl/MCSDK/MCLib/Any/Src/trajectory_ctrl.c ****     /* Speed cruiser = 2*J*A*A) */
 155:MCSDK_v6.2.1-Full/MotorControl/MCSDK/MCLib/Any/Src/trajectory_ctrl.c ****     pHandle->CruiseSpeed = 2 * pHandle->Jerk * pHandle->SubStepDuration * pHandle->SubStepDuration;
 156:MCSDK_v6.2.1-Full/MotorControl/MCSDK/MCLib/Any/Src/trajectory_ctrl.c **** 
 157:MCSDK_v6.2.1-Full/MotorControl/MCSDK/MCLib/Any/Src/trajectory_ctrl.c ****     pHandle->ElapseTime = 0.0f;
 158:MCSDK_v6.2.1-Full/MotorControl/MCSDK/MCLib/Any/Src/trajectory_ctrl.c **** 
 159:MCSDK_v6.2.1-Full/MotorControl/MCSDK/MCLib/Any/Src/trajectory_ctrl.c ****     pHandle->Omega = 0.0f;
 160:MCSDK_v6.2.1-Full/MotorControl/MCSDK/MCLib/Any/Src/trajectory_ctrl.c ****     pHandle->Acceleration = 0.0f;
 161:MCSDK_v6.2.1-Full/MotorControl/MCSDK/MCLib/Any/Src/trajectory_ctrl.c ****     pHandle->Theta = startingAngle;
 162:MCSDK_v6.2.1-Full/MotorControl/MCSDK/MCLib/Any/Src/trajectory_ctrl.c **** 
 163:MCSDK_v6.2.1-Full/MotorControl/MCSDK/MCLib/Any/Src/trajectory_ctrl.c ****     pHandle->PositionCtrlStatus = TC_MOVEMENT_ON_GOING;   /* new trajectory has been programmed */
 164:MCSDK_v6.2.1-Full/MotorControl/MCSDK/MCLib/Any/Src/trajectory_ctrl.c **** 
 165:MCSDK_v6.2.1-Full/MotorControl/MCSDK/MCLib/Any/Src/trajectory_ctrl.c ****     RetConfigStatus = true;
 166:MCSDK_v6.2.1-Full/MotorControl/MCSDK/MCLib/Any/Src/trajectory_ctrl.c **** 
 167:MCSDK_v6.2.1-Full/MotorControl/MCSDK/MCLib/Any/Src/trajectory_ctrl.c ****   }
 168:MCSDK_v6.2.1-Full/MotorControl/MCSDK/MCLib/Any/Src/trajectory_ctrl.c ****   else
 169:MCSDK_v6.2.1-Full/MotorControl/MCSDK/MCLib/Any/Src/trajectory_ctrl.c ****   {
 170:MCSDK_v6.2.1-Full/MotorControl/MCSDK/MCLib/Any/Src/trajectory_ctrl.c ****     /* Nothing to do */
 171:MCSDK_v6.2.1-Full/MotorControl/MCSDK/MCLib/Any/Src/trajectory_ctrl.c ****   }
 153              		.loc 1 171 3 is_stmt 1 view .LVU63
 172:MCSDK_v6.2.1-Full/MotorControl/MCSDK/MCLib/Any/Src/trajectory_ctrl.c ****   return (RetConfigStatus);
 154              		.loc 1 172 3 view .LVU64
 173:MCSDK_v6.2.1-Full/MotorControl/MCSDK/MCLib/Any/Src/trajectory_ctrl.c **** }
 155              		.loc 1 173 1 is_stmt 0 view .LVU65
 156 000e 7047     		bx	lr
 157              	.LVL5:
 158              	.L12:
 123:MCSDK_v6.2.1-Full/MotorControl/MCSDK/MCLib/Any/Src/trajectory_ctrl.c ****   {
 159              		.loc 1 123 61 discriminator 1 view .LVU66
 160 0010 B5EEC01A 		vcmpe.f32	s2, #0
 161 0014 F1EE10FA 		vmrs	APSR_nzcv, FPSCR
 162 0018 F9DD     		ble	.L6
 163              	.L5:
 164              	.LVL6:
 165              	.LBB10:
 166              	.LBI10:
 107:MCSDK_v6.2.1-Full/MotorControl/MCSDK/MCLib/Any/Src/trajectory_ctrl.c **** {
 167              		.loc 1 107 6 is_stmt 1 view .LVU67
 168              	.LBB11:
 125:MCSDK_v6.2.1-Full/MotorControl/MCSDK/MCLib/Any/Src/trajectory_ctrl.c **** 
 169              		.loc 1 125 5 view .LVU68
 127:MCSDK_v6.2.1-Full/MotorControl/MCSDK/MCLib/Any/Src/trajectory_ctrl.c **** 
 170              		.loc 1 127 26 is_stmt 0 view .LVU69
 171 001a 93ED0C7A 		vldr.32	s14, [r3, #48]
 133:MCSDK_v6.2.1-Full/MotorControl/MCSDK/MCLib/Any/Src/trajectory_ctrl.c ****     pHandle->AngleStep = angleStep;
 172              		.loc 1 133 28 view .LVU70
 173 001e 83ED010A 		vstr.32	s0, [r3, #4]
 127:MCSDK_v6.2.1-Full/MotorControl/MCSDK/MCLib/Any/Src/trajectory_ctrl.c **** 
 174              		.loc 1 127 26 view .LVU71
 175 0022 B2EE024A 		vmov.f32	s8, #9.0e+0
 176 0026 67EE047A 		vmul.f32	s15, s14, s8
 152:MCSDK_v6.2.1-Full/MotorControl/MCSDK/MCLib/Any/Src/trajectory_ctrl.c **** 
 177              		.loc 1 152 46 view .LVU72
 178 002a F2EE086A 		vmov.f32	s13, #1.2e+1
ARM GAS  C:\Users\ep_ygh\AppData\Local\Temp\ccVk9xPU.s 			page 8


 131:MCSDK_v6.2.1-Full/MotorControl/MCSDK/MCLib/Any/Src/trajectory_ctrl.c **** 
 179              		.loc 1 131 64 view .LVU73
 180 002e 81EE277A 		vdiv.f32	s14, s2, s15
 157:MCSDK_v6.2.1-Full/MotorControl/MCSDK/MCLib/Any/Src/trajectory_ctrl.c **** 
 181              		.loc 1 157 25 view .LVU74
 182 0032 0022     		movs	r2, #0
 125:MCSDK_v6.2.1-Full/MotorControl/MCSDK/MCLib/Any/Src/trajectory_ctrl.c **** 
 183              		.loc 1 125 40 view .LVU75
 184 0034 0120     		movs	r0, #1
 185 0036 83F85100 		strb	r0, [r3, #81]
 127:MCSDK_v6.2.1-Full/MotorControl/MCSDK/MCLib/Any/Src/trajectory_ctrl.c **** 
 186              		.loc 1 127 5 is_stmt 1 view .LVU76
 187              	.LVL7:
 131:MCSDK_v6.2.1-Full/MotorControl/MCSDK/MCLib/Any/Src/trajectory_ctrl.c **** 
 188              		.loc 1 131 5 view .LVU77
 157:MCSDK_v6.2.1-Full/MotorControl/MCSDK/MCLib/Any/Src/trajectory_ctrl.c **** 
 189              		.loc 1 157 25 is_stmt 0 view .LVU78
 190 003a DA62     		str	r2, [r3, #44]	@ float
 159:MCSDK_v6.2.1-Full/MotorControl/MCSDK/MCLib/Any/Src/trajectory_ctrl.c ****     pHandle->Acceleration = 0.0f;
 191              		.loc 1 159 20 view .LVU79
 192 003c 1A64     		str	r2, [r3, #64]	@ float
 160:MCSDK_v6.2.1-Full/MotorControl/MCSDK/MCLib/Any/Src/trajectory_ctrl.c ****     pHandle->Theta = startingAngle;
 193              		.loc 1 160 27 view .LVU80
 194 003e DA63     		str	r2, [r3, #60]	@ float
 163:MCSDK_v6.2.1-Full/MotorControl/MCSDK/MCLib/Any/Src/trajectory_ctrl.c **** 
 195              		.loc 1 163 33 view .LVU81
 196 0040 83F86000 		strb	r0, [r3, #96]
 148:MCSDK_v6.2.1-Full/MotorControl/MCSDK/MCLib/Any/Src/trajectory_ctrl.c **** 
 197              		.loc 1 148 29 view .LVU82
 198 0044 B2EE006A 		vmov.f32	s12, #8.0e+0
 131:MCSDK_v6.2.1-Full/MotorControl/MCSDK/MCLib/Any/Src/trajectory_ctrl.c **** 
 199              		.loc 1 131 41 view .LVU83
 200 0048 BDEEC77A 		vcvt.s32.f32	s14, s14
 143:MCSDK_v6.2.1-Full/MotorControl/MCSDK/MCLib/Any/Src/trajectory_ctrl.c **** 
 201              		.loc 1 143 29 view .LVU84
 202 004c F0EE084A 		vmov.f32	s9, #3.0e+0
 131:MCSDK_v6.2.1-Full/MotorControl/MCSDK/MCLib/Any/Src/trajectory_ctrl.c **** 
 203              		.loc 1 131 33 view .LVU85
 204 0050 B8EEC77A 		vcvt.f32.s32	s14, s14
 146:MCSDK_v6.2.1-Full/MotorControl/MCSDK/MCLib/Any/Src/trajectory_ctrl.c ****     pHandle->SubStep[4] = 7 * pHandle->SubStepDuration;   /* Sub-step 2 of deceleration phase */
 205              		.loc 1 146 29 view .LVU86
 206 0054 B1EE085A 		vmov.f32	s10, #6.0e+0
 131:MCSDK_v6.2.1-Full/MotorControl/MCSDK/MCLib/Any/Src/trajectory_ctrl.c **** 
 207              		.loc 1 131 89 view .LVU87
 208 0058 27EE277A 		vmul.f32	s14, s14, s15
 147:MCSDK_v6.2.1-Full/MotorControl/MCSDK/MCLib/Any/Src/trajectory_ctrl.c ****     pHandle->SubStep[5] = 8 * pHandle->SubStepDuration;   /* Sub-step 3 of deceleration phase */
 209              		.loc 1 147 29 view .LVU88
 210 005c F1EE0C5A 		vmov.f32	s11, #7.0e+0
 138:MCSDK_v6.2.1-Full/MotorControl/MCSDK/MCLib/Any/Src/trajectory_ctrl.c **** 
 211              		.loc 1 138 58 view .LVU89
 212 0060 C7EE047A 		vdiv.f32	s15, s14, s8
 213              	.LVL8:
 131:MCSDK_v6.2.1-Full/MotorControl/MCSDK/MCLib/Any/Src/trajectory_ctrl.c **** 
 214              		.loc 1 131 31 view .LVU90
 215 0064 83ED007A 		vstr.32	s14, [r3]
 133:MCSDK_v6.2.1-Full/MotorControl/MCSDK/MCLib/Any/Src/trajectory_ctrl.c ****     pHandle->AngleStep = angleStep;
 216              		.loc 1 133 5 is_stmt 1 view .LVU91
ARM GAS  C:\Users\ep_ygh\AppData\Local\Temp\ccVk9xPU.s 			page 9


 134:MCSDK_v6.2.1-Full/MotorControl/MCSDK/MCLib/Any/Src/trajectory_ctrl.c ****     pHandle->FinalAngle = startingAngle + angleStep;
 217              		.loc 1 134 5 view .LVU92
 135:MCSDK_v6.2.1-Full/MotorControl/MCSDK/MCLib/Any/Src/trajectory_ctrl.c **** 
 218              		.loc 1 135 5 view .LVU93
 138:MCSDK_v6.2.1-Full/MotorControl/MCSDK/MCLib/Any/Src/trajectory_ctrl.c **** 
 219              		.loc 1 138 5 view .LVU94
 152:MCSDK_v6.2.1-Full/MotorControl/MCSDK/MCLib/Any/Src/trajectory_ctrl.c **** 
 220              		.loc 1 152 46 is_stmt 0 view .LVU95
 221 0068 27EEA67A 		vmul.f32	s14, s15, s13
 142:MCSDK_v6.2.1-Full/MotorControl/MCSDK/MCLib/Any/Src/trajectory_ctrl.c ****     pHandle->SubStep[2] = 3 * pHandle->SubStepDuration;   /* Sub-step 3 of acceleration phase */
 222              		.loc 1 142 29 view .LVU96
 223 006c 37EEA74A 		vadd.f32	s8, s15, s15
 224              	.LVL9:
 152:MCSDK_v6.2.1-Full/MotorControl/MCSDK/MCLib/Any/Src/trajectory_ctrl.c **** 
 225              		.loc 1 152 73 view .LVU97
 226 0070 27EE277A 		vmul.f32	s14, s14, s15
 143:MCSDK_v6.2.1-Full/MotorControl/MCSDK/MCLib/Any/Src/trajectory_ctrl.c **** 
 227              		.loc 1 143 29 view .LVU98
 228 0074 67EEA44A 		vmul.f32	s9, s15, s9
 152:MCSDK_v6.2.1-Full/MotorControl/MCSDK/MCLib/Any/Src/trajectory_ctrl.c **** 
 229              		.loc 1 152 100 view .LVU99
 230 0078 27EE277A 		vmul.f32	s14, s14, s15
 146:MCSDK_v6.2.1-Full/MotorControl/MCSDK/MCLib/Any/Src/trajectory_ctrl.c ****     pHandle->SubStep[4] = 7 * pHandle->SubStepDuration;   /* Sub-step 2 of deceleration phase */
 231              		.loc 1 146 29 view .LVU100
 232 007c 27EE855A 		vmul.f32	s10, s15, s10
 152:MCSDK_v6.2.1-Full/MotorControl/MCSDK/MCLib/Any/Src/trajectory_ctrl.c **** 
 233              		.loc 1 152 40 view .LVU101
 234 0080 C0EE876A 		vdiv.f32	s13, s1, s14
 148:MCSDK_v6.2.1-Full/MotorControl/MCSDK/MCLib/Any/Src/trajectory_ctrl.c **** 
 235              		.loc 1 148 29 view .LVU102
 236 0084 27EE867A 		vmul.f32	s14, s15, s12
 147:MCSDK_v6.2.1-Full/MotorControl/MCSDK/MCLib/Any/Src/trajectory_ctrl.c ****     pHandle->SubStep[5] = 8 * pHandle->SubStepDuration;   /* Sub-step 3 of deceleration phase */
 237              		.loc 1 147 29 view .LVU103
 238 0088 67EEA55A 		vmul.f32	s11, s15, s11
 148:MCSDK_v6.2.1-Full/MotorControl/MCSDK/MCLib/Any/Src/trajectory_ctrl.c **** 
 239              		.loc 1 148 25 view .LVU104
 240 008c 83ED097A 		vstr.32	s14, [r3, #36]
 155:MCSDK_v6.2.1-Full/MotorControl/MCSDK/MCLib/Any/Src/trajectory_ctrl.c **** 
 241              		.loc 1 155 30 view .LVU105
 242 0090 36EEA67A 		vadd.f32	s14, s13, s13
 135:MCSDK_v6.2.1-Full/MotorControl/MCSDK/MCLib/Any/Src/trajectory_ctrl.c **** 
 243              		.loc 1 135 41 view .LVU106
 244 0094 70EE203A 		vadd.f32	s7, s0, s1
 155:MCSDK_v6.2.1-Full/MotorControl/MCSDK/MCLib/Any/Src/trajectory_ctrl.c **** 
 245              		.loc 1 155 46 view .LVU107
 246 0098 27EE277A 		vmul.f32	s14, s14, s15
 138:MCSDK_v6.2.1-Full/MotorControl/MCSDK/MCLib/Any/Src/trajectory_ctrl.c **** 
 247              		.loc 1 138 30 view .LVU108
 248 009c C3ED0A7A 		vstr.32	s15, [r3, #40]
 141:MCSDK_v6.2.1-Full/MotorControl/MCSDK/MCLib/Any/Src/trajectory_ctrl.c ****     pHandle->SubStep[1] = 2 * pHandle->SubStepDuration;   /* Sub-step 2 of acceleration phase */
 249              		.loc 1 141 5 is_stmt 1 view .LVU109
 141:MCSDK_v6.2.1-Full/MotorControl/MCSDK/MCLib/Any/Src/trajectory_ctrl.c ****     pHandle->SubStep[1] = 2 * pHandle->SubStepDuration;   /* Sub-step 2 of acceleration phase */
 250              		.loc 1 141 25 is_stmt 0 view .LVU110
 251 00a0 C3ED047A 		vstr.32	s15, [r3, #16]
 142:MCSDK_v6.2.1-Full/MotorControl/MCSDK/MCLib/Any/Src/trajectory_ctrl.c ****     pHandle->SubStep[2] = 3 * pHandle->SubStepDuration;   /* Sub-step 3 of acceleration phase */
 252              		.loc 1 142 5 is_stmt 1 view .LVU111
 155:MCSDK_v6.2.1-Full/MotorControl/MCSDK/MCLib/Any/Src/trajectory_ctrl.c **** 
ARM GAS  C:\Users\ep_ygh\AppData\Local\Temp\ccVk9xPU.s 			page 10


 253              		.loc 1 155 73 is_stmt 0 view .LVU112
 254 00a4 67EE277A 		vmul.f32	s15, s14, s15
 134:MCSDK_v6.2.1-Full/MotorControl/MCSDK/MCLib/Any/Src/trajectory_ctrl.c ****     pHandle->FinalAngle = startingAngle + angleStep;
 255              		.loc 1 134 24 view .LVU113
 256 00a8 C3ED030A 		vstr.32	s1, [r3, #12]
 135:MCSDK_v6.2.1-Full/MotorControl/MCSDK/MCLib/Any/Src/trajectory_ctrl.c **** 
 257              		.loc 1 135 25 view .LVU114
 258 00ac C3ED023A 		vstr.32	s7, [r3, #8]
 161:MCSDK_v6.2.1-Full/MotorControl/MCSDK/MCLib/Any/Src/trajectory_ctrl.c **** 
 259              		.loc 1 161 20 view .LVU115
 260 00b0 83ED120A 		vstr.32	s0, [r3, #72]
 142:MCSDK_v6.2.1-Full/MotorControl/MCSDK/MCLib/Any/Src/trajectory_ctrl.c ****     pHandle->SubStep[2] = 3 * pHandle->SubStepDuration;   /* Sub-step 3 of acceleration phase */
 261              		.loc 1 142 25 view .LVU116
 262 00b4 83ED054A 		vstr.32	s8, [r3, #20]
 143:MCSDK_v6.2.1-Full/MotorControl/MCSDK/MCLib/Any/Src/trajectory_ctrl.c **** 
 263              		.loc 1 143 5 is_stmt 1 view .LVU117
 143:MCSDK_v6.2.1-Full/MotorControl/MCSDK/MCLib/Any/Src/trajectory_ctrl.c **** 
 264              		.loc 1 143 25 is_stmt 0 view .LVU118
 265 00b8 C3ED064A 		vstr.32	s9, [r3, #24]
 146:MCSDK_v6.2.1-Full/MotorControl/MCSDK/MCLib/Any/Src/trajectory_ctrl.c ****     pHandle->SubStep[4] = 7 * pHandle->SubStepDuration;   /* Sub-step 2 of deceleration phase */
 266              		.loc 1 146 5 is_stmt 1 view .LVU119
 146:MCSDK_v6.2.1-Full/MotorControl/MCSDK/MCLib/Any/Src/trajectory_ctrl.c ****     pHandle->SubStep[4] = 7 * pHandle->SubStepDuration;   /* Sub-step 2 of deceleration phase */
 267              		.loc 1 146 25 is_stmt 0 view .LVU120
 268 00bc 83ED075A 		vstr.32	s10, [r3, #28]
 147:MCSDK_v6.2.1-Full/MotorControl/MCSDK/MCLib/Any/Src/trajectory_ctrl.c ****     pHandle->SubStep[5] = 8 * pHandle->SubStepDuration;   /* Sub-step 3 of deceleration phase */
 269              		.loc 1 147 5 is_stmt 1 view .LVU121
 147:MCSDK_v6.2.1-Full/MotorControl/MCSDK/MCLib/Any/Src/trajectory_ctrl.c ****     pHandle->SubStep[5] = 8 * pHandle->SubStepDuration;   /* Sub-step 3 of deceleration phase */
 270              		.loc 1 147 25 is_stmt 0 view .LVU122
 271 00c0 C3ED085A 		vstr.32	s11, [r3, #32]
 148:MCSDK_v6.2.1-Full/MotorControl/MCSDK/MCLib/Any/Src/trajectory_ctrl.c **** 
 272              		.loc 1 148 5 is_stmt 1 view .LVU123
 152:MCSDK_v6.2.1-Full/MotorControl/MCSDK/MCLib/Any/Src/trajectory_ctrl.c **** 
 273              		.loc 1 152 5 view .LVU124
 152:MCSDK_v6.2.1-Full/MotorControl/MCSDK/MCLib/Any/Src/trajectory_ctrl.c **** 
 274              		.loc 1 152 19 is_stmt 0 view .LVU125
 275 00c4 C3ED0D6A 		vstr.32	s13, [r3, #52]
 155:MCSDK_v6.2.1-Full/MotorControl/MCSDK/MCLib/Any/Src/trajectory_ctrl.c **** 
 276              		.loc 1 155 5 is_stmt 1 view .LVU126
 155:MCSDK_v6.2.1-Full/MotorControl/MCSDK/MCLib/Any/Src/trajectory_ctrl.c **** 
 277              		.loc 1 155 26 is_stmt 0 view .LVU127
 278 00c8 C3ED0E7A 		vstr.32	s15, [r3, #56]
 157:MCSDK_v6.2.1-Full/MotorControl/MCSDK/MCLib/Any/Src/trajectory_ctrl.c **** 
 279              		.loc 1 157 5 is_stmt 1 view .LVU128
 159:MCSDK_v6.2.1-Full/MotorControl/MCSDK/MCLib/Any/Src/trajectory_ctrl.c ****     pHandle->Acceleration = 0.0f;
 280              		.loc 1 159 5 view .LVU129
 160:MCSDK_v6.2.1-Full/MotorControl/MCSDK/MCLib/Any/Src/trajectory_ctrl.c ****     pHandle->Theta = startingAngle;
 281              		.loc 1 160 5 view .LVU130
 161:MCSDK_v6.2.1-Full/MotorControl/MCSDK/MCLib/Any/Src/trajectory_ctrl.c **** 
 282              		.loc 1 161 5 view .LVU131
 163:MCSDK_v6.2.1-Full/MotorControl/MCSDK/MCLib/Any/Src/trajectory_ctrl.c **** 
 283              		.loc 1 163 5 view .LVU132
 165:MCSDK_v6.2.1-Full/MotorControl/MCSDK/MCLib/Any/Src/trajectory_ctrl.c **** 
 284              		.loc 1 165 5 view .LVU133
 285              	.LVL10:
 171:MCSDK_v6.2.1-Full/MotorControl/MCSDK/MCLib/Any/Src/trajectory_ctrl.c ****   return (RetConfigStatus);
 286              		.loc 1 171 3 view .LVU134
 172:MCSDK_v6.2.1-Full/MotorControl/MCSDK/MCLib/Any/Src/trajectory_ctrl.c **** }
ARM GAS  C:\Users\ep_ygh\AppData\Local\Temp\ccVk9xPU.s 			page 11


 287              		.loc 1 172 3 view .LVU135
 172:MCSDK_v6.2.1-Full/MotorControl/MCSDK/MCLib/Any/Src/trajectory_ctrl.c **** }
 288              		.loc 1 172 3 is_stmt 0 view .LVU136
 289 00cc 7047     		bx	lr
 290              	.L11:
 172:MCSDK_v6.2.1-Full/MotorControl/MCSDK/MCLib/Any/Src/trajectory_ctrl.c **** }
 291              		.loc 1 172 3 view .LVU137
 292              	.LBE11:
 293              	.LBE10:
 113:MCSDK_v6.2.1-Full/MotorControl/MCSDK/MCLib/Any/Src/trajectory_ctrl.c ****   {
 294              		.loc 1 113 62 discriminator 1 view .LVU138
 295 00ce B5EEC01A 		vcmpe.f32	s2, #0
 296 00d2 F1EE10FA 		vmrs	APSR_nzcv, FPSCR
 297 00d6 A0DC     		bgt	.L5
 298 00d8 98E7     		b	.L8
 299              		.cfi_endproc
 300              	.LFE1089:
 302 00da 00BF     		.section	.text.TC_FollowCommand,"ax",%progbits
 303              		.align	1
 304              		.p2align 2,,3
 305              		.global	TC_FollowCommand
 306              		.syntax unified
 307              		.thumb
 308              		.thumb_func
 310              	TC_FollowCommand:
 311              	.LVL11:
 312              	.LFB1090:
 174:MCSDK_v6.2.1-Full/MotorControl/MCSDK/MCLib/Any/Src/trajectory_ctrl.c **** 
 175:MCSDK_v6.2.1-Full/MotorControl/MCSDK/MCLib/Any/Src/trajectory_ctrl.c **** /**
 176:MCSDK_v6.2.1-Full/MotorControl/MCSDK/MCLib/Any/Src/trajectory_ctrl.c ****   * @brief  Follows an angular position command.
 177:MCSDK_v6.2.1-Full/MotorControl/MCSDK/MCLib/Any/Src/trajectory_ctrl.c ****   * @param  pHandle handler of the current instance of the Position Control component.
 178:MCSDK_v6.2.1-Full/MotorControl/MCSDK/MCLib/Any/Src/trajectory_ctrl.c ****   * @param  Angle Target mechanical position.
 179:MCSDK_v6.2.1-Full/MotorControl/MCSDK/MCLib/Any/Src/trajectory_ctrl.c ****   * 
 180:MCSDK_v6.2.1-Full/MotorControl/MCSDK/MCLib/Any/Src/trajectory_ctrl.c ****   * This function implements the Follow mode. When the duration is set to zero, the user can send a
 181:MCSDK_v6.2.1-Full/MotorControl/MCSDK/MCLib/Any/Src/trajectory_ctrl.c ****   * fixed rate different target positions according to a required trajectory and the position contr
 182:MCSDK_v6.2.1-Full/MotorControl/MCSDK/MCLib/Any/Src/trajectory_ctrl.c ****   * algorithm computes the intermediate points to reach (follow) the target with a smooth movement.
 183:MCSDK_v6.2.1-Full/MotorControl/MCSDK/MCLib/Any/Src/trajectory_ctrl.c ****   * This mode is for instance useful when the trajectory is computed by an external controller, or 
 184:MCSDK_v6.2.1-Full/MotorControl/MCSDK/MCLib/Any/Src/trajectory_ctrl.c ****   * an algorithm defined by the user and executed by the same microcontroller.
 185:MCSDK_v6.2.1-Full/MotorControl/MCSDK/MCLib/Any/Src/trajectory_ctrl.c ****   * 
 186:MCSDK_v6.2.1-Full/MotorControl/MCSDK/MCLib/Any/Src/trajectory_ctrl.c ****   */
 187:MCSDK_v6.2.1-Full/MotorControl/MCSDK/MCLib/Any/Src/trajectory_ctrl.c **** void TC_FollowCommand(PosCtrl_Handle_t *pHandle, float Angle)
 188:MCSDK_v6.2.1-Full/MotorControl/MCSDK/MCLib/Any/Src/trajectory_ctrl.c **** {
 313              		.loc 1 188 1 is_stmt 1 view -0
 314              		.cfi_startproc
 315              		@ args = 0, pretend = 0, frame = 0
 316              		@ frame_needed = 0, uses_anonymous_args = 0
 317              		@ link register save eliminated.
 189:MCSDK_v6.2.1-Full/MotorControl/MCSDK/MCLib/Any/Src/trajectory_ctrl.c ****   float omega = 0, acceleration = 0, dt = 0;
 318              		.loc 1 189 3 view .LVU140
 190:MCSDK_v6.2.1-Full/MotorControl/MCSDK/MCLib/Any/Src/trajectory_ctrl.c **** 
 191:MCSDK_v6.2.1-Full/MotorControl/MCSDK/MCLib/Any/Src/trajectory_ctrl.c ****   /* Estimate speed */
 192:MCSDK_v6.2.1-Full/MotorControl/MCSDK/MCLib/Any/Src/trajectory_ctrl.c ****   if (pHandle->ReceivedTh > 0)
 319              		.loc 1 192 3 view .LVU141
 320              		.loc 1 192 14 is_stmt 0 view .LVU142
 321 0000 90F85030 		ldrb	r3, [r0, #80]	@ zero_extendqisi2
 322              		.loc 1 192 6 view .LVU143
 323 0004 B3B9     		cbnz	r3, .L14
ARM GAS  C:\Users\ep_ygh\AppData\Local\Temp\ccVk9xPU.s 			page 12


 324              	.LVL12:
 325              	.L20:
 189:MCSDK_v6.2.1-Full/MotorControl/MCSDK/MCLib/Any/Src/trajectory_ctrl.c ****   float omega = 0, acceleration = 0, dt = 0;
 326              		.loc 1 189 9 view .LVU144
 327 0006 DFED207A 		vldr.32	s15, .L26
 328              	.LVL13:
 329              	.L15:
 193:MCSDK_v6.2.1-Full/MotorControl/MCSDK/MCLib/Any/Src/trajectory_ctrl.c ****   {
 194:MCSDK_v6.2.1-Full/MotorControl/MCSDK/MCLib/Any/Src/trajectory_ctrl.c ****     /* Calculate dt */
 195:MCSDK_v6.2.1-Full/MotorControl/MCSDK/MCLib/Any/Src/trajectory_ctrl.c ****     dt = pHandle->TcTick * pHandle->SysTickPeriod;
 196:MCSDK_v6.2.1-Full/MotorControl/MCSDK/MCLib/Any/Src/trajectory_ctrl.c ****     pHandle->TcTick = 0;
 197:MCSDK_v6.2.1-Full/MotorControl/MCSDK/MCLib/Any/Src/trajectory_ctrl.c ****     if (dt > 0)
 198:MCSDK_v6.2.1-Full/MotorControl/MCSDK/MCLib/Any/Src/trajectory_ctrl.c ****     {
 199:MCSDK_v6.2.1-Full/MotorControl/MCSDK/MCLib/Any/Src/trajectory_ctrl.c ****       omega = (Angle - pHandle->ThetaPrev) / dt;
 200:MCSDK_v6.2.1-Full/MotorControl/MCSDK/MCLib/Any/Src/trajectory_ctrl.c ****     }
 201:MCSDK_v6.2.1-Full/MotorControl/MCSDK/MCLib/Any/Src/trajectory_ctrl.c ****     else
 202:MCSDK_v6.2.1-Full/MotorControl/MCSDK/MCLib/Any/Src/trajectory_ctrl.c ****     {
 203:MCSDK_v6.2.1-Full/MotorControl/MCSDK/MCLib/Any/Src/trajectory_ctrl.c ****       /* Nothing to do */
 204:MCSDK_v6.2.1-Full/MotorControl/MCSDK/MCLib/Any/Src/trajectory_ctrl.c ****     }
 205:MCSDK_v6.2.1-Full/MotorControl/MCSDK/MCLib/Any/Src/trajectory_ctrl.c ****   }
 206:MCSDK_v6.2.1-Full/MotorControl/MCSDK/MCLib/Any/Src/trajectory_ctrl.c ****   else
 207:MCSDK_v6.2.1-Full/MotorControl/MCSDK/MCLib/Any/Src/trajectory_ctrl.c ****   {
 208:MCSDK_v6.2.1-Full/MotorControl/MCSDK/MCLib/Any/Src/trajectory_ctrl.c ****     /* Nothing to do */
 209:MCSDK_v6.2.1-Full/MotorControl/MCSDK/MCLib/Any/Src/trajectory_ctrl.c ****   }
 210:MCSDK_v6.2.1-Full/MotorControl/MCSDK/MCLib/Any/Src/trajectory_ctrl.c **** 
 211:MCSDK_v6.2.1-Full/MotorControl/MCSDK/MCLib/Any/Src/trajectory_ctrl.c ****   /* Estimated acceleration */
 212:MCSDK_v6.2.1-Full/MotorControl/MCSDK/MCLib/Any/Src/trajectory_ctrl.c ****   if (pHandle->ReceivedTh > 1)
 213:MCSDK_v6.2.1-Full/MotorControl/MCSDK/MCLib/Any/Src/trajectory_ctrl.c ****   {
 214:MCSDK_v6.2.1-Full/MotorControl/MCSDK/MCLib/Any/Src/trajectory_ctrl.c ****     if (dt > 0)
 215:MCSDK_v6.2.1-Full/MotorControl/MCSDK/MCLib/Any/Src/trajectory_ctrl.c ****     {
 216:MCSDK_v6.2.1-Full/MotorControl/MCSDK/MCLib/Any/Src/trajectory_ctrl.c ****       acceleration = (omega - pHandle->OmegaPrev) / dt;
 217:MCSDK_v6.2.1-Full/MotorControl/MCSDK/MCLib/Any/Src/trajectory_ctrl.c ****     }
 218:MCSDK_v6.2.1-Full/MotorControl/MCSDK/MCLib/Any/Src/trajectory_ctrl.c ****     else
 219:MCSDK_v6.2.1-Full/MotorControl/MCSDK/MCLib/Any/Src/trajectory_ctrl.c ****     {
 220:MCSDK_v6.2.1-Full/MotorControl/MCSDK/MCLib/Any/Src/trajectory_ctrl.c ****       /* nothing to do */
 221:MCSDK_v6.2.1-Full/MotorControl/MCSDK/MCLib/Any/Src/trajectory_ctrl.c ****     }
 222:MCSDK_v6.2.1-Full/MotorControl/MCSDK/MCLib/Any/Src/trajectory_ctrl.c ****   }
 223:MCSDK_v6.2.1-Full/MotorControl/MCSDK/MCLib/Any/Src/trajectory_ctrl.c ****   else
 224:MCSDK_v6.2.1-Full/MotorControl/MCSDK/MCLib/Any/Src/trajectory_ctrl.c ****   {
 225:MCSDK_v6.2.1-Full/MotorControl/MCSDK/MCLib/Any/Src/trajectory_ctrl.c ****     /* Nothing to do */
 226:MCSDK_v6.2.1-Full/MotorControl/MCSDK/MCLib/Any/Src/trajectory_ctrl.c ****   }
 330              		.loc 1 226 3 is_stmt 1 view .LVU145
 227:MCSDK_v6.2.1-Full/MotorControl/MCSDK/MCLib/Any/Src/trajectory_ctrl.c **** 
 228:MCSDK_v6.2.1-Full/MotorControl/MCSDK/MCLib/Any/Src/trajectory_ctrl.c ****   /* Update state variable */
 229:MCSDK_v6.2.1-Full/MotorControl/MCSDK/MCLib/Any/Src/trajectory_ctrl.c ****   pHandle->ThetaPrev  = Angle;
 331              		.loc 1 229 3 view .LVU146
 189:MCSDK_v6.2.1-Full/MotorControl/MCSDK/MCLib/Any/Src/trajectory_ctrl.c **** 
 332              		.loc 1 189 20 is_stmt 0 view .LVU147
 333 000a DFED1F6A 		vldr.32	s13, .L26
 334              		.loc 1 229 23 view .LVU148
 335 000e 80ED130A 		vstr.32	s0, [r0, #76]
 230:MCSDK_v6.2.1-Full/MotorControl/MCSDK/MCLib/Any/Src/trajectory_ctrl.c ****   pHandle->OmegaPrev = omega;
 336              		.loc 1 230 3 is_stmt 1 view .LVU149
 231:MCSDK_v6.2.1-Full/MotorControl/MCSDK/MCLib/Any/Src/trajectory_ctrl.c ****   if (pHandle->ReceivedTh < 2)
 232:MCSDK_v6.2.1-Full/MotorControl/MCSDK/MCLib/Any/Src/trajectory_ctrl.c ****   {
 233:MCSDK_v6.2.1-Full/MotorControl/MCSDK/MCLib/Any/Src/trajectory_ctrl.c ****     pHandle->ReceivedTh++;
 337              		.loc 1 233 24 is_stmt 0 view .LVU150
ARM GAS  C:\Users\ep_ygh\AppData\Local\Temp\ccVk9xPU.s 			page 13


 338 0012 0133     		adds	r3, r3, #1
 230:MCSDK_v6.2.1-Full/MotorControl/MCSDK/MCLib/Any/Src/trajectory_ctrl.c ****   pHandle->OmegaPrev = omega;
 339              		.loc 1 230 22 view .LVU151
 340 0014 C0ED117A 		vstr.32	s15, [r0, #68]
 231:MCSDK_v6.2.1-Full/MotorControl/MCSDK/MCLib/Any/Src/trajectory_ctrl.c ****   if (pHandle->ReceivedTh < 2)
 341              		.loc 1 231 3 is_stmt 1 view .LVU152
 342              		.loc 1 233 5 view .LVU153
 343              		.loc 1 233 24 is_stmt 0 view .LVU154
 344 0018 80F85030 		strb	r3, [r0, #80]
 345              	.LVL14:
 346              	.L21:
 234:MCSDK_v6.2.1-Full/MotorControl/MCSDK/MCLib/Any/Src/trajectory_ctrl.c ****   }
 235:MCSDK_v6.2.1-Full/MotorControl/MCSDK/MCLib/Any/Src/trajectory_ctrl.c ****   else
 236:MCSDK_v6.2.1-Full/MotorControl/MCSDK/MCLib/Any/Src/trajectory_ctrl.c ****   {
 237:MCSDK_v6.2.1-Full/MotorControl/MCSDK/MCLib/Any/Src/trajectory_ctrl.c ****     /* Nothing to do */
 238:MCSDK_v6.2.1-Full/MotorControl/MCSDK/MCLib/Any/Src/trajectory_ctrl.c ****   }
 347              		.loc 1 238 3 is_stmt 1 view .LVU155
 239:MCSDK_v6.2.1-Full/MotorControl/MCSDK/MCLib/Any/Src/trajectory_ctrl.c **** 
 240:MCSDK_v6.2.1-Full/MotorControl/MCSDK/MCLib/Any/Src/trajectory_ctrl.c ****   pHandle->Acceleration = acceleration;
 348              		.loc 1 240 3 view .LVU156
 241:MCSDK_v6.2.1-Full/MotorControl/MCSDK/MCLib/Any/Src/trajectory_ctrl.c ****   pHandle->Omega = omega;
 242:MCSDK_v6.2.1-Full/MotorControl/MCSDK/MCLib/Any/Src/trajectory_ctrl.c ****   pHandle->Theta = Angle;
 243:MCSDK_v6.2.1-Full/MotorControl/MCSDK/MCLib/Any/Src/trajectory_ctrl.c **** 
 244:MCSDK_v6.2.1-Full/MotorControl/MCSDK/MCLib/Any/Src/trajectory_ctrl.c ****   pHandle->PositionCtrlStatus = TC_FOLLOWING_ON_GOING;   /* follow mode has been programmed */
 245:MCSDK_v6.2.1-Full/MotorControl/MCSDK/MCLib/Any/Src/trajectory_ctrl.c ****   pHandle->MovementDuration = 0;
 349              		.loc 1 245 29 is_stmt 0 view .LVU157
 350 001c 0023     		movs	r3, #0
 244:MCSDK_v6.2.1-Full/MotorControl/MCSDK/MCLib/Any/Src/trajectory_ctrl.c ****   pHandle->MovementDuration = 0;
 351              		.loc 1 244 31 view .LVU158
 352 001e 0322     		movs	r2, #3
 240:MCSDK_v6.2.1-Full/MotorControl/MCSDK/MCLib/Any/Src/trajectory_ctrl.c ****   pHandle->Omega = omega;
 353              		.loc 1 240 25 view .LVU159
 354 0020 C0ED0F6A 		vstr.32	s13, [r0, #60]
 241:MCSDK_v6.2.1-Full/MotorControl/MCSDK/MCLib/Any/Src/trajectory_ctrl.c ****   pHandle->Omega = omega;
 355              		.loc 1 241 3 is_stmt 1 view .LVU160
 241:MCSDK_v6.2.1-Full/MotorControl/MCSDK/MCLib/Any/Src/trajectory_ctrl.c ****   pHandle->Omega = omega;
 356              		.loc 1 241 18 is_stmt 0 view .LVU161
 357 0024 C0ED107A 		vstr.32	s15, [r0, #64]
 242:MCSDK_v6.2.1-Full/MotorControl/MCSDK/MCLib/Any/Src/trajectory_ctrl.c **** 
 358              		.loc 1 242 3 is_stmt 1 view .LVU162
 242:MCSDK_v6.2.1-Full/MotorControl/MCSDK/MCLib/Any/Src/trajectory_ctrl.c **** 
 359              		.loc 1 242 18 is_stmt 0 view .LVU163
 360 0028 80ED120A 		vstr.32	s0, [r0, #72]
 244:MCSDK_v6.2.1-Full/MotorControl/MCSDK/MCLib/Any/Src/trajectory_ctrl.c ****   pHandle->MovementDuration = 0;
 361              		.loc 1 244 3 is_stmt 1 view .LVU164
 244:MCSDK_v6.2.1-Full/MotorControl/MCSDK/MCLib/Any/Src/trajectory_ctrl.c ****   pHandle->MovementDuration = 0;
 362              		.loc 1 244 31 is_stmt 0 view .LVU165
 363 002c 80F86020 		strb	r2, [r0, #96]
 364              		.loc 1 245 3 is_stmt 1 view .LVU166
 365              		.loc 1 245 29 is_stmt 0 view .LVU167
 366 0030 0360     		str	r3, [r0]	@ float
 246:MCSDK_v6.2.1-Full/MotorControl/MCSDK/MCLib/Any/Src/trajectory_ctrl.c **** }
 367              		.loc 1 246 1 view .LVU168
 368 0032 7047     		bx	lr
 369              	.LVL15:
 370              	.L14:
 195:MCSDK_v6.2.1-Full/MotorControl/MCSDK/MCLib/Any/Src/trajectory_ctrl.c ****     pHandle->TcTick = 0;
ARM GAS  C:\Users\ep_ygh\AppData\Local\Temp\ccVk9xPU.s 			page 14


 371              		.loc 1 195 5 is_stmt 1 view .LVU169
 195:MCSDK_v6.2.1-Full/MotorControl/MCSDK/MCLib/Any/Src/trajectory_ctrl.c ****     pHandle->TcTick = 0;
 372              		.loc 1 195 26 is_stmt 0 view .LVU170
 373 0034 90ED167A 		vldr.32	s14, [r0, #88]	@ int
 195:MCSDK_v6.2.1-Full/MotorControl/MCSDK/MCLib/Any/Src/trajectory_ctrl.c ****     pHandle->TcTick = 0;
 374              		.loc 1 195 8 view .LVU171
 375 0038 D0ED177A 		vldr.32	s15, [r0, #92]
 195:MCSDK_v6.2.1-Full/MotorControl/MCSDK/MCLib/Any/Src/trajectory_ctrl.c ****     pHandle->TcTick = 0;
 376              		.loc 1 195 26 view .LVU172
 377 003c B8EE477A 		vcvt.f32.u32	s14, s14
 196:MCSDK_v6.2.1-Full/MotorControl/MCSDK/MCLib/Any/Src/trajectory_ctrl.c ****     if (dt > 0)
 378              		.loc 1 196 21 view .LVU173
 379 0040 0022     		movs	r2, #0
 195:MCSDK_v6.2.1-Full/MotorControl/MCSDK/MCLib/Any/Src/trajectory_ctrl.c ****     pHandle->TcTick = 0;
 380              		.loc 1 195 8 view .LVU174
 381 0042 27EE277A 		vmul.f32	s14, s14, s15
 382              	.LVL16:
 196:MCSDK_v6.2.1-Full/MotorControl/MCSDK/MCLib/Any/Src/trajectory_ctrl.c ****     if (dt > 0)
 383              		.loc 1 196 5 is_stmt 1 view .LVU175
 196:MCSDK_v6.2.1-Full/MotorControl/MCSDK/MCLib/Any/Src/trajectory_ctrl.c ****     if (dt > 0)
 384              		.loc 1 196 21 is_stmt 0 view .LVU176
 385 0046 8265     		str	r2, [r0, #88]
 197:MCSDK_v6.2.1-Full/MotorControl/MCSDK/MCLib/Any/Src/trajectory_ctrl.c ****     {
 386              		.loc 1 197 5 is_stmt 1 view .LVU177
 197:MCSDK_v6.2.1-Full/MotorControl/MCSDK/MCLib/Any/Src/trajectory_ctrl.c ****     {
 387              		.loc 1 197 8 is_stmt 0 view .LVU178
 388 0048 B5EEC07A 		vcmpe.f32	s14, #0
 389 004c F1EE10FA 		vmrs	APSR_nzcv, FPSCR
 390 0050 12DD     		ble	.L24
 199:MCSDK_v6.2.1-Full/MotorControl/MCSDK/MCLib/Any/Src/trajectory_ctrl.c ****     }
 391              		.loc 1 199 7 is_stmt 1 view .LVU179
 199:MCSDK_v6.2.1-Full/MotorControl/MCSDK/MCLib/Any/Src/trajectory_ctrl.c ****     }
 392              		.loc 1 199 22 is_stmt 0 view .LVU180
 393 0052 D0ED136A 		vldr.32	s13, [r0, #76]
 394 0056 70EE666A 		vsub.f32	s13, s0, s13
 212:MCSDK_v6.2.1-Full/MotorControl/MCSDK/MCLib/Any/Src/trajectory_ctrl.c ****   {
 395              		.loc 1 212 6 view .LVU181
 396 005a 012B     		cmp	r3, #1
 199:MCSDK_v6.2.1-Full/MotorControl/MCSDK/MCLib/Any/Src/trajectory_ctrl.c ****     }
 397              		.loc 1 199 13 view .LVU182
 398 005c C6EE877A 		vdiv.f32	s15, s13, s14
 399              	.LVL17:
 209:MCSDK_v6.2.1-Full/MotorControl/MCSDK/MCLib/Any/Src/trajectory_ctrl.c **** 
 400              		.loc 1 209 3 is_stmt 1 view .LVU183
 212:MCSDK_v6.2.1-Full/MotorControl/MCSDK/MCLib/Any/Src/trajectory_ctrl.c ****   {
 401              		.loc 1 212 3 view .LVU184
 212:MCSDK_v6.2.1-Full/MotorControl/MCSDK/MCLib/Any/Src/trajectory_ctrl.c ****   {
 402              		.loc 1 212 6 is_stmt 0 view .LVU185
 403 0060 D3D0     		beq	.L15
 216:MCSDK_v6.2.1-Full/MotorControl/MCSDK/MCLib/Any/Src/trajectory_ctrl.c ****     }
 404              		.loc 1 216 7 is_stmt 1 view .LVU186
 216:MCSDK_v6.2.1-Full/MotorControl/MCSDK/MCLib/Any/Src/trajectory_ctrl.c ****     }
 405              		.loc 1 216 29 is_stmt 0 view .LVU187
 406 0062 90ED116A 		vldr.32	s12, [r0, #68]
 407 0066 37EEC66A 		vsub.f32	s12, s15, s12
 216:MCSDK_v6.2.1-Full/MotorControl/MCSDK/MCLib/Any/Src/trajectory_ctrl.c ****     }
 408              		.loc 1 216 20 view .LVU188
ARM GAS  C:\Users\ep_ygh\AppData\Local\Temp\ccVk9xPU.s 			page 15


 409 006a C6EE076A 		vdiv.f32	s13, s12, s14
 410              	.LVL18:
 411              	.L19:
 226:MCSDK_v6.2.1-Full/MotorControl/MCSDK/MCLib/Any/Src/trajectory_ctrl.c **** 
 412              		.loc 1 226 3 is_stmt 1 view .LVU189
 229:MCSDK_v6.2.1-Full/MotorControl/MCSDK/MCLib/Any/Src/trajectory_ctrl.c ****   pHandle->OmegaPrev = omega;
 413              		.loc 1 229 3 view .LVU190
 229:MCSDK_v6.2.1-Full/MotorControl/MCSDK/MCLib/Any/Src/trajectory_ctrl.c ****   pHandle->OmegaPrev = omega;
 414              		.loc 1 229 23 is_stmt 0 view .LVU191
 415 006e 80ED130A 		vstr.32	s0, [r0, #76]
 230:MCSDK_v6.2.1-Full/MotorControl/MCSDK/MCLib/Any/Src/trajectory_ctrl.c ****   if (pHandle->ReceivedTh < 2)
 416              		.loc 1 230 3 is_stmt 1 view .LVU192
 230:MCSDK_v6.2.1-Full/MotorControl/MCSDK/MCLib/Any/Src/trajectory_ctrl.c ****   if (pHandle->ReceivedTh < 2)
 417              		.loc 1 230 22 is_stmt 0 view .LVU193
 418 0072 C0ED117A 		vstr.32	s15, [r0, #68]
 231:MCSDK_v6.2.1-Full/MotorControl/MCSDK/MCLib/Any/Src/trajectory_ctrl.c ****   {
 419              		.loc 1 231 3 is_stmt 1 view .LVU194
 420 0076 D1E7     		b	.L21
 421              	.LVL19:
 422              	.L24:
 209:MCSDK_v6.2.1-Full/MotorControl/MCSDK/MCLib/Any/Src/trajectory_ctrl.c **** 
 423              		.loc 1 209 3 view .LVU195
 212:MCSDK_v6.2.1-Full/MotorControl/MCSDK/MCLib/Any/Src/trajectory_ctrl.c ****   {
 424              		.loc 1 212 3 view .LVU196
 212:MCSDK_v6.2.1-Full/MotorControl/MCSDK/MCLib/Any/Src/trajectory_ctrl.c ****   {
 425              		.loc 1 212 6 is_stmt 0 view .LVU197
 426 0078 012B     		cmp	r3, #1
 427 007a C4D0     		beq	.L20
 189:MCSDK_v6.2.1-Full/MotorControl/MCSDK/MCLib/Any/Src/trajectory_ctrl.c **** 
 428              		.loc 1 189 9 view .LVU198
 429 007c DFED027A 		vldr.32	s15, .L26
 189:MCSDK_v6.2.1-Full/MotorControl/MCSDK/MCLib/Any/Src/trajectory_ctrl.c **** 
 430              		.loc 1 189 20 view .LVU199
 431 0080 F0EE676A 		vmov.f32	s13, s15
 432 0084 F3E7     		b	.L19
 433              	.L27:
 434 0086 00BF     		.align	2
 435              	.L26:
 436 0088 00000000 		.word	0
 437              		.cfi_endproc
 438              	.LFE1090:
 440              		.section	.text.TC_MoveExecution,"ax",%progbits
 441              		.align	1
 442              		.p2align 2,,3
 443              		.global	TC_MoveExecution
 444              		.syntax unified
 445              		.thumb
 446              		.thumb_func
 448              	TC_MoveExecution:
 449              	.LVL20:
 450              	.LFB1092:
 247:MCSDK_v6.2.1-Full/MotorControl/MCSDK/MCLib/Any/Src/trajectory_ctrl.c **** 
 248:MCSDK_v6.2.1-Full/MotorControl/MCSDK/MCLib/Any/Src/trajectory_ctrl.c **** /**
 249:MCSDK_v6.2.1-Full/MotorControl/MCSDK/MCLib/Any/Src/trajectory_ctrl.c ****   * @brief  Proceeds on the position control loop.
 250:MCSDK_v6.2.1-Full/MotorControl/MCSDK/MCLib/Any/Src/trajectory_ctrl.c ****   * @param  pHandle: handler of the current instance of the Position Control component.
 251:MCSDK_v6.2.1-Full/MotorControl/MCSDK/MCLib/Any/Src/trajectory_ctrl.c ****   */
 252:MCSDK_v6.2.1-Full/MotorControl/MCSDK/MCLib/Any/Src/trajectory_ctrl.c **** void TC_PositionRegulation(PosCtrl_Handle_t *pHandle)
ARM GAS  C:\Users\ep_ygh\AppData\Local\Temp\ccVk9xPU.s 			page 16


 253:MCSDK_v6.2.1-Full/MotorControl/MCSDK/MCLib/Any/Src/trajectory_ctrl.c **** {
 254:MCSDK_v6.2.1-Full/MotorControl/MCSDK/MCLib/Any/Src/trajectory_ctrl.c **** 
 255:MCSDK_v6.2.1-Full/MotorControl/MCSDK/MCLib/Any/Src/trajectory_ctrl.c ****   int32_t wMecAngleRef;
 256:MCSDK_v6.2.1-Full/MotorControl/MCSDK/MCLib/Any/Src/trajectory_ctrl.c ****   int32_t wMecAngle;
 257:MCSDK_v6.2.1-Full/MotorControl/MCSDK/MCLib/Any/Src/trajectory_ctrl.c ****   int32_t wError;
 258:MCSDK_v6.2.1-Full/MotorControl/MCSDK/MCLib/Any/Src/trajectory_ctrl.c ****   int32_t hTorqueRef_Pos;
 259:MCSDK_v6.2.1-Full/MotorControl/MCSDK/MCLib/Any/Src/trajectory_ctrl.c **** 
 260:MCSDK_v6.2.1-Full/MotorControl/MCSDK/MCLib/Any/Src/trajectory_ctrl.c ****   if (pHandle->PositionCtrlStatus == TC_MOVEMENT_ON_GOING)
 261:MCSDK_v6.2.1-Full/MotorControl/MCSDK/MCLib/Any/Src/trajectory_ctrl.c ****   {
 262:MCSDK_v6.2.1-Full/MotorControl/MCSDK/MCLib/Any/Src/trajectory_ctrl.c ****     TC_MoveExecution(pHandle);
 263:MCSDK_v6.2.1-Full/MotorControl/MCSDK/MCLib/Any/Src/trajectory_ctrl.c ****   }
 264:MCSDK_v6.2.1-Full/MotorControl/MCSDK/MCLib/Any/Src/trajectory_ctrl.c ****   else
 265:MCSDK_v6.2.1-Full/MotorControl/MCSDK/MCLib/Any/Src/trajectory_ctrl.c ****   {
 266:MCSDK_v6.2.1-Full/MotorControl/MCSDK/MCLib/Any/Src/trajectory_ctrl.c ****     /* Nothing to do */
 267:MCSDK_v6.2.1-Full/MotorControl/MCSDK/MCLib/Any/Src/trajectory_ctrl.c ****   }
 268:MCSDK_v6.2.1-Full/MotorControl/MCSDK/MCLib/Any/Src/trajectory_ctrl.c **** 
 269:MCSDK_v6.2.1-Full/MotorControl/MCSDK/MCLib/Any/Src/trajectory_ctrl.c ****   if (pHandle->PositionCtrlStatus == TC_FOLLOWING_ON_GOING)
 270:MCSDK_v6.2.1-Full/MotorControl/MCSDK/MCLib/Any/Src/trajectory_ctrl.c ****   {
 271:MCSDK_v6.2.1-Full/MotorControl/MCSDK/MCLib/Any/Src/trajectory_ctrl.c ****     TC_FollowExecution(pHandle);
 272:MCSDK_v6.2.1-Full/MotorControl/MCSDK/MCLib/Any/Src/trajectory_ctrl.c ****   }
 273:MCSDK_v6.2.1-Full/MotorControl/MCSDK/MCLib/Any/Src/trajectory_ctrl.c ****   else
 274:MCSDK_v6.2.1-Full/MotorControl/MCSDK/MCLib/Any/Src/trajectory_ctrl.c ****   {
 275:MCSDK_v6.2.1-Full/MotorControl/MCSDK/MCLib/Any/Src/trajectory_ctrl.c ****     /* Nothing to do */
 276:MCSDK_v6.2.1-Full/MotorControl/MCSDK/MCLib/Any/Src/trajectory_ctrl.c ****   }
 277:MCSDK_v6.2.1-Full/MotorControl/MCSDK/MCLib/Any/Src/trajectory_ctrl.c **** 
 278:MCSDK_v6.2.1-Full/MotorControl/MCSDK/MCLib/Any/Src/trajectory_ctrl.c ****   if (pHandle->PositionControlRegulation == ENABLE)
 279:MCSDK_v6.2.1-Full/MotorControl/MCSDK/MCLib/Any/Src/trajectory_ctrl.c ****   {
 280:MCSDK_v6.2.1-Full/MotorControl/MCSDK/MCLib/Any/Src/trajectory_ctrl.c ****     wMecAngleRef = (int32_t)(pHandle->Theta * RADTOS16);
 281:MCSDK_v6.2.1-Full/MotorControl/MCSDK/MCLib/Any/Src/trajectory_ctrl.c **** 
 282:MCSDK_v6.2.1-Full/MotorControl/MCSDK/MCLib/Any/Src/trajectory_ctrl.c ****     wMecAngle = SPD_GetMecAngle(STC_GetSpeedSensor(pHandle->pSTC));
 283:MCSDK_v6.2.1-Full/MotorControl/MCSDK/MCLib/Any/Src/trajectory_ctrl.c ****     wError = wMecAngleRef - wMecAngle;
 284:MCSDK_v6.2.1-Full/MotorControl/MCSDK/MCLib/Any/Src/trajectory_ctrl.c ****     hTorqueRef_Pos = PID_Controller(pHandle->PIDPosRegulator, wError);
 285:MCSDK_v6.2.1-Full/MotorControl/MCSDK/MCLib/Any/Src/trajectory_ctrl.c **** 
 286:MCSDK_v6.2.1-Full/MotorControl/MCSDK/MCLib/Any/Src/trajectory_ctrl.c ****     STC_SetControlMode(pHandle->pSTC, MCM_TORQUE_MODE);
 287:MCSDK_v6.2.1-Full/MotorControl/MCSDK/MCLib/Any/Src/trajectory_ctrl.c ****     STC_ExecRamp(pHandle->pSTC, hTorqueRef_Pos, 0);
 288:MCSDK_v6.2.1-Full/MotorControl/MCSDK/MCLib/Any/Src/trajectory_ctrl.c ****   }
 289:MCSDK_v6.2.1-Full/MotorControl/MCSDK/MCLib/Any/Src/trajectory_ctrl.c ****   else
 290:MCSDK_v6.2.1-Full/MotorControl/MCSDK/MCLib/Any/Src/trajectory_ctrl.c ****   {
 291:MCSDK_v6.2.1-Full/MotorControl/MCSDK/MCLib/Any/Src/trajectory_ctrl.c ****     /* Nothing to do */
 292:MCSDK_v6.2.1-Full/MotorControl/MCSDK/MCLib/Any/Src/trajectory_ctrl.c ****   }
 293:MCSDK_v6.2.1-Full/MotorControl/MCSDK/MCLib/Any/Src/trajectory_ctrl.c **** 
 294:MCSDK_v6.2.1-Full/MotorControl/MCSDK/MCLib/Any/Src/trajectory_ctrl.c **** }
 295:MCSDK_v6.2.1-Full/MotorControl/MCSDK/MCLib/Any/Src/trajectory_ctrl.c **** 
 296:MCSDK_v6.2.1-Full/MotorControl/MCSDK/MCLib/Any/Src/trajectory_ctrl.c **** /**
 297:MCSDK_v6.2.1-Full/MotorControl/MCSDK/MCLib/Any/Src/trajectory_ctrl.c ****   * @brief  Executes the programmed trajectory movement.
 298:MCSDK_v6.2.1-Full/MotorControl/MCSDK/MCLib/Any/Src/trajectory_ctrl.c ****   * @param  pHandle handler of the current instance of the Position Control component.
 299:MCSDK_v6.2.1-Full/MotorControl/MCSDK/MCLib/Any/Src/trajectory_ctrl.c ****   */
 300:MCSDK_v6.2.1-Full/MotorControl/MCSDK/MCLib/Any/Src/trajectory_ctrl.c **** void TC_MoveExecution(PosCtrl_Handle_t *pHandle)
 301:MCSDK_v6.2.1-Full/MotorControl/MCSDK/MCLib/Any/Src/trajectory_ctrl.c **** {
 451              		.loc 1 301 1 is_stmt 1 view -0
 452              		.cfi_startproc
 453              		@ args = 0, pretend = 0, frame = 0
 454              		@ frame_needed = 0, uses_anonymous_args = 0
 455              		@ link register save eliminated.
 302:MCSDK_v6.2.1-Full/MotorControl/MCSDK/MCLib/Any/Src/trajectory_ctrl.c **** 
 303:MCSDK_v6.2.1-Full/MotorControl/MCSDK/MCLib/Any/Src/trajectory_ctrl.c ****   float jerkApplied = 0;
 456              		.loc 1 303 3 view .LVU201
ARM GAS  C:\Users\ep_ygh\AppData\Local\Temp\ccVk9xPU.s 			page 17


 304:MCSDK_v6.2.1-Full/MotorControl/MCSDK/MCLib/Any/Src/trajectory_ctrl.c **** 
 305:MCSDK_v6.2.1-Full/MotorControl/MCSDK/MCLib/Any/Src/trajectory_ctrl.c ****   if (pHandle->ElapseTime < pHandle->SubStep[0])            /* 1st Sub-Step interval time of accele
 457              		.loc 1 305 3 view .LVU202
 458              		.loc 1 305 14 is_stmt 0 view .LVU203
 459 0000 D0ED0B7A 		vldr.32	s15, [r0, #44]
 460              		.loc 1 305 6 view .LVU204
 461 0004 90ED047A 		vldr.32	s14, [r0, #16]
 462 0008 F4EEC77A 		vcmpe.f32	s15, s14
 463 000c F1EE10FA 		vmrs	APSR_nzcv, FPSCR
 464 0010 35D5     		bpl	.L51
 306:MCSDK_v6.2.1-Full/MotorControl/MCSDK/MCLib/Any/Src/trajectory_ctrl.c ****   {
 307:MCSDK_v6.2.1-Full/MotorControl/MCSDK/MCLib/Any/Src/trajectory_ctrl.c ****     jerkApplied = pHandle->Jerk;
 465              		.loc 1 307 5 is_stmt 1 view .LVU205
 466              		.loc 1 307 17 is_stmt 0 view .LVU206
 467 0012 90ED0D5A 		vldr.32	s10, [r0, #52]
 468              	.LVL21:
 308:MCSDK_v6.2.1-Full/MotorControl/MCSDK/MCLib/Any/Src/trajectory_ctrl.c ****   }
 309:MCSDK_v6.2.1-Full/MotorControl/MCSDK/MCLib/Any/Src/trajectory_ctrl.c ****   else if (pHandle->ElapseTime < pHandle->SubStep[1])       /* 2nd Sub-Step interval time of accele
 310:MCSDK_v6.2.1-Full/MotorControl/MCSDK/MCLib/Any/Src/trajectory_ctrl.c ****   {
 311:MCSDK_v6.2.1-Full/MotorControl/MCSDK/MCLib/Any/Src/trajectory_ctrl.c ****   }
 312:MCSDK_v6.2.1-Full/MotorControl/MCSDK/MCLib/Any/Src/trajectory_ctrl.c ****   else if (pHandle->ElapseTime < pHandle->SubStep[2])       /* 3rd Sub-Step interval time of accele
 313:MCSDK_v6.2.1-Full/MotorControl/MCSDK/MCLib/Any/Src/trajectory_ctrl.c ****   {
 314:MCSDK_v6.2.1-Full/MotorControl/MCSDK/MCLib/Any/Src/trajectory_ctrl.c ****     jerkApplied = -(pHandle->Jerk);
 315:MCSDK_v6.2.1-Full/MotorControl/MCSDK/MCLib/Any/Src/trajectory_ctrl.c ****   }
 316:MCSDK_v6.2.1-Full/MotorControl/MCSDK/MCLib/Any/Src/trajectory_ctrl.c ****   else if (pHandle->ElapseTime < pHandle->SubStep[3])       /* Speed Cruise phase (after accelerati
 317:MCSDK_v6.2.1-Full/MotorControl/MCSDK/MCLib/Any/Src/trajectory_ctrl.c ****                                                                deceleration phases) */
 318:MCSDK_v6.2.1-Full/MotorControl/MCSDK/MCLib/Any/Src/trajectory_ctrl.c ****   {
 319:MCSDK_v6.2.1-Full/MotorControl/MCSDK/MCLib/Any/Src/trajectory_ctrl.c ****     pHandle->Acceleration = 0.0f;
 320:MCSDK_v6.2.1-Full/MotorControl/MCSDK/MCLib/Any/Src/trajectory_ctrl.c ****     pHandle->Omega = pHandle->CruiseSpeed;
 321:MCSDK_v6.2.1-Full/MotorControl/MCSDK/MCLib/Any/Src/trajectory_ctrl.c ****   }
 322:MCSDK_v6.2.1-Full/MotorControl/MCSDK/MCLib/Any/Src/trajectory_ctrl.c ****   else if (pHandle->ElapseTime < pHandle->SubStep[4])       /* 1st Sub-Step interval time of decele
 323:MCSDK_v6.2.1-Full/MotorControl/MCSDK/MCLib/Any/Src/trajectory_ctrl.c ****   {
 324:MCSDK_v6.2.1-Full/MotorControl/MCSDK/MCLib/Any/Src/trajectory_ctrl.c ****     jerkApplied = -(pHandle->Jerk);
 325:MCSDK_v6.2.1-Full/MotorControl/MCSDK/MCLib/Any/Src/trajectory_ctrl.c ****   }
 326:MCSDK_v6.2.1-Full/MotorControl/MCSDK/MCLib/Any/Src/trajectory_ctrl.c ****   else if (pHandle->ElapseTime < pHandle->SubStep[5])       /* 2nd Sub-Step interval time of decele
 327:MCSDK_v6.2.1-Full/MotorControl/MCSDK/MCLib/Any/Src/trajectory_ctrl.c ****   {
 328:MCSDK_v6.2.1-Full/MotorControl/MCSDK/MCLib/Any/Src/trajectory_ctrl.c **** 
 329:MCSDK_v6.2.1-Full/MotorControl/MCSDK/MCLib/Any/Src/trajectory_ctrl.c ****   }
 330:MCSDK_v6.2.1-Full/MotorControl/MCSDK/MCLib/Any/Src/trajectory_ctrl.c ****   else if (pHandle->ElapseTime < pHandle->MovementDuration) /* 3rd Sub-Step interval time of decele
 469              		.loc 1 330 41 view .LVU207
 470 0016 D0ED006A 		vldr.32	s13, [r0]
 471              	.LVL22:
 472              	.L31:
 331:MCSDK_v6.2.1-Full/MotorControl/MCSDK/MCLib/Any/Src/trajectory_ctrl.c ****   {
 332:MCSDK_v6.2.1-Full/MotorControl/MCSDK/MCLib/Any/Src/trajectory_ctrl.c ****     jerkApplied = pHandle->Jerk;
 333:MCSDK_v6.2.1-Full/MotorControl/MCSDK/MCLib/Any/Src/trajectory_ctrl.c ****   }
 334:MCSDK_v6.2.1-Full/MotorControl/MCSDK/MCLib/Any/Src/trajectory_ctrl.c ****   else
 335:MCSDK_v6.2.1-Full/MotorControl/MCSDK/MCLib/Any/Src/trajectory_ctrl.c ****   {
 336:MCSDK_v6.2.1-Full/MotorControl/MCSDK/MCLib/Any/Src/trajectory_ctrl.c ****     pHandle->Theta = pHandle->FinalAngle;
 337:MCSDK_v6.2.1-Full/MotorControl/MCSDK/MCLib/Any/Src/trajectory_ctrl.c ****     pHandle->PositionCtrlStatus = TC_TARGET_POSITION_REACHED;
 338:MCSDK_v6.2.1-Full/MotorControl/MCSDK/MCLib/Any/Src/trajectory_ctrl.c ****   }
 339:MCSDK_v6.2.1-Full/MotorControl/MCSDK/MCLib/Any/Src/trajectory_ctrl.c **** 
 340:MCSDK_v6.2.1-Full/MotorControl/MCSDK/MCLib/Any/Src/trajectory_ctrl.c ****   if (TC_MOVEMENT_ON_GOING == pHandle->PositionCtrlStatus)
 473              		.loc 1 340 3 is_stmt 1 view .LVU208
 474              		.loc 1 340 6 is_stmt 0 view .LVU209
 475 001a 90F86030 		ldrb	r3, [r0, #96]	@ zero_extendqisi2
 341:MCSDK_v6.2.1-Full/MotorControl/MCSDK/MCLib/Any/Src/trajectory_ctrl.c ****   {
ARM GAS  C:\Users\ep_ygh\AppData\Local\Temp\ccVk9xPU.s 			page 18


 342:MCSDK_v6.2.1-Full/MotorControl/MCSDK/MCLib/Any/Src/trajectory_ctrl.c ****     pHandle->Acceleration += jerkApplied * pHandle->SamplingTime;
 476              		.loc 1 342 51 view .LVU210
 477 001e 90ED0C7A 		vldr.32	s14, [r0, #48]
 340:MCSDK_v6.2.1-Full/MotorControl/MCSDK/MCLib/Any/Src/trajectory_ctrl.c ****   {
 478              		.loc 1 340 6 view .LVU211
 479 0022 012B     		cmp	r3, #1
 480 0024 13D1     		bne	.L42
 481              		.loc 1 342 5 is_stmt 1 view .LVU212
 482              		.loc 1 342 27 is_stmt 0 view .LVU213
 483 0026 D0ED0F5A 		vldr.32	s11, [r0, #60]
 343:MCSDK_v6.2.1-Full/MotorControl/MCSDK/MCLib/Any/Src/trajectory_ctrl.c ****     pHandle->Omega += pHandle->Acceleration * pHandle->SamplingTime;
 484              		.loc 1 343 20 view .LVU214
 485 002a 90ED106A 		vldr.32	s12, [r0, #64]
 342:MCSDK_v6.2.1-Full/MotorControl/MCSDK/MCLib/Any/Src/trajectory_ctrl.c ****     pHandle->Omega += pHandle->Acceleration * pHandle->SamplingTime;
 486              		.loc 1 342 27 view .LVU215
 487 002e E7EE055A 		vfma.f32	s11, s14, s10
 344:MCSDK_v6.2.1-Full/MotorControl/MCSDK/MCLib/Any/Src/trajectory_ctrl.c ****     pHandle->Theta += pHandle->Omega * pHandle->SamplingTime;
 488              		.loc 1 344 20 view .LVU216
 489 0032 90ED125A 		vldr.32	s10, [r0, #72]
 490              	.LVL23:
 342:MCSDK_v6.2.1-Full/MotorControl/MCSDK/MCLib/Any/Src/trajectory_ctrl.c ****     pHandle->Omega += pHandle->Acceleration * pHandle->SamplingTime;
 491              		.loc 1 342 27 view .LVU217
 492 0036 C0ED0F5A 		vstr.32	s11, [r0, #60]
 343:MCSDK_v6.2.1-Full/MotorControl/MCSDK/MCLib/Any/Src/trajectory_ctrl.c ****     pHandle->Omega += pHandle->Acceleration * pHandle->SamplingTime;
 493              		.loc 1 343 5 is_stmt 1 view .LVU218
 343:MCSDK_v6.2.1-Full/MotorControl/MCSDK/MCLib/Any/Src/trajectory_ctrl.c ****     pHandle->Omega += pHandle->Acceleration * pHandle->SamplingTime;
 494              		.loc 1 343 20 is_stmt 0 view .LVU219
 495 003a A7EE256A 		vfma.f32	s12, s14, s11
 496              		.loc 1 344 20 view .LVU220
 497 003e F0EE455A 		vmov.f32	s11, s10
 498 0042 E7EE065A 		vfma.f32	s11, s14, s12
 343:MCSDK_v6.2.1-Full/MotorControl/MCSDK/MCLib/Any/Src/trajectory_ctrl.c ****     pHandle->Omega += pHandle->Acceleration * pHandle->SamplingTime;
 499              		.loc 1 343 20 view .LVU221
 500 0046 80ED106A 		vstr.32	s12, [r0, #64]
 501              		.loc 1 344 5 is_stmt 1 view .LVU222
 502              		.loc 1 344 20 is_stmt 0 view .LVU223
 503 004a C0ED125A 		vstr.32	s11, [r0, #72]
 504              	.L42:
 345:MCSDK_v6.2.1-Full/MotorControl/MCSDK/MCLib/Any/Src/trajectory_ctrl.c ****   }
 346:MCSDK_v6.2.1-Full/MotorControl/MCSDK/MCLib/Any/Src/trajectory_ctrl.c ****   else
 347:MCSDK_v6.2.1-Full/MotorControl/MCSDK/MCLib/Any/Src/trajectory_ctrl.c ****   {
 348:MCSDK_v6.2.1-Full/MotorControl/MCSDK/MCLib/Any/Src/trajectory_ctrl.c ****     /* Nothing to do */
 349:MCSDK_v6.2.1-Full/MotorControl/MCSDK/MCLib/Any/Src/trajectory_ctrl.c ****   }
 505              		.loc 1 349 3 is_stmt 1 view .LVU224
 350:MCSDK_v6.2.1-Full/MotorControl/MCSDK/MCLib/Any/Src/trajectory_ctrl.c **** 
 351:MCSDK_v6.2.1-Full/MotorControl/MCSDK/MCLib/Any/Src/trajectory_ctrl.c ****   pHandle->ElapseTime += pHandle->SamplingTime;
 506              		.loc 1 351 3 view .LVU225
 507              		.loc 1 351 23 is_stmt 0 view .LVU226
 508 004e 77EE877A 		vadd.f32	s15, s15, s14
 509              	.LBB12:
 510              	.LBB13:
 352:MCSDK_v6.2.1-Full/MotorControl/MCSDK/MCLib/Any/Src/trajectory_ctrl.c **** 
 353:MCSDK_v6.2.1-Full/MotorControl/MCSDK/MCLib/Any/Src/trajectory_ctrl.c ****   if (TC_RampCompleted(pHandle))
 354:MCSDK_v6.2.1-Full/MotorControl/MCSDK/MCLib/Any/Src/trajectory_ctrl.c ****   {
 355:MCSDK_v6.2.1-Full/MotorControl/MCSDK/MCLib/Any/Src/trajectory_ctrl.c ****     if (TC_ZERO_ALIGNMENT_START == pHandle->AlignmentStatus)
 356:MCSDK_v6.2.1-Full/MotorControl/MCSDK/MCLib/Any/Src/trajectory_ctrl.c ****     {
 357:MCSDK_v6.2.1-Full/MotorControl/MCSDK/MCLib/Any/Src/trajectory_ctrl.c ****       /* Ramp is used to search the zero index, if completed there is no z signal */
ARM GAS  C:\Users\ep_ygh\AppData\Local\Temp\ccVk9xPU.s 			page 19


 358:MCSDK_v6.2.1-Full/MotorControl/MCSDK/MCLib/Any/Src/trajectory_ctrl.c ****       pHandle->AlignmentStatus = TC_ALIGNMENT_ERROR;
 359:MCSDK_v6.2.1-Full/MotorControl/MCSDK/MCLib/Any/Src/trajectory_ctrl.c ****     }
 360:MCSDK_v6.2.1-Full/MotorControl/MCSDK/MCLib/Any/Src/trajectory_ctrl.c ****     else
 361:MCSDK_v6.2.1-Full/MotorControl/MCSDK/MCLib/Any/Src/trajectory_ctrl.c ****     {
 362:MCSDK_v6.2.1-Full/MotorControl/MCSDK/MCLib/Any/Src/trajectory_ctrl.c ****       /* Nothing to do */
 363:MCSDK_v6.2.1-Full/MotorControl/MCSDK/MCLib/Any/Src/trajectory_ctrl.c ****     }
 364:MCSDK_v6.2.1-Full/MotorControl/MCSDK/MCLib/Any/Src/trajectory_ctrl.c ****     pHandle->ElapseTime = 0;
 365:MCSDK_v6.2.1-Full/MotorControl/MCSDK/MCLib/Any/Src/trajectory_ctrl.c ****     pHandle->PositionCtrlStatus = TC_READY_FOR_COMMAND;
 366:MCSDK_v6.2.1-Full/MotorControl/MCSDK/MCLib/Any/Src/trajectory_ctrl.c ****   }
 367:MCSDK_v6.2.1-Full/MotorControl/MCSDK/MCLib/Any/Src/trajectory_ctrl.c ****   else
 368:MCSDK_v6.2.1-Full/MotorControl/MCSDK/MCLib/Any/Src/trajectory_ctrl.c ****   {
 369:MCSDK_v6.2.1-Full/MotorControl/MCSDK/MCLib/Any/Src/trajectory_ctrl.c ****     /* Nothing to do */
 370:MCSDK_v6.2.1-Full/MotorControl/MCSDK/MCLib/Any/Src/trajectory_ctrl.c ****   }
 371:MCSDK_v6.2.1-Full/MotorControl/MCSDK/MCLib/Any/Src/trajectory_ctrl.c **** }
 372:MCSDK_v6.2.1-Full/MotorControl/MCSDK/MCLib/Any/Src/trajectory_ctrl.c **** 
 373:MCSDK_v6.2.1-Full/MotorControl/MCSDK/MCLib/Any/Src/trajectory_ctrl.c **** /**
 374:MCSDK_v6.2.1-Full/MotorControl/MCSDK/MCLib/Any/Src/trajectory_ctrl.c ****   * @brief  Updates the angular position.
 375:MCSDK_v6.2.1-Full/MotorControl/MCSDK/MCLib/Any/Src/trajectory_ctrl.c ****   * @param  pHandle handler of the current instance of the Position Control component.
 376:MCSDK_v6.2.1-Full/MotorControl/MCSDK/MCLib/Any/Src/trajectory_ctrl.c ****   */
 377:MCSDK_v6.2.1-Full/MotorControl/MCSDK/MCLib/Any/Src/trajectory_ctrl.c **** void TC_FollowExecution(PosCtrl_Handle_t *pHandle)
 378:MCSDK_v6.2.1-Full/MotorControl/MCSDK/MCLib/Any/Src/trajectory_ctrl.c **** {
 379:MCSDK_v6.2.1-Full/MotorControl/MCSDK/MCLib/Any/Src/trajectory_ctrl.c ****   pHandle->Omega += pHandle->Acceleration * pHandle->SamplingTime;
 380:MCSDK_v6.2.1-Full/MotorControl/MCSDK/MCLib/Any/Src/trajectory_ctrl.c ****   pHandle->Theta += pHandle->Omega        * pHandle->SamplingTime;
 381:MCSDK_v6.2.1-Full/MotorControl/MCSDK/MCLib/Any/Src/trajectory_ctrl.c **** }
 382:MCSDK_v6.2.1-Full/MotorControl/MCSDK/MCLib/Any/Src/trajectory_ctrl.c **** 
 383:MCSDK_v6.2.1-Full/MotorControl/MCSDK/MCLib/Any/Src/trajectory_ctrl.c **** /**
 384:MCSDK_v6.2.1-Full/MotorControl/MCSDK/MCLib/Any/Src/trajectory_ctrl.c ****   * @brief  Handles the alignment phase at starting before any position commands.
 385:MCSDK_v6.2.1-Full/MotorControl/MCSDK/MCLib/Any/Src/trajectory_ctrl.c ****   * @param  pHandle: handler of the current instance of the Position Control component.
 386:MCSDK_v6.2.1-Full/MotorControl/MCSDK/MCLib/Any/Src/trajectory_ctrl.c ****   */
 387:MCSDK_v6.2.1-Full/MotorControl/MCSDK/MCLib/Any/Src/trajectory_ctrl.c **** void TC_EncAlignmentCommand(PosCtrl_Handle_t *pHandle)
 388:MCSDK_v6.2.1-Full/MotorControl/MCSDK/MCLib/Any/Src/trajectory_ctrl.c **** {
 389:MCSDK_v6.2.1-Full/MotorControl/MCSDK/MCLib/Any/Src/trajectory_ctrl.c ****   int32_t wMecAngleRef;
 390:MCSDK_v6.2.1-Full/MotorControl/MCSDK/MCLib/Any/Src/trajectory_ctrl.c **** 
 391:MCSDK_v6.2.1-Full/MotorControl/MCSDK/MCLib/Any/Src/trajectory_ctrl.c ****   if (TC_ALIGNMENT_COMPLETED == pHandle->AlignmentStatus)
 392:MCSDK_v6.2.1-Full/MotorControl/MCSDK/MCLib/Any/Src/trajectory_ctrl.c ****   {
 393:MCSDK_v6.2.1-Full/MotorControl/MCSDK/MCLib/Any/Src/trajectory_ctrl.c ****     pHandle->PositionCtrlStatus = TC_READY_FOR_COMMAND;
 394:MCSDK_v6.2.1-Full/MotorControl/MCSDK/MCLib/Any/Src/trajectory_ctrl.c ****     /* Do nothing - EncAlignment must be done only one time after the power on */
 395:MCSDK_v6.2.1-Full/MotorControl/MCSDK/MCLib/Any/Src/trajectory_ctrl.c ****   }
 396:MCSDK_v6.2.1-Full/MotorControl/MCSDK/MCLib/Any/Src/trajectory_ctrl.c ****   else
 397:MCSDK_v6.2.1-Full/MotorControl/MCSDK/MCLib/Any/Src/trajectory_ctrl.c ****   {
 398:MCSDK_v6.2.1-Full/MotorControl/MCSDK/MCLib/Any/Src/trajectory_ctrl.c ****     if (pHandle->AlignmentCfg == TC_ABSOLUTE_ALIGNMENT_SUPPORTED)
 399:MCSDK_v6.2.1-Full/MotorControl/MCSDK/MCLib/Any/Src/trajectory_ctrl.c ****     {
 400:MCSDK_v6.2.1-Full/MotorControl/MCSDK/MCLib/Any/Src/trajectory_ctrl.c ****       /* If index is supported start the search of the zero */
 401:MCSDK_v6.2.1-Full/MotorControl/MCSDK/MCLib/Any/Src/trajectory_ctrl.c ****       pHandle->EncoderAbsoluteAligned = false;
 402:MCSDK_v6.2.1-Full/MotorControl/MCSDK/MCLib/Any/Src/trajectory_ctrl.c ****       wMecAngleRef = SPD_GetMecAngle(STC_GetSpeedSensor(pHandle->pSTC));
 403:MCSDK_v6.2.1-Full/MotorControl/MCSDK/MCLib/Any/Src/trajectory_ctrl.c ****       TC_MoveCommand(pHandle, (float)(wMecAngleRef) / RADTOS16, Z_ALIGNMENT_NB_ROTATION, Z_ALIGNMEN
 404:MCSDK_v6.2.1-Full/MotorControl/MCSDK/MCLib/Any/Src/trajectory_ctrl.c ****       pHandle->AlignmentStatus = TC_ZERO_ALIGNMENT_START;
 405:MCSDK_v6.2.1-Full/MotorControl/MCSDK/MCLib/Any/Src/trajectory_ctrl.c ****     }
 406:MCSDK_v6.2.1-Full/MotorControl/MCSDK/MCLib/Any/Src/trajectory_ctrl.c ****     else
 407:MCSDK_v6.2.1-Full/MotorControl/MCSDK/MCLib/Any/Src/trajectory_ctrl.c ****     {
 408:MCSDK_v6.2.1-Full/MotorControl/MCSDK/MCLib/Any/Src/trajectory_ctrl.c ****       /* If index is not supprted set the alignment angle as zero reference */
 409:MCSDK_v6.2.1-Full/MotorControl/MCSDK/MCLib/Any/Src/trajectory_ctrl.c ****       pHandle->pENC->_Super.wMecAngle = 0;
 410:MCSDK_v6.2.1-Full/MotorControl/MCSDK/MCLib/Any/Src/trajectory_ctrl.c ****       pHandle->AlignmentStatus = TC_ALIGNMENT_COMPLETED;
 411:MCSDK_v6.2.1-Full/MotorControl/MCSDK/MCLib/Any/Src/trajectory_ctrl.c ****       pHandle->PositionCtrlStatus = TC_READY_FOR_COMMAND;
 412:MCSDK_v6.2.1-Full/MotorControl/MCSDK/MCLib/Any/Src/trajectory_ctrl.c ****       pHandle->PositionControlRegulation = ENABLE;
 413:MCSDK_v6.2.1-Full/MotorControl/MCSDK/MCLib/Any/Src/trajectory_ctrl.c ****     }
 414:MCSDK_v6.2.1-Full/MotorControl/MCSDK/MCLib/Any/Src/trajectory_ctrl.c ****   }
ARM GAS  C:\Users\ep_ygh\AppData\Local\Temp\ccVk9xPU.s 			page 20


 415:MCSDK_v6.2.1-Full/MotorControl/MCSDK/MCLib/Any/Src/trajectory_ctrl.c **** }
 416:MCSDK_v6.2.1-Full/MotorControl/MCSDK/MCLib/Any/Src/trajectory_ctrl.c **** 
 417:MCSDK_v6.2.1-Full/MotorControl/MCSDK/MCLib/Any/Src/trajectory_ctrl.c **** /**
 418:MCSDK_v6.2.1-Full/MotorControl/MCSDK/MCLib/Any/Src/trajectory_ctrl.c ****   * @brief  It controls if time allowed for movement is completed.
 419:MCSDK_v6.2.1-Full/MotorControl/MCSDK/MCLib/Any/Src/trajectory_ctrl.c ****   * @param  pHandle: handler of the current instance of the Position Control component.
 420:MCSDK_v6.2.1-Full/MotorControl/MCSDK/MCLib/Any/Src/trajectory_ctrl.c ****   * @retval Status return true when the programmed trajectory movement is completed
 421:MCSDK_v6.2.1-Full/MotorControl/MCSDK/MCLib/Any/Src/trajectory_ctrl.c ****   *                       false when the trajectory movement execution is still ongoing.
 422:MCSDK_v6.2.1-Full/MotorControl/MCSDK/MCLib/Any/Src/trajectory_ctrl.c ****   */
 423:MCSDK_v6.2.1-Full/MotorControl/MCSDK/MCLib/Any/Src/trajectory_ctrl.c **** bool TC_RampCompleted(PosCtrl_Handle_t *pHandle)
 424:MCSDK_v6.2.1-Full/MotorControl/MCSDK/MCLib/Any/Src/trajectory_ctrl.c **** {
 425:MCSDK_v6.2.1-Full/MotorControl/MCSDK/MCLib/Any/Src/trajectory_ctrl.c ****   bool retVal = false;
 426:MCSDK_v6.2.1-Full/MotorControl/MCSDK/MCLib/Any/Src/trajectory_ctrl.c **** 
 427:MCSDK_v6.2.1-Full/MotorControl/MCSDK/MCLib/Any/Src/trajectory_ctrl.c ****   /* Check that entire sequence (Acceleration - Cruise - Deceleration) is completed */
 428:MCSDK_v6.2.1-Full/MotorControl/MCSDK/MCLib/Any/Src/trajectory_ctrl.c ****   if (pHandle->ElapseTime > pHandle->MovementDuration + pHandle->SamplingTime)
 511              		.loc 1 428 55 view .LVU227
 512 0052 36EE877A 		vadd.f32	s14, s13, s14
 513              	.LBE13:
 514              	.LBE12:
 351:MCSDK_v6.2.1-Full/MotorControl/MCSDK/MCLib/Any/Src/trajectory_ctrl.c **** 
 515              		.loc 1 351 23 view .LVU228
 516 0056 C0ED0B7A 		vstr.32	s15, [r0, #44]
 353:MCSDK_v6.2.1-Full/MotorControl/MCSDK/MCLib/Any/Src/trajectory_ctrl.c ****   {
 517              		.loc 1 353 3 is_stmt 1 view .LVU229
 518              	.LVL24:
 519              	.LBB15:
 520              	.LBI12:
 423:MCSDK_v6.2.1-Full/MotorControl/MCSDK/MCLib/Any/Src/trajectory_ctrl.c **** {
 521              		.loc 1 423 6 view .LVU230
 522              	.LBB14:
 425:MCSDK_v6.2.1-Full/MotorControl/MCSDK/MCLib/Any/Src/trajectory_ctrl.c **** 
 523              		.loc 1 425 3 view .LVU231
 524              		.loc 1 428 3 view .LVU232
 525              		.loc 1 428 6 is_stmt 0 view .LVU233
 526 005a F4EEC77A 		vcmpe.f32	s15, s14
 527 005e F1EE10FA 		vmrs	APSR_nzcv, FPSCR
 528 0062 0BDD     		ble	.L28
 429:MCSDK_v6.2.1-Full/MotorControl/MCSDK/MCLib/Any/Src/trajectory_ctrl.c ****   {
 430:MCSDK_v6.2.1-Full/MotorControl/MCSDK/MCLib/Any/Src/trajectory_ctrl.c ****     retVal = true;
 529              		.loc 1 430 5 is_stmt 1 view .LVU234
 530              	.LVL25:
 431:MCSDK_v6.2.1-Full/MotorControl/MCSDK/MCLib/Any/Src/trajectory_ctrl.c ****   }
 432:MCSDK_v6.2.1-Full/MotorControl/MCSDK/MCLib/Any/Src/trajectory_ctrl.c ****   else
 433:MCSDK_v6.2.1-Full/MotorControl/MCSDK/MCLib/Any/Src/trajectory_ctrl.c ****   {
 434:MCSDK_v6.2.1-Full/MotorControl/MCSDK/MCLib/Any/Src/trajectory_ctrl.c ****     /* Nothing to do */
 435:MCSDK_v6.2.1-Full/MotorControl/MCSDK/MCLib/Any/Src/trajectory_ctrl.c ****   }
 531              		.loc 1 435 3 view .LVU235
 436:MCSDK_v6.2.1-Full/MotorControl/MCSDK/MCLib/Any/Src/trajectory_ctrl.c ****   return (retVal);
 532              		.loc 1 436 3 view .LVU236
 533              		.loc 1 436 3 is_stmt 0 view .LVU237
 534              	.LBE14:
 535              	.LBE15:
 355:MCSDK_v6.2.1-Full/MotorControl/MCSDK/MCLib/Any/Src/trajectory_ctrl.c ****     {
 536              		.loc 1 355 5 is_stmt 1 view .LVU238
 355:MCSDK_v6.2.1-Full/MotorControl/MCSDK/MCLib/Any/Src/trajectory_ctrl.c ****     {
 537              		.loc 1 355 8 is_stmt 0 view .LVU239
 538 0064 90F86230 		ldrb	r3, [r0, #98]	@ zero_extendqisi2
 539 0068 012B     		cmp	r3, #1
ARM GAS  C:\Users\ep_ygh\AppData\Local\Temp\ccVk9xPU.s 			page 21


 358:MCSDK_v6.2.1-Full/MotorControl/MCSDK/MCLib/Any/Src/trajectory_ctrl.c ****     }
 540              		.loc 1 358 7 is_stmt 1 view .LVU240
 358:MCSDK_v6.2.1-Full/MotorControl/MCSDK/MCLib/Any/Src/trajectory_ctrl.c ****     }
 541              		.loc 1 358 32 is_stmt 0 view .LVU241
 542 006a 04BF     		itt	eq
 543 006c 0523     		moveq	r3, #5
 544 006e 80F86230 		strbeq	r3, [r0, #98]
 363:MCSDK_v6.2.1-Full/MotorControl/MCSDK/MCLib/Any/Src/trajectory_ctrl.c ****     pHandle->ElapseTime = 0;
 545              		.loc 1 363 5 is_stmt 1 view .LVU242
 364:MCSDK_v6.2.1-Full/MotorControl/MCSDK/MCLib/Any/Src/trajectory_ctrl.c ****     pHandle->PositionCtrlStatus = TC_READY_FOR_COMMAND;
 546              		.loc 1 364 5 view .LVU243
 364:MCSDK_v6.2.1-Full/MotorControl/MCSDK/MCLib/Any/Src/trajectory_ctrl.c ****     pHandle->PositionCtrlStatus = TC_READY_FOR_COMMAND;
 547              		.loc 1 364 25 is_stmt 0 view .LVU244
 548 0072 0022     		movs	r2, #0
 365:MCSDK_v6.2.1-Full/MotorControl/MCSDK/MCLib/Any/Src/trajectory_ctrl.c ****   }
 549              		.loc 1 365 33 view .LVU245
 550 0074 0023     		movs	r3, #0
 364:MCSDK_v6.2.1-Full/MotorControl/MCSDK/MCLib/Any/Src/trajectory_ctrl.c ****     pHandle->PositionCtrlStatus = TC_READY_FOR_COMMAND;
 551              		.loc 1 364 25 view .LVU246
 552 0076 C262     		str	r2, [r0, #44]	@ float
 365:MCSDK_v6.2.1-Full/MotorControl/MCSDK/MCLib/Any/Src/trajectory_ctrl.c ****   }
 553              		.loc 1 365 5 is_stmt 1 view .LVU247
 365:MCSDK_v6.2.1-Full/MotorControl/MCSDK/MCLib/Any/Src/trajectory_ctrl.c ****   }
 554              		.loc 1 365 33 is_stmt 0 view .LVU248
 555 0078 80F86030 		strb	r3, [r0, #96]
 370:MCSDK_v6.2.1-Full/MotorControl/MCSDK/MCLib/Any/Src/trajectory_ctrl.c **** }
 556              		.loc 1 370 3 is_stmt 1 view .LVU249
 557              	.L28:
 371:MCSDK_v6.2.1-Full/MotorControl/MCSDK/MCLib/Any/Src/trajectory_ctrl.c **** 
 558              		.loc 1 371 1 is_stmt 0 view .LVU250
 559 007c 7047     		bx	lr
 560              	.LVL26:
 561              	.L51:
 309:MCSDK_v6.2.1-Full/MotorControl/MCSDK/MCLib/Any/Src/trajectory_ctrl.c ****   {
 562              		.loc 1 309 8 is_stmt 1 view .LVU251
 309:MCSDK_v6.2.1-Full/MotorControl/MCSDK/MCLib/Any/Src/trajectory_ctrl.c ****   {
 563              		.loc 1 309 11 is_stmt 0 view .LVU252
 564 007e 90ED057A 		vldr.32	s14, [r0, #20]
 565 0082 F4EEC77A 		vcmpe.f32	s15, s14
 566 0086 F1EE10FA 		vmrs	APSR_nzcv, FPSCR
 567 008a 04D5     		bpl	.L56
 568              	.L32:
 330:MCSDK_v6.2.1-Full/MotorControl/MCSDK/MCLib/Any/Src/trajectory_ctrl.c ****   {
 569              		.loc 1 330 41 view .LVU253
 570 008c D0ED006A 		vldr.32	s13, [r0]
 303:MCSDK_v6.2.1-Full/MotorControl/MCSDK/MCLib/Any/Src/trajectory_ctrl.c **** 
 571              		.loc 1 303 9 view .LVU254
 572 0090 9FED215A 		vldr.32	s10, .L58
 573 0094 C1E7     		b	.L31
 574              	.L56:
 312:MCSDK_v6.2.1-Full/MotorControl/MCSDK/MCLib/Any/Src/trajectory_ctrl.c ****   {
 575              		.loc 1 312 8 is_stmt 1 view .LVU255
 312:MCSDK_v6.2.1-Full/MotorControl/MCSDK/MCLib/Any/Src/trajectory_ctrl.c ****   {
 576              		.loc 1 312 11 is_stmt 0 view .LVU256
 577 0096 90ED067A 		vldr.32	s14, [r0, #24]
 578 009a F4EEC77A 		vcmpe.f32	s15, s14
 579 009e F1EE10FA 		vmrs	APSR_nzcv, FPSCR
ARM GAS  C:\Users\ep_ygh\AppData\Local\Temp\ccVk9xPU.s 			page 22


 580 00a2 18D4     		bmi	.L37
 316:MCSDK_v6.2.1-Full/MotorControl/MCSDK/MCLib/Any/Src/trajectory_ctrl.c ****                                                                deceleration phases) */
 581              		.loc 1 316 8 is_stmt 1 view .LVU257
 316:MCSDK_v6.2.1-Full/MotorControl/MCSDK/MCLib/Any/Src/trajectory_ctrl.c ****                                                                deceleration phases) */
 582              		.loc 1 316 11 is_stmt 0 view .LVU258
 583 00a4 90ED077A 		vldr.32	s14, [r0, #28]
 584 00a8 F4EEC77A 		vcmpe.f32	s15, s14
 585 00ac F1EE10FA 		vmrs	APSR_nzcv, FPSCR
 586 00b0 0AD5     		bpl	.L53
 319:MCSDK_v6.2.1-Full/MotorControl/MCSDK/MCLib/Any/Src/trajectory_ctrl.c ****     pHandle->Omega = pHandle->CruiseSpeed;
 587              		.loc 1 319 5 is_stmt 1 view .LVU259
 319:MCSDK_v6.2.1-Full/MotorControl/MCSDK/MCLib/Any/Src/trajectory_ctrl.c ****     pHandle->Omega = pHandle->CruiseSpeed;
 588              		.loc 1 319 27 is_stmt 0 view .LVU260
 589 00b2 9FED197A 		vldr.32	s14, .L58
 320:MCSDK_v6.2.1-Full/MotorControl/MCSDK/MCLib/Any/Src/trajectory_ctrl.c ****   }
 590              		.loc 1 320 20 view .LVU261
 591 00b6 836B     		ldr	r3, [r0, #56]	@ float
 330:MCSDK_v6.2.1-Full/MotorControl/MCSDK/MCLib/Any/Src/trajectory_ctrl.c ****   {
 592              		.loc 1 330 41 view .LVU262
 593 00b8 D0ED006A 		vldr.32	s13, [r0]
 319:MCSDK_v6.2.1-Full/MotorControl/MCSDK/MCLib/Any/Src/trajectory_ctrl.c ****     pHandle->Omega = pHandle->CruiseSpeed;
 594              		.loc 1 319 27 view .LVU263
 595 00bc 80ED0F7A 		vstr.32	s14, [r0, #60]
 320:MCSDK_v6.2.1-Full/MotorControl/MCSDK/MCLib/Any/Src/trajectory_ctrl.c ****   }
 596              		.loc 1 320 5 is_stmt 1 view .LVU264
 303:MCSDK_v6.2.1-Full/MotorControl/MCSDK/MCLib/Any/Src/trajectory_ctrl.c **** 
 597              		.loc 1 303 9 is_stmt 0 view .LVU265
 598 00c0 B0EE475A 		vmov.f32	s10, s14
 320:MCSDK_v6.2.1-Full/MotorControl/MCSDK/MCLib/Any/Src/trajectory_ctrl.c ****   }
 599              		.loc 1 320 20 view .LVU266
 600 00c4 0364     		str	r3, [r0, #64]	@ float
 601 00c6 A8E7     		b	.L31
 602              	.L53:
 322:MCSDK_v6.2.1-Full/MotorControl/MCSDK/MCLib/Any/Src/trajectory_ctrl.c ****   {
 603              		.loc 1 322 8 is_stmt 1 view .LVU267
 322:MCSDK_v6.2.1-Full/MotorControl/MCSDK/MCLib/Any/Src/trajectory_ctrl.c ****   {
 604              		.loc 1 322 11 is_stmt 0 view .LVU268
 605 00c8 90ED087A 		vldr.32	s14, [r0, #32]
 606 00cc F4EEC77A 		vcmpe.f32	s15, s14
 607 00d0 F1EE10FA 		vmrs	APSR_nzcv, FPSCR
 608 00d4 06D5     		bpl	.L57
 609              	.L37:
 314:MCSDK_v6.2.1-Full/MotorControl/MCSDK/MCLib/Any/Src/trajectory_ctrl.c ****   }
 610              		.loc 1 314 5 is_stmt 1 view .LVU269
 314:MCSDK_v6.2.1-Full/MotorControl/MCSDK/MCLib/Any/Src/trajectory_ctrl.c ****   }
 611              		.loc 1 314 17 is_stmt 0 view .LVU270
 612 00d6 90ED0D5A 		vldr.32	s10, [r0, #52]
 330:MCSDK_v6.2.1-Full/MotorControl/MCSDK/MCLib/Any/Src/trajectory_ctrl.c ****   {
 613              		.loc 1 330 41 view .LVU271
 614 00da D0ED006A 		vldr.32	s13, [r0]
 314:MCSDK_v6.2.1-Full/MotorControl/MCSDK/MCLib/Any/Src/trajectory_ctrl.c ****   }
 615              		.loc 1 314 17 view .LVU272
 616 00de B1EE455A 		vneg.f32	s10, s10
 617              	.LVL27:
 314:MCSDK_v6.2.1-Full/MotorControl/MCSDK/MCLib/Any/Src/trajectory_ctrl.c ****   }
 618              		.loc 1 314 17 view .LVU273
 619 00e2 9AE7     		b	.L31
ARM GAS  C:\Users\ep_ygh\AppData\Local\Temp\ccVk9xPU.s 			page 23


 620              	.LVL28:
 621              	.L57:
 326:MCSDK_v6.2.1-Full/MotorControl/MCSDK/MCLib/Any/Src/trajectory_ctrl.c ****   {
 622              		.loc 1 326 8 is_stmt 1 view .LVU274
 326:MCSDK_v6.2.1-Full/MotorControl/MCSDK/MCLib/Any/Src/trajectory_ctrl.c ****   {
 623              		.loc 1 326 11 is_stmt 0 view .LVU275
 624 00e4 90ED097A 		vldr.32	s14, [r0, #36]
 625 00e8 F4EEC77A 		vcmpe.f32	s15, s14
 626 00ec F1EE10FA 		vmrs	APSR_nzcv, FPSCR
 627 00f0 CCD4     		bmi	.L32
 330:MCSDK_v6.2.1-Full/MotorControl/MCSDK/MCLib/Any/Src/trajectory_ctrl.c ****   {
 628              		.loc 1 330 8 is_stmt 1 view .LVU276
 330:MCSDK_v6.2.1-Full/MotorControl/MCSDK/MCLib/Any/Src/trajectory_ctrl.c ****   {
 629              		.loc 1 330 41 is_stmt 0 view .LVU277
 630 00f2 D0ED006A 		vldr.32	s13, [r0]
 330:MCSDK_v6.2.1-Full/MotorControl/MCSDK/MCLib/Any/Src/trajectory_ctrl.c ****   {
 631              		.loc 1 330 11 view .LVU278
 632 00f6 F4EEE67A 		vcmpe.f32	s15, s13
 633 00fa F1EE10FA 		vmrs	APSR_nzcv, FPSCR
 634 00fe 02D5     		bpl	.L55
 332:MCSDK_v6.2.1-Full/MotorControl/MCSDK/MCLib/Any/Src/trajectory_ctrl.c ****   }
 635              		.loc 1 332 5 is_stmt 1 view .LVU279
 332:MCSDK_v6.2.1-Full/MotorControl/MCSDK/MCLib/Any/Src/trajectory_ctrl.c ****   }
 636              		.loc 1 332 17 is_stmt 0 view .LVU280
 637 0100 90ED0D5A 		vldr.32	s10, [r0, #52]
 638              	.LVL29:
 332:MCSDK_v6.2.1-Full/MotorControl/MCSDK/MCLib/Any/Src/trajectory_ctrl.c ****   }
 639              		.loc 1 332 17 view .LVU281
 640 0104 89E7     		b	.L31
 641              	.LVL30:
 642              	.L55:
 336:MCSDK_v6.2.1-Full/MotorControl/MCSDK/MCLib/Any/Src/trajectory_ctrl.c ****     pHandle->PositionCtrlStatus = TC_TARGET_POSITION_REACHED;
 643              		.loc 1 336 5 is_stmt 1 view .LVU282
 336:MCSDK_v6.2.1-Full/MotorControl/MCSDK/MCLib/Any/Src/trajectory_ctrl.c ****     pHandle->PositionCtrlStatus = TC_TARGET_POSITION_REACHED;
 644              		.loc 1 336 20 is_stmt 0 view .LVU283
 645 0106 8268     		ldr	r2, [r0, #8]	@ float
 342:MCSDK_v6.2.1-Full/MotorControl/MCSDK/MCLib/Any/Src/trajectory_ctrl.c ****     pHandle->Omega += pHandle->Acceleration * pHandle->SamplingTime;
 646              		.loc 1 342 51 view .LVU284
 647 0108 90ED0C7A 		vldr.32	s14, [r0, #48]
 336:MCSDK_v6.2.1-Full/MotorControl/MCSDK/MCLib/Any/Src/trajectory_ctrl.c ****     pHandle->PositionCtrlStatus = TC_TARGET_POSITION_REACHED;
 648              		.loc 1 336 20 view .LVU285
 649 010c 8264     		str	r2, [r0, #72]	@ float
 337:MCSDK_v6.2.1-Full/MotorControl/MCSDK/MCLib/Any/Src/trajectory_ctrl.c ****   }
 650              		.loc 1 337 5 is_stmt 1 view .LVU286
 337:MCSDK_v6.2.1-Full/MotorControl/MCSDK/MCLib/Any/Src/trajectory_ctrl.c ****   }
 651              		.loc 1 337 33 is_stmt 0 view .LVU287
 652 010e 0223     		movs	r3, #2
 653 0110 80F86030 		strb	r3, [r0, #96]
 340:MCSDK_v6.2.1-Full/MotorControl/MCSDK/MCLib/Any/Src/trajectory_ctrl.c ****   {
 654              		.loc 1 340 3 is_stmt 1 view .LVU288
 655 0114 9BE7     		b	.L42
 656              	.L59:
 657 0116 00BF     		.align	2
 658              	.L58:
 659 0118 00000000 		.word	0
 660              		.cfi_endproc
 661              	.LFE1092:
ARM GAS  C:\Users\ep_ygh\AppData\Local\Temp\ccVk9xPU.s 			page 24


 663              		.section	.text.TC_PositionRegulation,"ax",%progbits
 664              		.align	1
 665              		.p2align 2,,3
 666              		.global	TC_PositionRegulation
 667              		.syntax unified
 668              		.thumb
 669              		.thumb_func
 671              	TC_PositionRegulation:
 672              	.LVL31:
 673              	.LFB1091:
 253:MCSDK_v6.2.1-Full/MotorControl/MCSDK/MCLib/Any/Src/trajectory_ctrl.c **** 
 674              		.loc 1 253 1 view -0
 675              		.cfi_startproc
 676              		@ args = 0, pretend = 0, frame = 0
 677              		@ frame_needed = 0, uses_anonymous_args = 0
 255:MCSDK_v6.2.1-Full/MotorControl/MCSDK/MCLib/Any/Src/trajectory_ctrl.c ****   int32_t wMecAngle;
 678              		.loc 1 255 3 view .LVU290
 256:MCSDK_v6.2.1-Full/MotorControl/MCSDK/MCLib/Any/Src/trajectory_ctrl.c ****   int32_t wError;
 679              		.loc 1 256 3 view .LVU291
 257:MCSDK_v6.2.1-Full/MotorControl/MCSDK/MCLib/Any/Src/trajectory_ctrl.c ****   int32_t hTorqueRef_Pos;
 680              		.loc 1 257 3 view .LVU292
 258:MCSDK_v6.2.1-Full/MotorControl/MCSDK/MCLib/Any/Src/trajectory_ctrl.c **** 
 681              		.loc 1 258 3 view .LVU293
 260:MCSDK_v6.2.1-Full/MotorControl/MCSDK/MCLib/Any/Src/trajectory_ctrl.c ****   {
 682              		.loc 1 260 3 view .LVU294
 253:MCSDK_v6.2.1-Full/MotorControl/MCSDK/MCLib/Any/Src/trajectory_ctrl.c **** 
 683              		.loc 1 253 1 is_stmt 0 view .LVU295
 684 0000 38B5     		push	{r3, r4, r5, lr}
 685              	.LCFI0:
 686              		.cfi_def_cfa_offset 16
 687              		.cfi_offset 3, -16
 688              		.cfi_offset 4, -12
 689              		.cfi_offset 5, -8
 690              		.cfi_offset 14, -4
 260:MCSDK_v6.2.1-Full/MotorControl/MCSDK/MCLib/Any/Src/trajectory_ctrl.c ****   {
 691              		.loc 1 260 14 view .LVU296
 692 0002 90F86030 		ldrb	r3, [r0, #96]	@ zero_extendqisi2
 260:MCSDK_v6.2.1-Full/MotorControl/MCSDK/MCLib/Any/Src/trajectory_ctrl.c ****   {
 693              		.loc 1 260 6 view .LVU297
 694 0006 012B     		cmp	r3, #1
 253:MCSDK_v6.2.1-Full/MotorControl/MCSDK/MCLib/Any/Src/trajectory_ctrl.c **** 
 695              		.loc 1 253 1 view .LVU298
 696 0008 0446     		mov	r4, r0
 260:MCSDK_v6.2.1-Full/MotorControl/MCSDK/MCLib/Any/Src/trajectory_ctrl.c ****   {
 697              		.loc 1 260 6 view .LVU299
 698 000a 34D0     		beq	.L65
 699              	.L61:
 267:MCSDK_v6.2.1-Full/MotorControl/MCSDK/MCLib/Any/Src/trajectory_ctrl.c **** 
 700              		.loc 1 267 3 is_stmt 1 view .LVU300
 269:MCSDK_v6.2.1-Full/MotorControl/MCSDK/MCLib/Any/Src/trajectory_ctrl.c ****   {
 701              		.loc 1 269 3 view .LVU301
 269:MCSDK_v6.2.1-Full/MotorControl/MCSDK/MCLib/Any/Src/trajectory_ctrl.c ****   {
 702              		.loc 1 269 6 is_stmt 0 view .LVU302
 703 000c 032B     		cmp	r3, #3
 704 000e 0FD1     		bne	.L62
 271:MCSDK_v6.2.1-Full/MotorControl/MCSDK/MCLib/Any/Src/trajectory_ctrl.c ****   }
 705              		.loc 1 271 5 is_stmt 1 view .LVU303
ARM GAS  C:\Users\ep_ygh\AppData\Local\Temp\ccVk9xPU.s 			page 25


 706              	.LVL32:
 707              	.LBB16:
 708              	.LBI16:
 377:MCSDK_v6.2.1-Full/MotorControl/MCSDK/MCLib/Any/Src/trajectory_ctrl.c **** {
 709              		.loc 1 377 6 view .LVU304
 710              	.LBB17:
 379:MCSDK_v6.2.1-Full/MotorControl/MCSDK/MCLib/Any/Src/trajectory_ctrl.c ****   pHandle->Theta += pHandle->Omega        * pHandle->SamplingTime;
 711              		.loc 1 379 3 view .LVU305
 379:MCSDK_v6.2.1-Full/MotorControl/MCSDK/MCLib/Any/Src/trajectory_ctrl.c ****   pHandle->Theta += pHandle->Omega        * pHandle->SamplingTime;
 712              		.loc 1 379 52 is_stmt 0 view .LVU306
 713 0010 D4ED0C6A 		vldr.32	s13, [r4, #48]
 379:MCSDK_v6.2.1-Full/MotorControl/MCSDK/MCLib/Any/Src/trajectory_ctrl.c ****   pHandle->Theta += pHandle->Omega        * pHandle->SamplingTime;
 714              		.loc 1 379 18 view .LVU307
 715 0014 D4ED107A 		vldr.32	s15, [r4, #64]
 716 0018 94ED0F6A 		vldr.32	s12, [r4, #60]
 380:MCSDK_v6.2.1-Full/MotorControl/MCSDK/MCLib/Any/Src/trajectory_ctrl.c **** }
 717              		.loc 1 380 18 view .LVU308
 718 001c 94ED127A 		vldr.32	s14, [r4, #72]
 379:MCSDK_v6.2.1-Full/MotorControl/MCSDK/MCLib/Any/Src/trajectory_ctrl.c ****   pHandle->Theta += pHandle->Omega        * pHandle->SamplingTime;
 719              		.loc 1 379 18 view .LVU309
 720 0020 E6EE267A 		vfma.f32	s15, s12, s13
 380:MCSDK_v6.2.1-Full/MotorControl/MCSDK/MCLib/Any/Src/trajectory_ctrl.c **** }
 721              		.loc 1 380 18 view .LVU310
 722 0024 A6EEA77A 		vfma.f32	s14, s13, s15
 379:MCSDK_v6.2.1-Full/MotorControl/MCSDK/MCLib/Any/Src/trajectory_ctrl.c ****   pHandle->Theta += pHandle->Omega        * pHandle->SamplingTime;
 723              		.loc 1 379 18 view .LVU311
 724 0028 C4ED107A 		vstr.32	s15, [r4, #64]
 380:MCSDK_v6.2.1-Full/MotorControl/MCSDK/MCLib/Any/Src/trajectory_ctrl.c **** }
 725              		.loc 1 380 3 is_stmt 1 view .LVU312
 380:MCSDK_v6.2.1-Full/MotorControl/MCSDK/MCLib/Any/Src/trajectory_ctrl.c **** }
 726              		.loc 1 380 18 is_stmt 0 view .LVU313
 727 002c 84ED127A 		vstr.32	s14, [r4, #72]
 728              	.LVL33:
 729              	.L62:
 380:MCSDK_v6.2.1-Full/MotorControl/MCSDK/MCLib/Any/Src/trajectory_ctrl.c **** }
 730              		.loc 1 380 18 view .LVU314
 731              	.LBE17:
 732              	.LBE16:
 276:MCSDK_v6.2.1-Full/MotorControl/MCSDK/MCLib/Any/Src/trajectory_ctrl.c **** 
 733              		.loc 1 276 3 is_stmt 1 view .LVU315
 278:MCSDK_v6.2.1-Full/MotorControl/MCSDK/MCLib/Any/Src/trajectory_ctrl.c ****   {
 734              		.loc 1 278 3 view .LVU316
 278:MCSDK_v6.2.1-Full/MotorControl/MCSDK/MCLib/Any/Src/trajectory_ctrl.c ****   {
 735              		.loc 1 278 6 is_stmt 0 view .LVU317
 736 0030 94F85130 		ldrb	r3, [r4, #81]	@ zero_extendqisi2
 737 0034 03B9     		cbnz	r3, .L66
 294:MCSDK_v6.2.1-Full/MotorControl/MCSDK/MCLib/Any/Src/trajectory_ctrl.c **** 
 738              		.loc 1 294 1 view .LVU318
 739 0036 38BD     		pop	{r3, r4, r5, pc}
 740              	.L66:
 280:MCSDK_v6.2.1-Full/MotorControl/MCSDK/MCLib/Any/Src/trajectory_ctrl.c **** 
 741              		.loc 1 280 5 is_stmt 1 view .LVU319
 280:MCSDK_v6.2.1-Full/MotorControl/MCSDK/MCLib/Any/Src/trajectory_ctrl.c **** 
 742              		.loc 1 280 45 is_stmt 0 view .LVU320
 743 0038 9FED117A 		vldr.32	s14, .L67
 744 003c D4ED127A 		vldr.32	s15, [r4, #72]
 282:MCSDK_v6.2.1-Full/MotorControl/MCSDK/MCLib/Any/Src/trajectory_ctrl.c ****     wError = wMecAngleRef - wMecAngle;
ARM GAS  C:\Users\ep_ygh\AppData\Local\Temp\ccVk9xPU.s 			page 26


 745              		.loc 1 282 33 view .LVU321
 746 0040 A06E     		ldr	r0, [r4, #104]
 747              	.LVL34:
 280:MCSDK_v6.2.1-Full/MotorControl/MCSDK/MCLib/Any/Src/trajectory_ctrl.c **** 
 748              		.loc 1 280 45 view .LVU322
 749 0042 67EE877A 		vmul.f32	s15, s15, s14
 280:MCSDK_v6.2.1-Full/MotorControl/MCSDK/MCLib/Any/Src/trajectory_ctrl.c **** 
 750              		.loc 1 280 18 view .LVU323
 751 0046 FDEEE77A 		vcvt.s32.f32	s15, s15
 752 004a 17EE905A 		vmov	r5, s15	@ int
 753              	.LVL35:
 282:MCSDK_v6.2.1-Full/MotorControl/MCSDK/MCLib/Any/Src/trajectory_ctrl.c ****     wError = wMecAngleRef - wMecAngle;
 754              		.loc 1 282 5 is_stmt 1 view .LVU324
 282:MCSDK_v6.2.1-Full/MotorControl/MCSDK/MCLib/Any/Src/trajectory_ctrl.c ****     wError = wMecAngleRef - wMecAngle;
 755              		.loc 1 282 33 is_stmt 0 view .LVU325
 756 004e FFF7FEFF 		bl	STC_GetSpeedSensor
 757              	.LVL36:
 282:MCSDK_v6.2.1-Full/MotorControl/MCSDK/MCLib/Any/Src/trajectory_ctrl.c ****     wError = wMecAngleRef - wMecAngle;
 758              		.loc 1 282 17 view .LVU326
 759 0052 FFF7FEFF 		bl	SPD_GetMecAngle
 760              	.LVL37:
 283:MCSDK_v6.2.1-Full/MotorControl/MCSDK/MCLib/Any/Src/trajectory_ctrl.c ****     hTorqueRef_Pos = PID_Controller(pHandle->PIDPosRegulator, wError);
 761              		.loc 1 283 5 is_stmt 1 view .LVU327
 284:MCSDK_v6.2.1-Full/MotorControl/MCSDK/MCLib/Any/Src/trajectory_ctrl.c **** 
 762              		.loc 1 284 5 view .LVU328
 284:MCSDK_v6.2.1-Full/MotorControl/MCSDK/MCLib/Any/Src/trajectory_ctrl.c **** 
 763              		.loc 1 284 22 is_stmt 0 view .LVU329
 764 0056 291A     		subs	r1, r5, r0
 765              	.LVL38:
 284:MCSDK_v6.2.1-Full/MotorControl/MCSDK/MCLib/Any/Src/trajectory_ctrl.c **** 
 766              		.loc 1 284 22 view .LVU330
 767 0058 E06E     		ldr	r0, [r4, #108]
 768              	.LVL39:
 284:MCSDK_v6.2.1-Full/MotorControl/MCSDK/MCLib/Any/Src/trajectory_ctrl.c **** 
 769              		.loc 1 284 22 view .LVU331
 770 005a FFF7FEFF 		bl	PID_Controller
 771              	.LVL40:
 286:MCSDK_v6.2.1-Full/MotorControl/MCSDK/MCLib/Any/Src/trajectory_ctrl.c ****     STC_ExecRamp(pHandle->pSTC, hTorqueRef_Pos, 0);
 772              		.loc 1 286 5 view .LVU332
 773 005e 0421     		movs	r1, #4
 284:MCSDK_v6.2.1-Full/MotorControl/MCSDK/MCLib/Any/Src/trajectory_ctrl.c **** 
 774              		.loc 1 284 22 view .LVU333
 775 0060 0546     		mov	r5, r0
 776              	.LVL41:
 286:MCSDK_v6.2.1-Full/MotorControl/MCSDK/MCLib/Any/Src/trajectory_ctrl.c ****     STC_ExecRamp(pHandle->pSTC, hTorqueRef_Pos, 0);
 777              		.loc 1 286 5 is_stmt 1 view .LVU334
 778 0062 A06E     		ldr	r0, [r4, #104]
 779 0064 FFF7FEFF 		bl	STC_SetControlMode
 780              	.LVL42:
 287:MCSDK_v6.2.1-Full/MotorControl/MCSDK/MCLib/Any/Src/trajectory_ctrl.c ****   }
 781              		.loc 1 287 5 view .LVU335
 782 0068 A06E     		ldr	r0, [r4, #104]
 783 006a 2946     		mov	r1, r5
 784 006c 0022     		movs	r2, #0
 294:MCSDK_v6.2.1-Full/MotorControl/MCSDK/MCLib/Any/Src/trajectory_ctrl.c **** 
 785              		.loc 1 294 1 is_stmt 0 view .LVU336
 786 006e BDE83840 		pop	{r3, r4, r5, lr}
ARM GAS  C:\Users\ep_ygh\AppData\Local\Temp\ccVk9xPU.s 			page 27


 787              	.LCFI1:
 788              		.cfi_remember_state
 789              		.cfi_restore 14
 790              		.cfi_restore 5
 791              		.cfi_restore 4
 792              		.cfi_restore 3
 793              		.cfi_def_cfa_offset 0
 794              	.LVL43:
 287:MCSDK_v6.2.1-Full/MotorControl/MCSDK/MCLib/Any/Src/trajectory_ctrl.c ****   }
 795              		.loc 1 287 5 view .LVU337
 796 0072 FFF7FEBF 		b	STC_ExecRamp
 797              	.LVL44:
 798              	.L65:
 799              	.LCFI2:
 800              		.cfi_restore_state
 262:MCSDK_v6.2.1-Full/MotorControl/MCSDK/MCLib/Any/Src/trajectory_ctrl.c ****   }
 801              		.loc 1 262 5 is_stmt 1 view .LVU338
 802 0076 FFF7FEFF 		bl	TC_MoveExecution
 803              	.LVL45:
 269:MCSDK_v6.2.1-Full/MotorControl/MCSDK/MCLib/Any/Src/trajectory_ctrl.c ****   {
 804              		.loc 1 269 14 is_stmt 0 view .LVU339
 805 007a 90F86030 		ldrb	r3, [r0, #96]	@ zero_extendqisi2
 806 007e C5E7     		b	.L61
 807              	.L68:
 808              		.align	2
 809              	.L67:
 810 0080 83F92246 		.word	1176697219
 811              		.cfi_endproc
 812              	.LFE1091:
 814              		.section	.text.TC_FollowExecution,"ax",%progbits
 815              		.align	1
 816              		.p2align 2,,3
 817              		.global	TC_FollowExecution
 818              		.syntax unified
 819              		.thumb
 820              		.thumb_func
 822              	TC_FollowExecution:
 823              	.LVL46:
 824              	.LFB1093:
 378:MCSDK_v6.2.1-Full/MotorControl/MCSDK/MCLib/Any/Src/trajectory_ctrl.c ****   pHandle->Omega += pHandle->Acceleration * pHandle->SamplingTime;
 825              		.loc 1 378 1 is_stmt 1 view -0
 826              		.cfi_startproc
 827              		@ args = 0, pretend = 0, frame = 0
 828              		@ frame_needed = 0, uses_anonymous_args = 0
 829              		@ link register save eliminated.
 379:MCSDK_v6.2.1-Full/MotorControl/MCSDK/MCLib/Any/Src/trajectory_ctrl.c ****   pHandle->Theta += pHandle->Omega        * pHandle->SamplingTime;
 830              		.loc 1 379 3 view .LVU341
 379:MCSDK_v6.2.1-Full/MotorControl/MCSDK/MCLib/Any/Src/trajectory_ctrl.c ****   pHandle->Theta += pHandle->Omega        * pHandle->SamplingTime;
 831              		.loc 1 379 52 is_stmt 0 view .LVU342
 832 0000 D0ED0C6A 		vldr.32	s13, [r0, #48]
 379:MCSDK_v6.2.1-Full/MotorControl/MCSDK/MCLib/Any/Src/trajectory_ctrl.c ****   pHandle->Theta += pHandle->Omega        * pHandle->SamplingTime;
 833              		.loc 1 379 18 view .LVU343
 834 0004 D0ED107A 		vldr.32	s15, [r0, #64]
 835 0008 90ED0F6A 		vldr.32	s12, [r0, #60]
 380:MCSDK_v6.2.1-Full/MotorControl/MCSDK/MCLib/Any/Src/trajectory_ctrl.c **** }
 836              		.loc 1 380 18 view .LVU344
 837 000c 90ED127A 		vldr.32	s14, [r0, #72]
ARM GAS  C:\Users\ep_ygh\AppData\Local\Temp\ccVk9xPU.s 			page 28


 379:MCSDK_v6.2.1-Full/MotorControl/MCSDK/MCLib/Any/Src/trajectory_ctrl.c ****   pHandle->Theta += pHandle->Omega        * pHandle->SamplingTime;
 838              		.loc 1 379 18 view .LVU345
 839 0010 E6EE267A 		vfma.f32	s15, s12, s13
 380:MCSDK_v6.2.1-Full/MotorControl/MCSDK/MCLib/Any/Src/trajectory_ctrl.c **** }
 840              		.loc 1 380 18 view .LVU346
 841 0014 A6EEA77A 		vfma.f32	s14, s13, s15
 379:MCSDK_v6.2.1-Full/MotorControl/MCSDK/MCLib/Any/Src/trajectory_ctrl.c ****   pHandle->Theta += pHandle->Omega        * pHandle->SamplingTime;
 842              		.loc 1 379 18 view .LVU347
 843 0018 C0ED107A 		vstr.32	s15, [r0, #64]
 380:MCSDK_v6.2.1-Full/MotorControl/MCSDK/MCLib/Any/Src/trajectory_ctrl.c **** }
 844              		.loc 1 380 3 is_stmt 1 view .LVU348
 380:MCSDK_v6.2.1-Full/MotorControl/MCSDK/MCLib/Any/Src/trajectory_ctrl.c **** }
 845              		.loc 1 380 18 is_stmt 0 view .LVU349
 846 001c 80ED127A 		vstr.32	s14, [r0, #72]
 381:MCSDK_v6.2.1-Full/MotorControl/MCSDK/MCLib/Any/Src/trajectory_ctrl.c **** 
 847              		.loc 1 381 1 view .LVU350
 848 0020 7047     		bx	lr
 849              		.cfi_endproc
 850              	.LFE1093:
 852 0022 00BF     		.section	.text.TC_EncAlignmentCommand,"ax",%progbits
 853              		.align	1
 854              		.p2align 2,,3
 855              		.global	TC_EncAlignmentCommand
 856              		.syntax unified
 857              		.thumb
 858              		.thumb_func
 860              	TC_EncAlignmentCommand:
 861              	.LVL47:
 862              	.LFB1094:
 388:MCSDK_v6.2.1-Full/MotorControl/MCSDK/MCLib/Any/Src/trajectory_ctrl.c ****   int32_t wMecAngleRef;
 863              		.loc 1 388 1 is_stmt 1 view -0
 864              		.cfi_startproc
 865              		@ args = 0, pretend = 0, frame = 8
 866              		@ frame_needed = 0, uses_anonymous_args = 0
 389:MCSDK_v6.2.1-Full/MotorControl/MCSDK/MCLib/Any/Src/trajectory_ctrl.c **** 
 867              		.loc 1 389 3 view .LVU352
 391:MCSDK_v6.2.1-Full/MotorControl/MCSDK/MCLib/Any/Src/trajectory_ctrl.c ****   {
 868              		.loc 1 391 3 view .LVU353
 388:MCSDK_v6.2.1-Full/MotorControl/MCSDK/MCLib/Any/Src/trajectory_ctrl.c ****   int32_t wMecAngleRef;
 869              		.loc 1 388 1 is_stmt 0 view .LVU354
 870 0000 10B5     		push	{r4, lr}
 871              	.LCFI3:
 872              		.cfi_def_cfa_offset 8
 873              		.cfi_offset 4, -8
 874              		.cfi_offset 14, -4
 391:MCSDK_v6.2.1-Full/MotorControl/MCSDK/MCLib/Any/Src/trajectory_ctrl.c ****   {
 875              		.loc 1 391 6 view .LVU355
 876 0002 90F86230 		ldrb	r3, [r0, #98]	@ zero_extendqisi2
 877 0006 022B     		cmp	r3, #2
 388:MCSDK_v6.2.1-Full/MotorControl/MCSDK/MCLib/Any/Src/trajectory_ctrl.c ****   int32_t wMecAngleRef;
 878              		.loc 1 388 1 view .LVU356
 879 0008 82B0     		sub	sp, sp, #8
 880              	.LCFI4:
 881              		.cfi_def_cfa_offset 16
 388:MCSDK_v6.2.1-Full/MotorControl/MCSDK/MCLib/Any/Src/trajectory_ctrl.c ****   int32_t wMecAngleRef;
 882              		.loc 1 388 1 view .LVU357
 883 000a 0446     		mov	r4, r0
ARM GAS  C:\Users\ep_ygh\AppData\Local\Temp\ccVk9xPU.s 			page 29


 391:MCSDK_v6.2.1-Full/MotorControl/MCSDK/MCLib/Any/Src/trajectory_ctrl.c ****   {
 884              		.loc 1 391 6 view .LVU358
 885 000c 10D0     		beq	.L80
 398:MCSDK_v6.2.1-Full/MotorControl/MCSDK/MCLib/Any/Src/trajectory_ctrl.c ****     {
 886              		.loc 1 398 5 is_stmt 1 view .LVU359
 398:MCSDK_v6.2.1-Full/MotorControl/MCSDK/MCLib/Any/Src/trajectory_ctrl.c ****     {
 887              		.loc 1 398 8 is_stmt 0 view .LVU360
 888 000e 90F86130 		ldrb	r3, [r0, #97]	@ zero_extendqisi2
 889 0012 042B     		cmp	r3, #4
 890 0014 11D0     		beq	.L81
 409:MCSDK_v6.2.1-Full/MotorControl/MCSDK/MCLib/Any/Src/trajectory_ctrl.c ****       pHandle->AlignmentStatus = TC_ALIGNMENT_COMPLETED;
 891              		.loc 1 409 7 is_stmt 1 view .LVU361
 409:MCSDK_v6.2.1-Full/MotorControl/MCSDK/MCLib/Any/Src/trajectory_ctrl.c ****       pHandle->AlignmentStatus = TC_ALIGNMENT_COMPLETED;
 892              		.loc 1 409 39 is_stmt 0 view .LVU362
 893 0016 406E     		ldr	r0, [r0, #100]
 894              	.LVL48:
 409:MCSDK_v6.2.1-Full/MotorControl/MCSDK/MCLib/Any/Src/trajectory_ctrl.c ****       pHandle->AlignmentStatus = TC_ALIGNMENT_COMPLETED;
 895              		.loc 1 409 39 view .LVU363
 896 0018 0023     		movs	r3, #0
 410:MCSDK_v6.2.1-Full/MotorControl/MCSDK/MCLib/Any/Src/trajectory_ctrl.c ****       pHandle->PositionCtrlStatus = TC_READY_FOR_COMMAND;
 897              		.loc 1 410 32 view .LVU364
 898 001a 0221     		movs	r1, #2
 412:MCSDK_v6.2.1-Full/MotorControl/MCSDK/MCLib/Any/Src/trajectory_ctrl.c ****     }
 899              		.loc 1 412 42 view .LVU365
 900 001c 0122     		movs	r2, #1
 409:MCSDK_v6.2.1-Full/MotorControl/MCSDK/MCLib/Any/Src/trajectory_ctrl.c ****       pHandle->AlignmentStatus = TC_ALIGNMENT_COMPLETED;
 901              		.loc 1 409 39 view .LVU366
 902 001e 8360     		str	r3, [r0, #8]
 410:MCSDK_v6.2.1-Full/MotorControl/MCSDK/MCLib/Any/Src/trajectory_ctrl.c ****       pHandle->PositionCtrlStatus = TC_READY_FOR_COMMAND;
 903              		.loc 1 410 7 is_stmt 1 view .LVU367
 410:MCSDK_v6.2.1-Full/MotorControl/MCSDK/MCLib/Any/Src/trajectory_ctrl.c ****       pHandle->PositionCtrlStatus = TC_READY_FOR_COMMAND;
 904              		.loc 1 410 32 is_stmt 0 view .LVU368
 905 0020 84F86210 		strb	r1, [r4, #98]
 411:MCSDK_v6.2.1-Full/MotorControl/MCSDK/MCLib/Any/Src/trajectory_ctrl.c ****       pHandle->PositionControlRegulation = ENABLE;
 906              		.loc 1 411 7 is_stmt 1 view .LVU369
 411:MCSDK_v6.2.1-Full/MotorControl/MCSDK/MCLib/Any/Src/trajectory_ctrl.c ****       pHandle->PositionControlRegulation = ENABLE;
 907              		.loc 1 411 35 is_stmt 0 view .LVU370
 908 0024 84F86030 		strb	r3, [r4, #96]
 412:MCSDK_v6.2.1-Full/MotorControl/MCSDK/MCLib/Any/Src/trajectory_ctrl.c ****     }
 909              		.loc 1 412 7 is_stmt 1 view .LVU371
 412:MCSDK_v6.2.1-Full/MotorControl/MCSDK/MCLib/Any/Src/trajectory_ctrl.c ****     }
 910              		.loc 1 412 42 is_stmt 0 view .LVU372
 911 0028 84F85120 		strb	r2, [r4, #81]
 415:MCSDK_v6.2.1-Full/MotorControl/MCSDK/MCLib/Any/Src/trajectory_ctrl.c **** 
 912              		.loc 1 415 1 view .LVU373
 913 002c 02B0     		add	sp, sp, #8
 914              	.LCFI5:
 915              		.cfi_remember_state
 916              		.cfi_def_cfa_offset 8
 917              		@ sp needed
 918 002e 10BD     		pop	{r4, pc}
 919              	.LVL49:
 920              	.L80:
 921              	.LCFI6:
 922              		.cfi_restore_state
 393:MCSDK_v6.2.1-Full/MotorControl/MCSDK/MCLib/Any/Src/trajectory_ctrl.c ****     /* Do nothing - EncAlignment must be done only one time after the power on */
 923              		.loc 1 393 5 is_stmt 1 view .LVU374
ARM GAS  C:\Users\ep_ygh\AppData\Local\Temp\ccVk9xPU.s 			page 30


 393:MCSDK_v6.2.1-Full/MotorControl/MCSDK/MCLib/Any/Src/trajectory_ctrl.c ****     /* Do nothing - EncAlignment must be done only one time after the power on */
 924              		.loc 1 393 33 is_stmt 0 view .LVU375
 925 0030 0023     		movs	r3, #0
 926 0032 80F86030 		strb	r3, [r0, #96]
 415:MCSDK_v6.2.1-Full/MotorControl/MCSDK/MCLib/Any/Src/trajectory_ctrl.c **** 
 927              		.loc 1 415 1 view .LVU376
 928 0036 02B0     		add	sp, sp, #8
 929              	.LCFI7:
 930              		.cfi_remember_state
 931              		.cfi_def_cfa_offset 8
 932              		@ sp needed
 933 0038 10BD     		pop	{r4, pc}
 934              	.L81:
 935              	.LCFI8:
 936              		.cfi_restore_state
 401:MCSDK_v6.2.1-Full/MotorControl/MCSDK/MCLib/Any/Src/trajectory_ctrl.c ****       wMecAngleRef = SPD_GetMecAngle(STC_GetSpeedSensor(pHandle->pSTC));
 937              		.loc 1 401 7 is_stmt 1 view .LVU377
 401:MCSDK_v6.2.1-Full/MotorControl/MCSDK/MCLib/Any/Src/trajectory_ctrl.c ****       wMecAngleRef = SPD_GetMecAngle(STC_GetSpeedSensor(pHandle->pSTC));
 938              		.loc 1 401 39 is_stmt 0 view .LVU378
 939 003a 0023     		movs	r3, #0
 402:MCSDK_v6.2.1-Full/MotorControl/MCSDK/MCLib/Any/Src/trajectory_ctrl.c ****       TC_MoveCommand(pHandle, (float)(wMecAngleRef) / RADTOS16, Z_ALIGNMENT_NB_ROTATION, Z_ALIGNMEN
 940              		.loc 1 402 38 view .LVU379
 941 003c 806E     		ldr	r0, [r0, #104]
 942              	.LVL50:
 401:MCSDK_v6.2.1-Full/MotorControl/MCSDK/MCLib/Any/Src/trajectory_ctrl.c ****       wMecAngleRef = SPD_GetMecAngle(STC_GetSpeedSensor(pHandle->pSTC));
 943              		.loc 1 401 39 view .LVU380
 944 003e 84F85230 		strb	r3, [r4, #82]
 402:MCSDK_v6.2.1-Full/MotorControl/MCSDK/MCLib/Any/Src/trajectory_ctrl.c ****       TC_MoveCommand(pHandle, (float)(wMecAngleRef) / RADTOS16, Z_ALIGNMENT_NB_ROTATION, Z_ALIGNMEN
 945              		.loc 1 402 7 is_stmt 1 view .LVU381
 402:MCSDK_v6.2.1-Full/MotorControl/MCSDK/MCLib/Any/Src/trajectory_ctrl.c ****       TC_MoveCommand(pHandle, (float)(wMecAngleRef) / RADTOS16, Z_ALIGNMENT_NB_ROTATION, Z_ALIGNMEN
 946              		.loc 1 402 38 is_stmt 0 view .LVU382
 947 0042 FFF7FEFF 		bl	STC_GetSpeedSensor
 948              	.LVL51:
 402:MCSDK_v6.2.1-Full/MotorControl/MCSDK/MCLib/Any/Src/trajectory_ctrl.c ****       TC_MoveCommand(pHandle, (float)(wMecAngleRef) / RADTOS16, Z_ALIGNMENT_NB_ROTATION, Z_ALIGNMEN
 949              		.loc 1 402 22 view .LVU383
 950 0046 FFF7FEFF 		bl	SPD_GetMecAngle
 951              	.LVL52:
 952              	.LBB22:
 953              	.LBB23:
 113:MCSDK_v6.2.1-Full/MotorControl/MCSDK/MCLib/Any/Src/trajectory_ctrl.c ****   {
 954              		.loc 1 113 15 view .LVU384
 955 004a 94F86030 		ldrb	r3, [r4, #96]	@ zero_extendqisi2
 956              	.LBE23:
 957              	.LBE22:
 402:MCSDK_v6.2.1-Full/MotorControl/MCSDK/MCLib/Any/Src/trajectory_ctrl.c ****       TC_MoveCommand(pHandle, (float)(wMecAngleRef) / RADTOS16, Z_ALIGNMENT_NB_ROTATION, Z_ALIGNMEN
 958              		.loc 1 402 22 view .LVU385
 959 004e 0190     		str	r0, [sp, #4]
 960              	.LVL53:
 403:MCSDK_v6.2.1-Full/MotorControl/MCSDK/MCLib/Any/Src/trajectory_ctrl.c ****       pHandle->AlignmentStatus = TC_ZERO_ALIGNMENT_START;
 961              		.loc 1 403 7 is_stmt 1 view .LVU386
 962              	.LBB40:
 963              	.LBI22:
 107:MCSDK_v6.2.1-Full/MotorControl/MCSDK/MCLib/Any/Src/trajectory_ctrl.c **** {
 964              		.loc 1 107 6 view .LVU387
 965              	.LBB34:
 110:MCSDK_v6.2.1-Full/MotorControl/MCSDK/MCLib/Any/Src/trajectory_ctrl.c ****   float fMinimumStepDuration;
 966              		.loc 1 110 3 view .LVU388
ARM GAS  C:\Users\ep_ygh\AppData\Local\Temp\ccVk9xPU.s 			page 31


 111:MCSDK_v6.2.1-Full/MotorControl/MCSDK/MCLib/Any/Src/trajectory_ctrl.c **** 
 967              		.loc 1 111 3 view .LVU389
 113:MCSDK_v6.2.1-Full/MotorControl/MCSDK/MCLib/Any/Src/trajectory_ctrl.c ****   {
 968              		.loc 1 113 3 view .LVU390
 113:MCSDK_v6.2.1-Full/MotorControl/MCSDK/MCLib/Any/Src/trajectory_ctrl.c ****   {
 969              		.loc 1 113 6 is_stmt 0 view .LVU391
 970 0050 032B     		cmp	r3, #3
 971 0052 05D0     		beq	.L74
 121:MCSDK_v6.2.1-Full/MotorControl/MCSDK/MCLib/Any/Src/trajectory_ctrl.c **** 
 972              		.loc 1 121 3 is_stmt 1 view .LVU392
 123:MCSDK_v6.2.1-Full/MotorControl/MCSDK/MCLib/Any/Src/trajectory_ctrl.c ****   {
 973              		.loc 1 123 3 view .LVU393
 123:MCSDK_v6.2.1-Full/MotorControl/MCSDK/MCLib/Any/Src/trajectory_ctrl.c ****   {
 974              		.loc 1 123 6 is_stmt 0 view .LVU394
 975 0054 23B1     		cbz	r3, .L74
 976              	.L75:
 977              	.LVL54:
 171:MCSDK_v6.2.1-Full/MotorControl/MCSDK/MCLib/Any/Src/trajectory_ctrl.c ****   return (RetConfigStatus);
 978              		.loc 1 171 3 is_stmt 1 view .LVU395
 172:MCSDK_v6.2.1-Full/MotorControl/MCSDK/MCLib/Any/Src/trajectory_ctrl.c **** }
 979              		.loc 1 172 3 view .LVU396
 172:MCSDK_v6.2.1-Full/MotorControl/MCSDK/MCLib/Any/Src/trajectory_ctrl.c **** }
 980              		.loc 1 172 3 is_stmt 0 view .LVU397
 981              	.LBE34:
 982              	.LBE40:
 404:MCSDK_v6.2.1-Full/MotorControl/MCSDK/MCLib/Any/Src/trajectory_ctrl.c ****     }
 983              		.loc 1 404 7 is_stmt 1 view .LVU398
 404:MCSDK_v6.2.1-Full/MotorControl/MCSDK/MCLib/Any/Src/trajectory_ctrl.c ****     }
 984              		.loc 1 404 32 is_stmt 0 view .LVU399
 985 0056 0123     		movs	r3, #1
 986 0058 84F86230 		strb	r3, [r4, #98]
 415:MCSDK_v6.2.1-Full/MotorControl/MCSDK/MCLib/Any/Src/trajectory_ctrl.c **** 
 987              		.loc 1 415 1 view .LVU400
 988 005c 02B0     		add	sp, sp, #8
 989              	.LCFI9:
 990              		.cfi_remember_state
 991              		.cfi_def_cfa_offset 8
 992              		@ sp needed
 993 005e 10BD     		pop	{r4, pc}
 994              	.LVL55:
 995              	.L74:
 996              	.LCFI10:
 997              		.cfi_restore_state
 998              	.LBB41:
 999              	.LBB35:
 1000              	.LBB24:
 1001              	.LBB25:
 127:MCSDK_v6.2.1-Full/MotorControl/MCSDK/MCLib/Any/Src/trajectory_ctrl.c **** 
 1002              		.loc 1 127 26 view .LVU401
 1003 0060 94ED0C7A 		vldr.32	s14, [r4, #48]
 1004              	.LBE25:
 1005              	.LBE24:
 1006              	.LBE35:
 1007              	.LBE41:
 403:MCSDK_v6.2.1-Full/MotorControl/MCSDK/MCLib/Any/Src/trajectory_ctrl.c ****       pHandle->AlignmentStatus = TC_ZERO_ALIGNMENT_START;
 1008              		.loc 1 403 7 view .LVU402
 1009 0064 DFED315A 		vldr.32	s11, .L82
ARM GAS  C:\Users\ep_ygh\AppData\Local\Temp\ccVk9xPU.s 			page 32


 1010              	.LBB42:
 1011              	.LBB36:
 1012              	.LBB30:
 1013              	.LBB26:
 134:MCSDK_v6.2.1-Full/MotorControl/MCSDK/MCLib/Any/Src/trajectory_ctrl.c ****     pHandle->FinalAngle = startingAngle + angleStep;
 1014              		.loc 1 134 24 view .LVU403
 1015 0068 DFED313A 		vldr.32	s7, .L82+4
 127:MCSDK_v6.2.1-Full/MotorControl/MCSDK/MCLib/Any/Src/trajectory_ctrl.c **** 
 1016              		.loc 1 127 26 view .LVU404
 1017 006c F2EE022A 		vmov.f32	s5, #9.0e+0
 1018 0070 27EE226A 		vmul.f32	s12, s14, s5
 131:MCSDK_v6.2.1-Full/MotorControl/MCSDK/MCLib/Any/Src/trajectory_ctrl.c **** 
 1019              		.loc 1 131 64 view .LVU405
 1020 0074 F0EE007A 		vmov.f32	s15, #2.0e+0
 1021 0078 87EE867A 		vdiv.f32	s14, s15, s12
 157:MCSDK_v6.2.1-Full/MotorControl/MCSDK/MCLib/Any/Src/trajectory_ctrl.c **** 
 1022              		.loc 1 157 25 view .LVU406
 1023 007c 0023     		movs	r3, #0
 125:MCSDK_v6.2.1-Full/MotorControl/MCSDK/MCLib/Any/Src/trajectory_ctrl.c **** 
 1024              		.loc 1 125 40 view .LVU407
 1025 007e 0122     		movs	r2, #1
 1026 0080 84F85120 		strb	r2, [r4, #81]
 157:MCSDK_v6.2.1-Full/MotorControl/MCSDK/MCLib/Any/Src/trajectory_ctrl.c **** 
 1027              		.loc 1 157 25 view .LVU408
 1028 0084 E362     		str	r3, [r4, #44]	@ float
 159:MCSDK_v6.2.1-Full/MotorControl/MCSDK/MCLib/Any/Src/trajectory_ctrl.c ****     pHandle->Acceleration = 0.0f;
 1029              		.loc 1 159 20 view .LVU409
 1030 0086 2364     		str	r3, [r4, #64]	@ float
 160:MCSDK_v6.2.1-Full/MotorControl/MCSDK/MCLib/Any/Src/trajectory_ctrl.c ****     pHandle->Theta = startingAngle;
 1031              		.loc 1 160 27 view .LVU410
 1032 0088 E363     		str	r3, [r4, #60]	@ float
 163:MCSDK_v6.2.1-Full/MotorControl/MCSDK/MCLib/Any/Src/trajectory_ctrl.c **** 
 1033              		.loc 1 163 33 view .LVU411
 1034 008a 84F86020 		strb	r2, [r4, #96]
 1035              	.LBE26:
 1036              	.LBE30:
 1037              	.LBE36:
 1038              	.LBE42:
 403:MCSDK_v6.2.1-Full/MotorControl/MCSDK/MCLib/Any/Src/trajectory_ctrl.c ****       pHandle->AlignmentStatus = TC_ZERO_ALIGNMENT_START;
 1039              		.loc 1 403 31 view .LVU412
 1040 008e DDED017A 		vldr.32	s15, [sp, #4]	@ int
 1041              	.LBB43:
 1042              	.LBB37:
 1043              	.LBB31:
 1044              	.LBB27:
 134:MCSDK_v6.2.1-Full/MotorControl/MCSDK/MCLib/Any/Src/trajectory_ctrl.c ****     pHandle->FinalAngle = startingAngle + angleStep;
 1045              		.loc 1 134 24 view .LVU413
 1046 0092 C4ED033A 		vstr.32	s7, [r4, #12]
 131:MCSDK_v6.2.1-Full/MotorControl/MCSDK/MCLib/Any/Src/trajectory_ctrl.c **** 
 1047              		.loc 1 131 41 view .LVU414
 1048 0096 BDEEC77A 		vcvt.s32.f32	s14, s14
 1049              	.LBE27:
 1050              	.LBE31:
 1051              	.LBE37:
 1052              	.LBE43:
 403:MCSDK_v6.2.1-Full/MotorControl/MCSDK/MCLib/Any/Src/trajectory_ctrl.c ****       pHandle->AlignmentStatus = TC_ZERO_ALIGNMENT_START;
 1053              		.loc 1 403 31 view .LVU415
ARM GAS  C:\Users\ep_ygh\AppData\Local\Temp\ccVk9xPU.s 			page 33


 1054 009a F8EEE77A 		vcvt.f32.s32	s15, s15
 1055              	.LBB44:
 1056              	.LBB38:
 1057              	.LBB32:
 1058              	.LBB28:
 131:MCSDK_v6.2.1-Full/MotorControl/MCSDK/MCLib/Any/Src/trajectory_ctrl.c **** 
 1059              		.loc 1 131 33 view .LVU416
 1060 009e B8EEC77A 		vcvt.f32.s32	s14, s14
 1061              	.LBE28:
 1062              	.LBE32:
 1063              	.LBE38:
 1064              	.LBE44:
 403:MCSDK_v6.2.1-Full/MotorControl/MCSDK/MCLib/Any/Src/trajectory_ctrl.c ****       pHandle->AlignmentStatus = TC_ZERO_ALIGNMENT_START;
 1065              		.loc 1 403 7 view .LVU417
 1066 00a2 87EEA53A 		vdiv.f32	s6, s15, s11
 1067              	.LVL56:
 1068              	.LBB45:
 1069              	.LBB39:
 1070              	.LBB33:
 1071              	.LBI24:
 107:MCSDK_v6.2.1-Full/MotorControl/MCSDK/MCLib/Any/Src/trajectory_ctrl.c **** {
 1072              		.loc 1 107 6 is_stmt 1 view .LVU418
 1073              	.LBB29:
 125:MCSDK_v6.2.1-Full/MotorControl/MCSDK/MCLib/Any/Src/trajectory_ctrl.c **** 
 1074              		.loc 1 125 5 view .LVU419
 127:MCSDK_v6.2.1-Full/MotorControl/MCSDK/MCLib/Any/Src/trajectory_ctrl.c **** 
 1075              		.loc 1 127 5 view .LVU420
 131:MCSDK_v6.2.1-Full/MotorControl/MCSDK/MCLib/Any/Src/trajectory_ctrl.c **** 
 1076              		.loc 1 131 5 view .LVU421
 131:MCSDK_v6.2.1-Full/MotorControl/MCSDK/MCLib/Any/Src/trajectory_ctrl.c **** 
 1077              		.loc 1 131 89 is_stmt 0 view .LVU422
 1078 00a6 27EE067A 		vmul.f32	s14, s14, s12
 152:MCSDK_v6.2.1-Full/MotorControl/MCSDK/MCLib/Any/Src/trajectory_ctrl.c **** 
 1079              		.loc 1 152 46 view .LVU423
 1080 00aa F2EE086A 		vmov.f32	s13, #1.2e+1
 138:MCSDK_v6.2.1-Full/MotorControl/MCSDK/MCLib/Any/Src/trajectory_ctrl.c **** 
 1081              		.loc 1 138 58 view .LVU424
 1082 00ae C7EE227A 		vdiv.f32	s15, s14, s5
 131:MCSDK_v6.2.1-Full/MotorControl/MCSDK/MCLib/Any/Src/trajectory_ctrl.c **** 
 1083              		.loc 1 131 31 view .LVU425
 1084 00b2 84ED007A 		vstr.32	s14, [r4]
 133:MCSDK_v6.2.1-Full/MotorControl/MCSDK/MCLib/Any/Src/trajectory_ctrl.c ****     pHandle->AngleStep = angleStep;
 1085              		.loc 1 133 5 is_stmt 1 view .LVU426
 152:MCSDK_v6.2.1-Full/MotorControl/MCSDK/MCLib/Any/Src/trajectory_ctrl.c **** 
 1086              		.loc 1 152 46 is_stmt 0 view .LVU427
 1087 00b6 27EEA67A 		vmul.f32	s14, s15, s13
 148:MCSDK_v6.2.1-Full/MotorControl/MCSDK/MCLib/Any/Src/trajectory_ctrl.c **** 
 1088              		.loc 1 148 29 view .LVU428
 1089 00ba F2EE005A 		vmov.f32	s11, #8.0e+0
 152:MCSDK_v6.2.1-Full/MotorControl/MCSDK/MCLib/Any/Src/trajectory_ctrl.c **** 
 1090              		.loc 1 152 73 view .LVU429
 1091 00be 27EE277A 		vmul.f32	s14, s14, s15
 135:MCSDK_v6.2.1-Full/MotorControl/MCSDK/MCLib/Any/Src/trajectory_ctrl.c **** 
 1092              		.loc 1 135 41 view .LVU430
 1093 00c2 33EE236A 		vadd.f32	s12, s6, s7
 1094              	.LVL57:
 152:MCSDK_v6.2.1-Full/MotorControl/MCSDK/MCLib/Any/Src/trajectory_ctrl.c **** 
ARM GAS  C:\Users\ep_ygh\AppData\Local\Temp\ccVk9xPU.s 			page 34


 1095              		.loc 1 152 100 view .LVU431
 1096 00c6 27EE277A 		vmul.f32	s14, s14, s15
 143:MCSDK_v6.2.1-Full/MotorControl/MCSDK/MCLib/Any/Src/trajectory_ctrl.c **** 
 1097              		.loc 1 143 29 view .LVU432
 1098 00ca B0EE084A 		vmov.f32	s8, #3.0e+0
 152:MCSDK_v6.2.1-Full/MotorControl/MCSDK/MCLib/Any/Src/trajectory_ctrl.c **** 
 1099              		.loc 1 152 40 view .LVU433
 1100 00ce C3EE876A 		vdiv.f32	s13, s7, s14
 148:MCSDK_v6.2.1-Full/MotorControl/MCSDK/MCLib/Any/Src/trajectory_ctrl.c **** 
 1101              		.loc 1 148 29 view .LVU434
 1102 00d2 27EEA57A 		vmul.f32	s14, s15, s11
 146:MCSDK_v6.2.1-Full/MotorControl/MCSDK/MCLib/Any/Src/trajectory_ctrl.c ****     pHandle->SubStep[4] = 7 * pHandle->SubStepDuration;   /* Sub-step 2 of deceleration phase */
 1103              		.loc 1 146 29 view .LVU435
 1104 00d6 F1EE084A 		vmov.f32	s9, #6.0e+0
 148:MCSDK_v6.2.1-Full/MotorControl/MCSDK/MCLib/Any/Src/trajectory_ctrl.c **** 
 1105              		.loc 1 148 25 view .LVU436
 1106 00da 84ED097A 		vstr.32	s14, [r4, #36]
 155:MCSDK_v6.2.1-Full/MotorControl/MCSDK/MCLib/Any/Src/trajectory_ctrl.c **** 
 1107              		.loc 1 155 30 view .LVU437
 1108 00de 36EEA67A 		vadd.f32	s14, s13, s13
 147:MCSDK_v6.2.1-Full/MotorControl/MCSDK/MCLib/Any/Src/trajectory_ctrl.c ****     pHandle->SubStep[5] = 8 * pHandle->SubStepDuration;   /* Sub-step 3 of deceleration phase */
 1109              		.loc 1 147 29 view .LVU438
 1110 00e2 B1EE0C5A 		vmov.f32	s10, #7.0e+0
 155:MCSDK_v6.2.1-Full/MotorControl/MCSDK/MCLib/Any/Src/trajectory_ctrl.c **** 
 1111              		.loc 1 155 46 view .LVU439
 1112 00e6 27EE277A 		vmul.f32	s14, s14, s15
 143:MCSDK_v6.2.1-Full/MotorControl/MCSDK/MCLib/Any/Src/trajectory_ctrl.c **** 
 1113              		.loc 1 143 29 view .LVU440
 1114 00ea 27EE844A 		vmul.f32	s8, s15, s8
 146:MCSDK_v6.2.1-Full/MotorControl/MCSDK/MCLib/Any/Src/trajectory_ctrl.c ****     pHandle->SubStep[4] = 7 * pHandle->SubStepDuration;   /* Sub-step 2 of deceleration phase */
 1115              		.loc 1 146 29 view .LVU441
 1116 00ee 67EEA44A 		vmul.f32	s9, s15, s9
 133:MCSDK_v6.2.1-Full/MotorControl/MCSDK/MCLib/Any/Src/trajectory_ctrl.c ****     pHandle->AngleStep = angleStep;
 1117              		.loc 1 133 28 view .LVU442
 1118 00f2 84ED013A 		vstr.32	s6, [r4, #4]
 134:MCSDK_v6.2.1-Full/MotorControl/MCSDK/MCLib/Any/Src/trajectory_ctrl.c ****     pHandle->FinalAngle = startingAngle + angleStep;
 1119              		.loc 1 134 5 is_stmt 1 view .LVU443
 135:MCSDK_v6.2.1-Full/MotorControl/MCSDK/MCLib/Any/Src/trajectory_ctrl.c **** 
 1120              		.loc 1 135 5 view .LVU444
 135:MCSDK_v6.2.1-Full/MotorControl/MCSDK/MCLib/Any/Src/trajectory_ctrl.c **** 
 1121              		.loc 1 135 25 is_stmt 0 view .LVU445
 1122 00f6 84ED026A 		vstr.32	s12, [r4, #8]
 138:MCSDK_v6.2.1-Full/MotorControl/MCSDK/MCLib/Any/Src/trajectory_ctrl.c **** 
 1123              		.loc 1 138 5 is_stmt 1 view .LVU446
 161:MCSDK_v6.2.1-Full/MotorControl/MCSDK/MCLib/Any/Src/trajectory_ctrl.c **** 
 1124              		.loc 1 161 20 is_stmt 0 view .LVU447
 1125 00fa 84ED123A 		vstr.32	s6, [r4, #72]
 147:MCSDK_v6.2.1-Full/MotorControl/MCSDK/MCLib/Any/Src/trajectory_ctrl.c ****     pHandle->SubStep[5] = 8 * pHandle->SubStepDuration;   /* Sub-step 3 of deceleration phase */
 1126              		.loc 1 147 29 view .LVU448
 1127 00fe 27EE856A 		vmul.f32	s12, s15, s10
 142:MCSDK_v6.2.1-Full/MotorControl/MCSDK/MCLib/Any/Src/trajectory_ctrl.c ****     pHandle->SubStep[2] = 3 * pHandle->SubStepDuration;   /* Sub-step 3 of acceleration phase */
 1128              		.loc 1 142 29 view .LVU449
 1129 0102 37EEA73A 		vadd.f32	s6, s15, s15
 138:MCSDK_v6.2.1-Full/MotorControl/MCSDK/MCLib/Any/Src/trajectory_ctrl.c **** 
 1130              		.loc 1 138 30 view .LVU450
 1131 0106 C4ED0A7A 		vstr.32	s15, [r4, #40]
 141:MCSDK_v6.2.1-Full/MotorControl/MCSDK/MCLib/Any/Src/trajectory_ctrl.c ****     pHandle->SubStep[1] = 2 * pHandle->SubStepDuration;   /* Sub-step 2 of acceleration phase */
ARM GAS  C:\Users\ep_ygh\AppData\Local\Temp\ccVk9xPU.s 			page 35


 1132              		.loc 1 141 5 is_stmt 1 view .LVU451
 141:MCSDK_v6.2.1-Full/MotorControl/MCSDK/MCLib/Any/Src/trajectory_ctrl.c ****     pHandle->SubStep[1] = 2 * pHandle->SubStepDuration;   /* Sub-step 2 of acceleration phase */
 1133              		.loc 1 141 25 is_stmt 0 view .LVU452
 1134 010a C4ED047A 		vstr.32	s15, [r4, #16]
 142:MCSDK_v6.2.1-Full/MotorControl/MCSDK/MCLib/Any/Src/trajectory_ctrl.c ****     pHandle->SubStep[2] = 3 * pHandle->SubStepDuration;   /* Sub-step 3 of acceleration phase */
 1135              		.loc 1 142 5 is_stmt 1 view .LVU453
 155:MCSDK_v6.2.1-Full/MotorControl/MCSDK/MCLib/Any/Src/trajectory_ctrl.c **** 
 1136              		.loc 1 155 73 is_stmt 0 view .LVU454
 1137 010e 67EE277A 		vmul.f32	s15, s14, s15
 142:MCSDK_v6.2.1-Full/MotorControl/MCSDK/MCLib/Any/Src/trajectory_ctrl.c ****     pHandle->SubStep[2] = 3 * pHandle->SubStepDuration;   /* Sub-step 3 of acceleration phase */
 1138              		.loc 1 142 25 view .LVU455
 1139 0112 84ED053A 		vstr.32	s6, [r4, #20]
 143:MCSDK_v6.2.1-Full/MotorControl/MCSDK/MCLib/Any/Src/trajectory_ctrl.c **** 
 1140              		.loc 1 143 5 is_stmt 1 view .LVU456
 143:MCSDK_v6.2.1-Full/MotorControl/MCSDK/MCLib/Any/Src/trajectory_ctrl.c **** 
 1141              		.loc 1 143 25 is_stmt 0 view .LVU457
 1142 0116 84ED064A 		vstr.32	s8, [r4, #24]
 146:MCSDK_v6.2.1-Full/MotorControl/MCSDK/MCLib/Any/Src/trajectory_ctrl.c ****     pHandle->SubStep[4] = 7 * pHandle->SubStepDuration;   /* Sub-step 2 of deceleration phase */
 1143              		.loc 1 146 5 is_stmt 1 view .LVU458
 146:MCSDK_v6.2.1-Full/MotorControl/MCSDK/MCLib/Any/Src/trajectory_ctrl.c ****     pHandle->SubStep[4] = 7 * pHandle->SubStepDuration;   /* Sub-step 2 of deceleration phase */
 1144              		.loc 1 146 25 is_stmt 0 view .LVU459
 1145 011a C4ED074A 		vstr.32	s9, [r4, #28]
 147:MCSDK_v6.2.1-Full/MotorControl/MCSDK/MCLib/Any/Src/trajectory_ctrl.c ****     pHandle->SubStep[5] = 8 * pHandle->SubStepDuration;   /* Sub-step 3 of deceleration phase */
 1146              		.loc 1 147 5 is_stmt 1 view .LVU460
 147:MCSDK_v6.2.1-Full/MotorControl/MCSDK/MCLib/Any/Src/trajectory_ctrl.c ****     pHandle->SubStep[5] = 8 * pHandle->SubStepDuration;   /* Sub-step 3 of deceleration phase */
 1147              		.loc 1 147 25 is_stmt 0 view .LVU461
 1148 011e 84ED086A 		vstr.32	s12, [r4, #32]
 148:MCSDK_v6.2.1-Full/MotorControl/MCSDK/MCLib/Any/Src/trajectory_ctrl.c **** 
 1149              		.loc 1 148 5 is_stmt 1 view .LVU462
 152:MCSDK_v6.2.1-Full/MotorControl/MCSDK/MCLib/Any/Src/trajectory_ctrl.c **** 
 1150              		.loc 1 152 5 view .LVU463
 152:MCSDK_v6.2.1-Full/MotorControl/MCSDK/MCLib/Any/Src/trajectory_ctrl.c **** 
 1151              		.loc 1 152 19 is_stmt 0 view .LVU464
 1152 0122 C4ED0D6A 		vstr.32	s13, [r4, #52]
 155:MCSDK_v6.2.1-Full/MotorControl/MCSDK/MCLib/Any/Src/trajectory_ctrl.c **** 
 1153              		.loc 1 155 5 is_stmt 1 view .LVU465
 155:MCSDK_v6.2.1-Full/MotorControl/MCSDK/MCLib/Any/Src/trajectory_ctrl.c **** 
 1154              		.loc 1 155 26 is_stmt 0 view .LVU466
 1155 0126 C4ED0E7A 		vstr.32	s15, [r4, #56]
 157:MCSDK_v6.2.1-Full/MotorControl/MCSDK/MCLib/Any/Src/trajectory_ctrl.c **** 
 1156              		.loc 1 157 5 is_stmt 1 view .LVU467
 159:MCSDK_v6.2.1-Full/MotorControl/MCSDK/MCLib/Any/Src/trajectory_ctrl.c ****     pHandle->Acceleration = 0.0f;
 1157              		.loc 1 159 5 view .LVU468
 160:MCSDK_v6.2.1-Full/MotorControl/MCSDK/MCLib/Any/Src/trajectory_ctrl.c ****     pHandle->Theta = startingAngle;
 1158              		.loc 1 160 5 view .LVU469
 161:MCSDK_v6.2.1-Full/MotorControl/MCSDK/MCLib/Any/Src/trajectory_ctrl.c **** 
 1159              		.loc 1 161 5 view .LVU470
 163:MCSDK_v6.2.1-Full/MotorControl/MCSDK/MCLib/Any/Src/trajectory_ctrl.c **** 
 1160              		.loc 1 163 5 view .LVU471
 165:MCSDK_v6.2.1-Full/MotorControl/MCSDK/MCLib/Any/Src/trajectory_ctrl.c **** 
 1161              		.loc 1 165 5 view .LVU472
 1162              	.LVL58:
 171:MCSDK_v6.2.1-Full/MotorControl/MCSDK/MCLib/Any/Src/trajectory_ctrl.c ****   return (RetConfigStatus);
 1163              		.loc 1 171 3 view .LVU473
 172:MCSDK_v6.2.1-Full/MotorControl/MCSDK/MCLib/Any/Src/trajectory_ctrl.c **** }
 1164              		.loc 1 172 3 view .LVU474
 172:MCSDK_v6.2.1-Full/MotorControl/MCSDK/MCLib/Any/Src/trajectory_ctrl.c **** }
ARM GAS  C:\Users\ep_ygh\AppData\Local\Temp\ccVk9xPU.s 			page 36


 1165              		.loc 1 172 10 is_stmt 0 view .LVU475
 1166 012a 94E7     		b	.L75
 1167              	.L83:
 1168              		.align	2
 1169              	.L82:
 1170 012c 83F92246 		.word	1176697219
 1171 0130 DB0FC940 		.word	1086918619
 1172              	.LBE29:
 1173              	.LBE33:
 1174              	.LBE39:
 1175              	.LBE45:
 1176              		.cfi_endproc
 1177              	.LFE1094:
 1179              		.section	.text.TC_RampCompleted,"ax",%progbits
 1180              		.align	1
 1181              		.p2align 2,,3
 1182              		.global	TC_RampCompleted
 1183              		.syntax unified
 1184              		.thumb
 1185              		.thumb_func
 1187              	TC_RampCompleted:
 1188              	.LVL59:
 1189              	.LFB1095:
 424:MCSDK_v6.2.1-Full/MotorControl/MCSDK/MCLib/Any/Src/trajectory_ctrl.c ****   bool retVal = false;
 1190              		.loc 1 424 1 is_stmt 1 view -0
 1191              		.cfi_startproc
 1192              		@ args = 0, pretend = 0, frame = 0
 1193              		@ frame_needed = 0, uses_anonymous_args = 0
 1194              		@ link register save eliminated.
 425:MCSDK_v6.2.1-Full/MotorControl/MCSDK/MCLib/Any/Src/trajectory_ctrl.c **** 
 1195              		.loc 1 425 3 view .LVU477
 428:MCSDK_v6.2.1-Full/MotorControl/MCSDK/MCLib/Any/Src/trajectory_ctrl.c ****   {
 1196              		.loc 1 428 3 view .LVU478
 435:MCSDK_v6.2.1-Full/MotorControl/MCSDK/MCLib/Any/Src/trajectory_ctrl.c ****   return (retVal);
 1197              		.loc 1 435 3 view .LVU479
 1198              		.loc 1 436 3 view .LVU480
 428:MCSDK_v6.2.1-Full/MotorControl/MCSDK/MCLib/Any/Src/trajectory_ctrl.c ****   {
 1199              		.loc 1 428 55 is_stmt 0 view .LVU481
 1200 0000 D0ED007A 		vldr.32	s15, [r0]
 1201 0004 D0ED0C6A 		vldr.32	s13, [r0, #48]
 428:MCSDK_v6.2.1-Full/MotorControl/MCSDK/MCLib/Any/Src/trajectory_ctrl.c ****   {
 1202              		.loc 1 428 6 view .LVU482
 1203 0008 90ED0B7A 		vldr.32	s14, [r0, #44]
 428:MCSDK_v6.2.1-Full/MotorControl/MCSDK/MCLib/Any/Src/trajectory_ctrl.c ****   {
 1204              		.loc 1 428 55 view .LVU483
 1205 000c 77EEA67A 		vadd.f32	s15, s15, s13
 428:MCSDK_v6.2.1-Full/MotorControl/MCSDK/MCLib/Any/Src/trajectory_ctrl.c ****   {
 1206              		.loc 1 428 6 view .LVU484
 1207 0010 B4EEE77A 		vcmpe.f32	s14, s15
 1208 0014 F1EE10FA 		vmrs	APSR_nzcv, FPSCR
 437:MCSDK_v6.2.1-Full/MotorControl/MCSDK/MCLib/Any/Src/trajectory_ctrl.c **** }
 1209              		.loc 1 437 1 view .LVU485
 1210 0018 CCBF     		ite	gt
 1211 001a 0120     		movgt	r0, #1
 1212              	.LVL60:
 1213              		.loc 1 437 1 view .LVU486
 1214 001c 0020     		movle	r0, #0
ARM GAS  C:\Users\ep_ygh\AppData\Local\Temp\ccVk9xPU.s 			page 37


 1215 001e 7047     		bx	lr
 1216              		.cfi_endproc
 1217              	.LFE1095:
 1219              		.section	.text.TC_EncoderReset,"ax",%progbits
 1220              		.align	1
 1221              		.p2align 2,,3
 1222              		.global	TC_EncoderReset
 1223              		.syntax unified
 1224              		.thumb
 1225              		.thumb_func
 1227              	TC_EncoderReset:
 1228              	.LVL61:
 1229              	.LFB1096:
 438:MCSDK_v6.2.1-Full/MotorControl/MCSDK/MCLib/Any/Src/trajectory_ctrl.c **** 
 439:MCSDK_v6.2.1-Full/MotorControl/MCSDK/MCLib/Any/Src/trajectory_ctrl.c **** /**
 440:MCSDK_v6.2.1-Full/MotorControl/MCSDK/MCLib/Any/Src/trajectory_ctrl.c ****   * @brief  Set the absolute zero mechanical position.
 441:MCSDK_v6.2.1-Full/MotorControl/MCSDK/MCLib/Any/Src/trajectory_ctrl.c ****   * @param  pHandle: handler of the current instance of the Position Control component.
 442:MCSDK_v6.2.1-Full/MotorControl/MCSDK/MCLib/Any/Src/trajectory_ctrl.c ****   */
 443:MCSDK_v6.2.1-Full/MotorControl/MCSDK/MCLib/Any/Src/trajectory_ctrl.c **** void TC_EncoderReset(PosCtrl_Handle_t *pHandle)
 444:MCSDK_v6.2.1-Full/MotorControl/MCSDK/MCLib/Any/Src/trajectory_ctrl.c **** {
 1230              		.loc 1 444 1 is_stmt 1 view -0
 1231              		.cfi_startproc
 1232              		@ args = 0, pretend = 0, frame = 0
 1233              		@ frame_needed = 0, uses_anonymous_args = 0
 1234              		@ link register save eliminated.
 445:MCSDK_v6.2.1-Full/MotorControl/MCSDK/MCLib/Any/Src/trajectory_ctrl.c ****   if ((!pHandle->EncoderAbsoluteAligned) && (pHandle->AlignmentStatus == TC_ZERO_ALIGNMENT_START))
 1235              		.loc 1 445 3 view .LVU488
 1236              		.loc 1 445 6 is_stmt 0 view .LVU489
 1237 0000 90F85220 		ldrb	r2, [r0, #82]	@ zero_extendqisi2
 444:MCSDK_v6.2.1-Full/MotorControl/MCSDK/MCLib/Any/Src/trajectory_ctrl.c ****   if ((!pHandle->EncoderAbsoluteAligned) && (pHandle->AlignmentStatus == TC_ZERO_ALIGNMENT_START))
 1238              		.loc 1 444 1 view .LVU490
 1239 0004 0346     		mov	r3, r0
 1240              		.loc 1 445 6 view .LVU491
 1241 0006 22B9     		cbnz	r2, .L85
 1242              		.loc 1 445 42 discriminator 1 view .LVU492
 1243 0008 90F862C0 		ldrb	ip, [r0, #98]	@ zero_extendqisi2
 1244 000c BCF1010F 		cmp	ip, #1
 1245 0010 00D0     		beq	.L87
 1246              	.L85:
 446:MCSDK_v6.2.1-Full/MotorControl/MCSDK/MCLib/Any/Src/trajectory_ctrl.c ****   {
 447:MCSDK_v6.2.1-Full/MotorControl/MCSDK/MCLib/Any/Src/trajectory_ctrl.c ****     pHandle->MecAngleOffset = pHandle->pENC->_Super.hMecAngle;
 448:MCSDK_v6.2.1-Full/MotorControl/MCSDK/MCLib/Any/Src/trajectory_ctrl.c ****     pHandle->pENC->_Super.wMecAngle = 0;
 449:MCSDK_v6.2.1-Full/MotorControl/MCSDK/MCLib/Any/Src/trajectory_ctrl.c ****     pHandle->EncoderAbsoluteAligned = true;
 450:MCSDK_v6.2.1-Full/MotorControl/MCSDK/MCLib/Any/Src/trajectory_ctrl.c ****     pHandle->AlignmentStatus = TC_ALIGNMENT_COMPLETED;
 451:MCSDK_v6.2.1-Full/MotorControl/MCSDK/MCLib/Any/Src/trajectory_ctrl.c ****     pHandle->PositionCtrlStatus = TC_READY_FOR_COMMAND;
 452:MCSDK_v6.2.1-Full/MotorControl/MCSDK/MCLib/Any/Src/trajectory_ctrl.c ****     pHandle->Theta = 0.0f;
 453:MCSDK_v6.2.1-Full/MotorControl/MCSDK/MCLib/Any/Src/trajectory_ctrl.c ****     ENC_SetMecAngle(pHandle->pENC, pHandle->MecAngleOffset);
 454:MCSDK_v6.2.1-Full/MotorControl/MCSDK/MCLib/Any/Src/trajectory_ctrl.c ****   }
 455:MCSDK_v6.2.1-Full/MotorControl/MCSDK/MCLib/Any/Src/trajectory_ctrl.c ****   else
 456:MCSDK_v6.2.1-Full/MotorControl/MCSDK/MCLib/Any/Src/trajectory_ctrl.c ****   {
 457:MCSDK_v6.2.1-Full/MotorControl/MCSDK/MCLib/Any/Src/trajectory_ctrl.c ****     /* Nothing to do */
 458:MCSDK_v6.2.1-Full/MotorControl/MCSDK/MCLib/Any/Src/trajectory_ctrl.c ****   }
 459:MCSDK_v6.2.1-Full/MotorControl/MCSDK/MCLib/Any/Src/trajectory_ctrl.c **** }
 1247              		.loc 1 459 1 view .LVU493
 1248 0012 7047     		bx	lr
 1249              	.L87:
 447:MCSDK_v6.2.1-Full/MotorControl/MCSDK/MCLib/Any/Src/trajectory_ctrl.c ****     pHandle->pENC->_Super.wMecAngle = 0;
ARM GAS  C:\Users\ep_ygh\AppData\Local\Temp\ccVk9xPU.s 			page 38


 1250              		.loc 1 447 5 is_stmt 1 view .LVU494
 447:MCSDK_v6.2.1-Full/MotorControl/MCSDK/MCLib/Any/Src/trajectory_ctrl.c ****     pHandle->pENC->_Super.wMecAngle = 0;
 1251              		.loc 1 447 38 is_stmt 0 view .LVU495
 1252 0014 406E     		ldr	r0, [r0, #100]
 1253              	.LVL62:
 447:MCSDK_v6.2.1-Full/MotorControl/MCSDK/MCLib/Any/Src/trajectory_ctrl.c ****     pHandle->pENC->_Super.wMecAngle = 0;
 1254              		.loc 1 447 52 view .LVU496
 1255 0016 B0F90610 		ldrsh	r1, [r0, #6]
 447:MCSDK_v6.2.1-Full/MotorControl/MCSDK/MCLib/Any/Src/trajectory_ctrl.c ****     pHandle->pENC->_Super.wMecAngle = 0;
 1256              		.loc 1 447 29 view .LVU497
 1257 001a A3F85410 		strh	r1, [r3, #84]	@ movhi
 448:MCSDK_v6.2.1-Full/MotorControl/MCSDK/MCLib/Any/Src/trajectory_ctrl.c ****     pHandle->EncoderAbsoluteAligned = true;
 1258              		.loc 1 448 5 is_stmt 1 view .LVU498
 448:MCSDK_v6.2.1-Full/MotorControl/MCSDK/MCLib/Any/Src/trajectory_ctrl.c ****     pHandle->EncoderAbsoluteAligned = true;
 1259              		.loc 1 448 37 is_stmt 0 view .LVU499
 1260 001e 8260     		str	r2, [r0, #8]
 449:MCSDK_v6.2.1-Full/MotorControl/MCSDK/MCLib/Any/Src/trajectory_ctrl.c ****     pHandle->AlignmentStatus = TC_ALIGNMENT_COMPLETED;
 1261              		.loc 1 449 5 is_stmt 1 view .LVU500
 449:MCSDK_v6.2.1-Full/MotorControl/MCSDK/MCLib/Any/Src/trajectory_ctrl.c ****     pHandle->AlignmentStatus = TC_ALIGNMENT_COMPLETED;
 1262              		.loc 1 449 37 is_stmt 0 view .LVU501
 1263 0020 83F852C0 		strb	ip, [r3, #82]
 450:MCSDK_v6.2.1-Full/MotorControl/MCSDK/MCLib/Any/Src/trajectory_ctrl.c ****     pHandle->PositionCtrlStatus = TC_READY_FOR_COMMAND;
 1264              		.loc 1 450 5 is_stmt 1 view .LVU502
 450:MCSDK_v6.2.1-Full/MotorControl/MCSDK/MCLib/Any/Src/trajectory_ctrl.c ****     pHandle->PositionCtrlStatus = TC_READY_FOR_COMMAND;
 1265              		.loc 1 450 30 is_stmt 0 view .LVU503
 1266 0024 4FF0020C 		mov	ip, #2
 1267 0028 83F862C0 		strb	ip, [r3, #98]
 451:MCSDK_v6.2.1-Full/MotorControl/MCSDK/MCLib/Any/Src/trajectory_ctrl.c ****     pHandle->Theta = 0.0f;
 1268              		.loc 1 451 5 is_stmt 1 view .LVU504
 452:MCSDK_v6.2.1-Full/MotorControl/MCSDK/MCLib/Any/Src/trajectory_ctrl.c ****     ENC_SetMecAngle(pHandle->pENC, pHandle->MecAngleOffset);
 1269              		.loc 1 452 20 is_stmt 0 view .LVU505
 1270 002c 4FF0000C 		mov	ip, #0
 451:MCSDK_v6.2.1-Full/MotorControl/MCSDK/MCLib/Any/Src/trajectory_ctrl.c ****     pHandle->Theta = 0.0f;
 1271              		.loc 1 451 33 view .LVU506
 1272 0030 83F86020 		strb	r2, [r3, #96]
 452:MCSDK_v6.2.1-Full/MotorControl/MCSDK/MCLib/Any/Src/trajectory_ctrl.c ****     ENC_SetMecAngle(pHandle->pENC, pHandle->MecAngleOffset);
 1273              		.loc 1 452 5 is_stmt 1 view .LVU507
 452:MCSDK_v6.2.1-Full/MotorControl/MCSDK/MCLib/Any/Src/trajectory_ctrl.c ****     ENC_SetMecAngle(pHandle->pENC, pHandle->MecAngleOffset);
 1274              		.loc 1 452 20 is_stmt 0 view .LVU508
 1275 0034 C3F848C0 		str	ip, [r3, #72]	@ float
 453:MCSDK_v6.2.1-Full/MotorControl/MCSDK/MCLib/Any/Src/trajectory_ctrl.c ****   }
 1276              		.loc 1 453 5 is_stmt 1 view .LVU509
 1277 0038 FFF7FEBF 		b	ENC_SetMecAngle
 1278              	.LVL63:
 453:MCSDK_v6.2.1-Full/MotorControl/MCSDK/MCLib/Any/Src/trajectory_ctrl.c ****   }
 1279              		.loc 1 453 5 is_stmt 0 view .LVU510
 1280              		.cfi_endproc
 1281              	.LFE1096:
 1283              		.section	.text.TC_GetCurrentPosition,"ax",%progbits
 1284              		.align	1
 1285              		.p2align 2,,3
 1286              		.global	TC_GetCurrentPosition
 1287              		.syntax unified
 1288              		.thumb
 1289              		.thumb_func
 1291              	TC_GetCurrentPosition:
 1292              	.LVL64:
ARM GAS  C:\Users\ep_ygh\AppData\Local\Temp\ccVk9xPU.s 			page 39


 1293              	.LFB1097:
 460:MCSDK_v6.2.1-Full/MotorControl/MCSDK/MCLib/Any/Src/trajectory_ctrl.c **** 
 461:MCSDK_v6.2.1-Full/MotorControl/MCSDK/MCLib/Any/Src/trajectory_ctrl.c **** /**
 462:MCSDK_v6.2.1-Full/MotorControl/MCSDK/MCLib/Any/Src/trajectory_ctrl.c ****   * @brief  Returns the current rotor mechanical angle, expressed in radiant.
 463:MCSDK_v6.2.1-Full/MotorControl/MCSDK/MCLib/Any/Src/trajectory_ctrl.c ****   * @param  pHandle: handler of the current instance of the Position Control component.
 464:MCSDK_v6.2.1-Full/MotorControl/MCSDK/MCLib/Any/Src/trajectory_ctrl.c ****   * @retval current mechanical position
 465:MCSDK_v6.2.1-Full/MotorControl/MCSDK/MCLib/Any/Src/trajectory_ctrl.c ****   */
 466:MCSDK_v6.2.1-Full/MotorControl/MCSDK/MCLib/Any/Src/trajectory_ctrl.c **** float TC_GetCurrentPosition(PosCtrl_Handle_t *pHandle)
 467:MCSDK_v6.2.1-Full/MotorControl/MCSDK/MCLib/Any/Src/trajectory_ctrl.c **** {
 1294              		.loc 1 467 1 is_stmt 1 view -0
 1295              		.cfi_startproc
 1296              		@ args = 0, pretend = 0, frame = 0
 1297              		@ frame_needed = 0, uses_anonymous_args = 0
 468:MCSDK_v6.2.1-Full/MotorControl/MCSDK/MCLib/Any/Src/trajectory_ctrl.c **** 
 469:MCSDK_v6.2.1-Full/MotorControl/MCSDK/MCLib/Any/Src/trajectory_ctrl.c ****   return ((float)((SPD_GetMecAngle(STC_GetSpeedSensor(pHandle->pSTC))) / RADTOS16));
 1298              		.loc 1 469 3 view .LVU512
 467:MCSDK_v6.2.1-Full/MotorControl/MCSDK/MCLib/Any/Src/trajectory_ctrl.c **** 
 1299              		.loc 1 467 1 is_stmt 0 view .LVU513
 1300 0000 08B5     		push	{r3, lr}
 1301              	.LCFI11:
 1302              		.cfi_def_cfa_offset 8
 1303              		.cfi_offset 3, -8
 1304              		.cfi_offset 14, -4
 1305              		.loc 1 469 36 view .LVU514
 1306 0002 806E     		ldr	r0, [r0, #104]
 1307              	.LVL65:
 1308              		.loc 1 469 36 view .LVU515
 1309 0004 FFF7FEFF 		bl	STC_GetSpeedSensor
 1310              	.LVL66:
 1311              		.loc 1 469 20 view .LVU516
 1312 0008 FFF7FEFF 		bl	SPD_GetMecAngle
 1313              	.LVL67:
 1314              		.loc 1 469 11 view .LVU517
 1315 000c 07EE900A 		vmov	s15, r0	@ int
 1316 0010 9FED030A 		vldr.32	s0, .L90
 1317 0014 F8EEE77A 		vcvt.f32.s32	s15, s15
 470:MCSDK_v6.2.1-Full/MotorControl/MCSDK/MCLib/Any/Src/trajectory_ctrl.c **** }
 1318              		.loc 1 470 1 view .LVU518
 1319 0018 87EE800A 		vdiv.f32	s0, s15, s0
 1320 001c 08BD     		pop	{r3, pc}
 1321              	.L91:
 1322 001e 00BF     		.align	2
 1323              	.L90:
 1324 0020 83F92246 		.word	1176697219
 1325              		.cfi_endproc
 1326              	.LFE1097:
 1328              		.section	.text.TC_GetTargetPosition,"ax",%progbits
 1329              		.align	1
 1330              		.p2align 2,,3
 1331              		.global	TC_GetTargetPosition
 1332              		.syntax unified
 1333              		.thumb
 1334              		.thumb_func
 1336              	TC_GetTargetPosition:
 1337              	.LVL68:
 1338              	.LFB1098:
 471:MCSDK_v6.2.1-Full/MotorControl/MCSDK/MCLib/Any/Src/trajectory_ctrl.c **** 
ARM GAS  C:\Users\ep_ygh\AppData\Local\Temp\ccVk9xPU.s 			page 40


 472:MCSDK_v6.2.1-Full/MotorControl/MCSDK/MCLib/Any/Src/trajectory_ctrl.c **** /**
 473:MCSDK_v6.2.1-Full/MotorControl/MCSDK/MCLib/Any/Src/trajectory_ctrl.c ****   * @brief  Returns the target rotor mechanical angle, expressed in radiant.
 474:MCSDK_v6.2.1-Full/MotorControl/MCSDK/MCLib/Any/Src/trajectory_ctrl.c ****   * @param  pHandle: handler of the current instance of the Position Control component.
 475:MCSDK_v6.2.1-Full/MotorControl/MCSDK/MCLib/Any/Src/trajectory_ctrl.c ****   * @retval Target mechanical position
 476:MCSDK_v6.2.1-Full/MotorControl/MCSDK/MCLib/Any/Src/trajectory_ctrl.c ****   */
 477:MCSDK_v6.2.1-Full/MotorControl/MCSDK/MCLib/Any/Src/trajectory_ctrl.c **** float TC_GetTargetPosition(PosCtrl_Handle_t *pHandle)
 478:MCSDK_v6.2.1-Full/MotorControl/MCSDK/MCLib/Any/Src/trajectory_ctrl.c **** {
 1339              		.loc 1 478 1 is_stmt 1 view -0
 1340              		.cfi_startproc
 1341              		@ args = 0, pretend = 0, frame = 0
 1342              		@ frame_needed = 0, uses_anonymous_args = 0
 1343              		@ link register save eliminated.
 479:MCSDK_v6.2.1-Full/MotorControl/MCSDK/MCLib/Any/Src/trajectory_ctrl.c ****   return (pHandle->FinalAngle);
 1344              		.loc 1 479 3 view .LVU520
 480:MCSDK_v6.2.1-Full/MotorControl/MCSDK/MCLib/Any/Src/trajectory_ctrl.c **** }
 1345              		.loc 1 480 1 is_stmt 0 view .LVU521
 1346 0000 90ED020A 		vldr.32	s0, [r0, #8]
 1347 0004 7047     		bx	lr
 1348              		.cfi_endproc
 1349              	.LFE1098:
 1351 0006 00BF     		.section	.text.TC_GetMoveDuration,"ax",%progbits
 1352              		.align	1
 1353              		.p2align 2,,3
 1354              		.global	TC_GetMoveDuration
 1355              		.syntax unified
 1356              		.thumb
 1357              		.thumb_func
 1359              	TC_GetMoveDuration:
 1360              	.LVL69:
 1361              	.LFB1099:
 481:MCSDK_v6.2.1-Full/MotorControl/MCSDK/MCLib/Any/Src/trajectory_ctrl.c **** 
 482:MCSDK_v6.2.1-Full/MotorControl/MCSDK/MCLib/Any/Src/trajectory_ctrl.c **** /**
 483:MCSDK_v6.2.1-Full/MotorControl/MCSDK/MCLib/Any/Src/trajectory_ctrl.c ****   * @brief  Returns the duration used to execute the movement, expressed in seconds.
 484:MCSDK_v6.2.1-Full/MotorControl/MCSDK/MCLib/Any/Src/trajectory_ctrl.c ****   * @param  pHandle handler of the current instance of the Position Control component.
 485:MCSDK_v6.2.1-Full/MotorControl/MCSDK/MCLib/Any/Src/trajectory_ctrl.c ****   * @retval Duration of programmed movement
 486:MCSDK_v6.2.1-Full/MotorControl/MCSDK/MCLib/Any/Src/trajectory_ctrl.c ****   */
 487:MCSDK_v6.2.1-Full/MotorControl/MCSDK/MCLib/Any/Src/trajectory_ctrl.c **** float TC_GetMoveDuration(PosCtrl_Handle_t *pHandle)
 488:MCSDK_v6.2.1-Full/MotorControl/MCSDK/MCLib/Any/Src/trajectory_ctrl.c **** {
 1362              		.loc 1 488 1 is_stmt 1 view -0
 1363              		.cfi_startproc
 1364              		@ args = 0, pretend = 0, frame = 0
 1365              		@ frame_needed = 0, uses_anonymous_args = 0
 1366              		@ link register save eliminated.
 489:MCSDK_v6.2.1-Full/MotorControl/MCSDK/MCLib/Any/Src/trajectory_ctrl.c ****   return (pHandle->MovementDuration);
 1367              		.loc 1 489 3 view .LVU523
 490:MCSDK_v6.2.1-Full/MotorControl/MCSDK/MCLib/Any/Src/trajectory_ctrl.c **** }
 1368              		.loc 1 490 1 is_stmt 0 view .LVU524
 1369 0000 90ED000A 		vldr.32	s0, [r0]
 1370 0004 7047     		bx	lr
 1371              		.cfi_endproc
 1372              	.LFE1099:
 1374 0006 00BF     		.section	.text.TC_GetControlPositionStatus,"ax",%progbits
 1375              		.align	1
 1376              		.p2align 2,,3
 1377              		.global	TC_GetControlPositionStatus
 1378              		.syntax unified
 1379              		.thumb
ARM GAS  C:\Users\ep_ygh\AppData\Local\Temp\ccVk9xPU.s 			page 41


 1380              		.thumb_func
 1382              	TC_GetControlPositionStatus:
 1383              	.LVL70:
 1384              	.LFB1100:
 491:MCSDK_v6.2.1-Full/MotorControl/MCSDK/MCLib/Any/Src/trajectory_ctrl.c **** 
 492:MCSDK_v6.2.1-Full/MotorControl/MCSDK/MCLib/Any/Src/trajectory_ctrl.c **** /**
 493:MCSDK_v6.2.1-Full/MotorControl/MCSDK/MCLib/Any/Src/trajectory_ctrl.c ****   * @brief  Returns the status of the position control execution.
 494:MCSDK_v6.2.1-Full/MotorControl/MCSDK/MCLib/Any/Src/trajectory_ctrl.c ****   * @param  pHandle: handler of the current instance of the Position Control component.
 495:MCSDK_v6.2.1-Full/MotorControl/MCSDK/MCLib/Any/Src/trajectory_ctrl.c ****   * @retval Position Control Status
 496:MCSDK_v6.2.1-Full/MotorControl/MCSDK/MCLib/Any/Src/trajectory_ctrl.c ****   */
 497:MCSDK_v6.2.1-Full/MotorControl/MCSDK/MCLib/Any/Src/trajectory_ctrl.c **** PosCtrlStatus_t TC_GetControlPositionStatus(PosCtrl_Handle_t *pHandle)
 498:MCSDK_v6.2.1-Full/MotorControl/MCSDK/MCLib/Any/Src/trajectory_ctrl.c **** {
 1385              		.loc 1 498 1 is_stmt 1 view -0
 1386              		.cfi_startproc
 1387              		@ args = 0, pretend = 0, frame = 0
 1388              		@ frame_needed = 0, uses_anonymous_args = 0
 1389              		@ link register save eliminated.
 499:MCSDK_v6.2.1-Full/MotorControl/MCSDK/MCLib/Any/Src/trajectory_ctrl.c ****   return (pHandle->PositionCtrlStatus);
 1390              		.loc 1 499 3 view .LVU526
 500:MCSDK_v6.2.1-Full/MotorControl/MCSDK/MCLib/Any/Src/trajectory_ctrl.c **** }
 1391              		.loc 1 500 1 is_stmt 0 view .LVU527
 1392 0000 90F86000 		ldrb	r0, [r0, #96]	@ zero_extendqisi2
 1393              	.LVL71:
 1394              		.loc 1 500 1 view .LVU528
 1395 0004 7047     		bx	lr
 1396              		.cfi_endproc
 1397              	.LFE1100:
 1399 0006 00BF     		.section	.text.TC_GetAlignmentStatus,"ax",%progbits
 1400              		.align	1
 1401              		.p2align 2,,3
 1402              		.global	TC_GetAlignmentStatus
 1403              		.syntax unified
 1404              		.thumb
 1405              		.thumb_func
 1407              	TC_GetAlignmentStatus:
 1408              	.LVL72:
 1409              	.LFB1101:
 501:MCSDK_v6.2.1-Full/MotorControl/MCSDK/MCLib/Any/Src/trajectory_ctrl.c **** 
 502:MCSDK_v6.2.1-Full/MotorControl/MCSDK/MCLib/Any/Src/trajectory_ctrl.c **** /**
 503:MCSDK_v6.2.1-Full/MotorControl/MCSDK/MCLib/Any/Src/trajectory_ctrl.c ****   * @brief  Returns the status after the rotor alignment phase.
 504:MCSDK_v6.2.1-Full/MotorControl/MCSDK/MCLib/Any/Src/trajectory_ctrl.c ****   * @param  pHandle handler of the current instance of the Position Control component.
 505:MCSDK_v6.2.1-Full/MotorControl/MCSDK/MCLib/Any/Src/trajectory_ctrl.c ****   */
 506:MCSDK_v6.2.1-Full/MotorControl/MCSDK/MCLib/Any/Src/trajectory_ctrl.c **** AlignStatus_t TC_GetAlignmentStatus(PosCtrl_Handle_t *pHandle)
 507:MCSDK_v6.2.1-Full/MotorControl/MCSDK/MCLib/Any/Src/trajectory_ctrl.c **** {
 1410              		.loc 1 507 1 is_stmt 1 view -0
 1411              		.cfi_startproc
 1412              		@ args = 0, pretend = 0, frame = 0
 1413              		@ frame_needed = 0, uses_anonymous_args = 0
 1414              		@ link register save eliminated.
 508:MCSDK_v6.2.1-Full/MotorControl/MCSDK/MCLib/Any/Src/trajectory_ctrl.c ****   return (pHandle->AlignmentStatus);
 1415              		.loc 1 508 3 view .LVU530
 509:MCSDK_v6.2.1-Full/MotorControl/MCSDK/MCLib/Any/Src/trajectory_ctrl.c **** }
 1416              		.loc 1 509 1 is_stmt 0 view .LVU531
 1417 0000 90F86200 		ldrb	r0, [r0, #98]	@ zero_extendqisi2
 1418              	.LVL73:
 1419              		.loc 1 509 1 view .LVU532
 1420 0004 7047     		bx	lr
ARM GAS  C:\Users\ep_ygh\AppData\Local\Temp\ccVk9xPU.s 			page 42


 1421              		.cfi_endproc
 1422              	.LFE1101:
 1424 0006 00BF     		.section	.text.TC_IncTick,"ax",%progbits
 1425              		.align	1
 1426              		.p2align 2,,3
 1427              		.global	TC_IncTick
 1428              		.syntax unified
 1429              		.thumb
 1430              		.thumb_func
 1432              	TC_IncTick:
 1433              	.LVL74:
 1434              	.LFB1102:
 510:MCSDK_v6.2.1-Full/MotorControl/MCSDK/MCLib/Any/Src/trajectory_ctrl.c **** 
 511:MCSDK_v6.2.1-Full/MotorControl/MCSDK/MCLib/Any/Src/trajectory_ctrl.c **** /**
 512:MCSDK_v6.2.1-Full/MotorControl/MCSDK/MCLib/Any/Src/trajectory_ctrl.c ****   * @brief  Increments Tick counter used in follow mode.
 513:MCSDK_v6.2.1-Full/MotorControl/MCSDK/MCLib/Any/Src/trajectory_ctrl.c ****   * @param  pHandle handler of the current instance of the Position Control component.
 514:MCSDK_v6.2.1-Full/MotorControl/MCSDK/MCLib/Any/Src/trajectory_ctrl.c ****   */
 515:MCSDK_v6.2.1-Full/MotorControl/MCSDK/MCLib/Any/Src/trajectory_ctrl.c **** void TC_IncTick(PosCtrl_Handle_t *pHandle)
 516:MCSDK_v6.2.1-Full/MotorControl/MCSDK/MCLib/Any/Src/trajectory_ctrl.c **** {
 1435              		.loc 1 516 1 is_stmt 1 view -0
 1436              		.cfi_startproc
 1437              		@ args = 0, pretend = 0, frame = 0
 1438              		@ frame_needed = 0, uses_anonymous_args = 0
 1439              		@ link register save eliminated.
 517:MCSDK_v6.2.1-Full/MotorControl/MCSDK/MCLib/Any/Src/trajectory_ctrl.c ****   pHandle->TcTick++;
 1440              		.loc 1 517 3 view .LVU534
 1441              		.loc 1 517 18 is_stmt 0 view .LVU535
 1442 0000 836D     		ldr	r3, [r0, #88]
 1443 0002 0133     		adds	r3, r3, #1
 1444 0004 8365     		str	r3, [r0, #88]
 518:MCSDK_v6.2.1-Full/MotorControl/MCSDK/MCLib/Any/Src/trajectory_ctrl.c **** }
 1445              		.loc 1 518 1 view .LVU536
 1446 0006 7047     		bx	lr
 1447              		.cfi_endproc
 1448              	.LFE1102:
 1450              		.text
 1451              	.Letext0:
 1452              		.file 2 "c:\\programdata\\chocolatey\\lib\\gcc-arm-embedded\\tools\\gcc-arm-none-eabi-10.3-2021.10
 1453              		.file 3 "c:\\programdata\\chocolatey\\lib\\gcc-arm-embedded\\tools\\gcc-arm-none-eabi-10.3-2021.10
 1454              		.file 4 "Drivers/CMSIS/Device/ST/STM32L4xx/Include/stm32l476xx.h"
 1455              		.file 5 "Drivers/STM32L4xx_HAL_Driver/Inc/stm32l4xx_ll_tim.h"
 1456              		.file 6 "Drivers/STM32L4xx_HAL_Driver/Inc/stm32l4xx_ll_dma.h"
 1457              		.file 7 "Drivers/CMSIS/Device/ST/STM32L4xx/Include/stm32l4xx.h"
 1458              		.file 8 "Inc/mc_type.h"
 1459              		.file 9 "MCSDK_v6.2.1-Full/MotorControl/MCSDK/MCLib/Any/Inc/pid_regulator.h"
 1460              		.file 10 "MCSDK_v6.2.1-Full/MotorControl/MCSDK/MCLib/Any/Inc/speed_pos_fdbk.h"
 1461              		.file 11 "MCSDK_v6.2.1-Full/MotorControl/MCSDK/MCLib/Any/Inc/speed_torq_ctrl.h"
 1462              		.file 12 "MCSDK_v6.2.1-Full/MotorControl/MCSDK/MCLib/Any/Inc/encoder_speed_pos_fdbk.h"
 1463              		.file 13 "MCSDK_v6.2.1-Full/MotorControl/MCSDK/MCLib/Any/Inc/trajectory_ctrl.h"
ARM GAS  C:\Users\ep_ygh\AppData\Local\Temp\ccVk9xPU.s 			page 43

